
/home/austin/pico/Thermostat/build/ProjectFiles/Thermostat.elf:     file format elf32-littlearm

Sections:
Idx Name          Size      VMA       LMA       File off  Algn
  0 .boot2        00000100  10000000  10000000  00001000  2**0
                  CONTENTS, ALLOC, LOAD, READONLY, CODE
  1 .text         0000b0a8  10000100  10000100  00001100  2**4
                  CONTENTS, ALLOC, LOAD, READONLY, CODE
  2 .rodata       00000638  1000b1a8  1000b1a8  0000c1a8  2**3
                  CONTENTS, ALLOC, LOAD, READONLY, DATA
  3 .binary_info  00000024  1000b7e0  1000b7e0  0000c7e0  2**2
                  CONTENTS, ALLOC, LOAD, DATA
  4 .ram_vector_table 000000c0  20000000  20000000  0000dce0  2**2
                  CONTENTS
  5 .data         00000c20  200000c0  1000b804  0000d0c0  2**4
                  CONTENTS, ALLOC, LOAD, READONLY, CODE
  6 .uninitialized_data 00000000  20000ce0  20000ce0  0000dda0  2**0
                  CONTENTS
  7 .scratch_x    00000000  20040000  20040000  0000dda0  2**0
                  CONTENTS
  8 .scratch_y    00000000  20041000  20041000  0000dda0  2**0
                  CONTENTS
  9 .bss          00000f6c  20000ce0  20000ce0  0000dce0  2**3
                  ALLOC
 10 .heap         00000800  20001c4c  20001c4c  0000dda0  2**2
                  CONTENTS, READONLY
 11 .stack_dummy  00000800  20041000  20041000  0000e5a0  2**5
                  CONTENTS, READONLY
 12 .ARM.attributes 00000028  00000000  00000000  0000eda0  2**0
                  CONTENTS, READONLY
 13 .comment      00000033  00000000  00000000  0000edc8  2**0
                  CONTENTS, READONLY
 14 .debug_line   000016b9  00000000  00000000  0000edfb  2**0
                  CONTENTS, READONLY, DEBUGGING, OCTETS
 15 .debug_info   00004dec  00000000  00000000  000104b4  2**0
                  CONTENTS, READONLY, DEBUGGING, OCTETS
 16 .debug_abbrev 00001109  00000000  00000000  000152a0  2**0
                  CONTENTS, READONLY, DEBUGGING, OCTETS
 17 .debug_aranges 00000118  00000000  00000000  000163b0  2**3
                  CONTENTS, READONLY, DEBUGGING, OCTETS
 18 .debug_str    00000a5c  00000000  00000000  000164c8  2**0
                  CONTENTS, READONLY, DEBUGGING, OCTETS
 19 .debug_loc    00001720  00000000  00000000  00016f24  2**0
                  CONTENTS, READONLY, DEBUGGING, OCTETS
 20 .debug_frame  000001a4  00000000  00000000  00018644  2**2
                  CONTENTS, READONLY, DEBUGGING, OCTETS
 21 .debug_ranges 00000050  00000000  00000000  000187e8  2**0
                  CONTENTS, READONLY, DEBUGGING, OCTETS

/home/austin/pico/Thermostat/build/ProjectFiles/Thermostat.elf:     file format elf32-littlearm


Disassembly of section .boot2:

10000000 <__boot2_start__>:
10000000:	4b32b500 	.word	0x4b32b500
10000004:	60582021 	.word	0x60582021
10000008:	21026898 	.word	0x21026898
1000000c:	60984388 	.word	0x60984388
10000010:	611860d8 	.word	0x611860d8
10000014:	4b2e6158 	.word	0x4b2e6158
10000018:	60992100 	.word	0x60992100
1000001c:	61592102 	.word	0x61592102
10000020:	22f02101 	.word	0x22f02101
10000024:	492b5099 	.word	0x492b5099
10000028:	21016019 	.word	0x21016019
1000002c:	20356099 	.word	0x20356099
10000030:	f844f000 	.word	0xf844f000
10000034:	42902202 	.word	0x42902202
10000038:	2106d014 	.word	0x2106d014
1000003c:	f0006619 	.word	0xf0006619
10000040:	6e19f834 	.word	0x6e19f834
10000044:	66192101 	.word	0x66192101
10000048:	66182000 	.word	0x66182000
1000004c:	f000661a 	.word	0xf000661a
10000050:	6e19f82c 	.word	0x6e19f82c
10000054:	6e196e19 	.word	0x6e196e19
10000058:	f0002005 	.word	0xf0002005
1000005c:	2101f82f 	.word	0x2101f82f
10000060:	d1f94208 	.word	0xd1f94208
10000064:	60992100 	.word	0x60992100
10000068:	6019491b 	.word	0x6019491b
1000006c:	60592100 	.word	0x60592100
10000070:	481b491a 	.word	0x481b491a
10000074:	21016001 	.word	0x21016001
10000078:	21eb6099 	.word	0x21eb6099
1000007c:	21a06619 	.word	0x21a06619
10000080:	f0006619 	.word	0xf0006619
10000084:	2100f812 	.word	0x2100f812
10000088:	49166099 	.word	0x49166099
1000008c:	60014814 	.word	0x60014814
10000090:	60992101 	.word	0x60992101
10000094:	2800bc01 	.word	0x2800bc01
10000098:	4700d000 	.word	0x4700d000
1000009c:	49134812 	.word	0x49134812
100000a0:	c8036008 	.word	0xc8036008
100000a4:	8808f380 	.word	0x8808f380
100000a8:	b5034708 	.word	0xb5034708
100000ac:	20046a99 	.word	0x20046a99
100000b0:	d0fb4201 	.word	0xd0fb4201
100000b4:	42012001 	.word	0x42012001
100000b8:	bd03d1f8 	.word	0xbd03d1f8
100000bc:	6618b502 	.word	0x6618b502
100000c0:	f7ff6618 	.word	0xf7ff6618
100000c4:	6e18fff2 	.word	0x6e18fff2
100000c8:	bd026e18 	.word	0xbd026e18
100000cc:	40020000 	.word	0x40020000
100000d0:	18000000 	.word	0x18000000
100000d4:	00070000 	.word	0x00070000
100000d8:	005f0300 	.word	0x005f0300
100000dc:	00002221 	.word	0x00002221
100000e0:	180000f4 	.word	0x180000f4
100000e4:	a0002022 	.word	0xa0002022
100000e8:	10000100 	.word	0x10000100
100000ec:	e000ed08 	.word	0xe000ed08
	...
100000fc:	7a4eb274 	.word	0x7a4eb274

Disassembly of section .text:

10000100 <__VECTOR_TABLE>:
10000100:	20042000 	.word	0x20042000
10000104:	100001f7 	.word	0x100001f7
10000108:	100001c3 	.word	0x100001c3
1000010c:	100001c5 	.word	0x100001c5
10000110:	100001c1 	.word	0x100001c1
10000114:	100001c1 	.word	0x100001c1
10000118:	100001c1 	.word	0x100001c1
1000011c:	100001c1 	.word	0x100001c1
10000120:	100001c1 	.word	0x100001c1
10000124:	100001c1 	.word	0x100001c1
10000128:	100001c1 	.word	0x100001c1
1000012c:	100094f5 	.word	0x100094f5
10000130:	100001c1 	.word	0x100001c1
10000134:	100001c1 	.word	0x100001c1
10000138:	10009551 	.word	0x10009551
1000013c:	10009595 	.word	0x10009595
10000140:	100001cd 	.word	0x100001cd
10000144:	100001cd 	.word	0x100001cd
10000148:	100001cd 	.word	0x100001cd
1000014c:	100001cd 	.word	0x100001cd
10000150:	100001cd 	.word	0x100001cd
10000154:	100001cd 	.word	0x100001cd
10000158:	100001cd 	.word	0x100001cd
1000015c:	100001cd 	.word	0x100001cd
10000160:	100001cd 	.word	0x100001cd
10000164:	100001cd 	.word	0x100001cd
10000168:	100001cd 	.word	0x100001cd
1000016c:	100001cd 	.word	0x100001cd
10000170:	100001cd 	.word	0x100001cd
10000174:	100001cd 	.word	0x100001cd
10000178:	100001cd 	.word	0x100001cd
1000017c:	100001cd 	.word	0x100001cd
10000180:	100001cd 	.word	0x100001cd
10000184:	100001cd 	.word	0x100001cd
10000188:	100001cd 	.word	0x100001cd
1000018c:	100001cd 	.word	0x100001cd
10000190:	100001cd 	.word	0x100001cd
10000194:	100001cd 	.word	0x100001cd
10000198:	100001cd 	.word	0x100001cd
1000019c:	100001cd 	.word	0x100001cd
100001a0:	100001cd 	.word	0x100001cd
100001a4:	100001cd 	.word	0x100001cd
100001a8:	100001cd 	.word	0x100001cd
100001ac:	100001cd 	.word	0x100001cd
100001b0:	100001cd 	.word	0x100001cd
100001b4:	100001cd 	.word	0x100001cd
100001b8:	100001cd 	.word	0x100001cd
100001bc:	100001cd 	.word	0x100001cd

100001c0 <isr_invalid>:
100001c0:	be00      	bkpt	0x0000

100001c2 <isr_nmi>:
100001c2:	be00      	bkpt	0x0000

100001c4 <isr_hardfault>:
100001c4:	be00      	bkpt	0x0000
100001c6:	be00      	bkpt	0x0000
100001c8:	be00      	bkpt	0x0000
100001ca:	be00      	bkpt	0x0000

100001cc <__unhandled_user_irq>:
100001cc:	f000 f84b 	bl	10000266 <__get_current_exception>
100001d0:	3810      	subs	r0, #16

100001d2 <unhandled_user_irq_num_in_r0>:
100001d2:	be00      	bkpt	0x0000

100001d4 <binary_info_header>:
100001d4:	7188ebf2 	.word	0x7188ebf2
100001d8:	1000b7e0 	.word	0x1000b7e0
100001dc:	1000b804 	.word	0x1000b804
100001e0:	10000234 	.word	0x10000234
100001e4:	e71aa390 	.word	0xe71aa390

100001e8 <_entry_point>:
100001e8:	2000      	movs	r0, #0
100001ea:	4921      	ldr	r1, [pc, #132]	; (10000270 <__get_current_exception+0xa>)
100001ec:	6008      	str	r0, [r1, #0]
100001ee:	c806      	ldmia	r0!, {r1, r2}
100001f0:	f381 8808 	msr	MSP, r1
100001f4:	4710      	bx	r2

100001f6 <_reset_handler>:
100001f6:	481f      	ldr	r0, [pc, #124]	; (10000274 <__get_current_exception+0xe>)
100001f8:	6800      	ldr	r0, [r0, #0]
100001fa:	2800      	cmp	r0, #0
100001fc:	d12f      	bne.n	1000025e <hold_non_core0_in_bootrom>
100001fe:	a40d      	add	r4, pc, #52	; (adr r4, 10000234 <data_cpy_table>)
10000200:	cc0e      	ldmia	r4!, {r1, r2, r3}
10000202:	2900      	cmp	r1, #0
10000204:	d002      	beq.n	1000020c <_reset_handler+0x16>
10000206:	f000 f812 	bl	1000022e <data_cpy>
1000020a:	e7f9      	b.n	10000200 <_reset_handler+0xa>
1000020c:	491a      	ldr	r1, [pc, #104]	; (10000278 <__get_current_exception+0x12>)
1000020e:	4a1b      	ldr	r2, [pc, #108]	; (1000027c <__get_current_exception+0x16>)
10000210:	2000      	movs	r0, #0
10000212:	e000      	b.n	10000216 <bss_fill_test>

10000214 <bss_fill_loop>:
10000214:	c101      	stmia	r1!, {r0}

10000216 <bss_fill_test>:
10000216:	4291      	cmp	r1, r2
10000218:	d1fc      	bne.n	10000214 <bss_fill_loop>

1000021a <platform_entry>:
1000021a:	4919      	ldr	r1, [pc, #100]	; (10000280 <__get_current_exception+0x1a>)
1000021c:	4788      	blx	r1
1000021e:	4919      	ldr	r1, [pc, #100]	; (10000284 <__get_current_exception+0x1e>)
10000220:	4788      	blx	r1
10000222:	4919      	ldr	r1, [pc, #100]	; (10000288 <__get_current_exception+0x22>)
10000224:	4788      	blx	r1
10000226:	be00      	bkpt	0x0000
10000228:	e7fd      	b.n	10000226 <platform_entry+0xc>

1000022a <data_cpy_loop>:
1000022a:	c901      	ldmia	r1!, {r0}
1000022c:	c201      	stmia	r2!, {r0}

1000022e <data_cpy>:
1000022e:	429a      	cmp	r2, r3
10000230:	d3fb      	bcc.n	1000022a <data_cpy_loop>
10000232:	4770      	bx	lr

10000234 <data_cpy_table>:
10000234:	1000b804 	.word	0x1000b804
10000238:	200000c0 	.word	0x200000c0
1000023c:	20000ce0 	.word	0x20000ce0
10000240:	1000c424 	.word	0x1000c424
10000244:	20040000 	.word	0x20040000
10000248:	20040000 	.word	0x20040000
1000024c:	1000c424 	.word	0x1000c424
10000250:	20041000 	.word	0x20041000
10000254:	20041000 	.word	0x20041000
10000258:	00000000 	.word	0x00000000
1000025c:	4770      	bx	lr

1000025e <hold_non_core0_in_bootrom>:
1000025e:	480b      	ldr	r0, [pc, #44]	; (1000028c <__get_current_exception+0x26>)
10000260:	f003 fba8 	bl	100039b4 <rom_func_lookup>
10000264:	4700      	bx	r0

10000266 <__get_current_exception>:
10000266:	f3ef 8005 	mrs	r0, IPSR
1000026a:	b2c0      	uxtb	r0, r0
1000026c:	4770      	bx	lr
1000026e:	0000      	.short	0x0000
10000270:	e000ed08 	.word	0xe000ed08
10000274:	d0000000 	.word	0xd0000000
10000278:	20000ce0 	.word	0x20000ce0
1000027c:	20001c4c 	.word	0x20001c4c
10000280:	10001e35 	.word	0x10001e35
10000284:	100005dd 	.word	0x100005dd
10000288:	10001f59 	.word	0x10001f59
1000028c:	00005657 	.word	0x00005657

10000290 <__bi_50>:
10000290:	50520006 5360b3ab 1000b568              ..RP..`Sh...

1000029c <__bi_38>:
1000029c:	50520006 02031c86 1000b578              ..RP....x...

100002a8 <__bi_30>:
100002a8:	50520006 9da22254 1000b584              ..RPT"......

100002b4 <__bi_22>:
100002b4:	50520005 68f465de 1000c424              ..RP.e.h$...

100002c0 <_init>:
100002c0:	b5f8      	push	{r3, r4, r5, r6, r7, lr}
100002c2:	46c0      	nop			; (mov r8, r8)

100002c4 <deregister_tm_clones>:
100002c4:	4804      	ldr	r0, [pc, #16]	; (100002d8 <deregister_tm_clones+0x14>)
100002c6:	4b05      	ldr	r3, [pc, #20]	; (100002dc <deregister_tm_clones+0x18>)
100002c8:	b510      	push	{r4, lr}
100002ca:	4283      	cmp	r3, r0
100002cc:	d003      	beq.n	100002d6 <deregister_tm_clones+0x12>
100002ce:	4b04      	ldr	r3, [pc, #16]	; (100002e0 <deregister_tm_clones+0x1c>)
100002d0:	2b00      	cmp	r3, #0
100002d2:	d000      	beq.n	100002d6 <deregister_tm_clones+0x12>
100002d4:	4798      	blx	r3
100002d6:	bd10      	pop	{r4, pc}
100002d8:	20000ce0 	.word	0x20000ce0
100002dc:	20000ce0 	.word	0x20000ce0
100002e0:	00000000 	.word	0x00000000

100002e4 <register_tm_clones>:
100002e4:	4806      	ldr	r0, [pc, #24]	; (10000300 <register_tm_clones+0x1c>)
100002e6:	4907      	ldr	r1, [pc, #28]	; (10000304 <register_tm_clones+0x20>)
100002e8:	1a09      	subs	r1, r1, r0
100002ea:	108b      	asrs	r3, r1, #2
100002ec:	0fc9      	lsrs	r1, r1, #31
100002ee:	18c9      	adds	r1, r1, r3
100002f0:	b510      	push	{r4, lr}
100002f2:	1049      	asrs	r1, r1, #1
100002f4:	d003      	beq.n	100002fe <register_tm_clones+0x1a>
100002f6:	4b04      	ldr	r3, [pc, #16]	; (10000308 <register_tm_clones+0x24>)
100002f8:	2b00      	cmp	r3, #0
100002fa:	d000      	beq.n	100002fe <register_tm_clones+0x1a>
100002fc:	4798      	blx	r3
100002fe:	bd10      	pop	{r4, pc}
10000300:	20000ce0 	.word	0x20000ce0
10000304:	20000ce0 	.word	0x20000ce0
10000308:	00000000 	.word	0x00000000

1000030c <__do_global_dtors_aux>:
1000030c:	b510      	push	{r4, lr}
1000030e:	4c07      	ldr	r4, [pc, #28]	; (1000032c <__do_global_dtors_aux+0x20>)
10000310:	7823      	ldrb	r3, [r4, #0]
10000312:	2b00      	cmp	r3, #0
10000314:	d109      	bne.n	1000032a <__do_global_dtors_aux+0x1e>
10000316:	f7ff ffd5 	bl	100002c4 <deregister_tm_clones>
1000031a:	4b05      	ldr	r3, [pc, #20]	; (10000330 <__do_global_dtors_aux+0x24>)
1000031c:	2b00      	cmp	r3, #0
1000031e:	d002      	beq.n	10000326 <__do_global_dtors_aux+0x1a>
10000320:	4804      	ldr	r0, [pc, #16]	; (10000334 <__do_global_dtors_aux+0x28>)
10000322:	e000      	b.n	10000326 <__do_global_dtors_aux+0x1a>
10000324:	bf00      	nop
10000326:	2301      	movs	r3, #1
10000328:	7023      	strb	r3, [r4, #0]
1000032a:	bd10      	pop	{r4, pc}
1000032c:	20001038 	.word	0x20001038
10000330:	00000000 	.word	0x00000000
10000334:	1000b1a8 	.word	0x1000b1a8

10000338 <frame_dummy>:
10000338:	4b05      	ldr	r3, [pc, #20]	; (10000350 <frame_dummy+0x18>)
1000033a:	b510      	push	{r4, lr}
1000033c:	2b00      	cmp	r3, #0
1000033e:	d003      	beq.n	10000348 <frame_dummy+0x10>
10000340:	4904      	ldr	r1, [pc, #16]	; (10000354 <frame_dummy+0x1c>)
10000342:	4805      	ldr	r0, [pc, #20]	; (10000358 <frame_dummy+0x20>)
10000344:	e000      	b.n	10000348 <frame_dummy+0x10>
10000346:	bf00      	nop
10000348:	f7ff ffcc 	bl	100002e4 <register_tm_clones>
1000034c:	bd10      	pop	{r4, pc}
1000034e:	46c0      	nop			; (mov r8, r8)
10000350:	00000000 	.word	0x00000000
10000354:	2000103c 	.word	0x2000103c
10000358:	1000b1a8 	.word	0x1000b1a8

1000035c <led_task>:
1000035c:	b570      	push	{r4, r5, r6, lr}
1000035e:	2019      	movs	r0, #25
10000360:	f000 fb1c 	bl	1000099c <gpio_init>
10000364:	25d0      	movs	r5, #208	; 0xd0
10000366:	2380      	movs	r3, #128	; 0x80
10000368:	062d      	lsls	r5, r5, #24
1000036a:	049b      	lsls	r3, r3, #18
1000036c:	626b      	str	r3, [r5, #36]	; 0x24
1000036e:	2480      	movs	r4, #128	; 0x80
10000370:	20fa      	movs	r0, #250	; 0xfa
10000372:	04a4      	lsls	r4, r4, #18
10000374:	616c      	str	r4, [r5, #20]
10000376:	0040      	lsls	r0, r0, #1
10000378:	f008 f8dc 	bl	10008534 <vTaskDelay>
1000037c:	20fa      	movs	r0, #250	; 0xfa
1000037e:	61ac      	str	r4, [r5, #24]
10000380:	0040      	lsls	r0, r0, #1
10000382:	f008 f8d7 	bl	10008534 <vTaskDelay>
10000386:	20fa      	movs	r0, #250	; 0xfa
10000388:	616c      	str	r4, [r5, #20]
1000038a:	0040      	lsls	r0, r0, #1
1000038c:	f008 f8d2 	bl	10008534 <vTaskDelay>
10000390:	20fa      	movs	r0, #250	; 0xfa
10000392:	61ac      	str	r4, [r5, #24]
10000394:	0040      	lsls	r0, r0, #1
10000396:	f008 f8cd 	bl	10008534 <vTaskDelay>
1000039a:	20fa      	movs	r0, #250	; 0xfa
1000039c:	616c      	str	r4, [r5, #20]
1000039e:	0040      	lsls	r0, r0, #1
100003a0:	f008 f8c8 	bl	10008534 <vTaskDelay>
100003a4:	4802      	ldr	r0, [pc, #8]	; (100003b0 <led_task+0x54>)
100003a6:	61ac      	str	r4, [r5, #24]
100003a8:	f008 f8c4 	bl	10008534 <vTaskDelay>
100003ac:	e7df      	b.n	1000036e <led_task+0x12>
100003ae:	46c0      	nop			; (mov r8, r8)
100003b0:	000005dc 	.word	0x000005dc

100003b4 <manage_aht20>:
100003b4:	b5f8      	push	{r3, r4, r5, r6, r7, lr}
100003b6:	2014      	movs	r0, #20
100003b8:	f008 f8bc 	bl	10008534 <vTaskDelay>
100003bc:	f000 fa16 	bl	100007ec <aht20_initialize>
100003c0:	4c14      	ldr	r4, [pc, #80]	; (10000414 <manage_aht20+0x60>)
100003c2:	4d15      	ldr	r5, [pc, #84]	; (10000418 <manage_aht20+0x64>)
100003c4:	4f15      	ldr	r7, [pc, #84]	; (1000041c <manage_aht20+0x68>)
100003c6:	4e16      	ldr	r6, [pc, #88]	; (10000420 <manage_aht20+0x6c>)
100003c8:	f000 fa26 	bl	10000818 <aht20_start_measurement>
100003cc:	2050      	movs	r0, #80	; 0x50
100003ce:	f008 f8b1 	bl	10008534 <vTaskDelay>
100003d2:	f000 fa39 	bl	10000848 <aht20_read_measurement>
100003d6:	f000 faa5 	bl	10000924 <aht20_get_temp>
100003da:	6020      	str	r0, [r4, #0]
100003dc:	f000 faa8 	bl	10000930 <aht20_get_humidity>
100003e0:	6028      	str	r0, [r5, #0]
100003e2:	6820      	ldr	r0, [r4, #0]
100003e4:	f000 f98a 	bl	100006fc <seven_seg_display_temp>
100003e8:	6820      	ldr	r0, [r4, #0]
100003ea:	f004 f9e1 	bl	100047b0 <__wrap___aeabi_i2f>
100003ee:	490d      	ldr	r1, [pc, #52]	; (10000424 <manage_aht20+0x70>)
100003f0:	f004 f9bd 	bl	1000476e <__wrap___aeabi_fdiv>
100003f4:	f004 fa36 	bl	10004864 <__wrap___aeabi_f2d>
100003f8:	0002      	movs	r2, r0
100003fa:	000b      	movs	r3, r1
100003fc:	0038      	movs	r0, r7
100003fe:	f004 fcd5 	bl	10004dac <__wrap_printf>
10000402:	0030      	movs	r0, r6
10000404:	6829      	ldr	r1, [r5, #0]
10000406:	f004 fcd1 	bl	10004dac <__wrap_printf>
1000040a:	4807      	ldr	r0, [pc, #28]	; (10000428 <manage_aht20+0x74>)
1000040c:	f008 f892 	bl	10008534 <vTaskDelay>
10000410:	e7da      	b.n	100003c8 <manage_aht20+0x14>
10000412:	46c0      	nop			; (mov r8, r8)
10000414:	2000038c 	.word	0x2000038c
10000418:	20000388 	.word	0x20000388
1000041c:	1000b1a8 	.word	0x1000b1a8
10000420:	1000b1b8 	.word	0x1000b1b8
10000424:	41200000 	.word	0x41200000
10000428:	00000b68 	.word	0x00000b68

1000042c <get_inputs>:
1000042c:	b5f8      	push	{r3, r4, r5, r6, r7, lr}
1000042e:	4657      	mov	r7, sl
10000430:	464e      	mov	r6, r9
10000432:	4645      	mov	r5, r8
10000434:	46de      	mov	lr, fp
10000436:	b5e0      	push	{r5, r6, r7, lr}
10000438:	25d0      	movs	r5, #208	; 0xd0
1000043a:	4b39      	ldr	r3, [pc, #228]	; (10000520 <get_inputs+0xf4>)
1000043c:	2401      	movs	r4, #1
1000043e:	4699      	mov	r9, r3
10000440:	4b38      	ldr	r3, [pc, #224]	; (10000524 <get_inputs+0xf8>)
10000442:	4f39      	ldr	r7, [pc, #228]	; (10000528 <get_inputs+0xfc>)
10000444:	469b      	mov	fp, r3
10000446:	4b39      	ldr	r3, [pc, #228]	; (1000052c <get_inputs+0x100>)
10000448:	4e39      	ldr	r6, [pc, #228]	; (10000530 <get_inputs+0x104>)
1000044a:	4698      	mov	r8, r3
1000044c:	4b39      	ldr	r3, [pc, #228]	; (10000534 <get_inputs+0x108>)
1000044e:	062d      	lsls	r5, r5, #24
10000450:	469a      	mov	sl, r3
10000452:	e03b      	b.n	100004cc <get_inputs+0xa0>
10000454:	7833      	ldrb	r3, [r6, #0]
10000456:	2b00      	cmp	r3, #0
10000458:	d005      	beq.n	10000466 <get_inputs+0x3a>
1000045a:	0022      	movs	r2, r4
1000045c:	686b      	ldr	r3, [r5, #4]
1000045e:	0cdb      	lsrs	r3, r3, #19
10000460:	401a      	ands	r2, r3
10000462:	421c      	tst	r4, r3
10000464:	d046      	beq.n	100004f4 <get_inputs+0xc8>
10000466:	4643      	mov	r3, r8
10000468:	781b      	ldrb	r3, [r3, #0]
1000046a:	2b00      	cmp	r3, #0
1000046c:	d013      	beq.n	10000496 <get_inputs+0x6a>
1000046e:	0023      	movs	r3, r4
10000470:	686a      	ldr	r2, [r5, #4]
10000472:	0d12      	lsrs	r2, r2, #20
10000474:	4013      	ands	r3, r2
10000476:	4214      	tst	r4, r2
10000478:	d10d      	bne.n	10000496 <get_inputs+0x6a>
1000047a:	4642      	mov	r2, r8
1000047c:	7013      	strb	r3, [r2, #0]
1000047e:	4a2e      	ldr	r2, [pc, #184]	; (10000538 <get_inputs+0x10c>)
10000480:	7812      	ldrb	r2, [r2, #0]
10000482:	2a00      	cmp	r2, #0
10000484:	d141      	bne.n	1000050a <get_inputs+0xde>
10000486:	2101      	movs	r1, #1
10000488:	4b2b      	ldr	r3, [pc, #172]	; (10000538 <get_inputs+0x10c>)
1000048a:	701c      	strb	r4, [r3, #0]
1000048c:	4650      	mov	r0, sl
1000048e:	f004 fc8d 	bl	10004dac <__wrap_printf>
10000492:	4643      	mov	r3, r8
10000494:	781b      	ldrb	r3, [r3, #0]
10000496:	783a      	ldrb	r2, [r7, #0]
10000498:	2a00      	cmp	r2, #0
1000049a:	d104      	bne.n	100004a6 <get_inputs+0x7a>
1000049c:	686a      	ldr	r2, [r5, #4]
1000049e:	0c92      	lsrs	r2, r2, #18
100004a0:	4214      	tst	r4, r2
100004a2:	d000      	beq.n	100004a6 <get_inputs+0x7a>
100004a4:	703c      	strb	r4, [r7, #0]
100004a6:	7832      	ldrb	r2, [r6, #0]
100004a8:	2a00      	cmp	r2, #0
100004aa:	d104      	bne.n	100004b6 <get_inputs+0x8a>
100004ac:	686a      	ldr	r2, [r5, #4]
100004ae:	0cd2      	lsrs	r2, r2, #19
100004b0:	4214      	tst	r4, r2
100004b2:	d000      	beq.n	100004b6 <get_inputs+0x8a>
100004b4:	7034      	strb	r4, [r6, #0]
100004b6:	2b00      	cmp	r3, #0
100004b8:	d105      	bne.n	100004c6 <get_inputs+0x9a>
100004ba:	686b      	ldr	r3, [r5, #4]
100004bc:	0d1b      	lsrs	r3, r3, #20
100004be:	421c      	tst	r4, r3
100004c0:	d001      	beq.n	100004c6 <get_inputs+0x9a>
100004c2:	4643      	mov	r3, r8
100004c4:	701c      	strb	r4, [r3, #0]
100004c6:	2005      	movs	r0, #5
100004c8:	f008 f834 	bl	10008534 <vTaskDelay>
100004cc:	783b      	ldrb	r3, [r7, #0]
100004ce:	2b00      	cmp	r3, #0
100004d0:	d0c0      	beq.n	10000454 <get_inputs+0x28>
100004d2:	0022      	movs	r2, r4
100004d4:	686b      	ldr	r3, [r5, #4]
100004d6:	0c9b      	lsrs	r3, r3, #18
100004d8:	401a      	ands	r2, r3
100004da:	421c      	tst	r4, r3
100004dc:	d1ba      	bne.n	10000454 <get_inputs+0x28>
100004de:	464b      	mov	r3, r9
100004e0:	703a      	strb	r2, [r7, #0]
100004e2:	464a      	mov	r2, r9
100004e4:	681b      	ldr	r3, [r3, #0]
100004e6:	4658      	mov	r0, fp
100004e8:	330a      	adds	r3, #10
100004ea:	6013      	str	r3, [r2, #0]
100004ec:	6811      	ldr	r1, [r2, #0]
100004ee:	f004 fc5d 	bl	10004dac <__wrap_printf>
100004f2:	e7af      	b.n	10000454 <get_inputs+0x28>
100004f4:	464b      	mov	r3, r9
100004f6:	7032      	strb	r2, [r6, #0]
100004f8:	464a      	mov	r2, r9
100004fa:	681b      	ldr	r3, [r3, #0]
100004fc:	4658      	mov	r0, fp
100004fe:	3b0a      	subs	r3, #10
10000500:	6013      	str	r3, [r2, #0]
10000502:	6811      	ldr	r1, [r2, #0]
10000504:	f004 fc52 	bl	10004dac <__wrap_printf>
10000508:	e7ad      	b.n	10000466 <get_inputs+0x3a>
1000050a:	2a01      	cmp	r2, #1
1000050c:	d003      	beq.n	10000516 <get_inputs+0xea>
1000050e:	4a0a      	ldr	r2, [pc, #40]	; (10000538 <get_inputs+0x10c>)
10000510:	2100      	movs	r1, #0
10000512:	7013      	strb	r3, [r2, #0]
10000514:	e7ba      	b.n	1000048c <get_inputs+0x60>
10000516:	2302      	movs	r3, #2
10000518:	4a07      	ldr	r2, [pc, #28]	; (10000538 <get_inputs+0x10c>)
1000051a:	2102      	movs	r1, #2
1000051c:	7013      	strb	r3, [r2, #0]
1000051e:	e7b5      	b.n	1000048c <get_inputs+0x60>
10000520:	20001c28 	.word	0x20001c28
10000524:	1000b1cc 	.word	0x1000b1cc
10000528:	20000392 	.word	0x20000392
1000052c:	20000390 	.word	0x20000390
10000530:	20000391 	.word	0x20000391
10000534:	1000b1e4 	.word	0x1000b1e4
10000538:	20001c46 	.word	0x20001c46

1000053c <manage_relay>:
1000053c:	b5f0      	push	{r4, r5, r6, r7, lr}
1000053e:	46d6      	mov	lr, sl
10000540:	464f      	mov	r7, r9
10000542:	4646      	mov	r6, r8
10000544:	4c1f      	ldr	r4, [pc, #124]	; (100005c4 <manage_relay+0x88>)
10000546:	b5c0      	push	{r6, r7, lr}
10000548:	6823      	ldr	r3, [r4, #0]
1000054a:	2b00      	cmp	r3, #0
1000054c:	d034      	beq.n	100005b8 <manage_relay+0x7c>
1000054e:	23d0      	movs	r3, #208	; 0xd0
10000550:	2280      	movs	r2, #128	; 0x80
10000552:	061b      	lsls	r3, r3, #24
10000554:	0212      	lsls	r2, r2, #8
10000556:	615a      	str	r2, [r3, #20]
10000558:	481b      	ldr	r0, [pc, #108]	; (100005c8 <manage_relay+0x8c>)
1000055a:	f007 ffeb 	bl	10008534 <vTaskDelay>
1000055e:	4b1b      	ldr	r3, [pc, #108]	; (100005cc <manage_relay+0x90>)
10000560:	27d0      	movs	r7, #208	; 0xd0
10000562:	4698      	mov	r8, r3
10000564:	4b1a      	ldr	r3, [pc, #104]	; (100005d0 <manage_relay+0x94>)
10000566:	4e1b      	ldr	r6, [pc, #108]	; (100005d4 <manage_relay+0x98>)
10000568:	469a      	mov	sl, r3
1000056a:	2300      	movs	r3, #0
1000056c:	4d1a      	ldr	r5, [pc, #104]	; (100005d8 <manage_relay+0x9c>)
1000056e:	4699      	mov	r9, r3
10000570:	063f      	lsls	r7, r7, #24
10000572:	e010      	b.n	10000596 <manage_relay+0x5a>
10000574:	6833      	ldr	r3, [r6, #0]
10000576:	682a      	ldr	r2, [r5, #0]
10000578:	3b0a      	subs	r3, #10
1000057a:	4293      	cmp	r3, r2
1000057c:	dd07      	ble.n	1000058e <manage_relay+0x52>
1000057e:	2301      	movs	r3, #1
10000580:	6023      	str	r3, [r4, #0]
10000582:	2380      	movs	r3, #128	; 0x80
10000584:	021b      	lsls	r3, r3, #8
10000586:	4640      	mov	r0, r8
10000588:	617b      	str	r3, [r7, #20]
1000058a:	f004 fb6d 	bl	10004c68 <__wrap_puts>
1000058e:	20fa      	movs	r0, #250	; 0xfa
10000590:	0080      	lsls	r0, r0, #2
10000592:	f007 ffcf 	bl	10008534 <vTaskDelay>
10000596:	6823      	ldr	r3, [r4, #0]
10000598:	2b00      	cmp	r3, #0
1000059a:	d0eb      	beq.n	10000574 <manage_relay+0x38>
1000059c:	6833      	ldr	r3, [r6, #0]
1000059e:	682a      	ldr	r2, [r5, #0]
100005a0:	330a      	adds	r3, #10
100005a2:	4293      	cmp	r3, r2
100005a4:	daf3      	bge.n	1000058e <manage_relay+0x52>
100005a6:	464b      	mov	r3, r9
100005a8:	6023      	str	r3, [r4, #0]
100005aa:	2380      	movs	r3, #128	; 0x80
100005ac:	021b      	lsls	r3, r3, #8
100005ae:	4650      	mov	r0, sl
100005b0:	61bb      	str	r3, [r7, #24]
100005b2:	f004 fb59 	bl	10004c68 <__wrap_puts>
100005b6:	e7ea      	b.n	1000058e <manage_relay+0x52>
100005b8:	23d0      	movs	r3, #208	; 0xd0
100005ba:	2280      	movs	r2, #128	; 0x80
100005bc:	061b      	lsls	r3, r3, #24
100005be:	0212      	lsls	r2, r2, #8
100005c0:	619a      	str	r2, [r3, #24]
100005c2:	e7c9      	b.n	10000558 <manage_relay+0x1c>
100005c4:	20001bf8 	.word	0x20001bf8
100005c8:	00001388 	.word	0x00001388
100005cc:	1000b200 	.word	0x1000b200
100005d0:	1000b20c 	.word	0x1000b20c
100005d4:	20001c28 	.word	0x20001c28
100005d8:	2000038c 	.word	0x2000038c

100005dc <main>:
100005dc:	b570      	push	{r4, r5, r6, lr}
100005de:	2400      	movs	r4, #0
100005e0:	b084      	sub	sp, #16
100005e2:	f004 fbef 	bl	10004dc4 <stdio_init_all>
100005e6:	f000 f8c7 	bl	10000778 <i2c_module_initialize>
100005ea:	f000 f865 	bl	100006b8 <seven_seg_begin>
100005ee:	22af      	movs	r2, #175	; 0xaf
100005f0:	4b27      	ldr	r3, [pc, #156]	; (10000690 <main+0xb4>)
100005f2:	0092      	lsls	r2, r2, #2
100005f4:	701c      	strb	r4, [r3, #0]
100005f6:	4b27      	ldr	r3, [pc, #156]	; (10000694 <main+0xb8>)
100005f8:	2012      	movs	r0, #18
100005fa:	601a      	str	r2, [r3, #0]
100005fc:	f000 f9ce 	bl	1000099c <gpio_init>
10000600:	2013      	movs	r0, #19
10000602:	f000 f9cb 	bl	1000099c <gpio_init>
10000606:	2014      	movs	r0, #20
10000608:	f000 f9c8 	bl	1000099c <gpio_init>
1000060c:	25d0      	movs	r5, #208	; 0xd0
1000060e:	2380      	movs	r3, #128	; 0x80
10000610:	062d      	lsls	r5, r5, #24
10000612:	02db      	lsls	r3, r3, #11
10000614:	62ab      	str	r3, [r5, #40]	; 0x28
10000616:	2380      	movs	r3, #128	; 0x80
10000618:	031b      	lsls	r3, r3, #12
1000061a:	62ab      	str	r3, [r5, #40]	; 0x28
1000061c:	2380      	movs	r3, #128	; 0x80
1000061e:	035b      	lsls	r3, r3, #13
10000620:	62ab      	str	r3, [r5, #40]	; 0x28
10000622:	200f      	movs	r0, #15
10000624:	f000 f9ba 	bl	1000099c <gpio_init>
10000628:	2380      	movs	r3, #128	; 0x80
1000062a:	021b      	lsls	r3, r3, #8
1000062c:	626b      	str	r3, [r5, #36]	; 0x24
1000062e:	2201      	movs	r2, #1
10000630:	2100      	movs	r1, #0
10000632:	200f      	movs	r0, #15
10000634:	f000 f99a 	bl	1000096c <gpio_set_pulls>
10000638:	2501      	movs	r5, #1
1000063a:	2280      	movs	r2, #128	; 0x80
1000063c:	ab03      	add	r3, sp, #12
1000063e:	4916      	ldr	r1, [pc, #88]	; (10000698 <main+0xbc>)
10000640:	9301      	str	r3, [sp, #4]
10000642:	0052      	lsls	r2, r2, #1
10000644:	2300      	movs	r3, #0
10000646:	4815      	ldr	r0, [pc, #84]	; (1000069c <main+0xc0>)
10000648:	9500      	str	r5, [sp, #0]
1000064a:	2602      	movs	r6, #2
1000064c:	9403      	str	r4, [sp, #12]
1000064e:	f007 fabf 	bl	10007bd0 <xTaskCreate>
10000652:	2280      	movs	r2, #128	; 0x80
10000654:	2300      	movs	r3, #0
10000656:	4912      	ldr	r1, [pc, #72]	; (100006a0 <main+0xc4>)
10000658:	0052      	lsls	r2, r2, #1
1000065a:	4812      	ldr	r0, [pc, #72]	; (100006a4 <main+0xc8>)
1000065c:	9401      	str	r4, [sp, #4]
1000065e:	9600      	str	r6, [sp, #0]
10000660:	f007 fab6 	bl	10007bd0 <xTaskCreate>
10000664:	2280      	movs	r2, #128	; 0x80
10000666:	2300      	movs	r3, #0
10000668:	490f      	ldr	r1, [pc, #60]	; (100006a8 <main+0xcc>)
1000066a:	0052      	lsls	r2, r2, #1
1000066c:	480f      	ldr	r0, [pc, #60]	; (100006ac <main+0xd0>)
1000066e:	9401      	str	r4, [sp, #4]
10000670:	9600      	str	r6, [sp, #0]
10000672:	f007 faad 	bl	10007bd0 <xTaskCreate>
10000676:	2280      	movs	r2, #128	; 0x80
10000678:	2300      	movs	r3, #0
1000067a:	490d      	ldr	r1, [pc, #52]	; (100006b0 <main+0xd4>)
1000067c:	0052      	lsls	r2, r2, #1
1000067e:	480d      	ldr	r0, [pc, #52]	; (100006b4 <main+0xd8>)
10000680:	9401      	str	r4, [sp, #4]
10000682:	9500      	str	r5, [sp, #0]
10000684:	f007 faa4 	bl	10007bd0 <xTaskCreate>
10000688:	f007 fdb4 	bl	100081f4 <vTaskStartScheduler>
1000068c:	e7fe      	b.n	1000068c <main+0xb0>
1000068e:	46c0      	nop			; (mov r8, r8)
10000690:	20001c46 	.word	0x20001c46
10000694:	20001c28 	.word	0x20001c28
10000698:	1000b218 	.word	0x1000b218
1000069c:	1000035d 	.word	0x1000035d
100006a0:	1000b224 	.word	0x1000b224
100006a4:	100003b5 	.word	0x100003b5
100006a8:	1000b234 	.word	0x1000b234
100006ac:	1000042d 	.word	0x1000042d
100006b0:	1000b240 	.word	0x1000b240
100006b4:	1000053d 	.word	0x1000053d

100006b8 <seven_seg_begin>:
100006b8:	b500      	push	{lr}
100006ba:	b083      	sub	sp, #12
100006bc:	466a      	mov	r2, sp
100006be:	4b0d      	ldr	r3, [pc, #52]	; (100006f4 <seven_seg_begin+0x3c>)
100006c0:	4669      	mov	r1, sp
100006c2:	781b      	ldrb	r3, [r3, #0]
100006c4:	2070      	movs	r0, #112	; 0x70
100006c6:	7013      	strb	r3, [r2, #0]
100006c8:	2201      	movs	r2, #1
100006ca:	f000 f871 	bl	100007b0 <i2c_module_send>
100006ce:	466a      	mov	r2, sp
100006d0:	4b09      	ldr	r3, [pc, #36]	; (100006f8 <seven_seg_begin+0x40>)
100006d2:	a901      	add	r1, sp, #4
100006d4:	781b      	ldrb	r3, [r3, #0]
100006d6:	2070      	movs	r0, #112	; 0x70
100006d8:	7113      	strb	r3, [r2, #4]
100006da:	2201      	movs	r2, #1
100006dc:	f000 f868 	bl	100007b0 <i2c_module_send>
100006e0:	23ef      	movs	r3, #239	; 0xef
100006e2:	466a      	mov	r2, sp
100006e4:	2070      	movs	r0, #112	; 0x70
100006e6:	7113      	strb	r3, [r2, #4]
100006e8:	a901      	add	r1, sp, #4
100006ea:	2201      	movs	r2, #1
100006ec:	f000 f860 	bl	100007b0 <i2c_module_send>
100006f0:	b003      	add	sp, #12
100006f2:	bd00      	pop	{pc}
100006f4:	1000b250 	.word	0x1000b250
100006f8:	1000b254 	.word	0x1000b254

100006fc <seven_seg_display_temp>:
100006fc:	0002      	movs	r2, r0
100006fe:	b5f0      	push	{r4, r5, r6, r7, lr}
10000700:	4b1a      	ldr	r3, [pc, #104]	; (1000076c <seven_seg_display_temp+0x70>)
10000702:	3a1e      	subs	r2, #30
10000704:	0004      	movs	r4, r0
10000706:	b083      	sub	sp, #12
10000708:	429a      	cmp	r2, r3
1000070a:	d901      	bls.n	10000710 <seven_seg_display_temp+0x14>
1000070c:	b003      	add	sp, #12
1000070e:	bdf0      	pop	{r4, r5, r6, r7, pc}
10000710:	210a      	movs	r1, #10
10000712:	f003 f981 	bl	10003a18 <__wrap___aeabi_idiv>
10000716:	210a      	movs	r1, #10
10000718:	0006      	movs	r6, r0
1000071a:	0020      	movs	r0, r4
1000071c:	f003 f97c 	bl	10003a18 <__wrap___aeabi_idiv>
10000720:	4f13      	ldr	r7, [pc, #76]	; (10000770 <seven_seg_display_temp+0x74>)
10000722:	4d14      	ldr	r5, [pc, #80]	; (10000774 <seven_seg_display_temp+0x78>)
10000724:	5c7b      	ldrb	r3, [r7, r1]
10000726:	0030      	movs	r0, r6
10000728:	712b      	strb	r3, [r5, #4]
1000072a:	210a      	movs	r1, #10
1000072c:	f003 f974 	bl	10003a18 <__wrap___aeabi_idiv>
10000730:	2380      	movs	r3, #128	; 0x80
10000732:	2400      	movs	r4, #0
10000734:	5c7a      	ldrb	r2, [r7, r1]
10000736:	425b      	negs	r3, r3
10000738:	4313      	orrs	r3, r2
1000073a:	0030      	movs	r0, r6
1000073c:	70eb      	strb	r3, [r5, #3]
1000073e:	210a      	movs	r1, #10
10000740:	70ac      	strb	r4, [r5, #2]
10000742:	f003 f969 	bl	10003a18 <__wrap___aeabi_idiv>
10000746:	5c3b      	ldrb	r3, [r7, r0]
10000748:	702c      	strb	r4, [r5, #0]
1000074a:	706b      	strb	r3, [r5, #1]
1000074c:	ae01      	add	r6, sp, #4
1000074e:	782b      	ldrb	r3, [r5, #0]
10000750:	7034      	strb	r4, [r6, #0]
10000752:	3402      	adds	r4, #2
10000754:	2202      	movs	r2, #2
10000756:	0031      	movs	r1, r6
10000758:	2070      	movs	r0, #112	; 0x70
1000075a:	7073      	strb	r3, [r6, #1]
1000075c:	b2e4      	uxtb	r4, r4
1000075e:	f000 f827 	bl	100007b0 <i2c_module_send>
10000762:	3501      	adds	r5, #1
10000764:	2c0a      	cmp	r4, #10
10000766:	d1f2      	bne.n	1000074e <seven_seg_display_temp+0x52>
10000768:	e7d0      	b.n	1000070c <seven_seg_display_temp+0x10>
1000076a:	46c0      	nop			; (mov r8, r8)
1000076c:	000003c9 	.word	0x000003c9
10000770:	1000b258 	.word	0x1000b258
10000774:	200017c4 	.word	0x200017c4

10000778 <i2c_module_initialize>:
10000778:	b510      	push	{r4, lr}
1000077a:	490b      	ldr	r1, [pc, #44]	; (100007a8 <i2c_module_initialize+0x30>)
1000077c:	480b      	ldr	r0, [pc, #44]	; (100007ac <i2c_module_initialize+0x34>)
1000077e:	f007 f851 	bl	10007824 <i2c_init>
10000782:	2103      	movs	r1, #3
10000784:	2004      	movs	r0, #4
10000786:	f000 f8d9 	bl	1000093c <gpio_set_function>
1000078a:	2103      	movs	r1, #3
1000078c:	2005      	movs	r0, #5
1000078e:	f000 f8d5 	bl	1000093c <gpio_set_function>
10000792:	2200      	movs	r2, #0
10000794:	2101      	movs	r1, #1
10000796:	2004      	movs	r0, #4
10000798:	f000 f8e8 	bl	1000096c <gpio_set_pulls>
1000079c:	2200      	movs	r2, #0
1000079e:	2101      	movs	r1, #1
100007a0:	2005      	movs	r0, #5
100007a2:	f000 f8e3 	bl	1000096c <gpio_set_pulls>
100007a6:	bd10      	pop	{r4, pc}
100007a8:	000186a0 	.word	0x000186a0
100007ac:	20000470 	.word	0x20000470

100007b0 <i2c_module_send>:
100007b0:	b510      	push	{r4, lr}
100007b2:	0013      	movs	r3, r2
100007b4:	000c      	movs	r4, r1
100007b6:	2200      	movs	r2, #0
100007b8:	b082      	sub	sp, #8
100007ba:	b2c1      	uxtb	r1, r0
100007bc:	9200      	str	r2, [sp, #0]
100007be:	4803      	ldr	r0, [pc, #12]	; (100007cc <i2c_module_send+0x1c>)
100007c0:	0022      	movs	r2, r4
100007c2:	f007 f859 	bl	10007878 <i2c_write_blocking>
100007c6:	b002      	add	sp, #8
100007c8:	bd10      	pop	{r4, pc}
100007ca:	46c0      	nop			; (mov r8, r8)
100007cc:	20000470 	.word	0x20000470

100007d0 <i2c_module_read>:
100007d0:	2300      	movs	r3, #0
100007d2:	b500      	push	{lr}
100007d4:	b083      	sub	sp, #12
100007d6:	000a      	movs	r2, r1
100007d8:	9300      	str	r3, [sp, #0]
100007da:	b2c1      	uxtb	r1, r0
100007dc:	3306      	adds	r3, #6
100007de:	4802      	ldr	r0, [pc, #8]	; (100007e8 <i2c_module_read+0x18>)
100007e0:	f007 f8b2 	bl	10007948 <i2c_read_blocking>
100007e4:	b003      	add	sp, #12
100007e6:	bd00      	pop	{pc}
100007e8:	20000470 	.word	0x20000470

100007ec <aht20_initialize>:
100007ec:	b500      	push	{lr}
100007ee:	b083      	sub	sp, #12
100007f0:	4669      	mov	r1, sp
100007f2:	4b07      	ldr	r3, [pc, #28]	; (10000810 <aht20_initialize+0x24>)
100007f4:	2038      	movs	r0, #56	; 0x38
100007f6:	881a      	ldrh	r2, [r3, #0]
100007f8:	808a      	strh	r2, [r1, #4]
100007fa:	789b      	ldrb	r3, [r3, #2]
100007fc:	2203      	movs	r2, #3
100007fe:	718b      	strb	r3, [r1, #6]
10000800:	a901      	add	r1, sp, #4
10000802:	f7ff ffd5 	bl	100007b0 <i2c_module_send>
10000806:	2201      	movs	r2, #1
10000808:	4b02      	ldr	r3, [pc, #8]	; (10000814 <aht20_initialize+0x28>)
1000080a:	701a      	strb	r2, [r3, #0]
1000080c:	b003      	add	sp, #12
1000080e:	bd00      	pop	{pc}
10000810:	1000b274 	.word	0x1000b274
10000814:	20001c47 	.word	0x20001c47

10000818 <aht20_start_measurement>:
10000818:	b500      	push	{lr}
1000081a:	4b09      	ldr	r3, [pc, #36]	; (10000840 <aht20_start_measurement+0x28>)
1000081c:	b083      	sub	sp, #12
1000081e:	781b      	ldrb	r3, [r3, #0]
10000820:	2b00      	cmp	r3, #0
10000822:	d00a      	beq.n	1000083a <aht20_start_measurement+0x22>
10000824:	4669      	mov	r1, sp
10000826:	4b07      	ldr	r3, [pc, #28]	; (10000844 <aht20_start_measurement+0x2c>)
10000828:	2038      	movs	r0, #56	; 0x38
1000082a:	881a      	ldrh	r2, [r3, #0]
1000082c:	808a      	strh	r2, [r1, #4]
1000082e:	789b      	ldrb	r3, [r3, #2]
10000830:	2203      	movs	r2, #3
10000832:	718b      	strb	r3, [r1, #6]
10000834:	a901      	add	r1, sp, #4
10000836:	f7ff ffbb 	bl	100007b0 <i2c_module_send>
1000083a:	b003      	add	sp, #12
1000083c:	bd00      	pop	{pc}
1000083e:	46c0      	nop			; (mov r8, r8)
10000840:	20001c47 	.word	0x20001c47
10000844:	1000b278 	.word	0x1000b278

10000848 <aht20_read_measurement>:
10000848:	b510      	push	{r4, lr}
1000084a:	4b2b      	ldr	r3, [pc, #172]	; (100008f8 <aht20_read_measurement+0xb0>)
1000084c:	b082      	sub	sp, #8
1000084e:	781b      	ldrb	r3, [r3, #0]
10000850:	2b00      	cmp	r3, #0
10000852:	d101      	bne.n	10000858 <aht20_read_measurement+0x10>
10000854:	b002      	add	sp, #8
10000856:	bd10      	pop	{r4, pc}
10000858:	4669      	mov	r1, sp
1000085a:	2206      	movs	r2, #6
1000085c:	2038      	movs	r0, #56	; 0x38
1000085e:	f7ff ffb7 	bl	100007d0 <i2c_module_read>
10000862:	466b      	mov	r3, sp
10000864:	466a      	mov	r2, sp
10000866:	785b      	ldrb	r3, [r3, #1]
10000868:	7890      	ldrb	r0, [r2, #2]
1000086a:	78d4      	ldrb	r4, [r2, #3]
1000086c:	021b      	lsls	r3, r3, #8
1000086e:	18c0      	adds	r0, r0, r3
10000870:	0100      	lsls	r0, r0, #4
10000872:	0923      	lsrs	r3, r4, #4
10000874:	1818      	adds	r0, r3, r0
10000876:	f003 ff95 	bl	100047a4 <__wrap___aeabi_ui2f>
1000087a:	21d6      	movs	r1, #214	; 0xd6
1000087c:	0589      	lsls	r1, r1, #22
1000087e:	f003 ff8a 	bl	10004796 <__wrap___aeabi_fmul>
10000882:	491e      	ldr	r1, [pc, #120]	; (100008fc <aht20_read_measurement+0xb4>)
10000884:	f003 ff87 	bl	10004796 <__wrap___aeabi_fmul>
10000888:	f003 ffb4 	bl	100047f4 <__wrap___aeabi_f2iz>
1000088c:	4b1c      	ldr	r3, [pc, #112]	; (10000900 <aht20_read_measurement+0xb8>)
1000088e:	466a      	mov	r2, sp
10000890:	6018      	str	r0, [r3, #0]
10000892:	200f      	movs	r0, #15
10000894:	4020      	ands	r0, r4
10000896:	0203      	lsls	r3, r0, #8
10000898:	7910      	ldrb	r0, [r2, #4]
1000089a:	18c0      	adds	r0, r0, r3
1000089c:	7953      	ldrb	r3, [r2, #5]
1000089e:	0200      	lsls	r0, r0, #8
100008a0:	1818      	adds	r0, r3, r0
100008a2:	f003 ff7f 	bl	100047a4 <__wrap___aeabi_ui2f>
100008a6:	f003 ffdd 	bl	10004864 <__wrap___aeabi_f2d>
100008aa:	2200      	movs	r2, #0
100008ac:	4b15      	ldr	r3, [pc, #84]	; (10000904 <aht20_read_measurement+0xbc>)
100008ae:	f003 fb4e 	bl	10003f4e <__wrap___aeabi_dmul>
100008b2:	2200      	movs	r2, #0
100008b4:	4b14      	ldr	r3, [pc, #80]	; (10000908 <aht20_read_measurement+0xc0>)
100008b6:	f003 fb4a 	bl	10003f4e <__wrap___aeabi_dmul>
100008ba:	2200      	movs	r2, #0
100008bc:	4b13      	ldr	r3, [pc, #76]	; (1000090c <aht20_read_measurement+0xc4>)
100008be:	f003 fb16 	bl	10003eee <__wrap___aeabi_dsub>
100008c2:	f003 fbfd 	bl	100040c0 <__wrap___aeabi_d2f>
100008c6:	4912      	ldr	r1, [pc, #72]	; (10000910 <aht20_read_measurement+0xc8>)
100008c8:	f003 ff65 	bl	10004796 <__wrap___aeabi_fmul>
100008cc:	4911      	ldr	r1, [pc, #68]	; (10000914 <aht20_read_measurement+0xcc>)
100008ce:	f003 ff4e 	bl	1000476e <__wrap___aeabi_fdiv>
100008d2:	2184      	movs	r1, #132	; 0x84
100008d4:	05c9      	lsls	r1, r1, #23
100008d6:	f003 ff47 	bl	10004768 <__wrap___aeabi_fadd>
100008da:	490f      	ldr	r1, [pc, #60]	; (10000918 <aht20_read_measurement+0xd0>)
100008dc:	f003 ff5b 	bl	10004796 <__wrap___aeabi_fmul>
100008e0:	f003 ff88 	bl	100047f4 <__wrap___aeabi_f2iz>
100008e4:	0002      	movs	r2, r0
100008e6:	4b0d      	ldr	r3, [pc, #52]	; (1000091c <aht20_read_measurement+0xd4>)
100008e8:	3a2e      	subs	r2, #46	; 0x2e
100008ea:	3aff      	subs	r2, #255	; 0xff
100008ec:	429a      	cmp	r2, r3
100008ee:	d8b1      	bhi.n	10000854 <aht20_read_measurement+0xc>
100008f0:	4b0b      	ldr	r3, [pc, #44]	; (10000920 <aht20_read_measurement+0xd8>)
100008f2:	6018      	str	r0, [r3, #0]
100008f4:	e7ae      	b.n	10000854 <aht20_read_measurement+0xc>
100008f6:	46c0      	nop			; (mov r8, r8)
100008f8:	20001c47 	.word	0x20001c47
100008fc:	42c80000 	.word	0x42c80000
10000900:	200017d8 	.word	0x200017d8
10000904:	3eb00000 	.word	0x3eb00000
10000908:	40690000 	.word	0x40690000
1000090c:	40490000 	.word	0x40490000
10000910:	41100000 	.word	0x41100000
10000914:	40a00000 	.word	0x40a00000
10000918:	41200000 	.word	0x41200000
1000091c:	0000031e 	.word	0x0000031e
10000920:	20001c24 	.word	0x20001c24

10000924 <aht20_get_temp>:
10000924:	4b01      	ldr	r3, [pc, #4]	; (1000092c <aht20_get_temp+0x8>)
10000926:	6818      	ldr	r0, [r3, #0]
10000928:	4770      	bx	lr
1000092a:	46c0      	nop			; (mov r8, r8)
1000092c:	20001c24 	.word	0x20001c24

10000930 <aht20_get_humidity>:
10000930:	4b01      	ldr	r3, [pc, #4]	; (10000938 <aht20_get_humidity+0x8>)
10000932:	6818      	ldr	r0, [r3, #0]
10000934:	4770      	bx	lr
10000936:	46c0      	nop			; (mov r8, r8)
10000938:	200017d8 	.word	0x200017d8

1000093c <gpio_set_function>:
1000093c:	4a09      	ldr	r2, [pc, #36]	; (10000964 <gpio_set_function+0x28>)
1000093e:	0083      	lsls	r3, r0, #2
10000940:	4694      	mov	ip, r2
10000942:	2240      	movs	r2, #64	; 0x40
10000944:	4463      	add	r3, ip
10000946:	b510      	push	{r4, lr}
10000948:	681c      	ldr	r4, [r3, #0]
1000094a:	00c0      	lsls	r0, r0, #3
1000094c:	4062      	eors	r2, r4
1000094e:	24c0      	movs	r4, #192	; 0xc0
10000950:	4014      	ands	r4, r2
10000952:	2280      	movs	r2, #128	; 0x80
10000954:	0152      	lsls	r2, r2, #5
10000956:	4313      	orrs	r3, r2
10000958:	601c      	str	r4, [r3, #0]
1000095a:	4b03      	ldr	r3, [pc, #12]	; (10000968 <gpio_set_function+0x2c>)
1000095c:	469c      	mov	ip, r3
1000095e:	4460      	add	r0, ip
10000960:	6041      	str	r1, [r0, #4]
10000962:	bd10      	pop	{r4, pc}
10000964:	4001c004 	.word	0x4001c004
10000968:	40014000 	.word	0x40014000

1000096c <gpio_set_pulls>:
1000096c:	4b0a      	ldr	r3, [pc, #40]	; (10000998 <gpio_set_pulls+0x2c>)
1000096e:	0080      	lsls	r0, r0, #2
10000970:	469c      	mov	ip, r3
10000972:	2304      	movs	r3, #4
10000974:	4460      	add	r0, ip
10000976:	2900      	cmp	r1, #0
10000978:	d001      	beq.n	1000097e <gpio_set_pulls+0x12>
1000097a:	230c      	movs	r3, #12
1000097c:	2108      	movs	r1, #8
1000097e:	2a00      	cmp	r2, #0
10000980:	d100      	bne.n	10000984 <gpio_set_pulls+0x18>
10000982:	000b      	movs	r3, r1
10000984:	6802      	ldr	r2, [r0, #0]
10000986:	4053      	eors	r3, r2
10000988:	220c      	movs	r2, #12
1000098a:	401a      	ands	r2, r3
1000098c:	2380      	movs	r3, #128	; 0x80
1000098e:	015b      	lsls	r3, r3, #5
10000990:	4318      	orrs	r0, r3
10000992:	6002      	str	r2, [r0, #0]
10000994:	4770      	bx	lr
10000996:	46c0      	nop			; (mov r8, r8)
10000998:	4001c004 	.word	0x4001c004

1000099c <gpio_init>:
1000099c:	2301      	movs	r3, #1
1000099e:	22d0      	movs	r2, #208	; 0xd0
100009a0:	4083      	lsls	r3, r0
100009a2:	0612      	lsls	r2, r2, #24
100009a4:	6293      	str	r3, [r2, #40]	; 0x28
100009a6:	6193      	str	r3, [r2, #24]
100009a8:	4a09      	ldr	r2, [pc, #36]	; (100009d0 <gpio_init+0x34>)
100009aa:	0083      	lsls	r3, r0, #2
100009ac:	4694      	mov	ip, r2
100009ae:	2240      	movs	r2, #64	; 0x40
100009b0:	4463      	add	r3, ip
100009b2:	6819      	ldr	r1, [r3, #0]
100009b4:	00c0      	lsls	r0, r0, #3
100009b6:	404a      	eors	r2, r1
100009b8:	21c0      	movs	r1, #192	; 0xc0
100009ba:	4011      	ands	r1, r2
100009bc:	2280      	movs	r2, #128	; 0x80
100009be:	0152      	lsls	r2, r2, #5
100009c0:	4313      	orrs	r3, r2
100009c2:	6019      	str	r1, [r3, #0]
100009c4:	4b03      	ldr	r3, [pc, #12]	; (100009d4 <gpio_init+0x38>)
100009c6:	469c      	mov	ip, r3
100009c8:	2305      	movs	r3, #5
100009ca:	4460      	add	r0, ip
100009cc:	6043      	str	r3, [r0, #4]
100009ce:	4770      	bx	lr
100009d0:	4001c004 	.word	0x4001c004
100009d4:	40014000 	.word	0x40014000

100009d8 <hw_claim_or_assert>:
100009d8:	b570      	push	{r4, r5, r6, lr}
100009da:	f3ef 8c10 	mrs	ip, PRIMASK
100009de:	b672      	cpsid	i
100009e0:	4d0d      	ldr	r5, [pc, #52]	; (10000a18 <hw_claim_or_assert+0x40>)
100009e2:	682b      	ldr	r3, [r5, #0]
100009e4:	2b00      	cmp	r3, #0
100009e6:	d0fc      	beq.n	100009e2 <hw_claim_or_assert+0xa>
100009e8:	f3bf 8f5f 	dmb	sy
100009ec:	2407      	movs	r4, #7
100009ee:	08cb      	lsrs	r3, r1, #3
100009f0:	18c6      	adds	r6, r0, r3
100009f2:	5cc0      	ldrb	r0, [r0, r3]
100009f4:	2301      	movs	r3, #1
100009f6:	400c      	ands	r4, r1
100009f8:	40a3      	lsls	r3, r4
100009fa:	001c      	movs	r4, r3
100009fc:	4004      	ands	r4, r0
100009fe:	4203      	tst	r3, r0
10000a00:	d107      	bne.n	10000a12 <hw_claim_or_assert+0x3a>
10000a02:	4303      	orrs	r3, r0
10000a04:	7033      	strb	r3, [r6, #0]
10000a06:	f3bf 8f5f 	dmb	sy
10000a0a:	602c      	str	r4, [r5, #0]
10000a0c:	f38c 8810 	msr	PRIMASK, ip
10000a10:	bd70      	pop	{r4, r5, r6, pc}
10000a12:	0010      	movs	r0, r2
10000a14:	f001 faa2 	bl	10001f5c <panic>
10000a18:	d000012c 	.word	0xd000012c

10000a1c <hw_claim_unused_from_range>:
10000a1c:	b5f8      	push	{r3, r4, r5, r6, r7, lr}
10000a1e:	4647      	mov	r7, r8
10000a20:	46ce      	mov	lr, r9
10000a22:	4688      	mov	r8, r1
10000a24:	b580      	push	{r7, lr}
10000a26:	f3ef 8c10 	mrs	ip, PRIMASK
10000a2a:	b672      	cpsid	i
10000a2c:	4d21      	ldr	r5, [pc, #132]	; (10000ab4 <hw_claim_unused_from_range+0x98>)
10000a2e:	682c      	ldr	r4, [r5, #0]
10000a30:	2c00      	cmp	r4, #0
10000a32:	d0fc      	beq.n	10000a2e <hw_claim_unused_from_range+0x12>
10000a34:	f3bf 8f5f 	dmb	sy
10000a38:	429a      	cmp	r2, r3
10000a3a:	d82c      	bhi.n	10000a96 <hw_claim_unused_from_range+0x7a>
10000a3c:	08d4      	lsrs	r4, r2, #3
10000a3e:	2707      	movs	r7, #7
10000a40:	5d05      	ldrb	r5, [r0, r4]
10000a42:	1906      	adds	r6, r0, r4
10000a44:	2401      	movs	r4, #1
10000a46:	4017      	ands	r7, r2
10000a48:	40bc      	lsls	r4, r7
10000a4a:	422c      	tst	r4, r5
10000a4c:	d01f      	beq.n	10000a8e <hw_claim_unused_from_range+0x72>
10000a4e:	2107      	movs	r1, #7
10000a50:	2701      	movs	r7, #1
10000a52:	4689      	mov	r9, r1
10000a54:	e009      	b.n	10000a6a <hw_claim_unused_from_range+0x4e>
10000a56:	08d4      	lsrs	r4, r2, #3
10000a58:	5d05      	ldrb	r5, [r0, r4]
10000a5a:	1906      	adds	r6, r0, r4
10000a5c:	464c      	mov	r4, r9
10000a5e:	0039      	movs	r1, r7
10000a60:	4014      	ands	r4, r2
10000a62:	40a1      	lsls	r1, r4
10000a64:	000c      	movs	r4, r1
10000a66:	4229      	tst	r1, r5
10000a68:	d011      	beq.n	10000a8e <hw_claim_unused_from_range+0x72>
10000a6a:	3201      	adds	r2, #1
10000a6c:	4293      	cmp	r3, r2
10000a6e:	d2f2      	bcs.n	10000a56 <hw_claim_unused_from_range+0x3a>
10000a70:	2001      	movs	r0, #1
10000a72:	4240      	negs	r0, r0
10000a74:	f3bf 8f5f 	dmb	sy
10000a78:	2200      	movs	r2, #0
10000a7a:	4b0e      	ldr	r3, [pc, #56]	; (10000ab4 <hw_claim_unused_from_range+0x98>)
10000a7c:	601a      	str	r2, [r3, #0]
10000a7e:	f38c 8810 	msr	PRIMASK, ip
10000a82:	2800      	cmp	r0, #0
10000a84:	db0f      	blt.n	10000aa6 <hw_claim_unused_from_range+0x8a>
10000a86:	bcc0      	pop	{r6, r7}
10000a88:	46b9      	mov	r9, r7
10000a8a:	46b0      	mov	r8, r6
10000a8c:	bdf8      	pop	{r3, r4, r5, r6, r7, pc}
10000a8e:	432c      	orrs	r4, r5
10000a90:	0010      	movs	r0, r2
10000a92:	7034      	strb	r4, [r6, #0]
10000a94:	e7ee      	b.n	10000a74 <hw_claim_unused_from_range+0x58>
10000a96:	f3bf 8f5f 	dmb	sy
10000a9a:	2300      	movs	r3, #0
10000a9c:	602b      	str	r3, [r5, #0]
10000a9e:	f38c 8810 	msr	PRIMASK, ip
10000aa2:	2001      	movs	r0, #1
10000aa4:	4240      	negs	r0, r0
10000aa6:	4643      	mov	r3, r8
10000aa8:	2b00      	cmp	r3, #0
10000aaa:	d0ec      	beq.n	10000a86 <hw_claim_unused_from_range+0x6a>
10000aac:	9808      	ldr	r0, [sp, #32]
10000aae:	f001 fa55 	bl	10001f5c <panic>
10000ab2:	46c0      	nop			; (mov r8, r8)
10000ab4:	d000012c 	.word	0xd000012c

10000ab8 <running_on_fpga>:
10000ab8:	4b02      	ldr	r3, [pc, #8]	; (10000ac4 <running_on_fpga+0xc>)
10000aba:	6818      	ldr	r0, [r3, #0]
10000abc:	0780      	lsls	r0, r0, #30
10000abe:	0fc0      	lsrs	r0, r0, #31
10000ac0:	4770      	bx	lr
10000ac2:	46c0      	nop			; (mov r8, r8)
10000ac4:	4006c000 	.word	0x4006c000

10000ac8 <spin_locks_reset>:
10000ac8:	2100      	movs	r1, #0
10000aca:	4b04      	ldr	r3, [pc, #16]	; (10000adc <spin_locks_reset+0x14>)
10000acc:	4a04      	ldr	r2, [pc, #16]	; (10000ae0 <spin_locks_reset+0x18>)
10000ace:	f3bf 8f5f 	dmb	sy
10000ad2:	c302      	stmia	r3!, {r1}
10000ad4:	4293      	cmp	r3, r2
10000ad6:	d1fa      	bne.n	10000ace <spin_locks_reset+0x6>
10000ad8:	4770      	bx	lr
10000ada:	46c0      	nop			; (mov r8, r8)
10000adc:	d0000100 	.word	0xd0000100
10000ae0:	d0000180 	.word	0xd0000180

10000ae4 <next_striped_spin_lock_num>:
10000ae4:	4a04      	ldr	r2, [pc, #16]	; (10000af8 <next_striped_spin_lock_num+0x14>)
10000ae6:	7810      	ldrb	r0, [r2, #0]
10000ae8:	1c43      	adds	r3, r0, #1
10000aea:	b2db      	uxtb	r3, r3
10000aec:	2b17      	cmp	r3, #23
10000aee:	d900      	bls.n	10000af2 <next_striped_spin_lock_num+0xe>
10000af0:	2310      	movs	r3, #16
10000af2:	7013      	strb	r3, [r2, #0]
10000af4:	4770      	bx	lr
10000af6:	46c0      	nop			; (mov r8, r8)
10000af8:	20000393 	.word	0x20000393

10000afc <spin_lock_claim_unused>:
10000afc:	b500      	push	{lr}
10000afe:	4b05      	ldr	r3, [pc, #20]	; (10000b14 <spin_lock_claim_unused+0x18>)
10000b00:	b083      	sub	sp, #12
10000b02:	0001      	movs	r1, r0
10000b04:	9300      	str	r3, [sp, #0]
10000b06:	2218      	movs	r2, #24
10000b08:	231f      	movs	r3, #31
10000b0a:	4803      	ldr	r0, [pc, #12]	; (10000b18 <spin_lock_claim_unused+0x1c>)
10000b0c:	f7ff ff86 	bl	10000a1c <hw_claim_unused_from_range>
10000b10:	b003      	add	sp, #12
10000b12:	bd00      	pop	{pc}
10000b14:	1000b27c 	.word	0x1000b27c
10000b18:	20001730 	.word	0x20001730

10000b1c <irq_set_enabled>:
10000b1c:	2301      	movs	r3, #1
10000b1e:	4083      	lsls	r3, r0
10000b20:	2900      	cmp	r1, #0
10000b22:	d004      	beq.n	10000b2e <irq_set_enabled+0x12>
10000b24:	4a03      	ldr	r2, [pc, #12]	; (10000b34 <irq_set_enabled+0x18>)
10000b26:	6013      	str	r3, [r2, #0]
10000b28:	4a03      	ldr	r2, [pc, #12]	; (10000b38 <irq_set_enabled+0x1c>)
10000b2a:	6013      	str	r3, [r2, #0]
10000b2c:	4770      	bx	lr
10000b2e:	4a03      	ldr	r2, [pc, #12]	; (10000b3c <irq_set_enabled+0x20>)
10000b30:	6013      	str	r3, [r2, #0]
10000b32:	e7fb      	b.n	10000b2c <irq_set_enabled+0x10>
10000b34:	e000e280 	.word	0xe000e280
10000b38:	e000e100 	.word	0xe000e100
10000b3c:	e000e180 	.word	0xe000e180

10000b40 <irq_set_pending>:
10000b40:	2301      	movs	r3, #1
10000b42:	4083      	lsls	r3, r0
10000b44:	4a01      	ldr	r2, [pc, #4]	; (10000b4c <irq_set_pending+0xc>)
10000b46:	6013      	str	r3, [r2, #0]
10000b48:	4770      	bx	lr
10000b4a:	46c0      	nop			; (mov r8, r8)
10000b4c:	e000e200 	.word	0xe000e200

10000b50 <irq_has_shared_handler>:
10000b50:	4b08      	ldr	r3, [pc, #32]	; (10000b74 <irq_has_shared_handler+0x24>)
10000b52:	3010      	adds	r0, #16
10000b54:	689b      	ldr	r3, [r3, #8]
10000b56:	0080      	lsls	r0, r0, #2
10000b58:	58c3      	ldr	r3, [r0, r3]
10000b5a:	2b00      	cmp	r3, #0
10000b5c:	d007      	beq.n	10000b6e <irq_has_shared_handler+0x1e>
10000b5e:	4a06      	ldr	r2, [pc, #24]	; (10000b78 <irq_has_shared_handler+0x28>)
10000b60:	2000      	movs	r0, #0
10000b62:	1a9b      	subs	r3, r3, r2
10000b64:	222f      	movs	r2, #47	; 0x2f
10000b66:	429a      	cmp	r2, r3
10000b68:	4140      	adcs	r0, r0
10000b6a:	b2c0      	uxtb	r0, r0
10000b6c:	4770      	bx	lr
10000b6e:	2000      	movs	r0, #0
10000b70:	e7fc      	b.n	10000b6c <irq_has_shared_handler+0x1c>
10000b72:	46c0      	nop			; (mov r8, r8)
10000b74:	e000ed00 	.word	0xe000ed00
10000b78:	20000394 	.word	0x20000394

10000b7c <irq_get_vtable_handler>:
10000b7c:	4b02      	ldr	r3, [pc, #8]	; (10000b88 <irq_get_vtable_handler+0xc>)
10000b7e:	3010      	adds	r0, #16
10000b80:	689b      	ldr	r3, [r3, #8]
10000b82:	0080      	lsls	r0, r0, #2
10000b84:	58c0      	ldr	r0, [r0, r3]
10000b86:	4770      	bx	lr
10000b88:	e000ed00 	.word	0xe000ed00

10000b8c <irq_set_exclusive_handler>:
10000b8c:	b570      	push	{r4, r5, r6, lr}
10000b8e:	000d      	movs	r5, r1
10000b90:	f3ef 8610 	mrs	r6, PRIMASK
10000b94:	b672      	cpsid	i
10000b96:	4a0f      	ldr	r2, [pc, #60]	; (10000bd4 <irq_set_exclusive_handler+0x48>)
10000b98:	6813      	ldr	r3, [r2, #0]
10000b9a:	2b00      	cmp	r3, #0
10000b9c:	d0fc      	beq.n	10000b98 <irq_set_exclusive_handler+0xc>
10000b9e:	f3bf 8f5f 	dmb	sy
10000ba2:	4b0d      	ldr	r3, [pc, #52]	; (10000bd8 <irq_set_exclusive_handler+0x4c>)
10000ba4:	3010      	adds	r0, #16
10000ba6:	689b      	ldr	r3, [r3, #8]
10000ba8:	0084      	lsls	r4, r0, #2
10000baa:	591b      	ldr	r3, [r3, r4]
10000bac:	4a0b      	ldr	r2, [pc, #44]	; (10000bdc <irq_set_exclusive_handler+0x50>)
10000bae:	4293      	cmp	r3, r2
10000bb0:	d003      	beq.n	10000bba <irq_set_exclusive_handler+0x2e>
10000bb2:	429d      	cmp	r5, r3
10000bb4:	d001      	beq.n	10000bba <irq_set_exclusive_handler+0x2e>
10000bb6:	f001 f9e9 	bl	10001f8c <hard_assertion_failure>
10000bba:	4b07      	ldr	r3, [pc, #28]	; (10000bd8 <irq_set_exclusive_handler+0x4c>)
10000bbc:	689b      	ldr	r3, [r3, #8]
10000bbe:	511d      	str	r5, [r3, r4]
10000bc0:	f3bf 8f5f 	dmb	sy
10000bc4:	f3bf 8f5f 	dmb	sy
10000bc8:	2200      	movs	r2, #0
10000bca:	4b02      	ldr	r3, [pc, #8]	; (10000bd4 <irq_set_exclusive_handler+0x48>)
10000bcc:	601a      	str	r2, [r3, #0]
10000bce:	f386 8810 	msr	PRIMASK, r6
10000bd2:	bd70      	pop	{r4, r5, r6, pc}
10000bd4:	d0000124 	.word	0xd0000124
10000bd8:	e000ed00 	.word	0xe000ed00
10000bdc:	100001cd 	.word	0x100001cd

10000be0 <irq_add_shared_handler>:
10000be0:	b5f0      	push	{r4, r5, r6, r7, lr}
10000be2:	4657      	mov	r7, sl
10000be4:	464e      	mov	r6, r9
10000be6:	46de      	mov	lr, fp
10000be8:	4645      	mov	r5, r8
10000bea:	b5e0      	push	{r5, r6, r7, lr}
10000bec:	b085      	sub	sp, #20
10000bee:	0006      	movs	r6, r0
10000bf0:	9102      	str	r1, [sp, #8]
10000bf2:	0017      	movs	r7, r2
10000bf4:	f3ef 8b10 	mrs	fp, PRIMASK
10000bf8:	b672      	cpsid	i
10000bfa:	4a67      	ldr	r2, [pc, #412]	; (10000d98 <irq_add_shared_handler+0x1b8>)
10000bfc:	6813      	ldr	r3, [r2, #0]
10000bfe:	2b00      	cmp	r3, #0
10000c00:	d0fc      	beq.n	10000bfc <irq_add_shared_handler+0x1c>
10000c02:	f3bf 8f5f 	dmb	sy
10000c06:	2500      	movs	r5, #0
10000c08:	4b64      	ldr	r3, [pc, #400]	; (10000d9c <irq_add_shared_handler+0x1bc>)
10000c0a:	575d      	ldrsb	r5, [r3, r5]
10000c0c:	469a      	mov	sl, r3
10000c0e:	2d00      	cmp	r5, #0
10000c10:	da00      	bge.n	10000c14 <irq_add_shared_handler+0x34>
10000c12:	e0a5      	b.n	10000d60 <irq_add_shared_handler+0x180>
10000c14:	006b      	lsls	r3, r5, #1
10000c16:	4c62      	ldr	r4, [pc, #392]	; (10000da0 <irq_add_shared_handler+0x1c0>)
10000c18:	9303      	str	r3, [sp, #12]
10000c1a:	195b      	adds	r3, r3, r5
10000c1c:	009b      	lsls	r3, r3, #2
10000c1e:	4698      	mov	r8, r3
10000c20:	46a1      	mov	r9, r4
10000c22:	44c1      	add	r9, r8
10000c24:	464b      	mov	r3, r9
10000c26:	4652      	mov	r2, sl
10000c28:	799b      	ldrb	r3, [r3, #6]
10000c2a:	3610      	adds	r6, #16
10000c2c:	7013      	strb	r3, [r2, #0]
10000c2e:	4b5d      	ldr	r3, [pc, #372]	; (10000da4 <irq_add_shared_handler+0x1c4>)
10000c30:	00b2      	lsls	r2, r6, #2
10000c32:	689b      	ldr	r3, [r3, #8]
10000c34:	9201      	str	r2, [sp, #4]
10000c36:	5899      	ldr	r1, [r3, r2]
10000c38:	1b0b      	subs	r3, r1, r4
10000c3a:	2b2f      	cmp	r3, #47	; 0x2f
10000c3c:	d934      	bls.n	10000ca8 <irq_add_shared_handler+0xc8>
10000c3e:	4b5a      	ldr	r3, [pc, #360]	; (10000da8 <irq_add_shared_handler+0x1c8>)
10000c40:	4299      	cmp	r1, r3
10000c42:	d000      	beq.n	10000c46 <irq_add_shared_handler+0x66>
10000c44:	e0a5      	b.n	10000d92 <irq_add_shared_handler+0x1b2>
10000c46:	9b03      	ldr	r3, [sp, #12]
10000c48:	4a58      	ldr	r2, [pc, #352]	; (10000dac <irq_add_shared_handler+0x1cc>)
10000c4a:	469c      	mov	ip, r3
10000c4c:	4b58      	ldr	r3, [pc, #352]	; (10000db0 <irq_add_shared_handler+0x1d0>)
10000c4e:	4465      	add	r5, ip
10000c50:	00ad      	lsls	r5, r5, #2
10000c52:	5363      	strh	r3, [r4, r5]
10000c54:	4643      	mov	r3, r8
10000c56:	3302      	adds	r3, #2
10000c58:	1965      	adds	r5, r4, r5
10000c5a:	18e4      	adds	r4, r4, r3
10000c5c:	4b55      	ldr	r3, [pc, #340]	; (10000db4 <irq_add_shared_handler+0x1d4>)
10000c5e:	2101      	movs	r1, #1
10000c60:	3b04      	subs	r3, #4
10000c62:	1b1b      	subs	r3, r3, r4
10000c64:	051b      	lsls	r3, r3, #20
10000c66:	0d5b      	lsrs	r3, r3, #21
10000c68:	4313      	orrs	r3, r2
10000c6a:	806b      	strh	r3, [r5, #2]
10000c6c:	4b52      	ldr	r3, [pc, #328]	; (10000db8 <irq_add_shared_handler+0x1d8>)
10000c6e:	71ef      	strb	r7, [r5, #7]
10000c70:	80ab      	strh	r3, [r5, #4]
10000c72:	23ff      	movs	r3, #255	; 0xff
10000c74:	71ab      	strb	r3, [r5, #6]
10000c76:	9b02      	ldr	r3, [sp, #8]
10000c78:	60ab      	str	r3, [r5, #8]
10000c7a:	464b      	mov	r3, r9
10000c7c:	430b      	orrs	r3, r1
10000c7e:	0019      	movs	r1, r3
10000c80:	4b48      	ldr	r3, [pc, #288]	; (10000da4 <irq_add_shared_handler+0x1c4>)
10000c82:	9a01      	ldr	r2, [sp, #4]
10000c84:	689b      	ldr	r3, [r3, #8]
10000c86:	5099      	str	r1, [r3, r2]
10000c88:	f3bf 8f5f 	dmb	sy
10000c8c:	f3bf 8f5f 	dmb	sy
10000c90:	2200      	movs	r2, #0
10000c92:	4b41      	ldr	r3, [pc, #260]	; (10000d98 <irq_add_shared_handler+0x1b8>)
10000c94:	601a      	str	r2, [r3, #0]
10000c96:	f38b 8810 	msr	PRIMASK, fp
10000c9a:	b005      	add	sp, #20
10000c9c:	bcf0      	pop	{r4, r5, r6, r7}
10000c9e:	46bb      	mov	fp, r7
10000ca0:	46b2      	mov	sl, r6
10000ca2:	46a9      	mov	r9, r5
10000ca4:	46a0      	mov	r8, r4
10000ca6:	bdf0      	pop	{r4, r5, r6, r7, pc}
10000ca8:	2001      	movs	r0, #1
10000caa:	000a      	movs	r2, r1
10000cac:	4382      	bics	r2, r0
10000cae:	79d3      	ldrb	r3, [r2, #7]
10000cb0:	42bb      	cmp	r3, r7
10000cb2:	d82f      	bhi.n	10000d14 <irq_add_shared_handler+0x134>
10000cb4:	4645      	mov	r5, r8
10000cb6:	464e      	mov	r6, r9
10000cb8:	0013      	movs	r3, r2
10000cba:	4940      	ldr	r1, [pc, #256]	; (10000dbc <irq_add_shared_handler+0x1dc>)
10000cbc:	1b1b      	subs	r3, r3, r4
10000cbe:	415b      	adcs	r3, r3
10000cc0:	4359      	muls	r1, r3
10000cc2:	0d09      	lsrs	r1, r1, #20
10000cc4:	4b3a      	ldr	r3, [pc, #232]	; (10000db0 <irq_add_shared_handler+0x1d0>)
10000cc6:	5363      	strh	r3, [r4, r5]
10000cc8:	4b3a      	ldr	r3, [pc, #232]	; (10000db4 <irq_add_shared_handler+0x1d4>)
10000cca:	3502      	adds	r5, #2
10000ccc:	1965      	adds	r5, r4, r5
10000cce:	3b04      	subs	r3, #4
10000cd0:	1b5b      	subs	r3, r3, r5
10000cd2:	051b      	lsls	r3, r3, #20
10000cd4:	4d35      	ldr	r5, [pc, #212]	; (10000dac <irq_add_shared_handler+0x1cc>)
10000cd6:	0d5b      	lsrs	r3, r3, #21
10000cd8:	432b      	orrs	r3, r5
10000cda:	8073      	strh	r3, [r6, #2]
10000cdc:	2604      	movs	r6, #4
10000cde:	46b4      	mov	ip, r6
10000ce0:	44e0      	add	r8, ip
10000ce2:	4444      	add	r4, r8
10000ce4:	1f13      	subs	r3, r2, #4
10000ce6:	1b1b      	subs	r3, r3, r4
10000ce8:	464c      	mov	r4, r9
10000cea:	71a1      	strb	r1, [r4, #6]
10000cec:	9902      	ldr	r1, [sp, #8]
10000cee:	051b      	lsls	r3, r3, #20
10000cf0:	60a1      	str	r1, [r4, #8]
10000cf2:	4649      	mov	r1, r9
10000cf4:	0d5b      	lsrs	r3, r3, #21
10000cf6:	432b      	orrs	r3, r5
10000cf8:	80a3      	strh	r3, [r4, #4]
10000cfa:	4b31      	ldr	r3, [pc, #196]	; (10000dc0 <irq_add_shared_handler+0x1e0>)
10000cfc:	71e7      	strb	r7, [r4, #7]
10000cfe:	4301      	orrs	r1, r0
10000d00:	6013      	str	r3, [r2, #0]
10000d02:	e7bd      	b.n	10000c80 <irq_add_shared_handler+0xa0>
10000d04:	0058      	lsls	r0, r3, #1
10000d06:	18c0      	adds	r0, r0, r3
10000d08:	0080      	lsls	r0, r0, #2
10000d0a:	1820      	adds	r0, r4, r0
10000d0c:	79c6      	ldrb	r6, [r0, #7]
10000d0e:	42be      	cmp	r6, r7
10000d10:	d92c      	bls.n	10000d6c <irq_add_shared_handler+0x18c>
10000d12:	0002      	movs	r2, r0
10000d14:	2306      	movs	r3, #6
10000d16:	56d3      	ldrsb	r3, [r2, r3]
10000d18:	2b00      	cmp	r3, #0
10000d1a:	daf3      	bge.n	10000d04 <irq_add_shared_handler+0x124>
10000d1c:	1d10      	adds	r0, r2, #4
10000d1e:	4682      	mov	sl, r0
10000d20:	20bd      	movs	r0, #189	; 0xbd
10000d22:	0200      	lsls	r0, r0, #8
10000d24:	4680      	mov	r8, r0
10000d26:	2604      	movs	r6, #4
10000d28:	4276      	negs	r6, r6
10000d2a:	46b4      	mov	ip, r6
10000d2c:	44e1      	add	r9, ip
10000d2e:	4650      	mov	r0, sl
10000d30:	464e      	mov	r6, r9
10000d32:	1a36      	subs	r6, r6, r0
10000d34:	0530      	lsls	r0, r6, #20
10000d36:	0d40      	lsrs	r0, r0, #21
10000d38:	4682      	mov	sl, r0
10000d3a:	4656      	mov	r6, sl
10000d3c:	481b      	ldr	r0, [pc, #108]	; (10000dac <irq_add_shared_handler+0x1cc>)
10000d3e:	7195      	strb	r5, [r2, #6]
10000d40:	4306      	orrs	r6, r0
10000d42:	8096      	strh	r6, [r2, #4]
10000d44:	9a03      	ldr	r2, [sp, #12]
10000d46:	4694      	mov	ip, r2
10000d48:	4465      	add	r5, ip
10000d4a:	4a1d      	ldr	r2, [pc, #116]	; (10000dc0 <irq_add_shared_handler+0x1e0>)
10000d4c:	00ad      	lsls	r5, r5, #2
10000d4e:	1964      	adds	r4, r4, r5
10000d50:	6022      	str	r2, [r4, #0]
10000d52:	4642      	mov	r2, r8
10000d54:	71a3      	strb	r3, [r4, #6]
10000d56:	9b02      	ldr	r3, [sp, #8]
10000d58:	80a2      	strh	r2, [r4, #4]
10000d5a:	71e7      	strb	r7, [r4, #7]
10000d5c:	60a3      	str	r3, [r4, #8]
10000d5e:	e78f      	b.n	10000c80 <irq_add_shared_handler+0xa0>
10000d60:	f001 f914 	bl	10001f8c <hard_assertion_failure>
10000d64:	2500      	movs	r5, #0
10000d66:	4653      	mov	r3, sl
10000d68:	575d      	ldrsb	r5, [r3, r5]
10000d6a:	e753      	b.n	10000c14 <irq_add_shared_handler+0x34>
10000d6c:	1d10      	adds	r0, r2, #4
10000d6e:	4682      	mov	sl, r0
10000d70:	8890      	ldrh	r0, [r2, #4]
10000d72:	0540      	lsls	r0, r0, #21
10000d74:	1500      	asrs	r0, r0, #20
10000d76:	4684      	mov	ip, r0
10000d78:	4640      	mov	r0, r8
10000d7a:	44d4      	add	ip, sl
10000d7c:	4666      	mov	r6, ip
10000d7e:	3004      	adds	r0, #4
10000d80:	1820      	adds	r0, r4, r0
10000d82:	1a30      	subs	r0, r6, r0
10000d84:	26e0      	movs	r6, #224	; 0xe0
10000d86:	0500      	lsls	r0, r0, #20
10000d88:	0d40      	lsrs	r0, r0, #21
10000d8a:	0236      	lsls	r6, r6, #8
10000d8c:	4330      	orrs	r0, r6
10000d8e:	4680      	mov	r8, r0
10000d90:	e7c9      	b.n	10000d26 <irq_add_shared_handler+0x146>
10000d92:	f001 f8fb 	bl	10001f8c <hard_assertion_failure>
10000d96:	e756      	b.n	10000c46 <irq_add_shared_handler+0x66>
10000d98:	d0000124 	.word	0xd0000124
10000d9c:	20001c48 	.word	0x20001c48
10000da0:	20000394 	.word	0x20000394
10000da4:	e000ed00 	.word	0xe000ed00
10000da8:	100001cd 	.word	0x100001cd
10000dac:	ffffe000 	.word	0xffffe000
10000db0:	ffffa100 	.word	0xffffa100
10000db4:	200003c4 	.word	0x200003c4
10000db8:	ffffbd00 	.word	0xffffbd00
10000dbc:	0000aaaa 	.word	0x0000aaaa
10000dc0:	47804801 	.word	0x47804801

10000dc4 <irq_remove_handler>:
10000dc4:	b5f0      	push	{r4, r5, r6, r7, lr}
10000dc6:	46de      	mov	lr, fp
10000dc8:	4657      	mov	r7, sl
10000dca:	464e      	mov	r6, r9
10000dcc:	4645      	mov	r5, r8
10000dce:	b5e0      	push	{r5, r6, r7, lr}
10000dd0:	000c      	movs	r4, r1
10000dd2:	b083      	sub	sp, #12
10000dd4:	f3ef 8a10 	mrs	sl, PRIMASK
10000dd8:	b672      	cpsid	i
10000dda:	4a5a      	ldr	r2, [pc, #360]	; (10000f44 <irq_remove_handler+0x180>)
10000ddc:	6813      	ldr	r3, [r2, #0]
10000dde:	2b00      	cmp	r3, #0
10000de0:	d0fc      	beq.n	10000ddc <irq_remove_handler+0x18>
10000de2:	f3bf 8f5f 	dmb	sy
10000de6:	2210      	movs	r2, #16
10000de8:	4691      	mov	r9, r2
10000dea:	4481      	add	r9, r0
10000dec:	464a      	mov	r2, r9
10000dee:	4b56      	ldr	r3, [pc, #344]	; (10000f48 <irq_remove_handler+0x184>)
10000df0:	0096      	lsls	r6, r2, #2
10000df2:	689b      	ldr	r3, [r3, #8]
10000df4:	599d      	ldr	r5, [r3, r6]
10000df6:	4b55      	ldr	r3, [pc, #340]	; (10000f4c <irq_remove_handler+0x188>)
10000df8:	4698      	mov	r8, r3
10000dfa:	429d      	cmp	r5, r3
10000dfc:	d005      	beq.n	10000e0a <irq_remove_handler+0x46>
10000dfe:	42a5      	cmp	r5, r4
10000e00:	d016      	beq.n	10000e30 <irq_remove_handler+0x6c>
10000e02:	4f53      	ldr	r7, [pc, #332]	; (10000f50 <irq_remove_handler+0x18c>)
10000e04:	1beb      	subs	r3, r5, r7
10000e06:	2b2f      	cmp	r3, #47	; 0x2f
10000e08:	d914      	bls.n	10000e34 <irq_remove_handler+0x70>
10000e0a:	4b4f      	ldr	r3, [pc, #316]	; (10000f48 <irq_remove_handler+0x184>)
10000e0c:	689b      	ldr	r3, [r3, #8]
10000e0e:	519d      	str	r5, [r3, r6]
10000e10:	f3bf 8f5f 	dmb	sy
10000e14:	f3bf 8f5f 	dmb	sy
10000e18:	2200      	movs	r2, #0
10000e1a:	4b4a      	ldr	r3, [pc, #296]	; (10000f44 <irq_remove_handler+0x180>)
10000e1c:	601a      	str	r2, [r3, #0]
10000e1e:	f38a 8810 	msr	PRIMASK, sl
10000e22:	b003      	add	sp, #12
10000e24:	bcf0      	pop	{r4, r5, r6, r7}
10000e26:	46bb      	mov	fp, r7
10000e28:	46b2      	mov	sl, r6
10000e2a:	46a9      	mov	r9, r5
10000e2c:	46a0      	mov	r8, r4
10000e2e:	bdf0      	pop	{r4, r5, r6, r7, pc}
10000e30:	001d      	movs	r5, r3
10000e32:	e7ea      	b.n	10000e0a <irq_remove_handler+0x46>
10000e34:	2301      	movs	r3, #1
10000e36:	4083      	lsls	r3, r0
10000e38:	469b      	mov	fp, r3
10000e3a:	465a      	mov	r2, fp
10000e3c:	4b45      	ldr	r3, [pc, #276]	; (10000f54 <irq_remove_handler+0x190>)
10000e3e:	681b      	ldr	r3, [r3, #0]
10000e40:	401a      	ands	r2, r3
10000e42:	9200      	str	r2, [sp, #0]
10000e44:	465a      	mov	r2, fp
10000e46:	4b44      	ldr	r3, [pc, #272]	; (10000f58 <irq_remove_handler+0x194>)
10000e48:	601a      	str	r2, [r3, #0]
10000e4a:	f3bf 8f5f 	dmb	sy
10000e4e:	f7ff fa0a 	bl	10000266 <__get_current_exception>
10000e52:	9001      	str	r0, [sp, #4]
10000e54:	2800      	cmp	r0, #0
10000e56:	d003      	beq.n	10000e60 <irq_remove_handler+0x9c>
10000e58:	4581      	cmp	r9, r0
10000e5a:	d001      	beq.n	10000e60 <irq_remove_handler+0x9c>
10000e5c:	f001 f896 	bl	10001f8c <hard_assertion_failure>
10000e60:	2301      	movs	r3, #1
10000e62:	002a      	movs	r2, r5
10000e64:	439a      	bics	r2, r3
10000e66:	6893      	ldr	r3, [r2, #8]
10000e68:	429c      	cmp	r4, r3
10000e6a:	d108      	bne.n	10000e7e <irq_remove_handler+0xba>
10000e6c:	e05f      	b.n	10000f2e <irq_remove_handler+0x16a>
10000e6e:	004b      	lsls	r3, r1, #1
10000e70:	185b      	adds	r3, r3, r1
10000e72:	009b      	lsls	r3, r3, #2
10000e74:	18fb      	adds	r3, r7, r3
10000e76:	6899      	ldr	r1, [r3, #8]
10000e78:	42a1      	cmp	r1, r4
10000e7a:	d011      	beq.n	10000ea0 <irq_remove_handler+0xdc>
10000e7c:	001a      	movs	r2, r3
10000e7e:	2106      	movs	r1, #6
10000e80:	5651      	ldrsb	r1, [r2, r1]
10000e82:	2900      	cmp	r1, #0
10000e84:	daf3      	bge.n	10000e6e <irq_remove_handler+0xaa>
10000e86:	9b00      	ldr	r3, [sp, #0]
10000e88:	2b00      	cmp	r3, #0
10000e8a:	d005      	beq.n	10000e98 <irq_remove_handler+0xd4>
10000e8c:	465a      	mov	r2, fp
10000e8e:	4b33      	ldr	r3, [pc, #204]	; (10000f5c <irq_remove_handler+0x198>)
10000e90:	601a      	str	r2, [r3, #0]
10000e92:	4b30      	ldr	r3, [pc, #192]	; (10000f54 <irq_remove_handler+0x190>)
10000e94:	601a      	str	r2, [r3, #0]
10000e96:	e7b8      	b.n	10000e0a <irq_remove_handler+0x46>
10000e98:	465a      	mov	r2, fp
10000e9a:	4b2f      	ldr	r3, [pc, #188]	; (10000f58 <irq_remove_handler+0x194>)
10000e9c:	601a      	str	r2, [r3, #0]
10000e9e:	e7b4      	b.n	10000e0a <irq_remove_handler+0x46>
10000ea0:	2106      	movs	r1, #6
10000ea2:	5659      	ldrsb	r1, [r3, r1]
10000ea4:	2900      	cmp	r1, #0
10000ea6:	db21      	blt.n	10000eec <irq_remove_handler+0x128>
10000ea8:	004a      	lsls	r2, r1, #1
10000eaa:	1850      	adds	r0, r2, r1
10000eac:	0080      	lsls	r0, r0, #2
10000eae:	183c      	adds	r4, r7, r0
10000eb0:	4680      	mov	r8, r0
10000eb2:	68a0      	ldr	r0, [r4, #8]
10000eb4:	6098      	str	r0, [r3, #8]
10000eb6:	79e0      	ldrb	r0, [r4, #7]
10000eb8:	71d8      	strb	r0, [r3, #7]
10000eba:	2006      	movs	r0, #6
10000ebc:	5620      	ldrsb	r0, [r4, r0]
10000ebe:	7198      	strb	r0, [r3, #6]
10000ec0:	2800      	cmp	r0, #0
10000ec2:	db24      	blt.n	10000f0e <irq_remove_handler+0x14a>
10000ec4:	88a4      	ldrh	r4, [r4, #4]
10000ec6:	1af8      	subs	r0, r7, r3
10000ec8:	0564      	lsls	r4, r4, #21
10000eca:	1524      	asrs	r4, r4, #20
10000ecc:	4444      	add	r4, r8
10000ece:	1900      	adds	r0, r0, r4
10000ed0:	24e0      	movs	r4, #224	; 0xe0
10000ed2:	0500      	lsls	r0, r0, #20
10000ed4:	0d40      	lsrs	r0, r0, #21
10000ed6:	0224      	lsls	r4, r4, #8
10000ed8:	4320      	orrs	r0, r4
10000eda:	8098      	strh	r0, [r3, #4]
10000edc:	1852      	adds	r2, r2, r1
10000ede:	4b20      	ldr	r3, [pc, #128]	; (10000f60 <irq_remove_handler+0x19c>)
10000ee0:	0092      	lsls	r2, r2, #2
10000ee2:	18bf      	adds	r7, r7, r2
10000ee4:	781a      	ldrb	r2, [r3, #0]
10000ee6:	7019      	strb	r1, [r3, #0]
10000ee8:	71ba      	strb	r2, [r7, #6]
10000eea:	e7cc      	b.n	10000e86 <irq_remove_handler+0xc2>
10000eec:	9901      	ldr	r1, [sp, #4]
10000eee:	2900      	cmp	r1, #0
10000ef0:	d110      	bne.n	10000f14 <irq_remove_handler+0x150>
10000ef2:	31ff      	adds	r1, #255	; 0xff
10000ef4:	7191      	strb	r1, [r2, #6]
10000ef6:	491b      	ldr	r1, [pc, #108]	; (10000f64 <irq_remove_handler+0x1a0>)
10000ef8:	8091      	strh	r1, [r2, #4]
10000efa:	4919      	ldr	r1, [pc, #100]	; (10000f60 <irq_remove_handler+0x19c>)
10000efc:	780a      	ldrb	r2, [r1, #0]
10000efe:	719a      	strb	r2, [r3, #6]
10000f00:	4a19      	ldr	r2, [pc, #100]	; (10000f68 <irq_remove_handler+0x1a4>)
10000f02:	1bdb      	subs	r3, r3, r7
10000f04:	415b      	adcs	r3, r3
10000f06:	435a      	muls	r2, r3
10000f08:	0d12      	lsrs	r2, r2, #20
10000f0a:	700a      	strb	r2, [r1, #0]
10000f0c:	e7bb      	b.n	10000e86 <irq_remove_handler+0xc2>
10000f0e:	20bd      	movs	r0, #189	; 0xbd
10000f10:	0200      	lsls	r0, r0, #8
10000f12:	e7e2      	b.n	10000eda <irq_remove_handler+0x116>
10000f14:	4a15      	ldr	r2, [pc, #84]	; (10000f6c <irq_remove_handler+0x1a8>)
10000f16:	4916      	ldr	r1, [pc, #88]	; (10000f70 <irq_remove_handler+0x1ac>)
10000f18:	1ad2      	subs	r2, r2, r3
10000f1a:	3a08      	subs	r2, #8
10000f1c:	0250      	lsls	r0, r2, #9
10000f1e:	0d40      	lsrs	r0, r0, #21
10000f20:	4301      	orrs	r1, r0
10000f22:	8099      	strh	r1, [r3, #4]
10000f24:	4913      	ldr	r1, [pc, #76]	; (10000f74 <irq_remove_handler+0x1b0>)
10000f26:	0852      	lsrs	r2, r2, #1
10000f28:	430a      	orrs	r2, r1
10000f2a:	80da      	strh	r2, [r3, #6]
10000f2c:	e7ab      	b.n	10000e86 <irq_remove_handler+0xc2>
10000f2e:	2106      	movs	r1, #6
10000f30:	5651      	ldrsb	r1, [r2, r1]
10000f32:	0013      	movs	r3, r2
10000f34:	2900      	cmp	r1, #0
10000f36:	dab7      	bge.n	10000ea8 <irq_remove_handler+0xe4>
10000f38:	9a01      	ldr	r2, [sp, #4]
10000f3a:	2a00      	cmp	r2, #0
10000f3c:	d1ea      	bne.n	10000f14 <irq_remove_handler+0x150>
10000f3e:	4645      	mov	r5, r8
10000f40:	e7db      	b.n	10000efa <irq_remove_handler+0x136>
10000f42:	46c0      	nop			; (mov r8, r8)
10000f44:	d0000124 	.word	0xd0000124
10000f48:	e000ed00 	.word	0xe000ed00
10000f4c:	100001cd 	.word	0x100001cd
10000f50:	20000394 	.word	0x20000394
10000f54:	e000e100 	.word	0xe000e100
10000f58:	e000e180 	.word	0xe000e180
10000f5c:	e000e280 	.word	0xe000e280
10000f60:	20001c48 	.word	0x20001c48
10000f64:	ffffbd00 	.word	0xffffbd00
10000f68:	0000aaaa 	.word	0x0000aaaa
10000f6c:	200003ce 	.word	0x200003ce
10000f70:	fffff000 	.word	0xfffff000
10000f74:	fffff800 	.word	0xfffff800

10000f78 <irq_add_tail_to_free_list>:
10000f78:	b5f8      	push	{r3, r4, r5, r6, r7, lr}
10000f7a:	2501      	movs	r5, #1
10000f7c:	0004      	movs	r4, r0
10000f7e:	4305      	orrs	r5, r0
10000f80:	f7ff f971 	bl	10000266 <__get_current_exception>
10000f84:	f3ef 8c10 	mrs	ip, PRIMASK
10000f88:	b672      	cpsid	i
10000f8a:	4a21      	ldr	r2, [pc, #132]	; (10001010 <irq_add_tail_to_free_list+0x98>)
10000f8c:	6813      	ldr	r3, [r2, #0]
10000f8e:	2b00      	cmp	r3, #0
10000f90:	d0fc      	beq.n	10000f8c <irq_add_tail_to_free_list+0x14>
10000f92:	f3bf 8f5f 	dmb	sy
10000f96:	4e1f      	ldr	r6, [pc, #124]	; (10001014 <irq_add_tail_to_free_list+0x9c>)
10000f98:	0021      	movs	r1, r4
10000f9a:	68b7      	ldr	r7, [r6, #8]
10000f9c:	4a1e      	ldr	r2, [pc, #120]	; (10001018 <irq_add_tail_to_free_list+0xa0>)
10000f9e:	4b1f      	ldr	r3, [pc, #124]	; (1000101c <irq_add_tail_to_free_list+0xa4>)
10000fa0:	1a89      	subs	r1, r1, r2
10000fa2:	4149      	adcs	r1, r1
10000fa4:	434b      	muls	r3, r1
10000fa6:	0d1b      	lsrs	r3, r3, #20
10000fa8:	b259      	sxtb	r1, r3
10000faa:	0083      	lsls	r3, r0, #2
10000fac:	58f8      	ldr	r0, [r7, r3]
10000fae:	42a8      	cmp	r0, r5
10000fb0:	d01c      	beq.n	10000fec <irq_add_tail_to_free_list+0x74>
10000fb2:	2306      	movs	r3, #6
10000fb4:	56d3      	ldrsb	r3, [r2, r3]
10000fb6:	428b      	cmp	r3, r1
10000fb8:	d01c      	beq.n	10000ff4 <irq_add_tail_to_free_list+0x7c>
10000fba:	2312      	movs	r3, #18
10000fbc:	56d3      	ldrsb	r3, [r2, r3]
10000fbe:	428b      	cmp	r3, r1
10000fc0:	d022      	beq.n	10001008 <irq_add_tail_to_free_list+0x90>
10000fc2:	231e      	movs	r3, #30
10000fc4:	56d3      	ldrsb	r3, [r2, r3]
10000fc6:	428b      	cmp	r3, r1
10000fc8:	d020      	beq.n	1000100c <irq_add_tail_to_free_list+0x94>
10000fca:	232a      	movs	r3, #42	; 0x2a
10000fcc:	56d3      	ldrsb	r3, [r2, r3]
10000fce:	2003      	movs	r0, #3
10000fd0:	428b      	cmp	r3, r1
10000fd2:	d010      	beq.n	10000ff6 <irq_add_tail_to_free_list+0x7e>
10000fd4:	4b12      	ldr	r3, [pc, #72]	; (10001020 <irq_add_tail_to_free_list+0xa8>)
10000fd6:	781a      	ldrb	r2, [r3, #0]
10000fd8:	7019      	strb	r1, [r3, #0]
10000fda:	71a2      	strb	r2, [r4, #6]
10000fdc:	f3bf 8f5f 	dmb	sy
10000fe0:	2200      	movs	r2, #0
10000fe2:	4b0b      	ldr	r3, [pc, #44]	; (10001010 <irq_add_tail_to_free_list+0x98>)
10000fe4:	601a      	str	r2, [r3, #0]
10000fe6:	f38c 8810 	msr	PRIMASK, ip
10000fea:	bdf8      	pop	{r3, r4, r5, r6, r7, pc}
10000fec:	68b2      	ldr	r2, [r6, #8]
10000fee:	480d      	ldr	r0, [pc, #52]	; (10001024 <irq_add_tail_to_free_list+0xac>)
10000ff0:	50d0      	str	r0, [r2, r3]
10000ff2:	e7ef      	b.n	10000fd4 <irq_add_tail_to_free_list+0x5c>
10000ff4:	2000      	movs	r0, #0
10000ff6:	0043      	lsls	r3, r0, #1
10000ff8:	181b      	adds	r3, r3, r0
10000ffa:	009b      	lsls	r3, r3, #2
10000ffc:	18d2      	adds	r2, r2, r3
10000ffe:	23ff      	movs	r3, #255	; 0xff
10001000:	7193      	strb	r3, [r2, #6]
10001002:	4b09      	ldr	r3, [pc, #36]	; (10001028 <irq_add_tail_to_free_list+0xb0>)
10001004:	8093      	strh	r3, [r2, #4]
10001006:	e7e5      	b.n	10000fd4 <irq_add_tail_to_free_list+0x5c>
10001008:	2001      	movs	r0, #1
1000100a:	e7f4      	b.n	10000ff6 <irq_add_tail_to_free_list+0x7e>
1000100c:	2002      	movs	r0, #2
1000100e:	e7f2      	b.n	10000ff6 <irq_add_tail_to_free_list+0x7e>
10001010:	d0000124 	.word	0xd0000124
10001014:	e000ed00 	.word	0xe000ed00
10001018:	20000394 	.word	0x20000394
1000101c:	0000aaaa 	.word	0x0000aaaa
10001020:	20001c48 	.word	0x20001c48
10001024:	100001cd 	.word	0x100001cd
10001028:	ffffbd00 	.word	0xffffbd00

1000102c <irq_init_priorities>:
1000102c:	4b05      	ldr	r3, [pc, #20]	; (10001044 <irq_init_priorities+0x18>)
1000102e:	4a06      	ldr	r2, [pc, #24]	; (10001048 <irq_init_priorities+0x1c>)
10001030:	6013      	str	r3, [r2, #0]
10001032:	4a06      	ldr	r2, [pc, #24]	; (1000104c <irq_init_priorities+0x20>)
10001034:	6013      	str	r3, [r2, #0]
10001036:	6053      	str	r3, [r2, #4]
10001038:	6093      	str	r3, [r2, #8]
1000103a:	60d3      	str	r3, [r2, #12]
1000103c:	6113      	str	r3, [r2, #16]
1000103e:	6153      	str	r3, [r2, #20]
10001040:	6193      	str	r3, [r2, #24]
10001042:	4770      	bx	lr
10001044:	80808080 	.word	0x80808080
10001048:	e000e400 	.word	0xe000e400
1000104c:	e000e404 	.word	0xe000e404

10001050 <user_irq_claim_unused>:
10001050:	23d0      	movs	r3, #208	; 0xd0
10001052:	b500      	push	{lr}
10001054:	061b      	lsls	r3, r3, #24
10001056:	681b      	ldr	r3, [r3, #0]
10001058:	0001      	movs	r1, r0
1000105a:	4807      	ldr	r0, [pc, #28]	; (10001078 <user_irq_claim_unused+0x28>)
1000105c:	b083      	sub	sp, #12
1000105e:	18c0      	adds	r0, r0, r3
10001060:	4b06      	ldr	r3, [pc, #24]	; (1000107c <user_irq_claim_unused+0x2c>)
10001062:	2200      	movs	r2, #0
10001064:	9300      	str	r3, [sp, #0]
10001066:	2305      	movs	r3, #5
10001068:	f7ff fcd8 	bl	10000a1c <hw_claim_unused_from_range>
1000106c:	2800      	cmp	r0, #0
1000106e:	db01      	blt.n	10001074 <user_irq_claim_unused+0x24>
10001070:	231f      	movs	r3, #31
10001072:	1a18      	subs	r0, r3, r0
10001074:	b003      	add	sp, #12
10001076:	bd00      	pop	{pc}
10001078:	20001c40 	.word	0x20001c40
1000107c:	1000b298 	.word	0x1000b298

10001080 <lock_init>:
10001080:	4b02      	ldr	r3, [pc, #8]	; (1000108c <lock_init+0xc>)
10001082:	469c      	mov	ip, r3
10001084:	4461      	add	r1, ip
10001086:	0089      	lsls	r1, r1, #2
10001088:	6001      	str	r1, [r0, #0]
1000108a:	4770      	bx	lr
1000108c:	34000040 	.word	0x34000040

10001090 <timer_pool_entry_comparator>:
10001090:	6883      	ldr	r3, [r0, #8]
10001092:	480b      	ldr	r0, [pc, #44]	; (100010c0 <timer_pool_entry_comparator+0x30>)
10001094:	b510      	push	{r4, lr}
10001096:	4684      	mov	ip, r0
10001098:	4461      	add	r1, ip
1000109a:	4462      	add	r2, ip
1000109c:	0109      	lsls	r1, r1, #4
1000109e:	0112      	lsls	r2, r2, #4
100010a0:	189a      	adds	r2, r3, r2
100010a2:	1859      	adds	r1, r3, r1
100010a4:	6854      	ldr	r4, [r2, #4]
100010a6:	684b      	ldr	r3, [r1, #4]
100010a8:	2001      	movs	r0, #1
100010aa:	429c      	cmp	r4, r3
100010ac:	d801      	bhi.n	100010b2 <timer_pool_entry_comparator+0x22>
100010ae:	d002      	beq.n	100010b6 <timer_pool_entry_comparator+0x26>
100010b0:	2000      	movs	r0, #0
100010b2:	b2c0      	uxtb	r0, r0
100010b4:	bd10      	pop	{r4, pc}
100010b6:	6812      	ldr	r2, [r2, #0]
100010b8:	680b      	ldr	r3, [r1, #0]
100010ba:	429a      	cmp	r2, r3
100010bc:	d8f9      	bhi.n	100010b2 <timer_pool_entry_comparator+0x22>
100010be:	e7f7      	b.n	100010b0 <timer_pool_entry_comparator+0x20>
100010c0:	0fffffff 	.word	0x0fffffff

100010c4 <sleep_until_callback>:
100010c4:	4b0a      	ldr	r3, [pc, #40]	; (100010f0 <sleep_until_callback+0x2c>)
100010c6:	6819      	ldr	r1, [r3, #0]
100010c8:	f3ef 8010 	mrs	r0, PRIMASK
100010cc:	b672      	cpsid	i
100010ce:	680a      	ldr	r2, [r1, #0]
100010d0:	2a00      	cmp	r2, #0
100010d2:	d0fc      	beq.n	100010ce <sleep_until_callback+0xa>
100010d4:	f3bf 8f5f 	dmb	sy
100010d8:	681b      	ldr	r3, [r3, #0]
100010da:	f3bf 8f5f 	dmb	sy
100010de:	2200      	movs	r2, #0
100010e0:	601a      	str	r2, [r3, #0]
100010e2:	f380 8810 	msr	PRIMASK, r0
100010e6:	bf40      	sev
100010e8:	2000      	movs	r0, #0
100010ea:	2100      	movs	r1, #0
100010ec:	4770      	bx	lr
100010ee:	46c0      	nop			; (mov r8, r8)
100010f0:	20001c08 	.word	0x20001c08

100010f4 <add_alarm_under_lock.isra.0>:
100010f4:	b5f8      	push	{r3, r4, r5, r6, r7, lr}
100010f6:	4657      	mov	r7, sl
100010f8:	464e      	mov	r6, r9
100010fa:	4645      	mov	r5, r8
100010fc:	46de      	mov	lr, fp
100010fe:	b5e0      	push	{r5, r6, r7, lr}
10001100:	4699      	mov	r9, r3
10001102:	ab0c      	add	r3, sp, #48	; 0x30
10001104:	781c      	ldrb	r4, [r3, #0]
10001106:	ab0d      	add	r3, sp, #52	; 0x34
10001108:	781b      	ldrb	r3, [r3, #0]
1000110a:	0006      	movs	r6, r0
1000110c:	4690      	mov	r8, r2
1000110e:	469a      	mov	sl, r3
10001110:	6807      	ldr	r7, [r0, #0]
10001112:	2c00      	cmp	r4, #0
10001114:	d111      	bne.n	1000113a <add_alarm_under_lock.isra.0+0x46>
10001116:	7bbc      	ldrb	r4, [r7, #14]
10001118:	2c00      	cmp	r4, #0
1000111a:	d042      	beq.n	100011a2 <add_alarm_under_lock.isra.0+0xae>
1000111c:	0065      	lsls	r5, r4, #1
1000111e:	683b      	ldr	r3, [r7, #0]
10001120:	192d      	adds	r5, r5, r4
10001122:	3d03      	subs	r5, #3
10001124:	1959      	adds	r1, r3, r5
10001126:	784b      	ldrb	r3, [r1, #1]
10001128:	73bb      	strb	r3, [r7, #14]
1000112a:	2b00      	cmp	r3, #0
1000112c:	d100      	bne.n	10001130 <add_alarm_under_lock.isra.0+0x3c>
1000112e:	73fb      	strb	r3, [r7, #15]
10001130:	2300      	movs	r3, #0
10001132:	708b      	strb	r3, [r1, #2]
10001134:	704b      	strb	r3, [r1, #1]
10001136:	700b      	strb	r3, [r1, #0]
10001138:	e004      	b.n	10001144 <add_alarm_under_lock.isra.0+0x50>
1000113a:	0065      	lsls	r5, r4, #1
1000113c:	683b      	ldr	r3, [r7, #0]
1000113e:	192d      	adds	r5, r5, r4
10001140:	3d03      	subs	r5, #3
10001142:	1959      	adds	r1, r3, r5
10001144:	68b2      	ldr	r2, [r6, #8]
10001146:	4b2a      	ldr	r3, [pc, #168]	; (100011f0 <add_alarm_under_lock.isra.0+0xfc>)
10001148:	4694      	mov	ip, r2
1000114a:	4642      	mov	r2, r8
1000114c:	18e3      	adds	r3, r4, r3
1000114e:	011b      	lsls	r3, r3, #4
10001150:	4463      	add	r3, ip
10001152:	601a      	str	r2, [r3, #0]
10001154:	464a      	mov	r2, r9
10001156:	605a      	str	r2, [r3, #4]
10001158:	9a0a      	ldr	r2, [sp, #40]	; 0x28
1000115a:	609a      	str	r2, [r3, #8]
1000115c:	9a0b      	ldr	r2, [sp, #44]	; 0x2c
1000115e:	60da      	str	r2, [r3, #12]
10001160:	2300      	movs	r3, #0
10001162:	708b      	strb	r3, [r1, #2]
10001164:	704b      	strb	r3, [r1, #1]
10001166:	700b      	strb	r3, [r1, #0]
10001168:	7b7b      	ldrb	r3, [r7, #13]
1000116a:	469b      	mov	fp, r3
1000116c:	2b00      	cmp	r3, #0
1000116e:	d02b      	beq.n	100011c8 <add_alarm_under_lock.isra.0+0xd4>
10001170:	0022      	movs	r2, r4
10001172:	4659      	mov	r1, fp
10001174:	68b8      	ldr	r0, [r7, #8]
10001176:	687b      	ldr	r3, [r7, #4]
10001178:	4798      	blx	r3
1000117a:	683a      	ldr	r2, [r7, #0]
1000117c:	2800      	cmp	r0, #0
1000117e:	d016      	beq.n	100011ae <add_alarm_under_lock.isra.0+0xba>
10001180:	465b      	mov	r3, fp
10001182:	4658      	mov	r0, fp
10001184:	005b      	lsls	r3, r3, #1
10001186:	445b      	add	r3, fp
10001188:	1955      	adds	r5, r2, r5
1000118a:	3b03      	subs	r3, #3
1000118c:	70a8      	strb	r0, [r5, #2]
1000118e:	18d1      	adds	r1, r2, r3
10001190:	5cd3      	ldrb	r3, [r2, r3]
10001192:	2b00      	cmp	r3, #0
10001194:	d000      	beq.n	10001198 <add_alarm_under_lock.isra.0+0xa4>
10001196:	706b      	strb	r3, [r5, #1]
10001198:	465b      	mov	r3, fp
1000119a:	700c      	strb	r4, [r1, #0]
1000119c:	737b      	strb	r3, [r7, #13]
1000119e:	45a3      	cmp	fp, r4
100011a0:	d013      	beq.n	100011ca <add_alarm_under_lock.isra.0+0xd6>
100011a2:	bcf0      	pop	{r4, r5, r6, r7}
100011a4:	46bb      	mov	fp, r7
100011a6:	46b2      	mov	sl, r6
100011a8:	46a9      	mov	r9, r5
100011aa:	46a0      	mov	r8, r4
100011ac:	bdf8      	pop	{r3, r4, r5, r6, r7, pc}
100011ae:	465b      	mov	r3, fp
100011b0:	005b      	lsls	r3, r3, #1
100011b2:	445b      	add	r3, fp
100011b4:	3b03      	subs	r3, #3
100011b6:	18d3      	adds	r3, r2, r3
100011b8:	709c      	strb	r4, [r3, #2]
100011ba:	1951      	adds	r1, r2, r5
100011bc:	5d52      	ldrb	r2, [r2, r5]
100011be:	2a00      	cmp	r2, #0
100011c0:	d000      	beq.n	100011c4 <add_alarm_under_lock.isra.0+0xd0>
100011c2:	705a      	strb	r2, [r3, #1]
100011c4:	465b      	mov	r3, fp
100011c6:	700b      	strb	r3, [r1, #0]
100011c8:	737c      	strb	r4, [r7, #13]
100011ca:	4642      	mov	r2, r8
100011cc:	464b      	mov	r3, r9
100011ce:	7d30      	ldrb	r0, [r6, #20]
100011d0:	f000 fba4 	bl	1000191c <hardware_alarm_set_target>
100011d4:	1e05      	subs	r5, r0, #0
100011d6:	d006      	beq.n	100011e6 <add_alarm_under_lock.isra.0+0xf2>
100011d8:	4653      	mov	r3, sl
100011da:	2b00      	cmp	r3, #0
100011dc:	d103      	bne.n	100011e6 <add_alarm_under_lock.isra.0+0xf2>
100011de:	0021      	movs	r1, r4
100011e0:	6830      	ldr	r0, [r6, #0]
100011e2:	f000 fdbd 	bl	10001d60 <ph_remove_and_free_node>
100011e6:	9b0e      	ldr	r3, [sp, #56]	; 0x38
100011e8:	2b00      	cmp	r3, #0
100011ea:	d0da      	beq.n	100011a2 <add_alarm_under_lock.isra.0+0xae>
100011ec:	701d      	strb	r5, [r3, #0]
100011ee:	e7d8      	b.n	100011a2 <add_alarm_under_lock.isra.0+0xae>
100011f0:	0fffffff 	.word	0x0fffffff

100011f4 <alarm_pool_alarm_callback>:
100011f4:	b5f0      	push	{r4, r5, r6, r7, lr}
100011f6:	46de      	mov	lr, fp
100011f8:	464e      	mov	r6, r9
100011fa:	4657      	mov	r7, sl
100011fc:	4645      	mov	r5, r8
100011fe:	2300      	movs	r3, #0
10001200:	b5e0      	push	{r5, r6, r7, lr}
10001202:	b08d      	sub	sp, #52	; 0x34
10001204:	930a      	str	r3, [sp, #40]	; 0x28
10001206:	4b6b      	ldr	r3, [pc, #428]	; (100013b4 <alarm_pool_alarm_callback+0x1c0>)
10001208:	0082      	lsls	r2, r0, #2
1000120a:	58d3      	ldr	r3, [r2, r3]
1000120c:	900b      	str	r0, [sp, #44]	; 0x2c
1000120e:	4699      	mov	r9, r3
10001210:	2300      	movs	r3, #0
10001212:	469b      	mov	fp, r3
10001214:	464b      	mov	r3, r9
10001216:	9307      	str	r3, [sp, #28]
10001218:	f000 fb30 	bl	1000187c <time_us_64>
1000121c:	9c07      	ldr	r4, [sp, #28]
1000121e:	0006      	movs	r6, r0
10001220:	000f      	movs	r7, r1
10001222:	6862      	ldr	r2, [r4, #4]
10001224:	f3ef 8510 	mrs	r5, PRIMASK
10001228:	b672      	cpsid	i
1000122a:	6813      	ldr	r3, [r2, #0]
1000122c:	2b00      	cmp	r3, #0
1000122e:	d0fc      	beq.n	1000122a <alarm_pool_alarm_callback+0x36>
10001230:	0022      	movs	r2, r4
10001232:	9407      	str	r4, [sp, #28]
10001234:	f3bf 8f5f 	dmb	sy
10001238:	6824      	ldr	r4, [r4, #0]
1000123a:	7b63      	ldrb	r3, [r4, #13]
1000123c:	4699      	mov	r9, r3
1000123e:	2b00      	cmp	r3, #0
10001240:	d067      	beq.n	10001312 <alarm_pool_alarm_callback+0x11e>
10001242:	6892      	ldr	r2, [r2, #8]
10001244:	4b5c      	ldr	r3, [pc, #368]	; (100013b8 <alarm_pool_alarm_callback+0x1c4>)
10001246:	4690      	mov	r8, r2
10001248:	444b      	add	r3, r9
1000124a:	011b      	lsls	r3, r3, #4
1000124c:	4498      	add	r8, r3
1000124e:	4643      	mov	r3, r8
10001250:	681a      	ldr	r2, [r3, #0]
10001252:	685b      	ldr	r3, [r3, #4]
10001254:	0010      	movs	r0, r2
10001256:	0019      	movs	r1, r3
10001258:	1b80      	subs	r0, r0, r6
1000125a:	41b9      	sbcs	r1, r7
1000125c:	2900      	cmp	r1, #0
1000125e:	dd5f      	ble.n	10001320 <alarm_pool_alarm_callback+0x12c>
10001260:	980b      	ldr	r0, [sp, #44]	; 0x2c
10001262:	f000 fb5b 	bl	1000191c <hardware_alarm_set_target>
10001266:	2300      	movs	r3, #0
10001268:	2600      	movs	r6, #0
1000126a:	4698      	mov	r8, r3
1000126c:	2700      	movs	r7, #0
1000126e:	469a      	mov	sl, r3
10001270:	9c07      	ldr	r4, [sp, #28]
10001272:	6863      	ldr	r3, [r4, #4]
10001274:	f3bf 8f5f 	dmb	sy
10001278:	465a      	mov	r2, fp
1000127a:	601a      	str	r2, [r3, #0]
1000127c:	f385 8810 	msr	PRIMASK, r5
10001280:	4653      	mov	r3, sl
10001282:	2b00      	cmp	r3, #0
10001284:	d108      	bne.n	10001298 <alarm_pool_alarm_callback+0xa4>
10001286:	2800      	cmp	r0, #0
10001288:	d1c6      	bne.n	10001218 <alarm_pool_alarm_callback+0x24>
1000128a:	b00d      	add	sp, #52	; 0x34
1000128c:	bcf0      	pop	{r4, r5, r6, r7}
1000128e:	46bb      	mov	fp, r7
10001290:	46b2      	mov	sl, r6
10001292:	46a9      	mov	r9, r5
10001294:	46a0      	mov	r8, r4
10001296:	bdf0      	pop	{r4, r5, r6, r7, pc}
10001298:	9b0a      	ldr	r3, [sp, #40]	; 0x28
1000129a:	4641      	mov	r1, r8
1000129c:	0218      	lsls	r0, r3, #8
1000129e:	464b      	mov	r3, r9
100012a0:	4318      	orrs	r0, r3
100012a2:	47d0      	blx	sl
100012a4:	9008      	str	r0, [sp, #32]
100012a6:	9109      	str	r1, [sp, #36]	; 0x24
100012a8:	6862      	ldr	r2, [r4, #4]
100012aa:	f3ef 8510 	mrs	r5, PRIMASK
100012ae:	b672      	cpsid	i
100012b0:	6813      	ldr	r3, [r2, #0]
100012b2:	2b00      	cmp	r3, #0
100012b4:	d0fc      	beq.n	100012b0 <alarm_pool_alarm_callback+0xbc>
100012b6:	9407      	str	r4, [sp, #28]
100012b8:	f3bf 8f5f 	dmb	sy
100012bc:	9908      	ldr	r1, [sp, #32]
100012be:	9a09      	ldr	r2, [sp, #36]	; 0x24
100012c0:	2a00      	cmp	r2, #0
100012c2:	db48      	blt.n	10001356 <alarm_pool_alarm_callback+0x162>
100012c4:	4311      	orrs	r1, r2
100012c6:	d003      	beq.n	100012d0 <alarm_pool_alarm_callback+0xdc>
100012c8:	9b07      	ldr	r3, [sp, #28]
100012ca:	691b      	ldr	r3, [r3, #16]
100012cc:	2b00      	cmp	r3, #0
100012ce:	d15d      	bne.n	1000138c <alarm_pool_alarm_callback+0x198>
100012d0:	9b07      	ldr	r3, [sp, #28]
100012d2:	681b      	ldr	r3, [r3, #0]
100012d4:	7bd9      	ldrb	r1, [r3, #15]
100012d6:	2900      	cmp	r1, #0
100012d8:	d007      	beq.n	100012ea <alarm_pool_alarm_callback+0xf6>
100012da:	004a      	lsls	r2, r1, #1
100012dc:	1852      	adds	r2, r2, r1
100012de:	6819      	ldr	r1, [r3, #0]
100012e0:	468c      	mov	ip, r1
100012e2:	4649      	mov	r1, r9
100012e4:	4462      	add	r2, ip
100012e6:	3a03      	subs	r2, #3
100012e8:	7051      	strb	r1, [r2, #1]
100012ea:	464a      	mov	r2, r9
100012ec:	73da      	strb	r2, [r3, #15]
100012ee:	464b      	mov	r3, r9
100012f0:	9a07      	ldr	r2, [sp, #28]
100012f2:	3b01      	subs	r3, #1
100012f4:	68d1      	ldr	r1, [r2, #12]
100012f6:	5cca      	ldrb	r2, [r1, r3]
100012f8:	3201      	adds	r2, #1
100012fa:	54ca      	strb	r2, [r1, r3]
100012fc:	465b      	mov	r3, fp
100012fe:	9a07      	ldr	r2, [sp, #28]
10001300:	6113      	str	r3, [r2, #16]
10001302:	6853      	ldr	r3, [r2, #4]
10001304:	f3bf 8f5f 	dmb	sy
10001308:	465a      	mov	r2, fp
1000130a:	601a      	str	r2, [r3, #0]
1000130c:	f385 8810 	msr	PRIMASK, r5
10001310:	e782      	b.n	10001218 <alarm_pool_alarm_callback+0x24>
10001312:	2300      	movs	r3, #0
10001314:	2600      	movs	r6, #0
10001316:	4698      	mov	r8, r3
10001318:	2700      	movs	r7, #0
1000131a:	469a      	mov	sl, r3
1000131c:	2000      	movs	r0, #0
1000131e:	e7a7      	b.n	10001270 <alarm_pool_alarm_callback+0x7c>
10001320:	2900      	cmp	r1, #0
10001322:	d101      	bne.n	10001328 <alarm_pool_alarm_callback+0x134>
10001324:	2800      	cmp	r0, #0
10001326:	d19b      	bne.n	10001260 <alarm_pool_alarm_callback+0x6c>
10001328:	2100      	movs	r1, #0
1000132a:	0020      	movs	r0, r4
1000132c:	f000 fc9a 	bl	10001c64 <ph_remove_head>
10001330:	4643      	mov	r3, r8
10001332:	681e      	ldr	r6, [r3, #0]
10001334:	685f      	ldr	r7, [r3, #4]
10001336:	689b      	ldr	r3, [r3, #8]
10001338:	9a07      	ldr	r2, [sp, #28]
1000133a:	469a      	mov	sl, r3
1000133c:	4643      	mov	r3, r8
1000133e:	68db      	ldr	r3, [r3, #12]
10001340:	4698      	mov	r8, r3
10001342:	68d3      	ldr	r3, [r2, #12]
10001344:	444b      	add	r3, r9
10001346:	3b01      	subs	r3, #1
10001348:	781b      	ldrb	r3, [r3, #0]
1000134a:	930a      	str	r3, [sp, #40]	; 0x28
1000134c:	021b      	lsls	r3, r3, #8
1000134e:	4303      	orrs	r3, r0
10001350:	6113      	str	r3, [r2, #16]
10001352:	2000      	movs	r0, #0
10001354:	e78c      	b.n	10001270 <alarm_pool_alarm_callback+0x7c>
10001356:	6923      	ldr	r3, [r4, #16]
10001358:	2b00      	cmp	r3, #0
1000135a:	d0b9      	beq.n	100012d0 <alarm_pool_alarm_callback+0xdc>
1000135c:	0033      	movs	r3, r6
1000135e:	003c      	movs	r4, r7
10001360:	1a5b      	subs	r3, r3, r1
10001362:	4194      	sbcs	r4, r2
10001364:	001a      	movs	r2, r3
10001366:	0023      	movs	r3, r4
10001368:	42a7      	cmp	r7, r4
1000136a:	d819      	bhi.n	100013a0 <alarm_pool_alarm_callback+0x1ac>
1000136c:	429f      	cmp	r7, r3
1000136e:	d01b      	beq.n	100013a8 <alarm_pool_alarm_callback+0x1b4>
10001370:	4659      	mov	r1, fp
10001372:	9104      	str	r1, [sp, #16]
10001374:	2101      	movs	r1, #1
10001376:	9103      	str	r1, [sp, #12]
10001378:	4649      	mov	r1, r9
1000137a:	9102      	str	r1, [sp, #8]
1000137c:	4641      	mov	r1, r8
1000137e:	9101      	str	r1, [sp, #4]
10001380:	4651      	mov	r1, sl
10001382:	9807      	ldr	r0, [sp, #28]
10001384:	9100      	str	r1, [sp, #0]
10001386:	f7ff feb5 	bl	100010f4 <add_alarm_under_lock.isra.0>
1000138a:	e7b7      	b.n	100012fc <alarm_pool_alarm_callback+0x108>
1000138c:	f000 fa76 	bl	1000187c <time_us_64>
10001390:	9a08      	ldr	r2, [sp, #32]
10001392:	9b09      	ldr	r3, [sp, #36]	; 0x24
10001394:	0006      	movs	r6, r0
10001396:	000f      	movs	r7, r1
10001398:	1992      	adds	r2, r2, r6
1000139a:	417b      	adcs	r3, r7
1000139c:	4299      	cmp	r1, r3
1000139e:	d9e5      	bls.n	1000136c <alarm_pool_alarm_callback+0x178>
100013a0:	2201      	movs	r2, #1
100013a2:	4252      	negs	r2, r2
100013a4:	17d3      	asrs	r3, r2, #31
100013a6:	e7e3      	b.n	10001370 <alarm_pool_alarm_callback+0x17c>
100013a8:	4296      	cmp	r6, r2
100013aa:	d9e1      	bls.n	10001370 <alarm_pool_alarm_callback+0x17c>
100013ac:	2201      	movs	r2, #1
100013ae:	4252      	negs	r2, r2
100013b0:	17d3      	asrs	r3, r2, #31
100013b2:	e7dd      	b.n	10001370 <alarm_pool_alarm_callback+0x17c>
100013b4:	20001be8 	.word	0x20001be8
100013b8:	0fffffff 	.word	0x0fffffff

100013bc <alarm_pool_add_alarm_at.constprop.0>:
100013bc:	b5f8      	push	{r3, r4, r5, r6, r7, lr}
100013be:	4657      	mov	r7, sl
100013c0:	464e      	mov	r6, r9
100013c2:	4645      	mov	r5, r8
100013c4:	46de      	mov	lr, fp
100013c6:	b5e0      	push	{r5, r6, r7, lr}
100013c8:	4d40      	ldr	r5, [pc, #256]	; (100014cc <alarm_pool_add_alarm_at.constprop.0+0x110>)
100013ca:	4681      	mov	r9, r0
100013cc:	468a      	mov	sl, r1
100013ce:	686a      	ldr	r2, [r5, #4]
100013d0:	f3ef 8810 	mrs	r8, PRIMASK
100013d4:	b672      	cpsid	i
100013d6:	6813      	ldr	r3, [r2, #0]
100013d8:	2b00      	cmp	r3, #0
100013da:	d0fc      	beq.n	100013d6 <alarm_pool_add_alarm_at.constprop.0+0x1a>
100013dc:	f3bf 8f5f 	dmb	sy
100013e0:	682e      	ldr	r6, [r5, #0]
100013e2:	7bb4      	ldrb	r4, [r6, #14]
100013e4:	2c00      	cmp	r4, #0
100013e6:	d039      	beq.n	1000145c <alarm_pool_add_alarm_at.constprop.0+0xa0>
100013e8:	0067      	lsls	r7, r4, #1
100013ea:	6833      	ldr	r3, [r6, #0]
100013ec:	193f      	adds	r7, r7, r4
100013ee:	3f03      	subs	r7, #3
100013f0:	19db      	adds	r3, r3, r7
100013f2:	785a      	ldrb	r2, [r3, #1]
100013f4:	73b2      	strb	r2, [r6, #14]
100013f6:	2a00      	cmp	r2, #0
100013f8:	d100      	bne.n	100013fc <alarm_pool_add_alarm_at.constprop.0+0x40>
100013fa:	73f2      	strb	r2, [r6, #15]
100013fc:	68a9      	ldr	r1, [r5, #8]
100013fe:	4a34      	ldr	r2, [pc, #208]	; (100014d0 <alarm_pool_add_alarm_at.constprop.0+0x114>)
10001400:	468c      	mov	ip, r1
10001402:	4649      	mov	r1, r9
10001404:	18a2      	adds	r2, r4, r2
10001406:	0112      	lsls	r2, r2, #4
10001408:	4462      	add	r2, ip
1000140a:	6011      	str	r1, [r2, #0]
1000140c:	4651      	mov	r1, sl
1000140e:	6051      	str	r1, [r2, #4]
10001410:	4930      	ldr	r1, [pc, #192]	; (100014d4 <alarm_pool_add_alarm_at.constprop.0+0x118>)
10001412:	6091      	str	r1, [r2, #8]
10001414:	2100      	movs	r1, #0
10001416:	60d1      	str	r1, [r2, #12]
10001418:	7099      	strb	r1, [r3, #2]
1000141a:	7059      	strb	r1, [r3, #1]
1000141c:	7019      	strb	r1, [r3, #0]
1000141e:	7b73      	ldrb	r3, [r6, #13]
10001420:	469b      	mov	fp, r3
10001422:	2b00      	cmp	r3, #0
10001424:	d035      	beq.n	10001492 <alarm_pool_add_alarm_at.constprop.0+0xd6>
10001426:	0022      	movs	r2, r4
10001428:	0019      	movs	r1, r3
1000142a:	68b0      	ldr	r0, [r6, #8]
1000142c:	6873      	ldr	r3, [r6, #4]
1000142e:	4798      	blx	r3
10001430:	6832      	ldr	r2, [r6, #0]
10001432:	2800      	cmp	r0, #0
10001434:	d020      	beq.n	10001478 <alarm_pool_add_alarm_at.constprop.0+0xbc>
10001436:	465b      	mov	r3, fp
10001438:	4658      	mov	r0, fp
1000143a:	005b      	lsls	r3, r3, #1
1000143c:	445b      	add	r3, fp
1000143e:	19d7      	adds	r7, r2, r7
10001440:	3b03      	subs	r3, #3
10001442:	70b8      	strb	r0, [r7, #2]
10001444:	18d1      	adds	r1, r2, r3
10001446:	5cd3      	ldrb	r3, [r2, r3]
10001448:	2b00      	cmp	r3, #0
1000144a:	d000      	beq.n	1000144e <alarm_pool_add_alarm_at.constprop.0+0x92>
1000144c:	707b      	strb	r3, [r7, #1]
1000144e:	465b      	mov	r3, fp
10001450:	700c      	strb	r4, [r1, #0]
10001452:	7373      	strb	r3, [r6, #13]
10001454:	455c      	cmp	r4, fp
10001456:	d01d      	beq.n	10001494 <alarm_pool_add_alarm_at.constprop.0+0xd8>
10001458:	2600      	movs	r6, #0
1000145a:	e026      	b.n	100014aa <alarm_pool_add_alarm_at.constprop.0+0xee>
1000145c:	686b      	ldr	r3, [r5, #4]
1000145e:	f3bf 8f5f 	dmb	sy
10001462:	601c      	str	r4, [r3, #0]
10001464:	f388 8810 	msr	PRIMASK, r8
10001468:	2001      	movs	r0, #1
1000146a:	4240      	negs	r0, r0
1000146c:	bcf0      	pop	{r4, r5, r6, r7}
1000146e:	46bb      	mov	fp, r7
10001470:	46b2      	mov	sl, r6
10001472:	46a9      	mov	r9, r5
10001474:	46a0      	mov	r8, r4
10001476:	bdf8      	pop	{r3, r4, r5, r6, r7, pc}
10001478:	465b      	mov	r3, fp
1000147a:	005b      	lsls	r3, r3, #1
1000147c:	445b      	add	r3, fp
1000147e:	3b03      	subs	r3, #3
10001480:	18d3      	adds	r3, r2, r3
10001482:	709c      	strb	r4, [r3, #2]
10001484:	19d1      	adds	r1, r2, r7
10001486:	5dd2      	ldrb	r2, [r2, r7]
10001488:	2a00      	cmp	r2, #0
1000148a:	d000      	beq.n	1000148e <alarm_pool_add_alarm_at.constprop.0+0xd2>
1000148c:	705a      	strb	r2, [r3, #1]
1000148e:	465b      	mov	r3, fp
10001490:	700b      	strb	r3, [r1, #0]
10001492:	7374      	strb	r4, [r6, #13]
10001494:	464a      	mov	r2, r9
10001496:	4653      	mov	r3, sl
10001498:	7d28      	ldrb	r0, [r5, #20]
1000149a:	f000 fa3f 	bl	1000191c <hardware_alarm_set_target>
1000149e:	1e06      	subs	r6, r0, #0
100014a0:	d0da      	beq.n	10001458 <alarm_pool_add_alarm_at.constprop.0+0x9c>
100014a2:	0021      	movs	r1, r4
100014a4:	6828      	ldr	r0, [r5, #0]
100014a6:	f000 fc5b 	bl	10001d60 <ph_remove_and_free_node>
100014aa:	68eb      	ldr	r3, [r5, #12]
100014ac:	191b      	adds	r3, r3, r4
100014ae:	3b01      	subs	r3, #1
100014b0:	7819      	ldrb	r1, [r3, #0]
100014b2:	686b      	ldr	r3, [r5, #4]
100014b4:	f3bf 8f5f 	dmb	sy
100014b8:	2200      	movs	r2, #0
100014ba:	601a      	str	r2, [r3, #0]
100014bc:	f388 8810 	msr	PRIMASK, r8
100014c0:	2000      	movs	r0, #0
100014c2:	2e00      	cmp	r6, #0
100014c4:	d1d2      	bne.n	1000146c <alarm_pool_add_alarm_at.constprop.0+0xb0>
100014c6:	0208      	lsls	r0, r1, #8
100014c8:	4320      	orrs	r0, r4
100014ca:	e7cf      	b.n	1000146c <alarm_pool_add_alarm_at.constprop.0+0xb0>
100014cc:	200003dc 	.word	0x200003dc
100014d0:	0fffffff 	.word	0x0fffffff
100014d4:	100010c5 	.word	0x100010c5

100014d8 <alarm_pool_init_default>:
100014d8:	b510      	push	{r4, lr}
100014da:	4c12      	ldr	r4, [pc, #72]	; (10001524 <alarm_pool_init_default+0x4c>)
100014dc:	6863      	ldr	r3, [r4, #4]
100014de:	2b00      	cmp	r3, #0
100014e0:	d004      	beq.n	100014ec <alarm_pool_init_default+0x14>
100014e2:	210a      	movs	r1, #10
100014e4:	4810      	ldr	r0, [pc, #64]	; (10001528 <alarm_pool_init_default+0x50>)
100014e6:	f7ff fdcb 	bl	10001080 <lock_init>
100014ea:	bd10      	pop	{r4, pc}
100014ec:	0023      	movs	r3, r4
100014ee:	4a0f      	ldr	r2, [pc, #60]	; (1000152c <alarm_pool_init_default+0x54>)
100014f0:	2110      	movs	r1, #16
100014f2:	6820      	ldr	r0, [r4, #0]
100014f4:	f000 fad4 	bl	10001aa0 <ph_post_alloc_init>
100014f8:	2003      	movs	r0, #3
100014fa:	f000 f9b3 	bl	10001864 <hardware_alarm_claim>
100014fe:	2003      	movs	r0, #3
10001500:	f000 fa7c 	bl	100019fc <hardware_alarm_cancel>
10001504:	2003      	movs	r0, #3
10001506:	490a      	ldr	r1, [pc, #40]	; (10001530 <alarm_pool_init_default+0x58>)
10001508:	f000 f9c2 	bl	10001890 <hardware_alarm_set_callback>
1000150c:	f7ff faea 	bl	10000ae4 <next_striped_spin_lock_num>
10001510:	4b08      	ldr	r3, [pc, #32]	; (10001534 <alarm_pool_init_default+0x5c>)
10001512:	469c      	mov	ip, r3
10001514:	2303      	movs	r3, #3
10001516:	4460      	add	r0, ip
10001518:	7523      	strb	r3, [r4, #20]
1000151a:	4b07      	ldr	r3, [pc, #28]	; (10001538 <alarm_pool_init_default+0x60>)
1000151c:	0080      	lsls	r0, r0, #2
1000151e:	6060      	str	r0, [r4, #4]
10001520:	60dc      	str	r4, [r3, #12]
10001522:	e7de      	b.n	100014e2 <alarm_pool_init_default+0xa>
10001524:	200003dc 	.word	0x200003dc
10001528:	20001c08 	.word	0x20001c08
1000152c:	10001091 	.word	0x10001091
10001530:	100011f5 	.word	0x100011f5
10001534:	34000040 	.word	0x34000040
10001538:	20001be8 	.word	0x20001be8

1000153c <alarm_pool_get_default>:
1000153c:	4800      	ldr	r0, [pc, #0]	; (10001540 <alarm_pool_get_default+0x4>)
1000153e:	4770      	bx	lr
10001540:	200003dc 	.word	0x200003dc

10001544 <alarm_pool_add_alarm_at>:
10001544:	b5f0      	push	{r4, r5, r6, r7, lr}
10001546:	4657      	mov	r7, sl
10001548:	464e      	mov	r6, r9
1000154a:	4645      	mov	r5, r8
1000154c:	46de      	mov	lr, fp
1000154e:	b5e0      	push	{r5, r6, r7, lr}
10001550:	b085      	sub	sp, #20
10001552:	9301      	str	r3, [sp, #4]
10001554:	ab10      	add	r3, sp, #64	; 0x40
10001556:	781b      	ldrb	r3, [r3, #0]
10001558:	0006      	movs	r6, r0
1000155a:	9303      	str	r3, [sp, #12]
1000155c:	2300      	movs	r3, #0
1000155e:	469a      	mov	sl, r3
10001560:	4698      	mov	r8, r3
10001562:	9200      	str	r2, [sp, #0]
10001564:	6872      	ldr	r2, [r6, #4]
10001566:	f3ef 8910 	mrs	r9, PRIMASK
1000156a:	b672      	cpsid	i
1000156c:	6813      	ldr	r3, [r2, #0]
1000156e:	2b00      	cmp	r3, #0
10001570:	d0fc      	beq.n	1000156c <alarm_pool_add_alarm_at+0x28>
10001572:	f3bf 8f5f 	dmb	sy
10001576:	6835      	ldr	r5, [r6, #0]
10001578:	7bac      	ldrb	r4, [r5, #14]
1000157a:	2c00      	cmp	r4, #0
1000157c:	d049      	beq.n	10001612 <alarm_pool_add_alarm_at+0xce>
1000157e:	0067      	lsls	r7, r4, #1
10001580:	682b      	ldr	r3, [r5, #0]
10001582:	193f      	adds	r7, r7, r4
10001584:	3f03      	subs	r7, #3
10001586:	19db      	adds	r3, r3, r7
10001588:	785a      	ldrb	r2, [r3, #1]
1000158a:	73aa      	strb	r2, [r5, #14]
1000158c:	2a00      	cmp	r2, #0
1000158e:	d100      	bne.n	10001592 <alarm_pool_add_alarm_at+0x4e>
10001590:	73ea      	strb	r2, [r5, #15]
10001592:	68b1      	ldr	r1, [r6, #8]
10001594:	4a4f      	ldr	r2, [pc, #316]	; (100016d4 <alarm_pool_add_alarm_at+0x190>)
10001596:	468c      	mov	ip, r1
10001598:	9800      	ldr	r0, [sp, #0]
1000159a:	9901      	ldr	r1, [sp, #4]
1000159c:	18a2      	adds	r2, r4, r2
1000159e:	0112      	lsls	r2, r2, #4
100015a0:	4462      	add	r2, ip
100015a2:	6010      	str	r0, [r2, #0]
100015a4:	6051      	str	r1, [r2, #4]
100015a6:	990e      	ldr	r1, [sp, #56]	; 0x38
100015a8:	6091      	str	r1, [r2, #8]
100015aa:	990f      	ldr	r1, [sp, #60]	; 0x3c
100015ac:	60d1      	str	r1, [r2, #12]
100015ae:	4642      	mov	r2, r8
100015b0:	709a      	strb	r2, [r3, #2]
100015b2:	705a      	strb	r2, [r3, #1]
100015b4:	701a      	strb	r2, [r3, #0]
100015b6:	7b6b      	ldrb	r3, [r5, #13]
100015b8:	469b      	mov	fp, r3
100015ba:	2b00      	cmp	r3, #0
100015bc:	d045      	beq.n	1000164a <alarm_pool_add_alarm_at+0x106>
100015be:	0022      	movs	r2, r4
100015c0:	0019      	movs	r1, r3
100015c2:	68a8      	ldr	r0, [r5, #8]
100015c4:	686b      	ldr	r3, [r5, #4]
100015c6:	4798      	blx	r3
100015c8:	682a      	ldr	r2, [r5, #0]
100015ca:	2800      	cmp	r0, #0
100015cc:	d030      	beq.n	10001630 <alarm_pool_add_alarm_at+0xec>
100015ce:	465b      	mov	r3, fp
100015d0:	4658      	mov	r0, fp
100015d2:	005b      	lsls	r3, r3, #1
100015d4:	445b      	add	r3, fp
100015d6:	19d7      	adds	r7, r2, r7
100015d8:	3b03      	subs	r3, #3
100015da:	70b8      	strb	r0, [r7, #2]
100015dc:	18d1      	adds	r1, r2, r3
100015de:	5cd3      	ldrb	r3, [r2, r3]
100015e0:	2b00      	cmp	r3, #0
100015e2:	d000      	beq.n	100015e6 <alarm_pool_add_alarm_at+0xa2>
100015e4:	707b      	strb	r3, [r7, #1]
100015e6:	465b      	mov	r3, fp
100015e8:	700c      	strb	r4, [r1, #0]
100015ea:	736b      	strb	r3, [r5, #13]
100015ec:	455c      	cmp	r4, fp
100015ee:	d02d      	beq.n	1000164c <alarm_pool_add_alarm_at+0x108>
100015f0:	68f3      	ldr	r3, [r6, #12]
100015f2:	191b      	adds	r3, r3, r4
100015f4:	3b01      	subs	r3, #1
100015f6:	7818      	ldrb	r0, [r3, #0]
100015f8:	6873      	ldr	r3, [r6, #4]
100015fa:	f3bf 8f5f 	dmb	sy
100015fe:	4642      	mov	r2, r8
10001600:	601a      	str	r2, [r3, #0]
10001602:	f389 8810 	msr	PRIMASK, r9
10001606:	4653      	mov	r3, sl
10001608:	2b00      	cmp	r3, #0
1000160a:	d12c      	bne.n	10001666 <alarm_pool_add_alarm_at+0x122>
1000160c:	0200      	lsls	r0, r0, #8
1000160e:	4320      	orrs	r0, r4
10001610:	e007      	b.n	10001622 <alarm_pool_add_alarm_at+0xde>
10001612:	6873      	ldr	r3, [r6, #4]
10001614:	f3bf 8f5f 	dmb	sy
10001618:	601c      	str	r4, [r3, #0]
1000161a:	f389 8810 	msr	PRIMASK, r9
1000161e:	2001      	movs	r0, #1
10001620:	4240      	negs	r0, r0
10001622:	b005      	add	sp, #20
10001624:	bcf0      	pop	{r4, r5, r6, r7}
10001626:	46bb      	mov	fp, r7
10001628:	46b2      	mov	sl, r6
1000162a:	46a9      	mov	r9, r5
1000162c:	46a0      	mov	r8, r4
1000162e:	bdf0      	pop	{r4, r5, r6, r7, pc}
10001630:	465b      	mov	r3, fp
10001632:	005b      	lsls	r3, r3, #1
10001634:	445b      	add	r3, fp
10001636:	3b03      	subs	r3, #3
10001638:	18d3      	adds	r3, r2, r3
1000163a:	709c      	strb	r4, [r3, #2]
1000163c:	19d1      	adds	r1, r2, r7
1000163e:	5dd2      	ldrb	r2, [r2, r7]
10001640:	2a00      	cmp	r2, #0
10001642:	d000      	beq.n	10001646 <alarm_pool_add_alarm_at+0x102>
10001644:	705a      	strb	r2, [r3, #1]
10001646:	465b      	mov	r3, fp
10001648:	700b      	strb	r3, [r1, #0]
1000164a:	736c      	strb	r4, [r5, #13]
1000164c:	7d30      	ldrb	r0, [r6, #20]
1000164e:	9a00      	ldr	r2, [sp, #0]
10001650:	9b01      	ldr	r3, [sp, #4]
10001652:	f000 f963 	bl	1000191c <hardware_alarm_set_target>
10001656:	4682      	mov	sl, r0
10001658:	2800      	cmp	r0, #0
1000165a:	d0c9      	beq.n	100015f0 <alarm_pool_add_alarm_at+0xac>
1000165c:	0021      	movs	r1, r4
1000165e:	6830      	ldr	r0, [r6, #0]
10001660:	f000 fb7e 	bl	10001d60 <ph_remove_and_free_node>
10001664:	e7c4      	b.n	100015f0 <alarm_pool_add_alarm_at+0xac>
10001666:	9b03      	ldr	r3, [sp, #12]
10001668:	2b00      	cmp	r3, #0
1000166a:	d030      	beq.n	100016ce <alarm_pool_add_alarm_at+0x18a>
1000166c:	9b0e      	ldr	r3, [sp, #56]	; 0x38
1000166e:	2000      	movs	r0, #0
10001670:	990f      	ldr	r1, [sp, #60]	; 0x3c
10001672:	4798      	blx	r3
10001674:	0003      	movs	r3, r0
10001676:	0004      	movs	r4, r0
10001678:	000d      	movs	r5, r1
1000167a:	430b      	orrs	r3, r1
1000167c:	d027      	beq.n	100016ce <alarm_pool_add_alarm_at+0x18a>
1000167e:	2900      	cmp	r1, #0
10001680:	da0d      	bge.n	1000169e <alarm_pool_add_alarm_at+0x15a>
10001682:	9800      	ldr	r0, [sp, #0]
10001684:	9901      	ldr	r1, [sp, #4]
10001686:	0002      	movs	r2, r0
10001688:	000b      	movs	r3, r1
1000168a:	1b12      	subs	r2, r2, r4
1000168c:	41ab      	sbcs	r3, r5
1000168e:	4299      	cmp	r1, r3
10001690:	d813      	bhi.n	100016ba <alarm_pool_add_alarm_at+0x176>
10001692:	d018      	beq.n	100016c6 <alarm_pool_add_alarm_at+0x182>
10001694:	9200      	str	r2, [sp, #0]
10001696:	9301      	str	r3, [sp, #4]
10001698:	9b03      	ldr	r3, [sp, #12]
1000169a:	469a      	mov	sl, r3
1000169c:	e762      	b.n	10001564 <alarm_pool_add_alarm_at+0x20>
1000169e:	f000 f8ed 	bl	1000187c <time_us_64>
100016a2:	0002      	movs	r2, r0
100016a4:	000b      	movs	r3, r1
100016a6:	18a4      	adds	r4, r4, r2
100016a8:	415d      	adcs	r5, r3
100016aa:	9400      	str	r4, [sp, #0]
100016ac:	9501      	str	r5, [sp, #4]
100016ae:	42a9      	cmp	r1, r5
100016b0:	d803      	bhi.n	100016ba <alarm_pool_add_alarm_at+0x176>
100016b2:	d1f1      	bne.n	10001698 <alarm_pool_add_alarm_at+0x154>
100016b4:	9900      	ldr	r1, [sp, #0]
100016b6:	428a      	cmp	r2, r1
100016b8:	d9ee      	bls.n	10001698 <alarm_pool_add_alarm_at+0x154>
100016ba:	2301      	movs	r3, #1
100016bc:	425b      	negs	r3, r3
100016be:	17dc      	asrs	r4, r3, #31
100016c0:	9300      	str	r3, [sp, #0]
100016c2:	9401      	str	r4, [sp, #4]
100016c4:	e7e8      	b.n	10001698 <alarm_pool_add_alarm_at+0x154>
100016c6:	9900      	ldr	r1, [sp, #0]
100016c8:	4291      	cmp	r1, r2
100016ca:	d9e3      	bls.n	10001694 <alarm_pool_add_alarm_at+0x150>
100016cc:	e7f5      	b.n	100016ba <alarm_pool_add_alarm_at+0x176>
100016ce:	2000      	movs	r0, #0
100016d0:	e7a7      	b.n	10001622 <alarm_pool_add_alarm_at+0xde>
100016d2:	46c0      	nop			; (mov r8, r8)
100016d4:	0fffffff 	.word	0x0fffffff

100016d8 <best_effort_wfe_or_timeout>:
100016d8:	b5f8      	push	{r3, r4, r5, r6, r7, lr}
100016da:	46ce      	mov	lr, r9
100016dc:	4647      	mov	r7, r8
100016de:	b580      	push	{r7, lr}
100016e0:	0006      	movs	r6, r0
100016e2:	000c      	movs	r4, r1
100016e4:	f7ff fe6a 	bl	100013bc <alarm_pool_add_alarm_at.constprop.0>
100016e8:	2800      	cmp	r0, #0
100016ea:	dc0c      	bgt.n	10001706 <best_effort_wfe_or_timeout+0x2e>
100016ec:	4b2d      	ldr	r3, [pc, #180]	; (100017a4 <best_effort_wfe_or_timeout+0xcc>)
100016ee:	2000      	movs	r0, #0
100016f0:	6a59      	ldr	r1, [r3, #36]	; 0x24
100016f2:	428c      	cmp	r4, r1
100016f4:	d803      	bhi.n	100016fe <best_effort_wfe_or_timeout+0x26>
100016f6:	6a9b      	ldr	r3, [r3, #40]	; 0x28
100016f8:	3001      	adds	r0, #1
100016fa:	42b3      	cmp	r3, r6
100016fc:	d345      	bcc.n	1000178a <best_effort_wfe_or_timeout+0xb2>
100016fe:	bcc0      	pop	{r6, r7}
10001700:	46b9      	mov	r9, r7
10001702:	46b0      	mov	r8, r6
10001704:	bdf8      	pop	{r3, r4, r5, r6, r7, pc}
10001706:	bf20      	wfe
10001708:	4d27      	ldr	r5, [pc, #156]	; (100017a8 <best_effort_wfe_or_timeout+0xd0>)
1000170a:	686a      	ldr	r2, [r5, #4]
1000170c:	f3ef 8710 	mrs	r7, PRIMASK
10001710:	b672      	cpsid	i
10001712:	6813      	ldr	r3, [r2, #0]
10001714:	2b00      	cmp	r3, #0
10001716:	d0fc      	beq.n	10001712 <best_effort_wfe_or_timeout+0x3a>
10001718:	f3bf 8f5f 	dmb	sy
1000171c:	682b      	ldr	r3, [r5, #0]
1000171e:	b2c1      	uxtb	r1, r0
10001720:	469c      	mov	ip, r3
10001722:	7b5b      	ldrb	r3, [r3, #13]
10001724:	428b      	cmp	r3, r1
10001726:	d035      	beq.n	10001794 <best_effort_wfe_or_timeout+0xbc>
10001728:	23ff      	movs	r3, #255	; 0xff
1000172a:	4003      	ands	r3, r0
1000172c:	005a      	lsls	r2, r3, #1
1000172e:	4691      	mov	r9, r2
10001730:	4662      	mov	r2, ip
10001732:	6812      	ldr	r2, [r2, #0]
10001734:	4499      	add	r9, r3
10001736:	4690      	mov	r8, r2
10001738:	464a      	mov	r2, r9
1000173a:	4442      	add	r2, r8
1000173c:	3a03      	subs	r2, #3
1000173e:	7892      	ldrb	r2, [r2, #2]
10001740:	2a00      	cmp	r2, #0
10001742:	d01d      	beq.n	10001780 <best_effort_wfe_or_timeout+0xa8>
10001744:	68ea      	ldr	r2, [r5, #12]
10001746:	0a00      	lsrs	r0, r0, #8
10001748:	4690      	mov	r8, r2
1000174a:	4443      	add	r3, r8
1000174c:	3b01      	subs	r3, #1
1000174e:	781b      	ldrb	r3, [r3, #0]
10001750:	b2c0      	uxtb	r0, r0
10001752:	4283      	cmp	r3, r0
10001754:	d021      	beq.n	1000179a <best_effort_wfe_or_timeout+0xc2>
10001756:	686b      	ldr	r3, [r5, #4]
10001758:	f3bf 8f5f 	dmb	sy
1000175c:	2200      	movs	r2, #0
1000175e:	601a      	str	r2, [r3, #0]
10001760:	f387 8810 	msr	PRIMASK, r7
10001764:	4a0f      	ldr	r2, [pc, #60]	; (100017a4 <best_effort_wfe_or_timeout+0xcc>)
10001766:	2000      	movs	r0, #0
10001768:	6a53      	ldr	r3, [r2, #36]	; 0x24
1000176a:	429c      	cmp	r4, r3
1000176c:	d8c7      	bhi.n	100016fe <best_effort_wfe_or_timeout+0x26>
1000176e:	6a92      	ldr	r2, [r2, #40]	; 0x28
10001770:	3001      	adds	r0, #1
10001772:	42b2      	cmp	r2, r6
10001774:	d2c3      	bcs.n	100016fe <best_effort_wfe_or_timeout+0x26>
10001776:	1ae0      	subs	r0, r4, r3
10001778:	1e42      	subs	r2, r0, #1
1000177a:	4190      	sbcs	r0, r2
1000177c:	b2c0      	uxtb	r0, r0
1000177e:	e7be      	b.n	100016fe <best_effort_wfe_or_timeout+0x26>
10001780:	692b      	ldr	r3, [r5, #16]
10001782:	4298      	cmp	r0, r3
10001784:	d1e7      	bne.n	10001756 <best_effort_wfe_or_timeout+0x7e>
10001786:	612a      	str	r2, [r5, #16]
10001788:	e7e5      	b.n	10001756 <best_effort_wfe_or_timeout+0x7e>
1000178a:	1a60      	subs	r0, r4, r1
1000178c:	1e43      	subs	r3, r0, #1
1000178e:	4198      	sbcs	r0, r3
10001790:	b2c0      	uxtb	r0, r0
10001792:	e7b4      	b.n	100016fe <best_effort_wfe_or_timeout+0x26>
10001794:	23ff      	movs	r3, #255	; 0xff
10001796:	4003      	ands	r3, r0
10001798:	e7d4      	b.n	10001744 <best_effort_wfe_or_timeout+0x6c>
1000179a:	4660      	mov	r0, ip
1000179c:	f000 fae0 	bl	10001d60 <ph_remove_and_free_node>
100017a0:	e7d9      	b.n	10001756 <best_effort_wfe_or_timeout+0x7e>
100017a2:	46c0      	nop			; (mov r8, r8)
100017a4:	40054000 	.word	0x40054000
100017a8:	200003dc 	.word	0x200003dc

100017ac <hardware_alarm_irq_handler>:
100017ac:	b5f0      	push	{r4, r5, r6, r7, lr}
100017ae:	46d6      	mov	lr, sl
100017b0:	464f      	mov	r7, r9
100017b2:	4646      	mov	r6, r8
100017b4:	b5c0      	push	{r6, r7, lr}
100017b6:	f3ef 8305 	mrs	r3, IPSR
100017ba:	223f      	movs	r2, #63	; 0x3f
100017bc:	4013      	ands	r3, r2
100017be:	0018      	movs	r0, r3
100017c0:	3810      	subs	r0, #16
100017c2:	f3ef 8c10 	mrs	ip, PRIMASK
100017c6:	b672      	cpsid	i
100017c8:	4d20      	ldr	r5, [pc, #128]	; (1000184c <hardware_alarm_irq_handler+0xa0>)
100017ca:	682a      	ldr	r2, [r5, #0]
100017cc:	2a00      	cmp	r2, #0
100017ce:	d0fc      	beq.n	100017ca <hardware_alarm_irq_handler+0x1e>
100017d0:	f3bf 8f5f 	dmb	sy
100017d4:	2201      	movs	r2, #1
100017d6:	0011      	movs	r1, r2
100017d8:	4081      	lsls	r1, r0
100017da:	4c1d      	ldr	r4, [pc, #116]	; (10001850 <hardware_alarm_irq_handler+0xa4>)
100017dc:	4688      	mov	r8, r1
100017de:	6361      	str	r1, [r4, #52]	; 0x34
100017e0:	491c      	ldr	r1, [pc, #112]	; (10001854 <hardware_alarm_irq_handler+0xa8>)
100017e2:	0017      	movs	r7, r2
100017e4:	780e      	ldrb	r6, [r1, #0]
100017e6:	468a      	mov	sl, r1
100017e8:	0031      	movs	r1, r6
100017ea:	40c1      	lsrs	r1, r0
100017ec:	400f      	ands	r7, r1
100017ee:	420a      	tst	r2, r1
100017f0:	d109      	bne.n	10001806 <hardware_alarm_irq_handler+0x5a>
100017f2:	f3bf 8f5f 	dmb	sy
100017f6:	602f      	str	r7, [r5, #0]
100017f8:	f38c 8810 	msr	PRIMASK, ip
100017fc:	bce0      	pop	{r5, r6, r7}
100017fe:	46ba      	mov	sl, r7
10001800:	46b1      	mov	r9, r6
10001802:	46a8      	mov	r8, r5
10001804:	bdf0      	pop	{r4, r5, r6, r7, pc}
10001806:	4914      	ldr	r1, [pc, #80]	; (10001858 <hardware_alarm_irq_handler+0xac>)
10001808:	0082      	lsls	r2, r0, #2
1000180a:	6a64      	ldr	r4, [r4, #36]	; 0x24
1000180c:	5851      	ldr	r1, [r2, r1]
1000180e:	428c      	cmp	r4, r1
10001810:	d30f      	bcc.n	10001832 <hardware_alarm_irq_handler+0x86>
10001812:	4b12      	ldr	r3, [pc, #72]	; (1000185c <hardware_alarm_irq_handler+0xb0>)
10001814:	58d2      	ldr	r2, [r2, r3]
10001816:	4643      	mov	r3, r8
10001818:	439e      	bics	r6, r3
1000181a:	4653      	mov	r3, sl
1000181c:	701e      	strb	r6, [r3, #0]
1000181e:	f3bf 8f5f 	dmb	sy
10001822:	2300      	movs	r3, #0
10001824:	602b      	str	r3, [r5, #0]
10001826:	f38c 8810 	msr	PRIMASK, ip
1000182a:	2a00      	cmp	r2, #0
1000182c:	d0e6      	beq.n	100017fc <hardware_alarm_irq_handler+0x50>
1000182e:	4790      	blx	r2
10001830:	e7e4      	b.n	100017fc <hardware_alarm_irq_handler+0x50>
10001832:	4a0b      	ldr	r2, [pc, #44]	; (10001860 <hardware_alarm_irq_handler+0xb4>)
10001834:	009b      	lsls	r3, r3, #2
10001836:	4690      	mov	r8, r2
10001838:	4443      	add	r3, r8
1000183a:	681a      	ldr	r2, [r3, #0]
1000183c:	601a      	str	r2, [r3, #0]
1000183e:	f3bf 8f5f 	dmb	sy
10001842:	2300      	movs	r3, #0
10001844:	602b      	str	r3, [r5, #0]
10001846:	f38c 8810 	msr	PRIMASK, ip
1000184a:	e7d7      	b.n	100017fc <hardware_alarm_irq_handler+0x50>
1000184c:	d0000128 	.word	0xd0000128
10001850:	40054000 	.word	0x40054000
10001854:	20001c4b 	.word	0x20001c4b
10001858:	20001c14 	.word	0x20001c14
1000185c:	20001620 	.word	0x20001620
10001860:	40053fd0 	.word	0x40053fd0

10001864 <hardware_alarm_claim>:
10001864:	b510      	push	{r4, lr}
10001866:	0001      	movs	r1, r0
10001868:	4a02      	ldr	r2, [pc, #8]	; (10001874 <hardware_alarm_claim+0x10>)
1000186a:	4803      	ldr	r0, [pc, #12]	; (10001878 <hardware_alarm_claim+0x14>)
1000186c:	f7ff f8b4 	bl	100009d8 <hw_claim_or_assert>
10001870:	bd10      	pop	{r4, pc}
10001872:	46c0      	nop			; (mov r8, r8)
10001874:	1000b2b4 	.word	0x1000b2b4
10001878:	20001c45 	.word	0x20001c45

1000187c <time_us_64>:
1000187c:	4b03      	ldr	r3, [pc, #12]	; (1000188c <time_us_64+0x10>)
1000187e:	6a59      	ldr	r1, [r3, #36]	; 0x24
10001880:	000a      	movs	r2, r1
10001882:	6a98      	ldr	r0, [r3, #40]	; 0x28
10001884:	6a59      	ldr	r1, [r3, #36]	; 0x24
10001886:	428a      	cmp	r2, r1
10001888:	d1fa      	bne.n	10001880 <time_us_64+0x4>
1000188a:	4770      	bx	lr
1000188c:	40054000 	.word	0x40054000

10001890 <hardware_alarm_set_callback>:
10001890:	b570      	push	{r4, r5, r6, lr}
10001892:	0004      	movs	r4, r0
10001894:	000d      	movs	r5, r1
10001896:	f3ef 8610 	mrs	r6, PRIMASK
1000189a:	b672      	cpsid	i
1000189c:	4a1a      	ldr	r2, [pc, #104]	; (10001908 <hardware_alarm_set_callback+0x78>)
1000189e:	6813      	ldr	r3, [r2, #0]
100018a0:	2b00      	cmp	r3, #0
100018a2:	d0fc      	beq.n	1000189e <hardware_alarm_set_callback+0xe>
100018a4:	f3bf 8f5f 	dmb	sy
100018a8:	2d00      	cmp	r5, #0
100018aa:	d01b      	beq.n	100018e4 <hardware_alarm_set_callback+0x54>
100018ac:	0020      	movs	r0, r4
100018ae:	f7ff f965 	bl	10000b7c <irq_get_vtable_handler>
100018b2:	4916      	ldr	r1, [pc, #88]	; (1000190c <hardware_alarm_set_callback+0x7c>)
100018b4:	4281      	cmp	r1, r0
100018b6:	d00a      	beq.n	100018ce <hardware_alarm_set_callback+0x3e>
100018b8:	0020      	movs	r0, r4
100018ba:	f7ff f967 	bl	10000b8c <irq_set_exclusive_handler>
100018be:	2101      	movs	r1, #1
100018c0:	0020      	movs	r0, r4
100018c2:	f7ff f92b 	bl	10000b1c <irq_set_enabled>
100018c6:	2301      	movs	r3, #1
100018c8:	40a3      	lsls	r3, r4
100018ca:	4a11      	ldr	r2, [pc, #68]	; (10001910 <hardware_alarm_set_callback+0x80>)
100018cc:	6013      	str	r3, [r2, #0]
100018ce:	4b11      	ldr	r3, [pc, #68]	; (10001914 <hardware_alarm_set_callback+0x84>)
100018d0:	00a4      	lsls	r4, r4, #2
100018d2:	50e5      	str	r5, [r4, r3]
100018d4:	f3bf 8f5f 	dmb	sy
100018d8:	2200      	movs	r2, #0
100018da:	4b0b      	ldr	r3, [pc, #44]	; (10001908 <hardware_alarm_set_callback+0x78>)
100018dc:	601a      	str	r2, [r3, #0]
100018de:	f386 8810 	msr	PRIMASK, r6
100018e2:	bd70      	pop	{r4, r5, r6, pc}
100018e4:	4b0b      	ldr	r3, [pc, #44]	; (10001914 <hardware_alarm_set_callback+0x84>)
100018e6:	00a2      	lsls	r2, r4, #2
100018e8:	50d5      	str	r5, [r2, r3]
100018ea:	2201      	movs	r2, #1
100018ec:	40a2      	lsls	r2, r4
100018ee:	490a      	ldr	r1, [pc, #40]	; (10001918 <hardware_alarm_set_callback+0x88>)
100018f0:	0020      	movs	r0, r4
100018f2:	780b      	ldrb	r3, [r1, #0]
100018f4:	4393      	bics	r3, r2
100018f6:	700b      	strb	r3, [r1, #0]
100018f8:	4904      	ldr	r1, [pc, #16]	; (1000190c <hardware_alarm_set_callback+0x7c>)
100018fa:	f7ff fa63 	bl	10000dc4 <irq_remove_handler>
100018fe:	2100      	movs	r1, #0
10001900:	0020      	movs	r0, r4
10001902:	f7ff f90b 	bl	10000b1c <irq_set_enabled>
10001906:	e7e5      	b.n	100018d4 <hardware_alarm_set_callback+0x44>
10001908:	d0000128 	.word	0xd0000128
1000190c:	100017ad 	.word	0x100017ad
10001910:	40056038 	.word	0x40056038
10001914:	20001620 	.word	0x20001620
10001918:	20001c4b 	.word	0x20001c4b

1000191c <hardware_alarm_set_target>:
1000191c:	b5f0      	push	{r4, r5, r6, r7, lr}
1000191e:	464f      	mov	r7, r9
10001920:	46d6      	mov	lr, sl
10001922:	4646      	mov	r6, r8
10001924:	b5c0      	push	{r6, r7, lr}
10001926:	0007      	movs	r7, r0
10001928:	4c2f      	ldr	r4, [pc, #188]	; (100019e8 <hardware_alarm_set_target+0xcc>)
1000192a:	6a61      	ldr	r1, [r4, #36]	; 0x24
1000192c:	000d      	movs	r5, r1
1000192e:	6aa6      	ldr	r6, [r4, #40]	; 0x28
10001930:	6a61      	ldr	r1, [r4, #36]	; 0x24
10001932:	42a9      	cmp	r1, r5
10001934:	d1fa      	bne.n	1000192c <hardware_alarm_set_target+0x10>
10001936:	428b      	cmp	r3, r1
10001938:	d808      	bhi.n	1000194c <hardware_alarm_set_target+0x30>
1000193a:	d005      	beq.n	10001948 <hardware_alarm_set_target+0x2c>
1000193c:	2001      	movs	r0, #1
1000193e:	bce0      	pop	{r5, r6, r7}
10001940:	46ba      	mov	sl, r7
10001942:	46b1      	mov	r9, r6
10001944:	46a8      	mov	r8, r5
10001946:	bdf0      	pop	{r4, r5, r6, r7, pc}
10001948:	42b2      	cmp	r2, r6
1000194a:	d9f7      	bls.n	1000193c <hardware_alarm_set_target+0x20>
1000194c:	f3ef 8a10 	mrs	sl, PRIMASK
10001950:	b672      	cpsid	i
10001952:	4826      	ldr	r0, [pc, #152]	; (100019ec <hardware_alarm_set_target+0xd0>)
10001954:	6801      	ldr	r1, [r0, #0]
10001956:	2900      	cmp	r1, #0
10001958:	d0fc      	beq.n	10001954 <hardware_alarm_set_target+0x38>
1000195a:	f3bf 8f5f 	dmb	sy
1000195e:	2501      	movs	r5, #1
10001960:	40bd      	lsls	r5, r7
10001962:	4923      	ldr	r1, [pc, #140]	; (100019f0 <hardware_alarm_set_target+0xd4>)
10001964:	4c20      	ldr	r4, [pc, #128]	; (100019e8 <hardware_alarm_set_target+0xcc>)
10001966:	4688      	mov	r8, r1
10001968:	7809      	ldrb	r1, [r1, #0]
1000196a:	4689      	mov	r9, r1
1000196c:	4329      	orrs	r1, r5
1000196e:	b2c9      	uxtb	r1, r1
10001970:	468c      	mov	ip, r1
10001972:	4641      	mov	r1, r8
10001974:	4660      	mov	r0, ip
10001976:	7008      	strb	r0, [r1, #0]
10001978:	1d39      	adds	r1, r7, #4
1000197a:	481e      	ldr	r0, [pc, #120]	; (100019f4 <hardware_alarm_set_target+0xd8>)
1000197c:	0089      	lsls	r1, r1, #2
1000197e:	6365      	str	r5, [r4, #52]	; 0x34
10001980:	510a      	str	r2, [r1, r4]
10001982:	00b9      	lsls	r1, r7, #2
10001984:	500b      	str	r3, [r1, r0]
10001986:	6a21      	ldr	r1, [r4, #32]
10001988:	2000      	movs	r0, #0
1000198a:	4229      	tst	r1, r5
1000198c:	d019      	beq.n	100019c2 <hardware_alarm_set_target+0xa6>
1000198e:	6a61      	ldr	r1, [r4, #36]	; 0x24
10001990:	0008      	movs	r0, r1
10001992:	6aa6      	ldr	r6, [r4, #40]	; 0x28
10001994:	6a61      	ldr	r1, [r4, #36]	; 0x24
10001996:	4281      	cmp	r1, r0
10001998:	d1fa      	bne.n	10001990 <hardware_alarm_set_target+0x74>
1000199a:	428b      	cmp	r3, r1
1000199c:	d819      	bhi.n	100019d2 <hardware_alarm_set_target+0xb6>
1000199e:	d101      	bne.n	100019a4 <hardware_alarm_set_target+0x88>
100019a0:	42b2      	cmp	r2, r6
100019a2:	d816      	bhi.n	100019d2 <hardware_alarm_set_target+0xb6>
100019a4:	45cc      	cmp	ip, r9
100019a6:	d01d      	beq.n	100019e4 <hardware_alarm_set_target+0xc8>
100019a8:	4b0f      	ldr	r3, [pc, #60]	; (100019e8 <hardware_alarm_set_target+0xcc>)
100019aa:	201f      	movs	r0, #31
100019ac:	621d      	str	r5, [r3, #32]
100019ae:	635d      	str	r5, [r3, #52]	; 0x34
100019b0:	2301      	movs	r3, #1
100019b2:	4007      	ands	r7, r0
100019b4:	40bb      	lsls	r3, r7
100019b6:	4a10      	ldr	r2, [pc, #64]	; (100019f8 <hardware_alarm_set_target+0xdc>)
100019b8:	381e      	subs	r0, #30
100019ba:	6013      	str	r3, [r2, #0]
100019bc:	4643      	mov	r3, r8
100019be:	464a      	mov	r2, r9
100019c0:	701a      	strb	r2, [r3, #0]
100019c2:	f3bf 8f5f 	dmb	sy
100019c6:	2200      	movs	r2, #0
100019c8:	4b08      	ldr	r3, [pc, #32]	; (100019ec <hardware_alarm_set_target+0xd0>)
100019ca:	601a      	str	r2, [r3, #0]
100019cc:	f38a 8810 	msr	PRIMASK, sl
100019d0:	e7b5      	b.n	1000193e <hardware_alarm_set_target+0x22>
100019d2:	2000      	movs	r0, #0
100019d4:	f3bf 8f5f 	dmb	sy
100019d8:	2200      	movs	r2, #0
100019da:	4b04      	ldr	r3, [pc, #16]	; (100019ec <hardware_alarm_set_target+0xd0>)
100019dc:	601a      	str	r2, [r3, #0]
100019de:	f38a 8810 	msr	PRIMASK, sl
100019e2:	e7ac      	b.n	1000193e <hardware_alarm_set_target+0x22>
100019e4:	2001      	movs	r0, #1
100019e6:	e7ec      	b.n	100019c2 <hardware_alarm_set_target+0xa6>
100019e8:	40054000 	.word	0x40054000
100019ec:	d0000128 	.word	0xd0000128
100019f0:	20001c4b 	.word	0x20001c4b
100019f4:	20001c14 	.word	0x20001c14
100019f8:	e000e280 	.word	0xe000e280

100019fc <hardware_alarm_cancel>:
100019fc:	f3ef 8c10 	mrs	ip, PRIMASK
10001a00:	b672      	cpsid	i
10001a02:	490a      	ldr	r1, [pc, #40]	; (10001a2c <hardware_alarm_cancel+0x30>)
10001a04:	680b      	ldr	r3, [r1, #0]
10001a06:	2b00      	cmp	r3, #0
10001a08:	d0fc      	beq.n	10001a04 <hardware_alarm_cancel+0x8>
10001a0a:	f3bf 8f5f 	dmb	sy
10001a0e:	2301      	movs	r3, #1
10001a10:	4083      	lsls	r3, r0
10001a12:	4a07      	ldr	r2, [pc, #28]	; (10001a30 <hardware_alarm_cancel+0x34>)
10001a14:	4807      	ldr	r0, [pc, #28]	; (10001a34 <hardware_alarm_cancel+0x38>)
10001a16:	6213      	str	r3, [r2, #32]
10001a18:	7802      	ldrb	r2, [r0, #0]
10001a1a:	439a      	bics	r2, r3
10001a1c:	7002      	strb	r2, [r0, #0]
10001a1e:	f3bf 8f5f 	dmb	sy
10001a22:	2300      	movs	r3, #0
10001a24:	600b      	str	r3, [r1, #0]
10001a26:	f38c 8810 	msr	PRIMASK, ip
10001a2a:	4770      	bx	lr
10001a2c:	d0000128 	.word	0xd0000128
10001a30:	40054000 	.word	0x40054000
10001a34:	20001c4b 	.word	0x20001c4b

10001a38 <ph_merge_nodes>:
10001a38:	b570      	push	{r4, r5, r6, lr}
10001a3a:	0005      	movs	r5, r0
10001a3c:	0014      	movs	r4, r2
10001a3e:	0016      	movs	r6, r2
10001a40:	2900      	cmp	r1, #0
10001a42:	d015      	beq.n	10001a70 <ph_merge_nodes+0x38>
10001a44:	000c      	movs	r4, r1
10001a46:	2a00      	cmp	r2, #0
10001a48:	d012      	beq.n	10001a70 <ph_merge_nodes+0x38>
10001a4a:	6880      	ldr	r0, [r0, #8]
10001a4c:	686b      	ldr	r3, [r5, #4]
10001a4e:	4798      	blx	r3
10001a50:	6829      	ldr	r1, [r5, #0]
10001a52:	2800      	cmp	r0, #0
10001a54:	d00e      	beq.n	10001a74 <ph_merge_nodes+0x3c>
10001a56:	0073      	lsls	r3, r6, #1
10001a58:	199b      	adds	r3, r3, r6
10001a5a:	0062      	lsls	r2, r4, #1
10001a5c:	3b03      	subs	r3, #3
10001a5e:	1912      	adds	r2, r2, r4
10001a60:	18cb      	adds	r3, r1, r3
10001a62:	3a03      	subs	r2, #3
10001a64:	709c      	strb	r4, [r3, #2]
10001a66:	1888      	adds	r0, r1, r2
10001a68:	5c8a      	ldrb	r2, [r1, r2]
10001a6a:	2a00      	cmp	r2, #0
10001a6c:	d115      	bne.n	10001a9a <ph_merge_nodes+0x62>
10001a6e:	7006      	strb	r6, [r0, #0]
10001a70:	0020      	movs	r0, r4
10001a72:	bd70      	pop	{r4, r5, r6, pc}
10001a74:	0063      	lsls	r3, r4, #1
10001a76:	191b      	adds	r3, r3, r4
10001a78:	0072      	lsls	r2, r6, #1
10001a7a:	3b03      	subs	r3, #3
10001a7c:	1992      	adds	r2, r2, r6
10001a7e:	18cb      	adds	r3, r1, r3
10001a80:	3a03      	subs	r2, #3
10001a82:	709e      	strb	r6, [r3, #2]
10001a84:	1888      	adds	r0, r1, r2
10001a86:	5c8a      	ldrb	r2, [r1, r2]
10001a88:	2a00      	cmp	r2, #0
10001a8a:	d102      	bne.n	10001a92 <ph_merge_nodes+0x5a>
10001a8c:	7004      	strb	r4, [r0, #0]
10001a8e:	0034      	movs	r4, r6
10001a90:	e7ee      	b.n	10001a70 <ph_merge_nodes+0x38>
10001a92:	705a      	strb	r2, [r3, #1]
10001a94:	7004      	strb	r4, [r0, #0]
10001a96:	0034      	movs	r4, r6
10001a98:	e7ea      	b.n	10001a70 <ph_merge_nodes+0x38>
10001a9a:	705a      	strb	r2, [r3, #1]
10001a9c:	7006      	strb	r6, [r0, #0]
10001a9e:	e7e7      	b.n	10001a70 <ph_merge_nodes+0x38>

10001aa0 <ph_post_alloc_init>:
10001aa0:	b530      	push	{r4, r5, lr}
10001aa2:	6083      	str	r3, [r0, #8]
10001aa4:	2300      	movs	r3, #0
10001aa6:	b2cc      	uxtb	r4, r1
10001aa8:	7343      	strb	r3, [r0, #13]
10001aaa:	3301      	adds	r3, #1
10001aac:	7304      	strb	r4, [r0, #12]
10001aae:	6042      	str	r2, [r0, #4]
10001ab0:	7383      	strb	r3, [r0, #14]
10001ab2:	73c4      	strb	r4, [r0, #15]
10001ab4:	000d      	movs	r5, r1
10001ab6:	6800      	ldr	r0, [r0, #0]
10001ab8:	2c01      	cmp	r4, #1
10001aba:	d906      	bls.n	10001aca <ph_post_alloc_init+0x2a>
10001abc:	1c42      	adds	r2, r0, #1
10001abe:	3301      	adds	r3, #1
10001ac0:	b2db      	uxtb	r3, r3
10001ac2:	7013      	strb	r3, [r2, #0]
10001ac4:	3203      	adds	r2, #3
10001ac6:	429c      	cmp	r4, r3
10001ac8:	d1f9      	bne.n	10001abe <ph_post_alloc_init+0x1e>
10001aca:	21ff      	movs	r1, #255	; 0xff
10001acc:	4029      	ands	r1, r5
10001ace:	004b      	lsls	r3, r1, #1
10001ad0:	1859      	adds	r1, r3, r1
10001ad2:	2300      	movs	r3, #0
10001ad4:	1840      	adds	r0, r0, r1
10001ad6:	3803      	subs	r0, #3
10001ad8:	7043      	strb	r3, [r0, #1]
10001ada:	bd30      	pop	{r4, r5, pc}

10001adc <ph_merge_two_pass>:
10001adc:	b5f8      	push	{r3, r4, r5, r6, r7, lr}
10001ade:	46ce      	mov	lr, r9
10001ae0:	4647      	mov	r7, r8
10001ae2:	0006      	movs	r6, r0
10001ae4:	000c      	movs	r4, r1
10001ae6:	b580      	push	{r7, lr}
10001ae8:	2900      	cmp	r1, #0
10001aea:	d007      	beq.n	10001afc <ph_merge_two_pass+0x20>
10001aec:	004d      	lsls	r5, r1, #1
10001aee:	6803      	ldr	r3, [r0, #0]
10001af0:	186d      	adds	r5, r5, r1
10001af2:	3d03      	subs	r5, #3
10001af4:	195a      	adds	r2, r3, r5
10001af6:	7857      	ldrb	r7, [r2, #1]
10001af8:	2f00      	cmp	r7, #0
10001afa:	d104      	bne.n	10001b06 <ph_merge_two_pass+0x2a>
10001afc:	0020      	movs	r0, r4
10001afe:	bcc0      	pop	{r6, r7}
10001b00:	46b9      	mov	r9, r7
10001b02:	46b0      	mov	r8, r6
10001b04:	bdf8      	pop	{r3, r4, r5, r6, r7, pc}
10001b06:	0079      	lsls	r1, r7, #1
10001b08:	19c9      	adds	r1, r1, r7
10001b0a:	3903      	subs	r1, #3
10001b0c:	4688      	mov	r8, r1
10001b0e:	4443      	add	r3, r8
10001b10:	7859      	ldrb	r1, [r3, #1]
10001b12:	4689      	mov	r9, r1
10001b14:	2100      	movs	r1, #0
10001b16:	7059      	strb	r1, [r3, #1]
10001b18:	7051      	strb	r1, [r2, #1]
10001b1a:	6873      	ldr	r3, [r6, #4]
10001b1c:	003a      	movs	r2, r7
10001b1e:	0021      	movs	r1, r4
10001b20:	6880      	ldr	r0, [r0, #8]
10001b22:	4798      	blx	r3
10001b24:	6833      	ldr	r3, [r6, #0]
10001b26:	2800      	cmp	r0, #0
10001b28:	d014      	beq.n	10001b54 <ph_merge_two_pass+0x78>
10001b2a:	4642      	mov	r2, r8
10001b2c:	189a      	adds	r2, r3, r2
10001b2e:	7094      	strb	r4, [r2, #2]
10001b30:	1959      	adds	r1, r3, r5
10001b32:	5d5b      	ldrb	r3, [r3, r5]
10001b34:	2b00      	cmp	r3, #0
10001b36:	d000      	beq.n	10001b3a <ph_merge_two_pass+0x5e>
10001b38:	7053      	strb	r3, [r2, #1]
10001b3a:	700f      	strb	r7, [r1, #0]
10001b3c:	0027      	movs	r7, r4
10001b3e:	4649      	mov	r1, r9
10001b40:	0030      	movs	r0, r6
10001b42:	f7ff ffcb 	bl	10001adc <ph_merge_two_pass>
10001b46:	0039      	movs	r1, r7
10001b48:	0002      	movs	r2, r0
10001b4a:	0030      	movs	r0, r6
10001b4c:	f7ff ff74 	bl	10001a38 <ph_merge_nodes>
10001b50:	0004      	movs	r4, r0
10001b52:	e7d3      	b.n	10001afc <ph_merge_two_pass+0x20>
10001b54:	4642      	mov	r2, r8
10001b56:	4641      	mov	r1, r8
10001b58:	195d      	adds	r5, r3, r5
10001b5a:	70af      	strb	r7, [r5, #2]
10001b5c:	189a      	adds	r2, r3, r2
10001b5e:	5c5b      	ldrb	r3, [r3, r1]
10001b60:	2b00      	cmp	r3, #0
10001b62:	d000      	beq.n	10001b66 <ph_merge_two_pass+0x8a>
10001b64:	706b      	strb	r3, [r5, #1]
10001b66:	7014      	strb	r4, [r2, #0]
10001b68:	e7e9      	b.n	10001b3e <ph_merge_two_pass+0x62>
10001b6a:	46c0      	nop			; (mov r8, r8)

10001b6c <ph_remove_any_head>:
10001b6c:	b5f0      	push	{r4, r5, r6, r7, lr}
10001b6e:	4657      	mov	r7, sl
10001b70:	4645      	mov	r5, r8
10001b72:	46de      	mov	lr, fp
10001b74:	464e      	mov	r6, r9
10001b76:	b5e0      	push	{r5, r6, r7, lr}
10001b78:	000d      	movs	r5, r1
10001b7a:	006b      	lsls	r3, r5, #1
10001b7c:	6801      	ldr	r1, [r0, #0]
10001b7e:	195b      	adds	r3, r3, r5
10001b80:	1edf      	subs	r7, r3, #3
10001b82:	0004      	movs	r4, r0
10001b84:	5dc8      	ldrb	r0, [r1, r7]
10001b86:	b083      	sub	sp, #12
10001b88:	9201      	str	r2, [sp, #4]
10001b8a:	19ca      	adds	r2, r1, r7
10001b8c:	2800      	cmp	r0, #0
10001b8e:	d04c      	beq.n	10001c2a <ph_remove_any_head+0xbe>
10001b90:	0043      	lsls	r3, r0, #1
10001b92:	181b      	adds	r3, r3, r0
10001b94:	3b03      	subs	r3, #3
10001b96:	18cb      	adds	r3, r1, r3
10001b98:	785e      	ldrb	r6, [r3, #1]
10001b9a:	46b4      	mov	ip, r6
10001b9c:	2e00      	cmp	r6, #0
10001b9e:	d116      	bne.n	10001bce <ph_remove_any_head+0x62>
10001ba0:	9e01      	ldr	r6, [sp, #4]
10001ba2:	2e00      	cmp	r6, #0
10001ba4:	d03e      	beq.n	10001c24 <ph_remove_any_head+0xb8>
10001ba6:	7be6      	ldrb	r6, [r4, #15]
10001ba8:	2e00      	cmp	r6, #0
10001baa:	d004      	beq.n	10001bb6 <ph_remove_any_head+0x4a>
10001bac:	0073      	lsls	r3, r6, #1
10001bae:	199b      	adds	r3, r3, r6
10001bb0:	18cb      	adds	r3, r1, r3
10001bb2:	3b03      	subs	r3, #3
10001bb4:	705d      	strb	r5, [r3, #1]
10001bb6:	73e5      	strb	r5, [r4, #15]
10001bb8:	2800      	cmp	r0, #0
10001bba:	d12f      	bne.n	10001c1c <ph_remove_any_head+0xb0>
10001bbc:	2300      	movs	r3, #0
10001bbe:	7053      	strb	r3, [r2, #1]
10001bc0:	b003      	add	sp, #12
10001bc2:	bcf0      	pop	{r4, r5, r6, r7}
10001bc4:	46bb      	mov	fp, r7
10001bc6:	46b2      	mov	sl, r6
10001bc8:	46a9      	mov	r9, r5
10001bca:	46a0      	mov	r8, r4
10001bcc:	bdf0      	pop	{r4, r5, r6, r7, pc}
10001bce:	0072      	lsls	r2, r6, #1
10001bd0:	4462      	add	r2, ip
10001bd2:	3a03      	subs	r2, #3
10001bd4:	1889      	adds	r1, r1, r2
10001bd6:	784a      	ldrb	r2, [r1, #1]
10001bd8:	4690      	mov	r8, r2
10001bda:	2200      	movs	r2, #0
10001bdc:	704a      	strb	r2, [r1, #1]
10001bde:	4691      	mov	r9, r2
10001be0:	705a      	strb	r2, [r3, #1]
10001be2:	0001      	movs	r1, r0
10001be4:	0032      	movs	r2, r6
10001be6:	0020      	movs	r0, r4
10001be8:	f7ff ff26 	bl	10001a38 <ph_merge_nodes>
10001bec:	4643      	mov	r3, r8
10001bee:	4682      	mov	sl, r0
10001bf0:	2b00      	cmp	r3, #0
10001bf2:	d007      	beq.n	10001c04 <ph_remove_any_head+0x98>
10001bf4:	005b      	lsls	r3, r3, #1
10001bf6:	6821      	ldr	r1, [r4, #0]
10001bf8:	4443      	add	r3, r8
10001bfa:	3b03      	subs	r3, #3
10001bfc:	18cb      	adds	r3, r1, r3
10001bfe:	785a      	ldrb	r2, [r3, #1]
10001c00:	2a00      	cmp	r2, #0
10001c02:	d116      	bne.n	10001c32 <ph_remove_any_head+0xc6>
10001c04:	4642      	mov	r2, r8
10001c06:	4651      	mov	r1, sl
10001c08:	0020      	movs	r0, r4
10001c0a:	f7ff ff15 	bl	10001a38 <ph_merge_nodes>
10001c0e:	6821      	ldr	r1, [r4, #0]
10001c10:	9b01      	ldr	r3, [sp, #4]
10001c12:	19ca      	adds	r2, r1, r7
10001c14:	2b00      	cmp	r3, #0
10001c16:	d1c6      	bne.n	10001ba6 <ph_remove_any_head+0x3a>
10001c18:	2800      	cmp	r0, #0
10001c1a:	d0cf      	beq.n	10001bbc <ph_remove_any_head+0x50>
10001c1c:	0043      	lsls	r3, r0, #1
10001c1e:	181b      	adds	r3, r3, r0
10001c20:	3b03      	subs	r3, #3
10001c22:	18cb      	adds	r3, r1, r3
10001c24:	2100      	movs	r1, #0
10001c26:	7099      	strb	r1, [r3, #2]
10001c28:	e7c8      	b.n	10001bbc <ph_remove_any_head+0x50>
10001c2a:	9b01      	ldr	r3, [sp, #4]
10001c2c:	2b00      	cmp	r3, #0
10001c2e:	d1ba      	bne.n	10001ba6 <ph_remove_any_head+0x3a>
10001c30:	e7c4      	b.n	10001bbc <ph_remove_any_head+0x50>
10001c32:	0050      	lsls	r0, r2, #1
10001c34:	1880      	adds	r0, r0, r2
10001c36:	3803      	subs	r0, #3
10001c38:	1809      	adds	r1, r1, r0
10001c3a:	7848      	ldrb	r0, [r1, #1]
10001c3c:	4683      	mov	fp, r0
10001c3e:	4648      	mov	r0, r9
10001c40:	7048      	strb	r0, [r1, #1]
10001c42:	7058      	strb	r0, [r3, #1]
10001c44:	4641      	mov	r1, r8
10001c46:	0020      	movs	r0, r4
10001c48:	f7ff fef6 	bl	10001a38 <ph_merge_nodes>
10001c4c:	4659      	mov	r1, fp
10001c4e:	4680      	mov	r8, r0
10001c50:	0020      	movs	r0, r4
10001c52:	f7ff ff43 	bl	10001adc <ph_merge_two_pass>
10001c56:	4641      	mov	r1, r8
10001c58:	0002      	movs	r2, r0
10001c5a:	0020      	movs	r0, r4
10001c5c:	f7ff feec 	bl	10001a38 <ph_merge_nodes>
10001c60:	4680      	mov	r8, r0
10001c62:	e7cf      	b.n	10001c04 <ph_remove_any_head+0x98>

10001c64 <ph_remove_head>:
10001c64:	b5f0      	push	{r4, r5, r6, r7, lr}
10001c66:	4657      	mov	r7, sl
10001c68:	4645      	mov	r5, r8
10001c6a:	46de      	mov	lr, fp
10001c6c:	464e      	mov	r6, r9
10001c6e:	b5e0      	push	{r5, r6, r7, lr}
10001c70:	b083      	sub	sp, #12
10001c72:	9101      	str	r1, [sp, #4]
10001c74:	7b45      	ldrb	r5, [r0, #13]
10001c76:	0004      	movs	r4, r0
10001c78:	006b      	lsls	r3, r5, #1
10001c7a:	6800      	ldr	r0, [r0, #0]
10001c7c:	195b      	adds	r3, r3, r5
10001c7e:	1edf      	subs	r7, r3, #3
10001c80:	5dc1      	ldrb	r1, [r0, r7]
10001c82:	19c2      	adds	r2, r0, r7
10001c84:	2900      	cmp	r1, #0
10001c86:	d04e      	beq.n	10001d26 <ph_remove_head+0xc2>
10001c88:	004b      	lsls	r3, r1, #1
10001c8a:	185b      	adds	r3, r3, r1
10001c8c:	3b03      	subs	r3, #3
10001c8e:	18c3      	adds	r3, r0, r3
10001c90:	785e      	ldrb	r6, [r3, #1]
10001c92:	46b4      	mov	ip, r6
10001c94:	2e00      	cmp	r6, #0
10001c96:	d118      	bne.n	10001cca <ph_remove_head+0x66>
10001c98:	9e01      	ldr	r6, [sp, #4]
10001c9a:	2e00      	cmp	r6, #0
10001c9c:	d040      	beq.n	10001d20 <ph_remove_head+0xbc>
10001c9e:	7be6      	ldrb	r6, [r4, #15]
10001ca0:	2e00      	cmp	r6, #0
10001ca2:	d004      	beq.n	10001cae <ph_remove_head+0x4a>
10001ca4:	0073      	lsls	r3, r6, #1
10001ca6:	199b      	adds	r3, r3, r6
10001ca8:	18c3      	adds	r3, r0, r3
10001caa:	3b03      	subs	r3, #3
10001cac:	705d      	strb	r5, [r3, #1]
10001cae:	73e5      	strb	r5, [r4, #15]
10001cb0:	2900      	cmp	r1, #0
10001cb2:	d131      	bne.n	10001d18 <ph_remove_head+0xb4>
10001cb4:	2300      	movs	r3, #0
10001cb6:	0028      	movs	r0, r5
10001cb8:	7053      	strb	r3, [r2, #1]
10001cba:	7361      	strb	r1, [r4, #13]
10001cbc:	b003      	add	sp, #12
10001cbe:	bcf0      	pop	{r4, r5, r6, r7}
10001cc0:	46bb      	mov	fp, r7
10001cc2:	46b2      	mov	sl, r6
10001cc4:	46a9      	mov	r9, r5
10001cc6:	46a0      	mov	r8, r4
10001cc8:	bdf0      	pop	{r4, r5, r6, r7, pc}
10001cca:	0072      	lsls	r2, r6, #1
10001ccc:	4462      	add	r2, ip
10001cce:	3a03      	subs	r2, #3
10001cd0:	1880      	adds	r0, r0, r2
10001cd2:	7842      	ldrb	r2, [r0, #1]
10001cd4:	4690      	mov	r8, r2
10001cd6:	2200      	movs	r2, #0
10001cd8:	7042      	strb	r2, [r0, #1]
10001cda:	4691      	mov	r9, r2
10001cdc:	705a      	strb	r2, [r3, #1]
10001cde:	0020      	movs	r0, r4
10001ce0:	0032      	movs	r2, r6
10001ce2:	f7ff fea9 	bl	10001a38 <ph_merge_nodes>
10001ce6:	4643      	mov	r3, r8
10001ce8:	4682      	mov	sl, r0
10001cea:	2b00      	cmp	r3, #0
10001cec:	d007      	beq.n	10001cfe <ph_remove_head+0x9a>
10001cee:	005b      	lsls	r3, r3, #1
10001cf0:	6821      	ldr	r1, [r4, #0]
10001cf2:	4443      	add	r3, r8
10001cf4:	3b03      	subs	r3, #3
10001cf6:	18cb      	adds	r3, r1, r3
10001cf8:	785a      	ldrb	r2, [r3, #1]
10001cfa:	2a00      	cmp	r2, #0
10001cfc:	d117      	bne.n	10001d2e <ph_remove_head+0xca>
10001cfe:	4642      	mov	r2, r8
10001d00:	4651      	mov	r1, sl
10001d02:	0020      	movs	r0, r4
10001d04:	f7ff fe98 	bl	10001a38 <ph_merge_nodes>
10001d08:	9b01      	ldr	r3, [sp, #4]
10001d0a:	0001      	movs	r1, r0
10001d0c:	6820      	ldr	r0, [r4, #0]
10001d0e:	19c2      	adds	r2, r0, r7
10001d10:	2b00      	cmp	r3, #0
10001d12:	d1c4      	bne.n	10001c9e <ph_remove_head+0x3a>
10001d14:	2900      	cmp	r1, #0
10001d16:	d0cd      	beq.n	10001cb4 <ph_remove_head+0x50>
10001d18:	004b      	lsls	r3, r1, #1
10001d1a:	185b      	adds	r3, r3, r1
10001d1c:	3b03      	subs	r3, #3
10001d1e:	18c3      	adds	r3, r0, r3
10001d20:	2000      	movs	r0, #0
10001d22:	7098      	strb	r0, [r3, #2]
10001d24:	e7c6      	b.n	10001cb4 <ph_remove_head+0x50>
10001d26:	9b01      	ldr	r3, [sp, #4]
10001d28:	2b00      	cmp	r3, #0
10001d2a:	d1b8      	bne.n	10001c9e <ph_remove_head+0x3a>
10001d2c:	e7c2      	b.n	10001cb4 <ph_remove_head+0x50>
10001d2e:	0050      	lsls	r0, r2, #1
10001d30:	1880      	adds	r0, r0, r2
10001d32:	3803      	subs	r0, #3
10001d34:	1809      	adds	r1, r1, r0
10001d36:	7848      	ldrb	r0, [r1, #1]
10001d38:	4683      	mov	fp, r0
10001d3a:	4648      	mov	r0, r9
10001d3c:	7048      	strb	r0, [r1, #1]
10001d3e:	7058      	strb	r0, [r3, #1]
10001d40:	4641      	mov	r1, r8
10001d42:	0020      	movs	r0, r4
10001d44:	f7ff fe78 	bl	10001a38 <ph_merge_nodes>
10001d48:	4659      	mov	r1, fp
10001d4a:	4680      	mov	r8, r0
10001d4c:	0020      	movs	r0, r4
10001d4e:	f7ff fec5 	bl	10001adc <ph_merge_two_pass>
10001d52:	4641      	mov	r1, r8
10001d54:	0002      	movs	r2, r0
10001d56:	0020      	movs	r0, r4
10001d58:	f7ff fe6e 	bl	10001a38 <ph_merge_nodes>
10001d5c:	4680      	mov	r8, r0
10001d5e:	e7ce      	b.n	10001cfe <ph_remove_head+0x9a>

10001d60 <ph_remove_and_free_node>:
10001d60:	b570      	push	{r4, r5, r6, lr}
10001d62:	0004      	movs	r4, r0
10001d64:	2900      	cmp	r1, #0
10001d66:	d02c      	beq.n	10001dc2 <ph_remove_and_free_node+0x62>
10001d68:	7b43      	ldrb	r3, [r0, #13]
10001d6a:	428b      	cmp	r3, r1
10001d6c:	d02e      	beq.n	10001dcc <ph_remove_and_free_node+0x6c>
10001d6e:	6805      	ldr	r5, [r0, #0]
10001d70:	0048      	lsls	r0, r1, #1
10001d72:	1840      	adds	r0, r0, r1
10001d74:	3803      	subs	r0, #3
10001d76:	1828      	adds	r0, r5, r0
10001d78:	7882      	ldrb	r2, [r0, #2]
10001d7a:	2a00      	cmp	r2, #0
10001d7c:	d021      	beq.n	10001dc2 <ph_remove_and_free_node+0x62>
10001d7e:	0053      	lsls	r3, r2, #1
10001d80:	189b      	adds	r3, r3, r2
10001d82:	3b03      	subs	r3, #3
10001d84:	5cea      	ldrb	r2, [r5, r3]
10001d86:	18ee      	adds	r6, r5, r3
10001d88:	428a      	cmp	r2, r1
10001d8a:	d102      	bne.n	10001d92 <ph_remove_and_free_node+0x32>
10001d8c:	e01b      	b.n	10001dc6 <ph_remove_and_free_node+0x66>
10001d8e:	2a00      	cmp	r2, #0
10001d90:	d008      	beq.n	10001da4 <ph_remove_and_free_node+0x44>
10001d92:	0053      	lsls	r3, r2, #1
10001d94:	189b      	adds	r3, r3, r2
10001d96:	3b03      	subs	r3, #3
10001d98:	18eb      	adds	r3, r5, r3
10001d9a:	785a      	ldrb	r2, [r3, #1]
10001d9c:	428a      	cmp	r2, r1
10001d9e:	d1f6      	bne.n	10001d8e <ph_remove_and_free_node+0x2e>
10001da0:	7842      	ldrb	r2, [r0, #1]
10001da2:	705a      	strb	r2, [r3, #1]
10001da4:	2300      	movs	r3, #0
10001da6:	2201      	movs	r2, #1
10001da8:	7083      	strb	r3, [r0, #2]
10001daa:	7043      	strb	r3, [r0, #1]
10001dac:	0020      	movs	r0, r4
10001dae:	f7ff fedd 	bl	10001b6c <ph_remove_any_head>
10001db2:	7b61      	ldrb	r1, [r4, #13]
10001db4:	0002      	movs	r2, r0
10001db6:	0020      	movs	r0, r4
10001db8:	f7ff fe3e 	bl	10001a38 <ph_merge_nodes>
10001dbc:	7360      	strb	r0, [r4, #13]
10001dbe:	2001      	movs	r0, #1
10001dc0:	e000      	b.n	10001dc4 <ph_remove_and_free_node+0x64>
10001dc2:	2000      	movs	r0, #0
10001dc4:	bd70      	pop	{r4, r5, r6, pc}
10001dc6:	7843      	ldrb	r3, [r0, #1]
10001dc8:	7033      	strb	r3, [r6, #0]
10001dca:	e7eb      	b.n	10001da4 <ph_remove_and_free_node+0x44>
10001dcc:	2201      	movs	r2, #1
10001dce:	0019      	movs	r1, r3
10001dd0:	f7ff fecc 	bl	10001b6c <ph_remove_any_head>
10001dd4:	7360      	strb	r0, [r4, #13]
10001dd6:	2001      	movs	r0, #1
10001dd8:	e7f4      	b.n	10001dc4 <ph_remove_and_free_node+0x64>
10001dda:	46c0      	nop			; (mov r8, r8)

10001ddc <mutex_init>:
10001ddc:	b510      	push	{r4, lr}
10001dde:	0004      	movs	r4, r0
10001de0:	f7fe fe80 	bl	10000ae4 <next_striped_spin_lock_num>
10001de4:	0001      	movs	r1, r0
10001de6:	0020      	movs	r0, r4
10001de8:	f7ff f94a 	bl	10001080 <lock_init>
10001dec:	23ff      	movs	r3, #255	; 0xff
10001dee:	7123      	strb	r3, [r4, #4]
10001df0:	f3bf 8f5f 	dmb	sy
10001df4:	bd10      	pop	{r4, pc}
10001df6:	46c0      	nop			; (mov r8, r8)

10001df8 <recursive_mutex_init>:
10001df8:	b510      	push	{r4, lr}
10001dfa:	0004      	movs	r4, r0
10001dfc:	f7fe fe72 	bl	10000ae4 <next_striped_spin_lock_num>
10001e00:	0001      	movs	r1, r0
10001e02:	0020      	movs	r0, r4
10001e04:	f7ff f93c 	bl	10001080 <lock_init>
10001e08:	23ff      	movs	r3, #255	; 0xff
10001e0a:	80a3      	strh	r3, [r4, #4]
10001e0c:	f3bf 8f5f 	dmb	sy
10001e10:	bd10      	pop	{r4, pc}
10001e12:	46c0      	nop			; (mov r8, r8)

10001e14 <critical_section_init>:
10001e14:	b510      	push	{r4, lr}
10001e16:	0004      	movs	r4, r0
10001e18:	2001      	movs	r0, #1
10001e1a:	f7fe fe6f 	bl	10000afc <spin_lock_claim_unused>
10001e1e:	4b04      	ldr	r3, [pc, #16]	; (10001e30 <critical_section_init+0x1c>)
10001e20:	469c      	mov	ip, r3
10001e22:	4460      	add	r0, ip
10001e24:	0080      	lsls	r0, r0, #2
10001e26:	6020      	str	r0, [r4, #0]
10001e28:	f3bf 8f5f 	dmb	sy
10001e2c:	bd10      	pop	{r4, pc}
10001e2e:	46c0      	nop			; (mov r8, r8)
10001e30:	34000040 	.word	0x34000040

10001e34 <runtime_init>:
10001e34:	4b2c      	ldr	r3, [pc, #176]	; (10001ee8 <runtime_init+0xb4>)
10001e36:	4a2d      	ldr	r2, [pc, #180]	; (10001eec <runtime_init+0xb8>)
10001e38:	b570      	push	{r4, r5, r6, lr}
10001e3a:	601a      	str	r2, [r3, #0]
10001e3c:	4a2c      	ldr	r2, [pc, #176]	; (10001ef0 <runtime_init+0xbc>)
10001e3e:	4b2d      	ldr	r3, [pc, #180]	; (10001ef4 <runtime_init+0xc0>)
10001e40:	492d      	ldr	r1, [pc, #180]	; (10001ef8 <runtime_init+0xc4>)
10001e42:	601a      	str	r2, [r3, #0]
10001e44:	0014      	movs	r4, r2
10001e46:	688b      	ldr	r3, [r1, #8]
10001e48:	439c      	bics	r4, r3
10001e4a:	d1fb      	bne.n	10001e44 <runtime_init+0x10>
10001e4c:	4d2b      	ldr	r5, [pc, #172]	; (10001efc <runtime_init+0xc8>)
10001e4e:	4e2c      	ldr	r6, [pc, #176]	; (10001f00 <runtime_init+0xcc>)
10001e50:	42b5      	cmp	r5, r6
10001e52:	d208      	bcs.n	10001e66 <runtime_init+0x32>
10001e54:	3e01      	subs	r6, #1
10001e56:	1b76      	subs	r6, r6, r5
10001e58:	08b6      	lsrs	r6, r6, #2
10001e5a:	cd08      	ldmia	r5!, {r3}
10001e5c:	4798      	blx	r3
10001e5e:	0023      	movs	r3, r4
10001e60:	3401      	adds	r4, #1
10001e62:	42b3      	cmp	r3, r6
10001e64:	d1f9      	bne.n	10001e5a <runtime_init+0x26>
10001e66:	f000 f897 	bl	10001f98 <clocks_init>
10001e6a:	4a26      	ldr	r2, [pc, #152]	; (10001f04 <runtime_init+0xd0>)
10001e6c:	4b21      	ldr	r3, [pc, #132]	; (10001ef4 <runtime_init+0xc0>)
10001e6e:	601a      	str	r2, [r3, #0]
10001e70:	4a21      	ldr	r2, [pc, #132]	; (10001ef8 <runtime_init+0xc4>)
10001e72:	6893      	ldr	r3, [r2, #8]
10001e74:	43db      	mvns	r3, r3
10001e76:	01db      	lsls	r3, r3, #7
10001e78:	09dd      	lsrs	r5, r3, #7
10001e7a:	2b00      	cmp	r3, #0
10001e7c:	d1f9      	bne.n	10001e72 <runtime_init+0x3e>
10001e7e:	2240      	movs	r2, #64	; 0x40
10001e80:	4b21      	ldr	r3, [pc, #132]	; (10001f08 <runtime_init+0xd4>)
10001e82:	4c22      	ldr	r4, [pc, #136]	; (10001f0c <runtime_init+0xd8>)
10001e84:	4e22      	ldr	r6, [pc, #136]	; (10001f10 <runtime_init+0xdc>)
10001e86:	679a      	str	r2, [r3, #120]	; 0x78
10001e88:	675a      	str	r2, [r3, #116]	; 0x74
10001e8a:	671a      	str	r2, [r3, #112]	; 0x70
10001e8c:	66da      	str	r2, [r3, #108]	; 0x6c
10001e8e:	42b4      	cmp	r4, r6
10001e90:	d208      	bcs.n	10001ea4 <runtime_init+0x70>
10001e92:	6823      	ldr	r3, [r4, #0]
10001e94:	0020      	movs	r0, r4
10001e96:	2b00      	cmp	r3, #0
10001e98:	d020      	beq.n	10001edc <runtime_init+0xa8>
10001e9a:	3408      	adds	r4, #8
10001e9c:	f7ff ffac 	bl	10001df8 <recursive_mutex_init>
10001ea0:	42b4      	cmp	r4, r6
10001ea2:	d3f6      	bcc.n	10001e92 <runtime_init+0x5e>
10001ea4:	4e1b      	ldr	r6, [pc, #108]	; (10001f14 <runtime_init+0xe0>)
10001ea6:	4c1c      	ldr	r4, [pc, #112]	; (10001f18 <runtime_init+0xe4>)
10001ea8:	22c0      	movs	r2, #192	; 0xc0
10001eaa:	68a1      	ldr	r1, [r4, #8]
10001eac:	0030      	movs	r0, r6
10001eae:	f002 fd73 	bl	10004998 <__wrap___aeabi_memcpy>
10001eb2:	60a6      	str	r6, [r4, #8]
10001eb4:	f7fe fe08 	bl	10000ac8 <spin_locks_reset>
10001eb8:	f7ff f8b8 	bl	1000102c <irq_init_priorities>
10001ebc:	f7ff fb0c 	bl	100014d8 <alarm_pool_init_default>
10001ec0:	4c16      	ldr	r4, [pc, #88]	; (10001f1c <runtime_init+0xe8>)
10001ec2:	4e17      	ldr	r6, [pc, #92]	; (10001f20 <runtime_init+0xec>)
10001ec4:	42b4      	cmp	r4, r6
10001ec6:	d208      	bcs.n	10001eda <runtime_init+0xa6>
10001ec8:	3e01      	subs	r6, #1
10001eca:	1b36      	subs	r6, r6, r4
10001ecc:	08b6      	lsrs	r6, r6, #2
10001ece:	cc08      	ldmia	r4!, {r3}
10001ed0:	4798      	blx	r3
10001ed2:	002b      	movs	r3, r5
10001ed4:	3501      	adds	r5, #1
10001ed6:	429e      	cmp	r6, r3
10001ed8:	d1f9      	bne.n	10001ece <runtime_init+0x9a>
10001eda:	bd70      	pop	{r4, r5, r6, pc}
10001edc:	3408      	adds	r4, #8
10001ede:	f7ff ff7d 	bl	10001ddc <mutex_init>
10001ee2:	42b4      	cmp	r4, r6
10001ee4:	d3d5      	bcc.n	10001e92 <runtime_init+0x5e>
10001ee6:	e7dd      	b.n	10001ea4 <runtime_init+0x70>
10001ee8:	4000e000 	.word	0x4000e000
10001eec:	fefbcdbf 	.word	0xfefbcdbf
10001ef0:	003c7ffe 	.word	0x003c7ffe
10001ef4:	4000f000 	.word	0x4000f000
10001ef8:	4000c000 	.word	0x4000c000
10001efc:	20000cc8 	.word	0x20000cc8
10001f00:	20000cd8 	.word	0x20000cd8
10001f04:	01ffffff 	.word	0x01ffffff
10001f08:	4001f000 	.word	0x4001f000
10001f0c:	20000cc0 	.word	0x20000cc0
10001f10:	20000cc8 	.word	0x20000cc8
10001f14:	20000000 	.word	0x20000000
10001f18:	e000ed00 	.word	0xe000ed00
10001f1c:	20000cd8 	.word	0x20000cd8
10001f20:	20000ce0 	.word	0x20000ce0

10001f24 <_sbrk>:
10001f24:	4a09      	ldr	r2, [pc, #36]	; (10001f4c <_sbrk+0x28>)
10001f26:	0003      	movs	r3, r0
10001f28:	6810      	ldr	r0, [r2, #0]
10001f2a:	2800      	cmp	r0, #0
10001f2c:	d005      	beq.n	10001f3a <_sbrk+0x16>
10001f2e:	4908      	ldr	r1, [pc, #32]	; (10001f50 <_sbrk+0x2c>)
10001f30:	18c3      	adds	r3, r0, r3
10001f32:	428b      	cmp	r3, r1
10001f34:	d807      	bhi.n	10001f46 <_sbrk+0x22>
10001f36:	6013      	str	r3, [r2, #0]
10001f38:	4770      	bx	lr
10001f3a:	4806      	ldr	r0, [pc, #24]	; (10001f54 <_sbrk+0x30>)
10001f3c:	4904      	ldr	r1, [pc, #16]	; (10001f50 <_sbrk+0x2c>)
10001f3e:	18c3      	adds	r3, r0, r3
10001f40:	6010      	str	r0, [r2, #0]
10001f42:	428b      	cmp	r3, r1
10001f44:	d9f7      	bls.n	10001f36 <_sbrk+0x12>
10001f46:	2001      	movs	r0, #1
10001f48:	4240      	negs	r0, r0
10001f4a:	e7f5      	b.n	10001f38 <_sbrk+0x14>
10001f4c:	200017d4 	.word	0x200017d4
10001f50:	20040000 	.word	0x20040000
10001f54:	20001c4c 	.word	0x20001c4c

10001f58 <exit>:
10001f58:	be00      	bkpt	0x0000
10001f5a:	e7fd      	b.n	10001f58 <exit>

10001f5c <panic>:
10001f5c:	b40f      	push	{r0, r1, r2, r3}
10001f5e:	b500      	push	{lr}
10001f60:	4808      	ldr	r0, [pc, #32]	; (10001f84 <panic+0x28>)
10001f62:	b083      	sub	sp, #12
10001f64:	f002 fe80 	bl	10004c68 <__wrap_puts>
10001f68:	9b04      	ldr	r3, [sp, #16]
10001f6a:	2b00      	cmp	r3, #0
10001f6c:	d007      	beq.n	10001f7e <panic+0x22>
10001f6e:	a905      	add	r1, sp, #20
10001f70:	0018      	movs	r0, r3
10001f72:	9101      	str	r1, [sp, #4]
10001f74:	f001 fcfe 	bl	10003974 <weak_raw_vprintf>
10001f78:	4803      	ldr	r0, [pc, #12]	; (10001f88 <panic+0x2c>)
10001f7a:	f002 fe75 	bl	10004c68 <__wrap_puts>
10001f7e:	be00      	bkpt	0x0000
10001f80:	e7fd      	b.n	10001f7e <panic+0x22>
10001f82:	46c0      	nop			; (mov r8, r8)
10001f84:	1000b2d8 	.word	0x1000b2d8
10001f88:	1000b1c8 	.word	0x1000b1c8

10001f8c <hard_assertion_failure>:
10001f8c:	b510      	push	{r4, lr}
10001f8e:	4801      	ldr	r0, [pc, #4]	; (10001f94 <hard_assertion_failure+0x8>)
10001f90:	f7ff ffe4 	bl	10001f5c <panic>
10001f94:	1000b2e8 	.word	0x1000b2e8

10001f98 <clocks_init>:
10001f98:	b530      	push	{r4, r5, lr}
10001f9a:	200c      	movs	r0, #12
10001f9c:	b083      	sub	sp, #12
10001f9e:	f000 f9b7 	bl	10002310 <watchdog_start_tick>
10001fa2:	f7fe fd89 	bl	10000ab8 <running_on_fpga>
10001fa6:	2800      	cmp	r0, #0
10001fa8:	d00e      	beq.n	10001fc8 <clocks_init+0x30>
10001faa:	4b94      	ldr	r3, [pc, #592]	; (100021fc <clocks_init+0x264>)
10001fac:	4a94      	ldr	r2, [pc, #592]	; (10002200 <clocks_init+0x268>)
10001fae:	601a      	str	r2, [r3, #0]
10001fb0:	605a      	str	r2, [r3, #4]
10001fb2:	609a      	str	r2, [r3, #8]
10001fb4:	60da      	str	r2, [r3, #12]
10001fb6:	611a      	str	r2, [r3, #16]
10001fb8:	615a      	str	r2, [r3, #20]
10001fba:	619a      	str	r2, [r3, #24]
10001fbc:	61da      	str	r2, [r3, #28]
10001fbe:	621a      	str	r2, [r3, #32]
10001fc0:	4a90      	ldr	r2, [pc, #576]	; (10002204 <clocks_init+0x26c>)
10001fc2:	625a      	str	r2, [r3, #36]	; 0x24
10001fc4:	b003      	add	sp, #12
10001fc6:	bd30      	pop	{r4, r5, pc}
10001fc8:	4c8f      	ldr	r4, [pc, #572]	; (10002208 <clocks_init+0x270>)
10001fca:	67a0      	str	r0, [r4, #120]	; 0x78
10001fcc:	f000 f9f4 	bl	100023b8 <xosc_init>
10001fd0:	2201      	movs	r2, #1
10001fd2:	4b8e      	ldr	r3, [pc, #568]	; (1000220c <clocks_init+0x274>)
10001fd4:	601a      	str	r2, [r3, #0]
10001fd6:	6c63      	ldr	r3, [r4, #68]	; 0x44
10001fd8:	2b01      	cmp	r3, #1
10001fda:	d1fc      	bne.n	10001fd6 <clocks_init+0x3e>
10001fdc:	2203      	movs	r2, #3
10001fde:	4b8c      	ldr	r3, [pc, #560]	; (10002210 <clocks_init+0x278>)
10001fe0:	601a      	str	r2, [r3, #0]
10001fe2:	4a89      	ldr	r2, [pc, #548]	; (10002208 <clocks_init+0x270>)
10001fe4:	6b93      	ldr	r3, [r2, #56]	; 0x38
10001fe6:	2b01      	cmp	r3, #1
10001fe8:	d1fc      	bne.n	10001fe4 <clocks_init+0x4c>
10001fea:	3301      	adds	r3, #1
10001fec:	2101      	movs	r1, #1
10001fee:	4a89      	ldr	r2, [pc, #548]	; (10002214 <clocks_init+0x27c>)
10001ff0:	4889      	ldr	r0, [pc, #548]	; (10002218 <clocks_init+0x280>)
10001ff2:	9300      	str	r3, [sp, #0]
10001ff4:	3304      	adds	r3, #4
10001ff6:	f000 f933 	bl	10002260 <pll_init>
10001ffa:	2305      	movs	r3, #5
10001ffc:	4a87      	ldr	r2, [pc, #540]	; (1000221c <clocks_init+0x284>)
10001ffe:	9300      	str	r3, [sp, #0]
10002000:	2101      	movs	r1, #1
10002002:	4887      	ldr	r0, [pc, #540]	; (10002220 <clocks_init+0x288>)
10002004:	f000 f92c 	bl	10002260 <pll_init>
10002008:	4b86      	ldr	r3, [pc, #536]	; (10002224 <clocks_init+0x28c>)
1000200a:	685a      	ldr	r2, [r3, #4]
1000200c:	2aff      	cmp	r2, #255	; 0xff
1000200e:	d802      	bhi.n	10002016 <clocks_init+0x7e>
10002010:	2280      	movs	r2, #128	; 0x80
10002012:	0052      	lsls	r2, r2, #1
10002014:	605a      	str	r2, [r3, #4]
10002016:	2280      	movs	r2, #128	; 0x80
10002018:	4c78      	ldr	r4, [pc, #480]	; (100021fc <clocks_init+0x264>)
1000201a:	4b7d      	ldr	r3, [pc, #500]	; (10002210 <clocks_init+0x278>)
1000201c:	6921      	ldr	r1, [r4, #16]
1000201e:	0112      	lsls	r2, r2, #4
10002020:	4d80      	ldr	r5, [pc, #512]	; (10002224 <clocks_init+0x28c>)
10002022:	601a      	str	r2, [r3, #0]
10002024:	2900      	cmp	r1, #0
10002026:	d005      	beq.n	10002034 <clocks_init+0x9c>
10002028:	6960      	ldr	r0, [r4, #20]
1000202a:	f001 fd1d 	bl	10003a68 <__wrap___aeabi_uidiv>
1000202e:	3001      	adds	r0, #1
10002030:	3801      	subs	r0, #1
10002032:	d1fd      	bne.n	10002030 <clocks_init+0x98>
10002034:	21e0      	movs	r1, #224	; 0xe0
10002036:	4b7b      	ldr	r3, [pc, #492]	; (10002224 <clocks_init+0x28c>)
10002038:	2002      	movs	r0, #2
1000203a:	681a      	ldr	r2, [r3, #0]
1000203c:	4011      	ands	r1, r2
1000203e:	2280      	movs	r2, #128	; 0x80
10002040:	0152      	lsls	r2, r2, #5
10002042:	432a      	orrs	r2, r5
10002044:	6011      	str	r1, [r2, #0]
10002046:	6819      	ldr	r1, [r3, #0]
10002048:	4048      	eors	r0, r1
1000204a:	2103      	movs	r1, #3
1000204c:	4001      	ands	r1, r0
1000204e:	6011      	str	r1, [r2, #0]
10002050:	2104      	movs	r1, #4
10002052:	689a      	ldr	r2, [r3, #8]
10002054:	4211      	tst	r1, r2
10002056:	d0fc      	beq.n	10002052 <clocks_init+0xba>
10002058:	2280      	movs	r2, #128	; 0x80
1000205a:	2180      	movs	r1, #128	; 0x80
1000205c:	0192      	lsls	r2, r2, #6
1000205e:	432a      	orrs	r2, r5
10002060:	0109      	lsls	r1, r1, #4
10002062:	6011      	str	r1, [r2, #0]
10002064:	2280      	movs	r2, #128	; 0x80
10002066:	0052      	lsls	r2, r2, #1
10002068:	605a      	str	r2, [r3, #4]
1000206a:	4b6f      	ldr	r3, [pc, #444]	; (10002228 <clocks_init+0x290>)
1000206c:	6123      	str	r3, [r4, #16]
1000206e:	4b6f      	ldr	r3, [pc, #444]	; (1000222c <clocks_init+0x294>)
10002070:	6859      	ldr	r1, [r3, #4]
10002072:	29ff      	cmp	r1, #255	; 0xff
10002074:	d800      	bhi.n	10002078 <clocks_init+0xe0>
10002076:	605a      	str	r2, [r3, #4]
10002078:	2103      	movs	r1, #3
1000207a:	4a64      	ldr	r2, [pc, #400]	; (1000220c <clocks_init+0x274>)
1000207c:	4b6b      	ldr	r3, [pc, #428]	; (1000222c <clocks_init+0x294>)
1000207e:	6011      	str	r1, [r2, #0]
10002080:	3902      	subs	r1, #2
10002082:	689a      	ldr	r2, [r3, #8]
10002084:	4211      	tst	r1, r2
10002086:	d0fc      	beq.n	10002082 <clocks_init+0xea>
10002088:	20e0      	movs	r0, #224	; 0xe0
1000208a:	681a      	ldr	r2, [r3, #0]
1000208c:	4010      	ands	r0, r2
1000208e:	2280      	movs	r2, #128	; 0x80
10002090:	0152      	lsls	r2, r2, #5
10002092:	431a      	orrs	r2, r3
10002094:	6010      	str	r0, [r2, #0]
10002096:	6818      	ldr	r0, [r3, #0]
10002098:	4048      	eors	r0, r1
1000209a:	2103      	movs	r1, #3
1000209c:	4001      	ands	r1, r0
1000209e:	2002      	movs	r0, #2
100020a0:	6011      	str	r1, [r2, #0]
100020a2:	4962      	ldr	r1, [pc, #392]	; (1000222c <clocks_init+0x294>)
100020a4:	688a      	ldr	r2, [r1, #8]
100020a6:	4210      	tst	r0, r2
100020a8:	d0fc      	beq.n	100020a4 <clocks_init+0x10c>
100020aa:	2280      	movs	r2, #128	; 0x80
100020ac:	0192      	lsls	r2, r2, #6
100020ae:	4313      	orrs	r3, r2
100020b0:	2280      	movs	r2, #128	; 0x80
100020b2:	0112      	lsls	r2, r2, #4
100020b4:	601a      	str	r2, [r3, #0]
100020b6:	2280      	movs	r2, #128	; 0x80
100020b8:	4b5d      	ldr	r3, [pc, #372]	; (10002230 <clocks_init+0x298>)
100020ba:	0052      	lsls	r2, r2, #1
100020bc:	604a      	str	r2, [r1, #4]
100020be:	6163      	str	r3, [r4, #20]
100020c0:	4b5c      	ldr	r3, [pc, #368]	; (10002234 <clocks_init+0x29c>)
100020c2:	6859      	ldr	r1, [r3, #4]
100020c4:	29ff      	cmp	r1, #255	; 0xff
100020c6:	d800      	bhi.n	100020ca <clocks_init+0x132>
100020c8:	605a      	str	r2, [r3, #4]
100020ca:	2280      	movs	r2, #128	; 0x80
100020cc:	4b5a      	ldr	r3, [pc, #360]	; (10002238 <clocks_init+0x2a0>)
100020ce:	69e1      	ldr	r1, [r4, #28]
100020d0:	0112      	lsls	r2, r2, #4
100020d2:	4d58      	ldr	r5, [pc, #352]	; (10002234 <clocks_init+0x29c>)
100020d4:	601a      	str	r2, [r3, #0]
100020d6:	2900      	cmp	r1, #0
100020d8:	d005      	beq.n	100020e6 <clocks_init+0x14e>
100020da:	6960      	ldr	r0, [r4, #20]
100020dc:	f001 fcc4 	bl	10003a68 <__wrap___aeabi_uidiv>
100020e0:	3001      	adds	r0, #1
100020e2:	3801      	subs	r0, #1
100020e4:	d1fd      	bne.n	100020e2 <clocks_init+0x14a>
100020e6:	22e0      	movs	r2, #224	; 0xe0
100020e8:	4952      	ldr	r1, [pc, #328]	; (10002234 <clocks_init+0x29c>)
100020ea:	680b      	ldr	r3, [r1, #0]
100020ec:	401a      	ands	r2, r3
100020ee:	2380      	movs	r3, #128	; 0x80
100020f0:	015b      	lsls	r3, r3, #5
100020f2:	432b      	orrs	r3, r5
100020f4:	601a      	str	r2, [r3, #0]
100020f6:	2380      	movs	r3, #128	; 0x80
100020f8:	2280      	movs	r2, #128	; 0x80
100020fa:	019b      	lsls	r3, r3, #6
100020fc:	432b      	orrs	r3, r5
100020fe:	0112      	lsls	r2, r2, #4
10002100:	601a      	str	r2, [r3, #0]
10002102:	2280      	movs	r2, #128	; 0x80
10002104:	4b3e      	ldr	r3, [pc, #248]	; (10002200 <clocks_init+0x268>)
10002106:	0052      	lsls	r2, r2, #1
10002108:	604a      	str	r2, [r1, #4]
1000210a:	61e3      	str	r3, [r4, #28]
1000210c:	4b4b      	ldr	r3, [pc, #300]	; (1000223c <clocks_init+0x2a4>)
1000210e:	6859      	ldr	r1, [r3, #4]
10002110:	29ff      	cmp	r1, #255	; 0xff
10002112:	d800      	bhi.n	10002116 <clocks_init+0x17e>
10002114:	605a      	str	r2, [r3, #4]
10002116:	2280      	movs	r2, #128	; 0x80
10002118:	4b49      	ldr	r3, [pc, #292]	; (10002240 <clocks_init+0x2a8>)
1000211a:	6a21      	ldr	r1, [r4, #32]
1000211c:	0112      	lsls	r2, r2, #4
1000211e:	4d47      	ldr	r5, [pc, #284]	; (1000223c <clocks_init+0x2a4>)
10002120:	601a      	str	r2, [r3, #0]
10002122:	2900      	cmp	r1, #0
10002124:	d005      	beq.n	10002132 <clocks_init+0x19a>
10002126:	6960      	ldr	r0, [r4, #20]
10002128:	f001 fc9e 	bl	10003a68 <__wrap___aeabi_uidiv>
1000212c:	3001      	adds	r0, #1
1000212e:	3801      	subs	r0, #1
10002130:	d1fd      	bne.n	1000212e <clocks_init+0x196>
10002132:	22e0      	movs	r2, #224	; 0xe0
10002134:	4941      	ldr	r1, [pc, #260]	; (1000223c <clocks_init+0x2a4>)
10002136:	680b      	ldr	r3, [r1, #0]
10002138:	401a      	ands	r2, r3
1000213a:	2380      	movs	r3, #128	; 0x80
1000213c:	015b      	lsls	r3, r3, #5
1000213e:	432b      	orrs	r3, r5
10002140:	601a      	str	r2, [r3, #0]
10002142:	2380      	movs	r3, #128	; 0x80
10002144:	2280      	movs	r2, #128	; 0x80
10002146:	019b      	lsls	r3, r3, #6
10002148:	432b      	orrs	r3, r5
1000214a:	0112      	lsls	r2, r2, #4
1000214c:	601a      	str	r2, [r3, #0]
1000214e:	2380      	movs	r3, #128	; 0x80
10002150:	2280      	movs	r2, #128	; 0x80
10002152:	005b      	lsls	r3, r3, #1
10002154:	604b      	str	r3, [r1, #4]
10002156:	4b2a      	ldr	r3, [pc, #168]	; (10002200 <clocks_init+0x268>)
10002158:	02d2      	lsls	r2, r2, #11
1000215a:	6223      	str	r3, [r4, #32]
1000215c:	4b39      	ldr	r3, [pc, #228]	; (10002244 <clocks_init+0x2ac>)
1000215e:	6859      	ldr	r1, [r3, #4]
10002160:	4291      	cmp	r1, r2
10002162:	d200      	bcs.n	10002166 <clocks_init+0x1ce>
10002164:	605a      	str	r2, [r3, #4]
10002166:	2280      	movs	r2, #128	; 0x80
10002168:	4b37      	ldr	r3, [pc, #220]	; (10002248 <clocks_init+0x2b0>)
1000216a:	6a61      	ldr	r1, [r4, #36]	; 0x24
1000216c:	0112      	lsls	r2, r2, #4
1000216e:	4d35      	ldr	r5, [pc, #212]	; (10002244 <clocks_init+0x2ac>)
10002170:	601a      	str	r2, [r3, #0]
10002172:	2900      	cmp	r1, #0
10002174:	d005      	beq.n	10002182 <clocks_init+0x1ea>
10002176:	6960      	ldr	r0, [r4, #20]
10002178:	f001 fc76 	bl	10003a68 <__wrap___aeabi_uidiv>
1000217c:	3001      	adds	r0, #1
1000217e:	3801      	subs	r0, #1
10002180:	d1fd      	bne.n	1000217e <clocks_init+0x1e6>
10002182:	22e0      	movs	r2, #224	; 0xe0
10002184:	492f      	ldr	r1, [pc, #188]	; (10002244 <clocks_init+0x2ac>)
10002186:	680b      	ldr	r3, [r1, #0]
10002188:	401a      	ands	r2, r3
1000218a:	2380      	movs	r3, #128	; 0x80
1000218c:	015b      	lsls	r3, r3, #5
1000218e:	432b      	orrs	r3, r5
10002190:	601a      	str	r2, [r3, #0]
10002192:	2380      	movs	r3, #128	; 0x80
10002194:	2280      	movs	r2, #128	; 0x80
10002196:	019b      	lsls	r3, r3, #6
10002198:	432b      	orrs	r3, r5
1000219a:	0112      	lsls	r2, r2, #4
1000219c:	601a      	str	r2, [r3, #0]
1000219e:	2380      	movs	r3, #128	; 0x80
100021a0:	02db      	lsls	r3, r3, #11
100021a2:	604b      	str	r3, [r1, #4]
100021a4:	4b17      	ldr	r3, [pc, #92]	; (10002204 <clocks_init+0x26c>)
100021a6:	6263      	str	r3, [r4, #36]	; 0x24
100021a8:	4b28      	ldr	r3, [pc, #160]	; (1000224c <clocks_init+0x2b4>)
100021aa:	685a      	ldr	r2, [r3, #4]
100021ac:	2aff      	cmp	r2, #255	; 0xff
100021ae:	d802      	bhi.n	100021b6 <clocks_init+0x21e>
100021b0:	2280      	movs	r2, #128	; 0x80
100021b2:	0052      	lsls	r2, r2, #1
100021b4:	605a      	str	r2, [r3, #4]
100021b6:	2280      	movs	r2, #128	; 0x80
100021b8:	4b25      	ldr	r3, [pc, #148]	; (10002250 <clocks_init+0x2b8>)
100021ba:	69a1      	ldr	r1, [r4, #24]
100021bc:	0112      	lsls	r2, r2, #4
100021be:	4d23      	ldr	r5, [pc, #140]	; (1000224c <clocks_init+0x2b4>)
100021c0:	601a      	str	r2, [r3, #0]
100021c2:	2900      	cmp	r1, #0
100021c4:	d005      	beq.n	100021d2 <clocks_init+0x23a>
100021c6:	6960      	ldr	r0, [r4, #20]
100021c8:	f001 fc4e 	bl	10003a68 <__wrap___aeabi_uidiv>
100021cc:	3001      	adds	r0, #1
100021ce:	3801      	subs	r0, #1
100021d0:	d1fd      	bne.n	100021ce <clocks_init+0x236>
100021d2:	22e0      	movs	r2, #224	; 0xe0
100021d4:	491d      	ldr	r1, [pc, #116]	; (1000224c <clocks_init+0x2b4>)
100021d6:	680b      	ldr	r3, [r1, #0]
100021d8:	401a      	ands	r2, r3
100021da:	2380      	movs	r3, #128	; 0x80
100021dc:	015b      	lsls	r3, r3, #5
100021de:	432b      	orrs	r3, r5
100021e0:	601a      	str	r2, [r3, #0]
100021e2:	2380      	movs	r3, #128	; 0x80
100021e4:	2280      	movs	r2, #128	; 0x80
100021e6:	019b      	lsls	r3, r3, #6
100021e8:	432b      	orrs	r3, r5
100021ea:	0112      	lsls	r2, r2, #4
100021ec:	601a      	str	r2, [r3, #0]
100021ee:	2380      	movs	r3, #128	; 0x80
100021f0:	005b      	lsls	r3, r3, #1
100021f2:	604b      	str	r3, [r1, #4]
100021f4:	4b0e      	ldr	r3, [pc, #56]	; (10002230 <clocks_init+0x298>)
100021f6:	61a3      	str	r3, [r4, #24]
100021f8:	e6e4      	b.n	10001fc4 <clocks_init+0x2c>
100021fa:	46c0      	nop			; (mov r8, r8)
100021fc:	20001734 	.word	0x20001734
10002200:	02dc6c00 	.word	0x02dc6c00
10002204:	0000b71b 	.word	0x0000b71b
10002208:	40008000 	.word	0x40008000
1000220c:	4000b03c 	.word	0x4000b03c
10002210:	4000b030 	.word	0x4000b030
10002214:	59682f00 	.word	0x59682f00
10002218:	40028000 	.word	0x40028000
1000221c:	47868c00 	.word	0x47868c00
10002220:	4002c000 	.word	0x4002c000
10002224:	40008030 	.word	0x40008030
10002228:	00b71b00 	.word	0x00b71b00
1000222c:	4000803c 	.word	0x4000803c
10002230:	07735940 	.word	0x07735940
10002234:	40008054 	.word	0x40008054
10002238:	4000b054 	.word	0x4000b054
1000223c:	40008060 	.word	0x40008060
10002240:	4000b060 	.word	0x4000b060
10002244:	4000806c 	.word	0x4000806c
10002248:	4000b06c 	.word	0x4000b06c
1000224c:	40008048 	.word	0x40008048
10002250:	4000b048 	.word	0x4000b048

10002254 <clock_get_hz>:
10002254:	4b01      	ldr	r3, [pc, #4]	; (1000225c <clock_get_hz+0x8>)
10002256:	0080      	lsls	r0, r0, #2
10002258:	58c0      	ldr	r0, [r0, r3]
1000225a:	4770      	bx	lr
1000225c:	20001734 	.word	0x20001734

10002260 <pll_init>:
10002260:	b5f0      	push	{r4, r5, r6, r7, lr}
10002262:	46c6      	mov	lr, r8
10002264:	0004      	movs	r4, r0
10002266:	b500      	push	{lr}
10002268:	200c      	movs	r0, #12
1000226a:	4690      	mov	r8, r2
1000226c:	001f      	movs	r7, r3
1000226e:	000e      	movs	r6, r1
10002270:	f001 fbfa 	bl	10003a68 <__wrap___aeabi_uidiv>
10002274:	0141      	lsls	r1, r0, #5
10002276:	1a09      	subs	r1, r1, r0
10002278:	018d      	lsls	r5, r1, #6
1000227a:	1a69      	subs	r1, r5, r1
1000227c:	00c9      	lsls	r1, r1, #3
1000227e:	1809      	adds	r1, r1, r0
10002280:	0189      	lsls	r1, r1, #6
10002282:	4640      	mov	r0, r8
10002284:	f001 fbf0 	bl	10003a68 <__wrap___aeabi_uidiv>
10002288:	9b06      	ldr	r3, [sp, #24]
1000228a:	043f      	lsls	r7, r7, #16
1000228c:	031a      	lsls	r2, r3, #12
1000228e:	6823      	ldr	r3, [r4, #0]
10002290:	4317      	orrs	r7, r2
10002292:	2b00      	cmp	r3, #0
10002294:	db22      	blt.n	100022dc <pll_init+0x7c>
10002296:	4b1a      	ldr	r3, [pc, #104]	; (10002300 <pll_init+0xa0>)
10002298:	4d1a      	ldr	r5, [pc, #104]	; (10002304 <pll_init+0xa4>)
1000229a:	18e2      	adds	r2, r4, r3
1000229c:	4253      	negs	r3, r2
1000229e:	415a      	adcs	r2, r3
100022a0:	2380      	movs	r3, #128	; 0x80
100022a2:	015b      	lsls	r3, r3, #5
100022a4:	469c      	mov	ip, r3
100022a6:	0312      	lsls	r2, r2, #12
100022a8:	4b17      	ldr	r3, [pc, #92]	; (10002308 <pll_init+0xa8>)
100022aa:	4462      	add	r2, ip
100022ac:	601a      	str	r2, [r3, #0]
100022ae:	4b17      	ldr	r3, [pc, #92]	; (1000230c <pll_init+0xac>)
100022b0:	601a      	str	r2, [r3, #0]
100022b2:	0011      	movs	r1, r2
100022b4:	68ab      	ldr	r3, [r5, #8]
100022b6:	4399      	bics	r1, r3
100022b8:	d1fb      	bne.n	100022b2 <pll_init+0x52>
100022ba:	22c0      	movs	r2, #192	; 0xc0
100022bc:	1d23      	adds	r3, r4, #4
100022be:	0192      	lsls	r2, r2, #6
100022c0:	431a      	orrs	r2, r3
100022c2:	2321      	movs	r3, #33	; 0x21
100022c4:	6026      	str	r6, [r4, #0]
100022c6:	60a0      	str	r0, [r4, #8]
100022c8:	6013      	str	r3, [r2, #0]
100022ca:	6823      	ldr	r3, [r4, #0]
100022cc:	2b00      	cmp	r3, #0
100022ce:	dafc      	bge.n	100022ca <pll_init+0x6a>
100022d0:	2308      	movs	r3, #8
100022d2:	60e7      	str	r7, [r4, #12]
100022d4:	6013      	str	r3, [r2, #0]
100022d6:	bc80      	pop	{r7}
100022d8:	46b8      	mov	r8, r7
100022da:	bdf0      	pop	{r4, r5, r6, r7, pc}
100022dc:	233f      	movs	r3, #63	; 0x3f
100022de:	6822      	ldr	r2, [r4, #0]
100022e0:	4013      	ands	r3, r2
100022e2:	42b3      	cmp	r3, r6
100022e4:	d1d7      	bne.n	10002296 <pll_init+0x36>
100022e6:	68a3      	ldr	r3, [r4, #8]
100022e8:	051b      	lsls	r3, r3, #20
100022ea:	0d1b      	lsrs	r3, r3, #20
100022ec:	4283      	cmp	r3, r0
100022ee:	d1d2      	bne.n	10002296 <pll_init+0x36>
100022f0:	22ee      	movs	r2, #238	; 0xee
100022f2:	68e3      	ldr	r3, [r4, #12]
100022f4:	02d2      	lsls	r2, r2, #11
100022f6:	4013      	ands	r3, r2
100022f8:	42bb      	cmp	r3, r7
100022fa:	d1cc      	bne.n	10002296 <pll_init+0x36>
100022fc:	e7eb      	b.n	100022d6 <pll_init+0x76>
100022fe:	46c0      	nop			; (mov r8, r8)
10002300:	bffd4000 	.word	0xbffd4000
10002304:	4000c000 	.word	0x4000c000
10002308:	4000e000 	.word	0x4000e000
1000230c:	4000f000 	.word	0x4000f000

10002310 <watchdog_start_tick>:
10002310:	2380      	movs	r3, #128	; 0x80
10002312:	4a02      	ldr	r2, [pc, #8]	; (1000231c <watchdog_start_tick+0xc>)
10002314:	009b      	lsls	r3, r3, #2
10002316:	4303      	orrs	r3, r0
10002318:	62d3      	str	r3, [r2, #44]	; 0x2c
1000231a:	4770      	bx	lr
1000231c:	40058000 	.word	0x40058000

10002320 <watchdog_reboot>:
10002320:	b510      	push	{r4, lr}
10002322:	0014      	movs	r4, r2
10002324:	2280      	movs	r2, #128	; 0x80
10002326:	4b1b      	ldr	r3, [pc, #108]	; (10002394 <watchdog_reboot+0x74>)
10002328:	05d2      	lsls	r2, r2, #23
1000232a:	601a      	str	r2, [r3, #0]
1000232c:	2800      	cmp	r0, #0
1000232e:	d01a      	beq.n	10002366 <watchdog_reboot+0x46>
10002330:	2301      	movs	r3, #1
10002332:	4a19      	ldr	r2, [pc, #100]	; (10002398 <watchdog_reboot+0x78>)
10002334:	4318      	orrs	r0, r3
10002336:	4b19      	ldr	r3, [pc, #100]	; (1000239c <watchdog_reboot+0x7c>)
10002338:	61da      	str	r2, [r3, #28]
1000233a:	4a19      	ldr	r2, [pc, #100]	; (100023a0 <watchdog_reboot+0x80>)
1000233c:	4042      	eors	r2, r0
1000233e:	621a      	str	r2, [r3, #32]
10002340:	6259      	str	r1, [r3, #36]	; 0x24
10002342:	6298      	str	r0, [r3, #40]	; 0x28
10002344:	2280      	movs	r2, #128	; 0x80
10002346:	4b13      	ldr	r3, [pc, #76]	; (10002394 <watchdog_reboot+0x74>)
10002348:	05d2      	lsls	r2, r2, #23
1000234a:	601a      	str	r2, [r3, #0]
1000234c:	4915      	ldr	r1, [pc, #84]	; (100023a4 <watchdog_reboot+0x84>)
1000234e:	4a16      	ldr	r2, [pc, #88]	; (100023a8 <watchdog_reboot+0x88>)
10002350:	6011      	str	r1, [r2, #0]
10002352:	22e0      	movs	r2, #224	; 0xe0
10002354:	04d2      	lsls	r2, r2, #19
10002356:	601a      	str	r2, [r3, #0]
10002358:	2c00      	cmp	r4, #0
1000235a:	d107      	bne.n	1000236c <watchdog_reboot+0x4c>
1000235c:	2280      	movs	r2, #128	; 0x80
1000235e:	4b13      	ldr	r3, [pc, #76]	; (100023ac <watchdog_reboot+0x8c>)
10002360:	0612      	lsls	r2, r2, #24
10002362:	601a      	str	r2, [r3, #0]
10002364:	bd10      	pop	{r4, pc}
10002366:	4b0d      	ldr	r3, [pc, #52]	; (1000239c <watchdog_reboot+0x7c>)
10002368:	61d8      	str	r0, [r3, #28]
1000236a:	e7eb      	b.n	10002344 <watchdog_reboot+0x24>
1000236c:	0163      	lsls	r3, r4, #5
1000236e:	1b1b      	subs	r3, r3, r4
10002370:	009a      	lsls	r2, r3, #2
10002372:	2380      	movs	r3, #128	; 0x80
10002374:	1912      	adds	r2, r2, r4
10002376:	0112      	lsls	r2, r2, #4
10002378:	045b      	lsls	r3, r3, #17
1000237a:	429a      	cmp	r2, r3
1000237c:	d300      	bcc.n	10002380 <watchdog_reboot+0x60>
1000237e:	4a0c      	ldr	r2, [pc, #48]	; (100023b0 <watchdog_reboot+0x90>)
10002380:	4b0c      	ldr	r3, [pc, #48]	; (100023b4 <watchdog_reboot+0x94>)
10002382:	601a      	str	r2, [r3, #0]
10002384:	4b05      	ldr	r3, [pc, #20]	; (1000239c <watchdog_reboot+0x7c>)
10002386:	605a      	str	r2, [r3, #4]
10002388:	2280      	movs	r2, #128	; 0x80
1000238a:	4b08      	ldr	r3, [pc, #32]	; (100023ac <watchdog_reboot+0x8c>)
1000238c:	05d2      	lsls	r2, r2, #23
1000238e:	601a      	str	r2, [r3, #0]
10002390:	e7e8      	b.n	10002364 <watchdog_reboot+0x44>
10002392:	46c0      	nop			; (mov r8, r8)
10002394:	4005b000 	.word	0x4005b000
10002398:	b007c0d3 	.word	0xb007c0d3
1000239c:	40058000 	.word	0x40058000
100023a0:	4ff83f2d 	.word	0x4ff83f2d
100023a4:	0001fffc 	.word	0x0001fffc
100023a8:	40012008 	.word	0x40012008
100023ac:	4005a000 	.word	0x4005a000
100023b0:	00ffffff 	.word	0x00ffffff
100023b4:	20001be0 	.word	0x20001be0

100023b8 <xosc_init>:
100023b8:	23aa      	movs	r3, #170	; 0xaa
100023ba:	4a06      	ldr	r2, [pc, #24]	; (100023d4 <xosc_init+0x1c>)
100023bc:	011b      	lsls	r3, r3, #4
100023be:	6013      	str	r3, [r2, #0]
100023c0:	232f      	movs	r3, #47	; 0x2f
100023c2:	4905      	ldr	r1, [pc, #20]	; (100023d8 <xosc_init+0x20>)
100023c4:	60d3      	str	r3, [r2, #12]
100023c6:	4b05      	ldr	r3, [pc, #20]	; (100023dc <xosc_init+0x24>)
100023c8:	6019      	str	r1, [r3, #0]
100023ca:	6853      	ldr	r3, [r2, #4]
100023cc:	2b00      	cmp	r3, #0
100023ce:	dafc      	bge.n	100023ca <xosc_init+0x12>
100023d0:	4770      	bx	lr
100023d2:	46c0      	nop			; (mov r8, r8)
100023d4:	40024000 	.word	0x40024000
100023d8:	00fab000 	.word	0x00fab000
100023dc:	40026000 	.word	0x40026000

100023e0 <_out_null>:
100023e0:	4770      	bx	lr
100023e2:	46c0      	nop			; (mov r8, r8)

100023e4 <_out_rev>:
100023e4:	b5f8      	push	{r3, r4, r5, r6, r7, lr}
100023e6:	4657      	mov	r7, sl
100023e8:	464e      	mov	r6, r9
100023ea:	4645      	mov	r5, r8
100023ec:	46de      	mov	lr, fp
100023ee:	b5e0      	push	{r5, r6, r7, lr}
100023f0:	4699      	mov	r9, r3
100023f2:	9b0a      	ldr	r3, [sp, #40]	; 0x28
100023f4:	0007      	movs	r7, r0
100023f6:	469a      	mov	sl, r3
100023f8:	9b0d      	ldr	r3, [sp, #52]	; 0x34
100023fa:	4688      	mov	r8, r1
100023fc:	4693      	mov	fp, r2
100023fe:	0015      	movs	r5, r2
10002400:	9e0b      	ldr	r6, [sp, #44]	; 0x2c
10002402:	079b      	lsls	r3, r3, #30
10002404:	d110      	bne.n	10002428 <_out_rev+0x44>
10002406:	9b0c      	ldr	r3, [sp, #48]	; 0x30
10002408:	429e      	cmp	r6, r3
1000240a:	d20d      	bcs.n	10002428 <_out_rev+0x44>
1000240c:	1b9d      	subs	r5, r3, r6
1000240e:	0014      	movs	r4, r2
10002410:	000e      	movs	r6, r1
10002412:	445d      	add	r5, fp
10002414:	0022      	movs	r2, r4
10002416:	464b      	mov	r3, r9
10002418:	3401      	adds	r4, #1
1000241a:	0031      	movs	r1, r6
1000241c:	2020      	movs	r0, #32
1000241e:	47b8      	blx	r7
10002420:	42a5      	cmp	r5, r4
10002422:	d1f7      	bne.n	10002414 <_out_rev+0x30>
10002424:	46b0      	mov	r8, r6
10002426:	9e0b      	ldr	r6, [sp, #44]	; 0x2c
10002428:	2e00      	cmp	r6, #0
1000242a:	d027      	beq.n	1000247c <_out_rev+0x98>
1000242c:	4644      	mov	r4, r8
1000242e:	1975      	adds	r5, r6, r5
10002430:	4653      	mov	r3, sl
10002432:	1baa      	subs	r2, r5, r6
10002434:	3e01      	subs	r6, #1
10002436:	5d98      	ldrb	r0, [r3, r6]
10002438:	0021      	movs	r1, r4
1000243a:	464b      	mov	r3, r9
1000243c:	47b8      	blx	r7
1000243e:	2e00      	cmp	r6, #0
10002440:	d1f6      	bne.n	10002430 <_out_rev+0x4c>
10002442:	0023      	movs	r3, r4
10002444:	002c      	movs	r4, r5
10002446:	4698      	mov	r8, r3
10002448:	9b0d      	ldr	r3, [sp, #52]	; 0x34
1000244a:	079b      	lsls	r3, r3, #30
1000244c:	d50f      	bpl.n	1000246e <_out_rev+0x8a>
1000244e:	465b      	mov	r3, fp
10002450:	1ae5      	subs	r5, r4, r3
10002452:	9b0c      	ldr	r3, [sp, #48]	; 0x30
10002454:	42ab      	cmp	r3, r5
10002456:	d90a      	bls.n	1000246e <_out_rev+0x8a>
10002458:	4646      	mov	r6, r8
1000245a:	4698      	mov	r8, r3
1000245c:	0022      	movs	r2, r4
1000245e:	464b      	mov	r3, r9
10002460:	0031      	movs	r1, r6
10002462:	2020      	movs	r0, #32
10002464:	3501      	adds	r5, #1
10002466:	47b8      	blx	r7
10002468:	3401      	adds	r4, #1
1000246a:	45a8      	cmp	r8, r5
1000246c:	d8f6      	bhi.n	1000245c <_out_rev+0x78>
1000246e:	0020      	movs	r0, r4
10002470:	bcf0      	pop	{r4, r5, r6, r7}
10002472:	46bb      	mov	fp, r7
10002474:	46b2      	mov	sl, r6
10002476:	46a9      	mov	r9, r5
10002478:	46a0      	mov	r8, r4
1000247a:	bdf8      	pop	{r3, r4, r5, r6, r7, pc}
1000247c:	002c      	movs	r4, r5
1000247e:	e7e3      	b.n	10002448 <_out_rev+0x64>

10002480 <_ntoa_format>:
10002480:	b5f0      	push	{r4, r5, r6, r7, lr}
10002482:	464f      	mov	r7, r9
10002484:	4646      	mov	r6, r8
10002486:	46d6      	mov	lr, sl
10002488:	b5c0      	push	{r6, r7, lr}
1000248a:	b084      	sub	sp, #16
1000248c:	4698      	mov	r8, r3
1000248e:	ab0e      	add	r3, sp, #56	; 0x38
10002490:	781b      	ldrb	r3, [r3, #0]
10002492:	9f12      	ldr	r7, [sp, #72]	; 0x48
10002494:	4699      	mov	r9, r3
10002496:	4694      	mov	ip, r2
10002498:	9c0d      	ldr	r4, [sp, #52]	; 0x34
1000249a:	9b10      	ldr	r3, [sp, #64]	; 0x40
1000249c:	9e11      	ldr	r6, [sp, #68]	; 0x44
1000249e:	07ba      	lsls	r2, r7, #30
100024a0:	d425      	bmi.n	100024ee <_ntoa_format+0x6e>
100024a2:	2e00      	cmp	r6, #0
100024a4:	d14b      	bne.n	1000253e <_ntoa_format+0xbe>
100024a6:	429c      	cmp	r4, r3
100024a8:	d300      	bcc.n	100024ac <_ntoa_format+0x2c>
100024aa:	e0bf      	b.n	1000262c <_ntoa_format+0x1ac>
100024ac:	2201      	movs	r2, #1
100024ae:	403a      	ands	r2, r7
100024b0:	4692      	mov	sl, r2
100024b2:	2c1f      	cmp	r4, #31
100024b4:	d900      	bls.n	100024b8 <_ntoa_format+0x38>
100024b6:	e0b8      	b.n	1000262a <_ntoa_format+0x1aa>
100024b8:	9a0c      	ldr	r2, [sp, #48]	; 0x30
100024ba:	1e55      	subs	r5, r2, #1
100024bc:	2230      	movs	r2, #48	; 0x30
100024be:	e001      	b.n	100024c4 <_ntoa_format+0x44>
100024c0:	2c20      	cmp	r4, #32
100024c2:	d003      	beq.n	100024cc <_ntoa_format+0x4c>
100024c4:	3401      	adds	r4, #1
100024c6:	552a      	strb	r2, [r5, r4]
100024c8:	42a3      	cmp	r3, r4
100024ca:	d8f9      	bhi.n	100024c0 <_ntoa_format+0x40>
100024cc:	4652      	mov	r2, sl
100024ce:	2a00      	cmp	r2, #0
100024d0:	d00d      	beq.n	100024ee <_ntoa_format+0x6e>
100024d2:	42a6      	cmp	r6, r4
100024d4:	d90b      	bls.n	100024ee <_ntoa_format+0x6e>
100024d6:	2c20      	cmp	r4, #32
100024d8:	d044      	beq.n	10002564 <_ntoa_format+0xe4>
100024da:	9a0c      	ldr	r2, [sp, #48]	; 0x30
100024dc:	1e55      	subs	r5, r2, #1
100024de:	2230      	movs	r2, #48	; 0x30
100024e0:	e001      	b.n	100024e6 <_ntoa_format+0x66>
100024e2:	2c20      	cmp	r4, #32
100024e4:	d03e      	beq.n	10002564 <_ntoa_format+0xe4>
100024e6:	3401      	adds	r4, #1
100024e8:	552a      	strb	r2, [r5, r4]
100024ea:	42b4      	cmp	r4, r6
100024ec:	d1f9      	bne.n	100024e2 <_ntoa_format+0x62>
100024ee:	06fa      	lsls	r2, r7, #27
100024f0:	d54d      	bpl.n	1000258e <_ntoa_format+0x10e>
100024f2:	057a      	lsls	r2, r7, #21
100024f4:	d43f      	bmi.n	10002576 <_ntoa_format+0xf6>
100024f6:	2c00      	cmp	r4, #0
100024f8:	d139      	bne.n	1000256e <_ntoa_format+0xee>
100024fa:	9b0f      	ldr	r3, [sp, #60]	; 0x3c
100024fc:	2b10      	cmp	r3, #16
100024fe:	d100      	bne.n	10002502 <_ntoa_format+0x82>
10002500:	e079      	b.n	100025f6 <_ntoa_format+0x176>
10002502:	9b0f      	ldr	r3, [sp, #60]	; 0x3c
10002504:	2b02      	cmp	r3, #2
10002506:	d100      	bne.n	1000250a <_ntoa_format+0x8a>
10002508:	e08a      	b.n	10002620 <_ntoa_format+0x1a0>
1000250a:	2330      	movs	r3, #48	; 0x30
1000250c:	9a0c      	ldr	r2, [sp, #48]	; 0x30
1000250e:	2401      	movs	r4, #1
10002510:	7013      	strb	r3, [r2, #0]
10002512:	464b      	mov	r3, r9
10002514:	2b00      	cmp	r3, #0
10002516:	d03f      	beq.n	10002598 <_ntoa_format+0x118>
10002518:	232d      	movs	r3, #45	; 0x2d
1000251a:	9a0c      	ldr	r2, [sp, #48]	; 0x30
1000251c:	5513      	strb	r3, [r2, r4]
1000251e:	3401      	adds	r4, #1
10002520:	9b0c      	ldr	r3, [sp, #48]	; 0x30
10002522:	4662      	mov	r2, ip
10002524:	9300      	str	r3, [sp, #0]
10002526:	9703      	str	r7, [sp, #12]
10002528:	4643      	mov	r3, r8
1000252a:	9602      	str	r6, [sp, #8]
1000252c:	9401      	str	r4, [sp, #4]
1000252e:	f7ff ff59 	bl	100023e4 <_out_rev>
10002532:	b004      	add	sp, #16
10002534:	bce0      	pop	{r5, r6, r7}
10002536:	46ba      	mov	sl, r7
10002538:	46b1      	mov	r9, r6
1000253a:	46a8      	mov	r8, r5
1000253c:	bdf0      	pop	{r4, r5, r6, r7, pc}
1000253e:	2201      	movs	r2, #1
10002540:	0015      	movs	r5, r2
10002542:	403d      	ands	r5, r7
10002544:	46aa      	mov	sl, r5
10002546:	423a      	tst	r2, r7
10002548:	d02f      	beq.n	100025aa <_ntoa_format+0x12a>
1000254a:	464a      	mov	r2, r9
1000254c:	2a00      	cmp	r2, #0
1000254e:	d102      	bne.n	10002556 <_ntoa_format+0xd6>
10002550:	320c      	adds	r2, #12
10002552:	423a      	tst	r2, r7
10002554:	d000      	beq.n	10002558 <_ntoa_format+0xd8>
10002556:	3e01      	subs	r6, #1
10002558:	429c      	cmp	r4, r3
1000255a:	d2ba      	bcs.n	100024d2 <_ntoa_format+0x52>
1000255c:	2c1f      	cmp	r4, #31
1000255e:	d9ab      	bls.n	100024b8 <_ntoa_format+0x38>
10002560:	2e20      	cmp	r6, #32
10002562:	d927      	bls.n	100025b4 <_ntoa_format+0x134>
10002564:	2420      	movs	r4, #32
10002566:	06fa      	lsls	r2, r7, #27
10002568:	d5da      	bpl.n	10002520 <_ntoa_format+0xa0>
1000256a:	057a      	lsls	r2, r7, #21
1000256c:	d403      	bmi.n	10002576 <_ntoa_format+0xf6>
1000256e:	42a3      	cmp	r3, r4
10002570:	d02d      	beq.n	100025ce <_ntoa_format+0x14e>
10002572:	42a6      	cmp	r6, r4
10002574:	d02b      	beq.n	100025ce <_ntoa_format+0x14e>
10002576:	9b0f      	ldr	r3, [sp, #60]	; 0x3c
10002578:	2b10      	cmp	r3, #16
1000257a:	d032      	beq.n	100025e2 <_ntoa_format+0x162>
1000257c:	2b02      	cmp	r3, #2
1000257e:	d020      	beq.n	100025c2 <_ntoa_format+0x142>
10002580:	2c20      	cmp	r4, #32
10002582:	d0cd      	beq.n	10002520 <_ntoa_format+0xa0>
10002584:	2230      	movs	r2, #48	; 0x30
10002586:	9b0c      	ldr	r3, [sp, #48]	; 0x30
10002588:	191b      	adds	r3, r3, r4
1000258a:	701a      	strb	r2, [r3, #0]
1000258c:	3401      	adds	r4, #1
1000258e:	2c20      	cmp	r4, #32
10002590:	d0c6      	beq.n	10002520 <_ntoa_format+0xa0>
10002592:	464b      	mov	r3, r9
10002594:	2b00      	cmp	r3, #0
10002596:	d1bf      	bne.n	10002518 <_ntoa_format+0x98>
10002598:	077b      	lsls	r3, r7, #29
1000259a:	d40d      	bmi.n	100025b8 <_ntoa_format+0x138>
1000259c:	073b      	lsls	r3, r7, #28
1000259e:	d5bf      	bpl.n	10002520 <_ntoa_format+0xa0>
100025a0:	2320      	movs	r3, #32
100025a2:	9a0c      	ldr	r2, [sp, #48]	; 0x30
100025a4:	5513      	strb	r3, [r2, r4]
100025a6:	3401      	adds	r4, #1
100025a8:	e7ba      	b.n	10002520 <_ntoa_format+0xa0>
100025aa:	429c      	cmp	r4, r3
100025ac:	d29f      	bcs.n	100024ee <_ntoa_format+0x6e>
100025ae:	2c1f      	cmp	r4, #31
100025b0:	d800      	bhi.n	100025b4 <_ntoa_format+0x134>
100025b2:	e781      	b.n	100024b8 <_ntoa_format+0x38>
100025b4:	2420      	movs	r4, #32
100025b6:	e79a      	b.n	100024ee <_ntoa_format+0x6e>
100025b8:	232b      	movs	r3, #43	; 0x2b
100025ba:	9a0c      	ldr	r2, [sp, #48]	; 0x30
100025bc:	5513      	strb	r3, [r2, r4]
100025be:	3401      	adds	r4, #1
100025c0:	e7ae      	b.n	10002520 <_ntoa_format+0xa0>
100025c2:	2c20      	cmp	r4, #32
100025c4:	d0ac      	beq.n	10002520 <_ntoa_format+0xa0>
100025c6:	9b0c      	ldr	r3, [sp, #48]	; 0x30
100025c8:	191b      	adds	r3, r3, r4
100025ca:	3401      	adds	r4, #1
100025cc:	e03a      	b.n	10002644 <_ntoa_format+0x1c4>
100025ce:	1e63      	subs	r3, r4, #1
100025d0:	2c01      	cmp	r4, #1
100025d2:	d092      	beq.n	100024fa <_ntoa_format+0x7a>
100025d4:	9a0f      	ldr	r2, [sp, #60]	; 0x3c
100025d6:	2a10      	cmp	r2, #16
100025d8:	d02a      	beq.n	10002630 <_ntoa_format+0x1b0>
100025da:	2a02      	cmp	r2, #2
100025dc:	d02f      	beq.n	1000263e <_ntoa_format+0x1be>
100025de:	001c      	movs	r4, r3
100025e0:	e7d0      	b.n	10002584 <_ntoa_format+0x104>
100025e2:	06bb      	lsls	r3, r7, #26
100025e4:	d40e      	bmi.n	10002604 <_ntoa_format+0x184>
100025e6:	2c20      	cmp	r4, #32
100025e8:	d09a      	beq.n	10002520 <_ntoa_format+0xa0>
100025ea:	9b0c      	ldr	r3, [sp, #48]	; 0x30
100025ec:	191a      	adds	r2, r3, r4
100025ee:	3401      	adds	r4, #1
100025f0:	2378      	movs	r3, #120	; 0x78
100025f2:	7013      	strb	r3, [r2, #0]
100025f4:	e7c4      	b.n	10002580 <_ntoa_format+0x100>
100025f6:	06bb      	lsls	r3, r7, #26
100025f8:	d40d      	bmi.n	10002616 <_ntoa_format+0x196>
100025fa:	2378      	movs	r3, #120	; 0x78
100025fc:	9a0c      	ldr	r2, [sp, #48]	; 0x30
100025fe:	2401      	movs	r4, #1
10002600:	7013      	strb	r3, [r2, #0]
10002602:	e7bf      	b.n	10002584 <_ntoa_format+0x104>
10002604:	2c20      	cmp	r4, #32
10002606:	d100      	bne.n	1000260a <_ntoa_format+0x18a>
10002608:	e78a      	b.n	10002520 <_ntoa_format+0xa0>
1000260a:	2258      	movs	r2, #88	; 0x58
1000260c:	9b0c      	ldr	r3, [sp, #48]	; 0x30
1000260e:	191b      	adds	r3, r3, r4
10002610:	701a      	strb	r2, [r3, #0]
10002612:	3401      	adds	r4, #1
10002614:	e7b4      	b.n	10002580 <_ntoa_format+0x100>
10002616:	2358      	movs	r3, #88	; 0x58
10002618:	9a0c      	ldr	r2, [sp, #48]	; 0x30
1000261a:	2401      	movs	r4, #1
1000261c:	7013      	strb	r3, [r2, #0]
1000261e:	e7b1      	b.n	10002584 <_ntoa_format+0x104>
10002620:	9a0c      	ldr	r2, [sp, #48]	; 0x30
10002622:	3360      	adds	r3, #96	; 0x60
10002624:	2401      	movs	r4, #1
10002626:	7013      	strb	r3, [r2, #0]
10002628:	e7ac      	b.n	10002584 <_ntoa_format+0x104>
1000262a:	2420      	movs	r4, #32
1000262c:	2600      	movs	r6, #0
1000262e:	e75e      	b.n	100024ee <_ntoa_format+0x6e>
10002630:	3c02      	subs	r4, #2
10002632:	06ba      	lsls	r2, r7, #26
10002634:	d4e9      	bmi.n	1000260a <_ntoa_format+0x18a>
10002636:	9a0c      	ldr	r2, [sp, #48]	; 0x30
10002638:	1912      	adds	r2, r2, r4
1000263a:	001c      	movs	r4, r3
1000263c:	e7d8      	b.n	100025f0 <_ntoa_format+0x170>
1000263e:	9a0c      	ldr	r2, [sp, #48]	; 0x30
10002640:	4692      	mov	sl, r2
10002642:	4453      	add	r3, sl
10002644:	2262      	movs	r2, #98	; 0x62
10002646:	701a      	strb	r2, [r3, #0]
10002648:	e79a      	b.n	10002580 <_ntoa_format+0x100>
1000264a:	46c0      	nop			; (mov r8, r8)

1000264c <_out_char>:
1000264c:	b510      	push	{r4, lr}
1000264e:	2800      	cmp	r0, #0
10002650:	d100      	bne.n	10002654 <_out_char+0x8>
10002652:	bd10      	pop	{r4, pc}
10002654:	f002 fab8 	bl	10004bc8 <__wrap_putchar>
10002658:	e7fb      	b.n	10002652 <_out_char+0x6>
1000265a:	46c0      	nop			; (mov r8, r8)

1000265c <_out_fct>:
1000265c:	000b      	movs	r3, r1
1000265e:	b510      	push	{r4, lr}
10002660:	2800      	cmp	r0, #0
10002662:	d002      	beq.n	1000266a <_out_fct+0xe>
10002664:	6849      	ldr	r1, [r1, #4]
10002666:	681b      	ldr	r3, [r3, #0]
10002668:	4798      	blx	r3
1000266a:	bd10      	pop	{r4, pc}

1000266c <_etoa>:
1000266c:	b5f0      	push	{r4, r5, r6, r7, lr}
1000266e:	46de      	mov	lr, fp
10002670:	4657      	mov	r7, sl
10002672:	464e      	mov	r6, r9
10002674:	4645      	mov	r5, r8
10002676:	b5e0      	push	{r5, r6, r7, lr}
10002678:	b09b      	sub	sp, #108	; 0x6c
1000267a:	469b      	mov	fp, r3
1000267c:	9b24      	ldr	r3, [sp, #144]	; 0x90
1000267e:	4689      	mov	r9, r1
10002680:	4698      	mov	r8, r3
10002682:	9b25      	ldr	r3, [sp, #148]	; 0x94
10002684:	900b      	str	r0, [sp, #44]	; 0x2c
10002686:	920c      	str	r2, [sp, #48]	; 0x30
10002688:	4640      	mov	r0, r8
1000268a:	4642      	mov	r2, r8
1000268c:	0019      	movs	r1, r3
1000268e:	469a      	mov	sl, r3
10002690:	f001 fcbb 	bl	1000400a <__wrap___aeabi_dcmpun>
10002694:	2800      	cmp	r0, #0
10002696:	d000      	beq.n	1000269a <_etoa+0x2e>
10002698:	e0d8      	b.n	1000284c <_etoa+0x1e0>
1000269a:	2201      	movs	r2, #1
1000269c:	4640      	mov	r0, r8
1000269e:	4651      	mov	r1, sl
100026a0:	4b77      	ldr	r3, [pc, #476]	; (10002880 <_etoa+0x214>)
100026a2:	4252      	negs	r2, r2
100026a4:	f001 fcac 	bl	10004000 <__wrap___aeabi_dcmpgt>
100026a8:	2800      	cmp	r0, #0
100026aa:	d000      	beq.n	100026ae <_etoa+0x42>
100026ac:	e0ce      	b.n	1000284c <_etoa+0x1e0>
100026ae:	2201      	movs	r2, #1
100026b0:	4640      	mov	r0, r8
100026b2:	4651      	mov	r1, sl
100026b4:	4b73      	ldr	r3, [pc, #460]	; (10002884 <_etoa+0x218>)
100026b6:	4252      	negs	r2, r2
100026b8:	f001 fc8c 	bl	10003fd4 <__wrap___aeabi_dcmplt>
100026bc:	2800      	cmp	r0, #0
100026be:	d000      	beq.n	100026c2 <_etoa+0x56>
100026c0:	e0c4      	b.n	1000284c <_etoa+0x1e0>
100026c2:	2200      	movs	r2, #0
100026c4:	2300      	movs	r3, #0
100026c6:	4640      	mov	r0, r8
100026c8:	4651      	mov	r1, sl
100026ca:	f001 fc83 	bl	10003fd4 <__wrap___aeabi_dcmplt>
100026ce:	2800      	cmp	r0, #0
100026d0:	d000      	beq.n	100026d4 <_etoa+0x68>
100026d2:	e1b9      	b.n	10002a48 <_etoa+0x3dc>
100026d4:	4642      	mov	r2, r8
100026d6:	4653      	mov	r3, sl
100026d8:	920a      	str	r2, [sp, #40]	; 0x28
100026da:	9309      	str	r3, [sp, #36]	; 0x24
100026dc:	2380      	movs	r3, #128	; 0x80
100026de:	9a28      	ldr	r2, [sp, #160]	; 0xa0
100026e0:	00db      	lsls	r3, r3, #3
100026e2:	401a      	ands	r2, r3
100026e4:	920e      	str	r2, [sp, #56]	; 0x38
100026e6:	9a28      	ldr	r2, [sp, #160]	; 0xa0
100026e8:	421a      	tst	r2, r3
100026ea:	d101      	bne.n	100026f0 <_etoa+0x84>
100026ec:	2306      	movs	r3, #6
100026ee:	9326      	str	r3, [sp, #152]	; 0x98
100026f0:	9a0a      	ldr	r2, [sp, #40]	; 0x28
100026f2:	9b09      	ldr	r3, [sp, #36]	; 0x24
100026f4:	0016      	movs	r6, r2
100026f6:	4313      	orrs	r3, r2
100026f8:	d000      	beq.n	100026fc <_etoa+0x90>
100026fa:	e0c7      	b.n	1000288c <_etoa+0x220>
100026fc:	9b28      	ldr	r3, [sp, #160]	; 0xa0
100026fe:	2500      	movs	r5, #0
10002700:	2600      	movs	r6, #0
10002702:	051b      	lsls	r3, r3, #20
10002704:	d400      	bmi.n	10002708 <_etoa+0x9c>
10002706:	e19b      	b.n	10002a40 <_etoa+0x3d4>
10002708:	2300      	movs	r3, #0
1000270a:	930d      	str	r3, [sp, #52]	; 0x34
1000270c:	9a26      	ldr	r2, [sp, #152]	; 0x98
1000270e:	9b0d      	ldr	r3, [sp, #52]	; 0x34
10002710:	429a      	cmp	r2, r3
10002712:	dc00      	bgt.n	10002716 <_etoa+0xaa>
10002714:	e19f      	b.n	10002a56 <_etoa+0x3ea>
10002716:	1ad0      	subs	r0, r2, r3
10002718:	1e43      	subs	r3, r0, #1
1000271a:	9326      	str	r3, [sp, #152]	; 0x98
1000271c:	2380      	movs	r3, #128	; 0x80
1000271e:	9a28      	ldr	r2, [sp, #160]	; 0xa0
10002720:	00db      	lsls	r3, r3, #3
10002722:	431a      	orrs	r2, r3
10002724:	2300      	movs	r3, #0
10002726:	2700      	movs	r7, #0
10002728:	9228      	str	r2, [sp, #160]	; 0xa0
1000272a:	930d      	str	r3, [sp, #52]	; 0x34
1000272c:	9b27      	ldr	r3, [sp, #156]	; 0x9c
1000272e:	2400      	movs	r4, #0
10002730:	42bb      	cmp	r3, r7
10002732:	d900      	bls.n	10002736 <_etoa+0xca>
10002734:	1bdc      	subs	r4, r3, r7
10002736:	2302      	movs	r3, #2
10002738:	9a28      	ldr	r2, [sp, #160]	; 0xa0
1000273a:	401a      	ands	r2, r3
1000273c:	920e      	str	r2, [sp, #56]	; 0x38
1000273e:	9a28      	ldr	r2, [sp, #160]	; 0xa0
10002740:	4213      	tst	r3, r2
10002742:	d003      	beq.n	1000274c <_etoa+0xe0>
10002744:	427b      	negs	r3, r7
10002746:	417b      	adcs	r3, r7
10002748:	425b      	negs	r3, r3
1000274a:	401c      	ands	r4, r3
1000274c:	9b0d      	ldr	r3, [sp, #52]	; 0x34
1000274e:	2b00      	cmp	r3, #0
10002750:	d007      	beq.n	10002762 <_etoa+0xf6>
10002752:	980a      	ldr	r0, [sp, #40]	; 0x28
10002754:	9909      	ldr	r1, [sp, #36]	; 0x24
10002756:	002a      	movs	r2, r5
10002758:	0033      	movs	r3, r6
1000275a:	f001 fbda 	bl	10003f12 <__wrap___aeabi_ddiv>
1000275e:	900a      	str	r0, [sp, #40]	; 0x28
10002760:	9109      	str	r1, [sp, #36]	; 0x24
10002762:	2200      	movs	r2, #0
10002764:	2300      	movs	r3, #0
10002766:	4640      	mov	r0, r8
10002768:	4651      	mov	r1, sl
1000276a:	f001 fc33 	bl	10003fd4 <__wrap___aeabi_dcmplt>
1000276e:	2800      	cmp	r0, #0
10002770:	d005      	beq.n	1000277e <_etoa+0x112>
10002772:	2080      	movs	r0, #128	; 0x80
10002774:	0600      	lsls	r0, r0, #24
10002776:	4684      	mov	ip, r0
10002778:	9909      	ldr	r1, [sp, #36]	; 0x24
1000277a:	4461      	add	r1, ip
1000277c:	9109      	str	r1, [sp, #36]	; 0x24
1000277e:	9a28      	ldr	r2, [sp, #160]	; 0xa0
10002780:	4b41      	ldr	r3, [pc, #260]	; (10002888 <_etoa+0x21c>)
10002782:	9d0b      	ldr	r5, [sp, #44]	; 0x2c
10002784:	4013      	ands	r3, r2
10002786:	9304      	str	r3, [sp, #16]
10002788:	9b26      	ldr	r3, [sp, #152]	; 0x98
1000278a:	9a0a      	ldr	r2, [sp, #40]	; 0x28
1000278c:	9302      	str	r3, [sp, #8]
1000278e:	9b09      	ldr	r3, [sp, #36]	; 0x24
10002790:	9403      	str	r4, [sp, #12]
10002792:	9200      	str	r2, [sp, #0]
10002794:	9301      	str	r3, [sp, #4]
10002796:	4649      	mov	r1, r9
10002798:	465b      	mov	r3, fp
1000279a:	0028      	movs	r0, r5
1000279c:	9a0c      	ldr	r2, [sp, #48]	; 0x30
1000279e:	f000 f98b 	bl	10002ab8 <_ftoa>
100027a2:	0004      	movs	r4, r0
100027a4:	2f00      	cmp	r7, #0
100027a6:	d062      	beq.n	1000286e <_etoa+0x202>
100027a8:	9b28      	ldr	r3, [sp, #160]	; 0xa0
100027aa:	0022      	movs	r2, r4
100027ac:	0698      	lsls	r0, r3, #26
100027ae:	231f      	movs	r3, #31
100027b0:	17c0      	asrs	r0, r0, #31
100027b2:	4398      	bics	r0, r3
100027b4:	1c63      	adds	r3, r4, #1
100027b6:	4698      	mov	r8, r3
100027b8:	4649      	mov	r1, r9
100027ba:	465b      	mov	r3, fp
100027bc:	3065      	adds	r0, #101	; 0x65
100027be:	47a8      	blx	r5
100027c0:	9b0d      	ldr	r3, [sp, #52]	; 0x34
100027c2:	2500      	movs	r5, #0
100027c4:	17da      	asrs	r2, r3, #31
100027c6:	189c      	adds	r4, r3, r2
100027c8:	0fdb      	lsrs	r3, r3, #31
100027ca:	469a      	mov	sl, r3
100027cc:	4054      	eors	r4, r2
100027ce:	3f01      	subs	r7, #1
100027d0:	e001      	b.n	100027d6 <_etoa+0x16a>
100027d2:	2d20      	cmp	r5, #32
100027d4:	d013      	beq.n	100027fe <_etoa+0x192>
100027d6:	aa0a      	add	r2, sp, #40	; 0x28
100027d8:	4694      	mov	ip, r2
100027da:	231f      	movs	r3, #31
100027dc:	0020      	movs	r0, r4
100027de:	4463      	add	r3, ip
100027e0:	210a      	movs	r1, #10
100027e2:	3501      	adds	r5, #1
100027e4:	195e      	adds	r6, r3, r5
100027e6:	f001 f93f 	bl	10003a68 <__wrap___aeabi_uidiv>
100027ea:	3130      	adds	r1, #48	; 0x30
100027ec:	7031      	strb	r1, [r6, #0]
100027ee:	0020      	movs	r0, r4
100027f0:	210a      	movs	r1, #10
100027f2:	f001 f939 	bl	10003a68 <__wrap___aeabi_uidiv>
100027f6:	0026      	movs	r6, r4
100027f8:	0004      	movs	r4, r0
100027fa:	2e09      	cmp	r6, #9
100027fc:	d8e9      	bhi.n	100027d2 <_etoa+0x166>
100027fe:	2305      	movs	r3, #5
10002800:	9306      	str	r3, [sp, #24]
10002802:	2300      	movs	r3, #0
10002804:	9304      	str	r3, [sp, #16]
10002806:	330a      	adds	r3, #10
10002808:	9303      	str	r3, [sp, #12]
1000280a:	4653      	mov	r3, sl
1000280c:	9705      	str	r7, [sp, #20]
1000280e:	9f0b      	ldr	r7, [sp, #44]	; 0x2c
10002810:	9302      	str	r3, [sp, #8]
10002812:	ab12      	add	r3, sp, #72	; 0x48
10002814:	9300      	str	r3, [sp, #0]
10002816:	4642      	mov	r2, r8
10002818:	465b      	mov	r3, fp
1000281a:	4649      	mov	r1, r9
1000281c:	0038      	movs	r0, r7
1000281e:	9501      	str	r5, [sp, #4]
10002820:	f7ff fe2e 	bl	10002480 <_ntoa_format>
10002824:	9b0e      	ldr	r3, [sp, #56]	; 0x38
10002826:	0004      	movs	r4, r0
10002828:	2b00      	cmp	r3, #0
1000282a:	d020      	beq.n	1000286e <_etoa+0x202>
1000282c:	9b0c      	ldr	r3, [sp, #48]	; 0x30
1000282e:	1ac5      	subs	r5, r0, r3
10002830:	9b27      	ldr	r3, [sp, #156]	; 0x9c
10002832:	42ab      	cmp	r3, r5
10002834:	d91b      	bls.n	1000286e <_etoa+0x202>
10002836:	001e      	movs	r6, r3
10002838:	0022      	movs	r2, r4
1000283a:	465b      	mov	r3, fp
1000283c:	4649      	mov	r1, r9
1000283e:	2020      	movs	r0, #32
10002840:	3501      	adds	r5, #1
10002842:	47b8      	blx	r7
10002844:	3401      	adds	r4, #1
10002846:	42ae      	cmp	r6, r5
10002848:	d8f6      	bhi.n	10002838 <_etoa+0x1cc>
1000284a:	e010      	b.n	1000286e <_etoa+0x202>
1000284c:	9b28      	ldr	r3, [sp, #160]	; 0xa0
1000284e:	4642      	mov	r2, r8
10002850:	9304      	str	r3, [sp, #16]
10002852:	9b27      	ldr	r3, [sp, #156]	; 0x9c
10002854:	4649      	mov	r1, r9
10002856:	9303      	str	r3, [sp, #12]
10002858:	9b26      	ldr	r3, [sp, #152]	; 0x98
1000285a:	980b      	ldr	r0, [sp, #44]	; 0x2c
1000285c:	9302      	str	r3, [sp, #8]
1000285e:	4653      	mov	r3, sl
10002860:	9200      	str	r2, [sp, #0]
10002862:	9301      	str	r3, [sp, #4]
10002864:	465b      	mov	r3, fp
10002866:	9a0c      	ldr	r2, [sp, #48]	; 0x30
10002868:	f000 f926 	bl	10002ab8 <_ftoa>
1000286c:	0004      	movs	r4, r0
1000286e:	0020      	movs	r0, r4
10002870:	b01b      	add	sp, #108	; 0x6c
10002872:	bcf0      	pop	{r4, r5, r6, r7}
10002874:	46bb      	mov	fp, r7
10002876:	46b2      	mov	sl, r6
10002878:	46a9      	mov	r9, r5
1000287a:	46a0      	mov	r8, r4
1000287c:	bdf0      	pop	{r4, r5, r6, r7, pc}
1000287e:	46c0      	nop			; (mov r8, r8)
10002880:	7fefffff 	.word	0x7fefffff
10002884:	ffefffff 	.word	0xffefffff
10002888:	fffff7ff 	.word	0xfffff7ff
1000288c:	4b73      	ldr	r3, [pc, #460]	; (10002a5c <_etoa+0x3f0>)
1000288e:	9f09      	ldr	r7, [sp, #36]	; 0x24
10002890:	469c      	mov	ip, r3
10002892:	0078      	lsls	r0, r7, #1
10002894:	0d40      	lsrs	r0, r0, #21
10002896:	4460      	add	r0, ip
10002898:	f001 fbca 	bl	10004030 <__wrap___aeabi_i2d>
1000289c:	4a70      	ldr	r2, [pc, #448]	; (10002a60 <_etoa+0x3f4>)
1000289e:	4b71      	ldr	r3, [pc, #452]	; (10002a64 <_etoa+0x3f8>)
100028a0:	f001 fb55 	bl	10003f4e <__wrap___aeabi_dmul>
100028a4:	4a70      	ldr	r2, [pc, #448]	; (10002a68 <_etoa+0x3fc>)
100028a6:	4b71      	ldr	r3, [pc, #452]	; (10002a6c <_etoa+0x400>)
100028a8:	f001 fb2a 	bl	10003f00 <__wrap___aeabi_dadd>
100028ac:	033b      	lsls	r3, r7, #12
100028ae:	4a70      	ldr	r2, [pc, #448]	; (10002a70 <_etoa+0x404>)
100028b0:	0b1b      	lsrs	r3, r3, #12
100028b2:	431a      	orrs	r2, r3
100028b4:	0004      	movs	r4, r0
100028b6:	000d      	movs	r5, r1
100028b8:	0030      	movs	r0, r6
100028ba:	0011      	movs	r1, r2
100028bc:	4b6d      	ldr	r3, [pc, #436]	; (10002a74 <_etoa+0x408>)
100028be:	2200      	movs	r2, #0
100028c0:	f001 fb15 	bl	10003eee <__wrap___aeabi_dsub>
100028c4:	4a6c      	ldr	r2, [pc, #432]	; (10002a78 <_etoa+0x40c>)
100028c6:	4b6d      	ldr	r3, [pc, #436]	; (10002a7c <_etoa+0x410>)
100028c8:	f001 fb41 	bl	10003f4e <__wrap___aeabi_dmul>
100028cc:	0002      	movs	r2, r0
100028ce:	000b      	movs	r3, r1
100028d0:	0020      	movs	r0, r4
100028d2:	0029      	movs	r1, r5
100028d4:	f001 fb14 	bl	10003f00 <__wrap___aeabi_dadd>
100028d8:	f001 fbc2 	bl	10004060 <__wrap___aeabi_d2iz>
100028dc:	900d      	str	r0, [sp, #52]	; 0x34
100028de:	f001 fba7 	bl	10004030 <__wrap___aeabi_i2d>
100028e2:	4a67      	ldr	r2, [pc, #412]	; (10002a80 <_etoa+0x414>)
100028e4:	4b67      	ldr	r3, [pc, #412]	; (10002a84 <_etoa+0x418>)
100028e6:	0004      	movs	r4, r0
100028e8:	000d      	movs	r5, r1
100028ea:	f001 fb30 	bl	10003f4e <__wrap___aeabi_dmul>
100028ee:	2200      	movs	r2, #0
100028f0:	4b65      	ldr	r3, [pc, #404]	; (10002a88 <_etoa+0x41c>)
100028f2:	f001 fb05 	bl	10003f00 <__wrap___aeabi_dadd>
100028f6:	f001 fbb3 	bl	10004060 <__wrap___aeabi_d2iz>
100028fa:	4a64      	ldr	r2, [pc, #400]	; (10002a8c <_etoa+0x420>)
100028fc:	0006      	movs	r6, r0
100028fe:	4b64      	ldr	r3, [pc, #400]	; (10002a90 <_etoa+0x424>)
10002900:	0020      	movs	r0, r4
10002902:	0029      	movs	r1, r5
10002904:	f001 fb23 	bl	10003f4e <__wrap___aeabi_dmul>
10002908:	0004      	movs	r4, r0
1000290a:	0030      	movs	r0, r6
1000290c:	000d      	movs	r5, r1
1000290e:	960f      	str	r6, [sp, #60]	; 0x3c
10002910:	f001 fb8e 	bl	10004030 <__wrap___aeabi_i2d>
10002914:	4a5f      	ldr	r2, [pc, #380]	; (10002a94 <_etoa+0x428>)
10002916:	4b60      	ldr	r3, [pc, #384]	; (10002a98 <_etoa+0x42c>)
10002918:	f001 fb19 	bl	10003f4e <__wrap___aeabi_dmul>
1000291c:	0002      	movs	r2, r0
1000291e:	000b      	movs	r3, r1
10002920:	0020      	movs	r0, r4
10002922:	0029      	movs	r1, r5
10002924:	f001 fae3 	bl	10003eee <__wrap___aeabi_dsub>
10002928:	0002      	movs	r2, r0
1000292a:	000b      	movs	r3, r1
1000292c:	0006      	movs	r6, r0
1000292e:	000f      	movs	r7, r1
10002930:	f001 fb0d 	bl	10003f4e <__wrap___aeabi_dmul>
10002934:	0032      	movs	r2, r6
10002936:	0004      	movs	r4, r0
10002938:	000d      	movs	r5, r1
1000293a:	003b      	movs	r3, r7
1000293c:	0030      	movs	r0, r6
1000293e:	0039      	movs	r1, r7
10002940:	f001 fade 	bl	10003f00 <__wrap___aeabi_dadd>
10002944:	2200      	movs	r2, #0
10002946:	9010      	str	r0, [sp, #64]	; 0x40
10002948:	9111      	str	r1, [sp, #68]	; 0x44
1000294a:	4b54      	ldr	r3, [pc, #336]	; (10002a9c <_etoa+0x430>)
1000294c:	0020      	movs	r0, r4
1000294e:	0029      	movs	r1, r5
10002950:	f001 fadf 	bl	10003f12 <__wrap___aeabi_ddiv>
10002954:	2200      	movs	r2, #0
10002956:	4b52      	ldr	r3, [pc, #328]	; (10002aa0 <_etoa+0x434>)
10002958:	f001 fad2 	bl	10003f00 <__wrap___aeabi_dadd>
1000295c:	0002      	movs	r2, r0
1000295e:	000b      	movs	r3, r1
10002960:	0020      	movs	r0, r4
10002962:	0029      	movs	r1, r5
10002964:	f001 fad5 	bl	10003f12 <__wrap___aeabi_ddiv>
10002968:	2200      	movs	r2, #0
1000296a:	4b4e      	ldr	r3, [pc, #312]	; (10002aa4 <_etoa+0x438>)
1000296c:	f001 fac8 	bl	10003f00 <__wrap___aeabi_dadd>
10002970:	0002      	movs	r2, r0
10002972:	000b      	movs	r3, r1
10002974:	0020      	movs	r0, r4
10002976:	0029      	movs	r1, r5
10002978:	f001 facb 	bl	10003f12 <__wrap___aeabi_ddiv>
1000297c:	000d      	movs	r5, r1
1000297e:	2180      	movs	r1, #128	; 0x80
10002980:	0004      	movs	r4, r0
10002982:	0032      	movs	r2, r6
10002984:	003b      	movs	r3, r7
10002986:	2000      	movs	r0, #0
10002988:	05c9      	lsls	r1, r1, #23
1000298a:	f001 fab0 	bl	10003eee <__wrap___aeabi_dsub>
1000298e:	0002      	movs	r2, r0
10002990:	000b      	movs	r3, r1
10002992:	0020      	movs	r0, r4
10002994:	0029      	movs	r1, r5
10002996:	f001 fab3 	bl	10003f00 <__wrap___aeabi_dadd>
1000299a:	0002      	movs	r2, r0
1000299c:	000b      	movs	r3, r1
1000299e:	9810      	ldr	r0, [sp, #64]	; 0x40
100029a0:	9911      	ldr	r1, [sp, #68]	; 0x44
100029a2:	f001 fab6 	bl	10003f12 <__wrap___aeabi_ddiv>
100029a6:	2200      	movs	r2, #0
100029a8:	4b31      	ldr	r3, [pc, #196]	; (10002a70 <_etoa+0x404>)
100029aa:	f001 faa9 	bl	10003f00 <__wrap___aeabi_dadd>
100029ae:	4b3e      	ldr	r3, [pc, #248]	; (10002aa8 <_etoa+0x43c>)
100029b0:	9c0f      	ldr	r4, [sp, #60]	; 0x3c
100029b2:	469c      	mov	ip, r3
100029b4:	4464      	add	r4, ip
100029b6:	2200      	movs	r2, #0
100029b8:	0523      	lsls	r3, r4, #20
100029ba:	f001 fac8 	bl	10003f4e <__wrap___aeabi_dmul>
100029be:	0005      	movs	r5, r0
100029c0:	000e      	movs	r6, r1
100029c2:	0002      	movs	r2, r0
100029c4:	000b      	movs	r3, r1
100029c6:	980a      	ldr	r0, [sp, #40]	; 0x28
100029c8:	9909      	ldr	r1, [sp, #36]	; 0x24
100029ca:	f001 fb03 	bl	10003fd4 <__wrap___aeabi_dcmplt>
100029ce:	2800      	cmp	r0, #0
100029d0:	d00a      	beq.n	100029e8 <_etoa+0x37c>
100029d2:	9b0d      	ldr	r3, [sp, #52]	; 0x34
100029d4:	0028      	movs	r0, r5
100029d6:	3b01      	subs	r3, #1
100029d8:	0031      	movs	r1, r6
100029da:	930d      	str	r3, [sp, #52]	; 0x34
100029dc:	2200      	movs	r2, #0
100029de:	4b30      	ldr	r3, [pc, #192]	; (10002aa0 <_etoa+0x434>)
100029e0:	f001 fa97 	bl	10003f12 <__wrap___aeabi_ddiv>
100029e4:	0005      	movs	r5, r0
100029e6:	000e      	movs	r6, r1
100029e8:	27c6      	movs	r7, #198	; 0xc6
100029ea:	990d      	ldr	r1, [sp, #52]	; 0x34
100029ec:	002b      	movs	r3, r5
100029ee:	3163      	adds	r1, #99	; 0x63
100029f0:	428f      	cmp	r7, r1
100029f2:	41bf      	sbcs	r7, r7
100029f4:	9928      	ldr	r1, [sp, #160]	; 0xa0
100029f6:	427f      	negs	r7, r7
100029f8:	3704      	adds	r7, #4
100029fa:	0509      	lsls	r1, r1, #20
100029fc:	d400      	bmi.n	10002a00 <_etoa+0x394>
100029fe:	e695      	b.n	1000272c <_etoa+0xc0>
10002a00:	4333      	orrs	r3, r6
10002a02:	d100      	bne.n	10002a06 <_etoa+0x39a>
10002a04:	e682      	b.n	1000270c <_etoa+0xa0>
10002a06:	9c09      	ldr	r4, [sp, #36]	; 0x24
10002a08:	4a28      	ldr	r2, [pc, #160]	; (10002aac <_etoa+0x440>)
10002a0a:	0021      	movs	r1, r4
10002a0c:	4b28      	ldr	r3, [pc, #160]	; (10002ab0 <_etoa+0x444>)
10002a0e:	980a      	ldr	r0, [sp, #40]	; 0x28
10002a10:	f001 faee 	bl	10003ff0 <__wrap___aeabi_dcmpge>
10002a14:	2800      	cmp	r0, #0
10002a16:	d008      	beq.n	10002a2a <_etoa+0x3be>
10002a18:	2200      	movs	r2, #0
10002a1a:	0021      	movs	r1, r4
10002a1c:	4b25      	ldr	r3, [pc, #148]	; (10002ab4 <_etoa+0x448>)
10002a1e:	980a      	ldr	r0, [sp, #40]	; 0x28
10002a20:	f001 fad8 	bl	10003fd4 <__wrap___aeabi_dcmplt>
10002a24:	2800      	cmp	r0, #0
10002a26:	d000      	beq.n	10002a2a <_etoa+0x3be>
10002a28:	e670      	b.n	1000270c <_etoa+0xa0>
10002a2a:	9b26      	ldr	r3, [sp, #152]	; 0x98
10002a2c:	2b00      	cmp	r3, #0
10002a2e:	d100      	bne.n	10002a32 <_etoa+0x3c6>
10002a30:	e67c      	b.n	1000272c <_etoa+0xc0>
10002a32:	9b0e      	ldr	r3, [sp, #56]	; 0x38
10002a34:	1e5a      	subs	r2, r3, #1
10002a36:	4193      	sbcs	r3, r2
10002a38:	9a26      	ldr	r2, [sp, #152]	; 0x98
10002a3a:	1ad3      	subs	r3, r2, r3
10002a3c:	9326      	str	r3, [sp, #152]	; 0x98
10002a3e:	e675      	b.n	1000272c <_etoa+0xc0>
10002a40:	2300      	movs	r3, #0
10002a42:	2704      	movs	r7, #4
10002a44:	930d      	str	r3, [sp, #52]	; 0x34
10002a46:	e671      	b.n	1000272c <_etoa+0xc0>
10002a48:	4643      	mov	r3, r8
10002a4a:	930a      	str	r3, [sp, #40]	; 0x28
10002a4c:	2380      	movs	r3, #128	; 0x80
10002a4e:	061b      	lsls	r3, r3, #24
10002a50:	4453      	add	r3, sl
10002a52:	9309      	str	r3, [sp, #36]	; 0x24
10002a54:	e642      	b.n	100026dc <_etoa+0x70>
10002a56:	2300      	movs	r3, #0
10002a58:	9326      	str	r3, [sp, #152]	; 0x98
10002a5a:	e65f      	b.n	1000271c <_etoa+0xb0>
10002a5c:	fffffc01 	.word	0xfffffc01
10002a60:	509f79fb 	.word	0x509f79fb
10002a64:	3fd34413 	.word	0x3fd34413
10002a68:	8b60c8b3 	.word	0x8b60c8b3
10002a6c:	3fc68a28 	.word	0x3fc68a28
10002a70:	3ff00000 	.word	0x3ff00000
10002a74:	3ff80000 	.word	0x3ff80000
10002a78:	636f4361 	.word	0x636f4361
10002a7c:	3fd287a7 	.word	0x3fd287a7
10002a80:	0979a371 	.word	0x0979a371
10002a84:	400a934f 	.word	0x400a934f
10002a88:	3fe00000 	.word	0x3fe00000
10002a8c:	bbb55516 	.word	0xbbb55516
10002a90:	40026bb1 	.word	0x40026bb1
10002a94:	fefa39ef 	.word	0xfefa39ef
10002a98:	3fe62e42 	.word	0x3fe62e42
10002a9c:	402c0000 	.word	0x402c0000
10002aa0:	40240000 	.word	0x40240000
10002aa4:	40180000 	.word	0x40180000
10002aa8:	000003ff 	.word	0x000003ff
10002aac:	eb1c432d 	.word	0xeb1c432d
10002ab0:	3f1a36e2 	.word	0x3f1a36e2
10002ab4:	412e8480 	.word	0x412e8480

10002ab8 <_ftoa>:
10002ab8:	b5f0      	push	{r4, r5, r6, r7, lr}
10002aba:	464e      	mov	r6, r9
10002abc:	46de      	mov	lr, fp
10002abe:	4657      	mov	r7, sl
10002ac0:	4645      	mov	r5, r8
10002ac2:	b5e0      	push	{r5, r6, r7, lr}
10002ac4:	b097      	sub	sp, #92	; 0x5c
10002ac6:	4699      	mov	r9, r3
10002ac8:	9e20      	ldr	r6, [sp, #128]	; 0x80
10002aca:	9f21      	ldr	r7, [sp, #132]	; 0x84
10002acc:	9b22      	ldr	r3, [sp, #136]	; 0x88
10002ace:	4683      	mov	fp, r0
10002ad0:	4698      	mov	r8, r3
10002ad2:	9107      	str	r1, [sp, #28]
10002ad4:	920c      	str	r2, [sp, #48]	; 0x30
10002ad6:	003b      	movs	r3, r7
10002ad8:	0032      	movs	r2, r6
10002ada:	0030      	movs	r0, r6
10002adc:	0039      	movs	r1, r7
10002ade:	f001 fa94 	bl	1000400a <__wrap___aeabi_dcmpun>
10002ae2:	2800      	cmp	r0, #0
10002ae4:	d000      	beq.n	10002ae8 <_ftoa+0x30>
10002ae6:	e1a9      	b.n	10002e3c <_ftoa+0x384>
10002ae8:	2201      	movs	r2, #1
10002aea:	0030      	movs	r0, r6
10002aec:	0039      	movs	r1, r7
10002aee:	4bca      	ldr	r3, [pc, #808]	; (10002e18 <_ftoa+0x360>)
10002af0:	4252      	negs	r2, r2
10002af2:	f001 fa6f 	bl	10003fd4 <__wrap___aeabi_dcmplt>
10002af6:	2800      	cmp	r0, #0
10002af8:	d000      	beq.n	10002afc <_ftoa+0x44>
10002afa:	e0e1      	b.n	10002cc0 <_ftoa+0x208>
10002afc:	2201      	movs	r2, #1
10002afe:	0030      	movs	r0, r6
10002b00:	0039      	movs	r1, r7
10002b02:	4bc6      	ldr	r3, [pc, #792]	; (10002e1c <_ftoa+0x364>)
10002b04:	4252      	negs	r2, r2
10002b06:	f001 fa7b 	bl	10004000 <__wrap___aeabi_dcmpgt>
10002b0a:	2800      	cmp	r0, #0
10002b0c:	d000      	beq.n	10002b10 <_ftoa+0x58>
10002b0e:	e0b7      	b.n	10002c80 <_ftoa+0x1c8>
10002b10:	2200      	movs	r2, #0
10002b12:	0030      	movs	r0, r6
10002b14:	0039      	movs	r1, r7
10002b16:	4bc2      	ldr	r3, [pc, #776]	; (10002e20 <_ftoa+0x368>)
10002b18:	f001 fa72 	bl	10004000 <__wrap___aeabi_dcmpgt>
10002b1c:	2800      	cmp	r0, #0
10002b1e:	d000      	beq.n	10002b22 <_ftoa+0x6a>
10002b20:	e099      	b.n	10002c56 <_ftoa+0x19e>
10002b22:	2200      	movs	r2, #0
10002b24:	0030      	movs	r0, r6
10002b26:	0039      	movs	r1, r7
10002b28:	4bbe      	ldr	r3, [pc, #760]	; (10002e24 <_ftoa+0x36c>)
10002b2a:	f001 fa53 	bl	10003fd4 <__wrap___aeabi_dcmplt>
10002b2e:	2800      	cmp	r0, #0
10002b30:	d000      	beq.n	10002b34 <_ftoa+0x7c>
10002b32:	e090      	b.n	10002c56 <_ftoa+0x19e>
10002b34:	2200      	movs	r2, #0
10002b36:	2300      	movs	r3, #0
10002b38:	0030      	movs	r0, r6
10002b3a:	0039      	movs	r1, r7
10002b3c:	f001 fa4a 	bl	10003fd4 <__wrap___aeabi_dcmplt>
10002b40:	2800      	cmp	r0, #0
10002b42:	d000      	beq.n	10002b46 <_ftoa+0x8e>
10002b44:	e0b1      	b.n	10002caa <_ftoa+0x1f2>
10002b46:	2300      	movs	r3, #0
10002b48:	930d      	str	r3, [sp, #52]	; 0x34
10002b4a:	9b24      	ldr	r3, [sp, #144]	; 0x90
10002b4c:	055b      	lsls	r3, r3, #21
10002b4e:	d401      	bmi.n	10002b54 <_ftoa+0x9c>
10002b50:	2306      	movs	r3, #6
10002b52:	4698      	mov	r8, r3
10002b54:	ab08      	add	r3, sp, #32
10002b56:	469c      	mov	ip, r3
10002b58:	2217      	movs	r2, #23
10002b5a:	2400      	movs	r4, #0
10002b5c:	2330      	movs	r3, #48	; 0x30
10002b5e:	4641      	mov	r1, r8
10002b60:	4462      	add	r2, ip
10002b62:	e004      	b.n	10002b6e <_ftoa+0xb6>
10002b64:	3401      	adds	r4, #1
10002b66:	5513      	strb	r3, [r2, r4]
10002b68:	3901      	subs	r1, #1
10002b6a:	2c20      	cmp	r4, #32
10002b6c:	d001      	beq.n	10002b72 <_ftoa+0xba>
10002b6e:	2909      	cmp	r1, #9
10002b70:	d8f8      	bhi.n	10002b64 <_ftoa+0xac>
10002b72:	4688      	mov	r8, r1
10002b74:	0030      	movs	r0, r6
10002b76:	0039      	movs	r1, r7
10002b78:	f001 fa72 	bl	10004060 <__wrap___aeabi_d2iz>
10002b7c:	4643      	mov	r3, r8
10002b7e:	00da      	lsls	r2, r3, #3
10002b80:	4ba9      	ldr	r3, [pc, #676]	; (10002e28 <_ftoa+0x370>)
10002b82:	0005      	movs	r5, r0
10002b84:	189b      	adds	r3, r3, r2
10002b86:	681a      	ldr	r2, [r3, #0]
10002b88:	685b      	ldr	r3, [r3, #4]
10002b8a:	9208      	str	r2, [sp, #32]
10002b8c:	9309      	str	r3, [sp, #36]	; 0x24
10002b8e:	f001 fa4f 	bl	10004030 <__wrap___aeabi_i2d>
10002b92:	0002      	movs	r2, r0
10002b94:	000b      	movs	r3, r1
10002b96:	0030      	movs	r0, r6
10002b98:	0039      	movs	r1, r7
10002b9a:	f001 f9a8 	bl	10003eee <__wrap___aeabi_dsub>
10002b9e:	9a08      	ldr	r2, [sp, #32]
10002ba0:	9b09      	ldr	r3, [sp, #36]	; 0x24
10002ba2:	f001 f9d4 	bl	10003f4e <__wrap___aeabi_dmul>
10002ba6:	900a      	str	r0, [sp, #40]	; 0x28
10002ba8:	910b      	str	r1, [sp, #44]	; 0x2c
10002baa:	f001 fa7d 	bl	100040a8 <__wrap___aeabi_d2uiz>
10002bae:	4682      	mov	sl, r0
10002bb0:	f001 fa3a 	bl	10004028 <__wrap___aeabi_ui2d>
10002bb4:	0002      	movs	r2, r0
10002bb6:	000b      	movs	r3, r1
10002bb8:	980a      	ldr	r0, [sp, #40]	; 0x28
10002bba:	990b      	ldr	r1, [sp, #44]	; 0x2c
10002bbc:	f001 f997 	bl	10003eee <__wrap___aeabi_dsub>
10002bc0:	2200      	movs	r2, #0
10002bc2:	4b9a      	ldr	r3, [pc, #616]	; (10002e2c <_ftoa+0x374>)
10002bc4:	900a      	str	r0, [sp, #40]	; 0x28
10002bc6:	910b      	str	r1, [sp, #44]	; 0x2c
10002bc8:	f001 fa1a 	bl	10004000 <__wrap___aeabi_dcmpgt>
10002bcc:	2800      	cmp	r0, #0
10002bce:	d100      	bne.n	10002bd2 <_ftoa+0x11a>
10002bd0:	e0c0      	b.n	10002d54 <_ftoa+0x29c>
10002bd2:	2301      	movs	r3, #1
10002bd4:	469c      	mov	ip, r3
10002bd6:	44e2      	add	sl, ip
10002bd8:	4650      	mov	r0, sl
10002bda:	f001 fa25 	bl	10004028 <__wrap___aeabi_ui2d>
10002bde:	0002      	movs	r2, r0
10002be0:	000b      	movs	r3, r1
10002be2:	9808      	ldr	r0, [sp, #32]
10002be4:	9909      	ldr	r1, [sp, #36]	; 0x24
10002be6:	f001 f9fb 	bl	10003fe0 <__wrap___aeabi_dcmple>
10002bea:	2800      	cmp	r0, #0
10002bec:	d002      	beq.n	10002bf4 <_ftoa+0x13c>
10002bee:	2300      	movs	r3, #0
10002bf0:	469a      	mov	sl, r3
10002bf2:	3501      	adds	r5, #1
10002bf4:	4643      	mov	r3, r8
10002bf6:	2b00      	cmp	r3, #0
10002bf8:	d06a      	beq.n	10002cd0 <_ftoa+0x218>
10002bfa:	ab08      	add	r3, sp, #32
10002bfc:	2617      	movs	r6, #23
10002bfe:	469c      	mov	ip, r3
10002c00:	9508      	str	r5, [sp, #32]
10002c02:	4466      	add	r6, ip
10002c04:	4655      	mov	r5, sl
10002c06:	e014      	b.n	10002c32 <_ftoa+0x17a>
10002c08:	2301      	movs	r3, #1
10002c0a:	425b      	negs	r3, r3
10002c0c:	4443      	add	r3, r8
10002c0e:	210a      	movs	r1, #10
10002c10:	0028      	movs	r0, r5
10002c12:	469a      	mov	sl, r3
10002c14:	f000 ff28 	bl	10003a68 <__wrap___aeabi_uidiv>
10002c18:	3401      	adds	r4, #1
10002c1a:	3130      	adds	r1, #48	; 0x30
10002c1c:	1937      	adds	r7, r6, r4
10002c1e:	7039      	strb	r1, [r7, #0]
10002c20:	0028      	movs	r0, r5
10002c22:	210a      	movs	r1, #10
10002c24:	f000 ff20 	bl	10003a68 <__wrap___aeabi_uidiv>
10002c28:	2d09      	cmp	r5, #9
10002c2a:	d800      	bhi.n	10002c2e <_ftoa+0x176>
10002c2c:	e0d0      	b.n	10002dd0 <_ftoa+0x318>
10002c2e:	46d0      	mov	r8, sl
10002c30:	0005      	movs	r5, r0
10002c32:	2c20      	cmp	r4, #32
10002c34:	d1e8      	bne.n	10002c08 <_ftoa+0x150>
10002c36:	ab0e      	add	r3, sp, #56	; 0x38
10002c38:	4698      	mov	r8, r3
10002c3a:	2303      	movs	r3, #3
10002c3c:	9a24      	ldr	r2, [sp, #144]	; 0x90
10002c3e:	4013      	ands	r3, r2
10002c40:	2b01      	cmp	r3, #1
10002c42:	d100      	bne.n	10002c46 <_ftoa+0x18e>
10002c44:	e096      	b.n	10002d74 <_ftoa+0x2bc>
10002c46:	2320      	movs	r3, #32
10002c48:	9a24      	ldr	r2, [sp, #144]	; 0x90
10002c4a:	9301      	str	r3, [sp, #4]
10002c4c:	9203      	str	r2, [sp, #12]
10002c4e:	9a23      	ldr	r2, [sp, #140]	; 0x8c
10002c50:	4643      	mov	r3, r8
10002c52:	9202      	str	r2, [sp, #8]
10002c54:	e01e      	b.n	10002c94 <_ftoa+0x1dc>
10002c56:	9b24      	ldr	r3, [sp, #144]	; 0x90
10002c58:	4658      	mov	r0, fp
10002c5a:	9304      	str	r3, [sp, #16]
10002c5c:	9b23      	ldr	r3, [sp, #140]	; 0x8c
10002c5e:	9600      	str	r6, [sp, #0]
10002c60:	9701      	str	r7, [sp, #4]
10002c62:	9303      	str	r3, [sp, #12]
10002c64:	4643      	mov	r3, r8
10002c66:	9a0c      	ldr	r2, [sp, #48]	; 0x30
10002c68:	9302      	str	r3, [sp, #8]
10002c6a:	9907      	ldr	r1, [sp, #28]
10002c6c:	464b      	mov	r3, r9
10002c6e:	f7ff fcfd 	bl	1000266c <_etoa>
10002c72:	b017      	add	sp, #92	; 0x5c
10002c74:	bcf0      	pop	{r4, r5, r6, r7}
10002c76:	46bb      	mov	fp, r7
10002c78:	46b2      	mov	sl, r6
10002c7a:	46a9      	mov	r9, r5
10002c7c:	46a0      	mov	r8, r4
10002c7e:	bdf0      	pop	{r4, r5, r6, r7, pc}
10002c80:	9b24      	ldr	r3, [sp, #144]	; 0x90
10002c82:	075b      	lsls	r3, r3, #29
10002c84:	d40e      	bmi.n	10002ca4 <_ftoa+0x1ec>
10002c86:	2203      	movs	r2, #3
10002c88:	4b69      	ldr	r3, [pc, #420]	; (10002e30 <_ftoa+0x378>)
10002c8a:	9924      	ldr	r1, [sp, #144]	; 0x90
10002c8c:	9201      	str	r2, [sp, #4]
10002c8e:	9103      	str	r1, [sp, #12]
10002c90:	9923      	ldr	r1, [sp, #140]	; 0x8c
10002c92:	9102      	str	r1, [sp, #8]
10002c94:	9300      	str	r3, [sp, #0]
10002c96:	4658      	mov	r0, fp
10002c98:	464b      	mov	r3, r9
10002c9a:	9a0c      	ldr	r2, [sp, #48]	; 0x30
10002c9c:	9907      	ldr	r1, [sp, #28]
10002c9e:	f7ff fba1 	bl	100023e4 <_out_rev>
10002ca2:	e7e6      	b.n	10002c72 <_ftoa+0x1ba>
10002ca4:	2204      	movs	r2, #4
10002ca6:	4b63      	ldr	r3, [pc, #396]	; (10002e34 <_ftoa+0x37c>)
10002ca8:	e7ef      	b.n	10002c8a <_ftoa+0x1d2>
10002caa:	003b      	movs	r3, r7
10002cac:	0032      	movs	r2, r6
10002cae:	2000      	movs	r0, #0
10002cb0:	2100      	movs	r1, #0
10002cb2:	f001 f91c 	bl	10003eee <__wrap___aeabi_dsub>
10002cb6:	2301      	movs	r3, #1
10002cb8:	0006      	movs	r6, r0
10002cba:	000f      	movs	r7, r1
10002cbc:	930d      	str	r3, [sp, #52]	; 0x34
10002cbe:	e744      	b.n	10002b4a <_ftoa+0x92>
10002cc0:	9b24      	ldr	r3, [sp, #144]	; 0x90
10002cc2:	9303      	str	r3, [sp, #12]
10002cc4:	9b23      	ldr	r3, [sp, #140]	; 0x8c
10002cc6:	9302      	str	r3, [sp, #8]
10002cc8:	2304      	movs	r3, #4
10002cca:	9301      	str	r3, [sp, #4]
10002ccc:	4b5a      	ldr	r3, [pc, #360]	; (10002e38 <_ftoa+0x380>)
10002cce:	e7e1      	b.n	10002c94 <_ftoa+0x1dc>
10002cd0:	0028      	movs	r0, r5
10002cd2:	f001 f9ad 	bl	10004030 <__wrap___aeabi_i2d>
10002cd6:	0002      	movs	r2, r0
10002cd8:	000b      	movs	r3, r1
10002cda:	0030      	movs	r0, r6
10002cdc:	0039      	movs	r1, r7
10002cde:	f001 f906 	bl	10003eee <__wrap___aeabi_dsub>
10002ce2:	4b52      	ldr	r3, [pc, #328]	; (10002e2c <_ftoa+0x374>)
10002ce4:	2200      	movs	r2, #0
10002ce6:	0006      	movs	r6, r0
10002ce8:	000f      	movs	r7, r1
10002cea:	f001 f973 	bl	10003fd4 <__wrap___aeabi_dcmplt>
10002cee:	ab0e      	add	r3, sp, #56	; 0x38
10002cf0:	4698      	mov	r8, r3
10002cf2:	2800      	cmp	r0, #0
10002cf4:	d10a      	bne.n	10002d0c <_ftoa+0x254>
10002cf6:	2200      	movs	r2, #0
10002cf8:	0030      	movs	r0, r6
10002cfa:	0039      	movs	r1, r7
10002cfc:	4b4b      	ldr	r3, [pc, #300]	; (10002e2c <_ftoa+0x374>)
10002cfe:	f001 f97f 	bl	10004000 <__wrap___aeabi_dcmpgt>
10002d02:	2800      	cmp	r0, #0
10002d04:	d102      	bne.n	10002d0c <_ftoa+0x254>
10002d06:	07eb      	lsls	r3, r5, #31
10002d08:	d500      	bpl.n	10002d0c <_ftoa+0x254>
10002d0a:	3501      	adds	r5, #1
10002d0c:	2c20      	cmp	r4, #32
10002d0e:	d094      	beq.n	10002c3a <_ftoa+0x182>
10002d10:	aa08      	add	r2, sp, #32
10002d12:	4694      	mov	ip, r2
10002d14:	2317      	movs	r3, #23
10002d16:	0028      	movs	r0, r5
10002d18:	4463      	add	r3, ip
10002d1a:	210a      	movs	r1, #10
10002d1c:	3401      	adds	r4, #1
10002d1e:	191e      	adds	r6, r3, r4
10002d20:	f000 fe7a 	bl	10003a18 <__wrap___aeabi_idiv>
10002d24:	3130      	adds	r1, #48	; 0x30
10002d26:	0028      	movs	r0, r5
10002d28:	7031      	strb	r1, [r6, #0]
10002d2a:	210a      	movs	r1, #10
10002d2c:	f000 fe74 	bl	10003a18 <__wrap___aeabi_idiv>
10002d30:	1e05      	subs	r5, r0, #0
10002d32:	d1eb      	bne.n	10002d0c <_ftoa+0x254>
10002d34:	2303      	movs	r3, #3
10002d36:	9a24      	ldr	r2, [sp, #144]	; 0x90
10002d38:	4013      	ands	r3, r2
10002d3a:	2b01      	cmp	r3, #1
10002d3c:	d01b      	beq.n	10002d76 <_ftoa+0x2be>
10002d3e:	2c20      	cmp	r4, #32
10002d40:	d100      	bne.n	10002d44 <_ftoa+0x28c>
10002d42:	e780      	b.n	10002c46 <_ftoa+0x18e>
10002d44:	9b0d      	ldr	r3, [sp, #52]	; 0x34
10002d46:	2b00      	cmp	r3, #0
10002d48:	d035      	beq.n	10002db6 <_ftoa+0x2fe>
10002d4a:	222d      	movs	r2, #45	; 0x2d
10002d4c:	4641      	mov	r1, r8
10002d4e:	1c63      	adds	r3, r4, #1
10002d50:	550a      	strb	r2, [r1, r4]
10002d52:	e779      	b.n	10002c48 <_ftoa+0x190>
10002d54:	2200      	movs	r2, #0
10002d56:	980a      	ldr	r0, [sp, #40]	; 0x28
10002d58:	990b      	ldr	r1, [sp, #44]	; 0x2c
10002d5a:	4b34      	ldr	r3, [pc, #208]	; (10002e2c <_ftoa+0x374>)
10002d5c:	f001 f93a 	bl	10003fd4 <__wrap___aeabi_dcmplt>
10002d60:	2800      	cmp	r0, #0
10002d62:	d000      	beq.n	10002d66 <_ftoa+0x2ae>
10002d64:	e746      	b.n	10002bf4 <_ftoa+0x13c>
10002d66:	4653      	mov	r3, sl
10002d68:	2b00      	cmp	r3, #0
10002d6a:	d151      	bne.n	10002e10 <_ftoa+0x358>
10002d6c:	2301      	movs	r3, #1
10002d6e:	469c      	mov	ip, r3
10002d70:	44e2      	add	sl, ip
10002d72:	e73f      	b.n	10002bf4 <_ftoa+0x13c>
10002d74:	2420      	movs	r4, #32
10002d76:	9b23      	ldr	r3, [sp, #140]	; 0x8c
10002d78:	2b00      	cmp	r3, #0
10002d7a:	d0e0      	beq.n	10002d3e <_ftoa+0x286>
10002d7c:	9b0d      	ldr	r3, [sp, #52]	; 0x34
10002d7e:	2b00      	cmp	r3, #0
10002d80:	d103      	bne.n	10002d8a <_ftoa+0x2d2>
10002d82:	9a24      	ldr	r2, [sp, #144]	; 0x90
10002d84:	330c      	adds	r3, #12
10002d86:	4213      	tst	r3, r2
10002d88:	d002      	beq.n	10002d90 <_ftoa+0x2d8>
10002d8a:	9b23      	ldr	r3, [sp, #140]	; 0x8c
10002d8c:	3b01      	subs	r3, #1
10002d8e:	9323      	str	r3, [sp, #140]	; 0x8c
10002d90:	9b23      	ldr	r3, [sp, #140]	; 0x8c
10002d92:	42a3      	cmp	r3, r4
10002d94:	d9d3      	bls.n	10002d3e <_ftoa+0x286>
10002d96:	ab08      	add	r3, sp, #32
10002d98:	469c      	mov	ip, r3
10002d9a:	2217      	movs	r2, #23
10002d9c:	2330      	movs	r3, #48	; 0x30
10002d9e:	4462      	add	r2, ip
10002da0:	2c20      	cmp	r4, #32
10002da2:	d100      	bne.n	10002da6 <_ftoa+0x2ee>
10002da4:	e74f      	b.n	10002c46 <_ftoa+0x18e>
10002da6:	9923      	ldr	r1, [sp, #140]	; 0x8c
10002da8:	3401      	adds	r4, #1
10002daa:	5513      	strb	r3, [r2, r4]
10002dac:	428c      	cmp	r4, r1
10002dae:	d0c6      	beq.n	10002d3e <_ftoa+0x286>
10002db0:	2c20      	cmp	r4, #32
10002db2:	d1f8      	bne.n	10002da6 <_ftoa+0x2ee>
10002db4:	e747      	b.n	10002c46 <_ftoa+0x18e>
10002db6:	9b24      	ldr	r3, [sp, #144]	; 0x90
10002db8:	075b      	lsls	r3, r3, #29
10002dba:	d424      	bmi.n	10002e06 <_ftoa+0x34e>
10002dbc:	9a24      	ldr	r2, [sp, #144]	; 0x90
10002dbe:	0023      	movs	r3, r4
10002dc0:	0712      	lsls	r2, r2, #28
10002dc2:	d400      	bmi.n	10002dc6 <_ftoa+0x30e>
10002dc4:	e740      	b.n	10002c48 <_ftoa+0x190>
10002dc6:	2220      	movs	r2, #32
10002dc8:	4641      	mov	r1, r8
10002dca:	3301      	adds	r3, #1
10002dcc:	550a      	strb	r2, [r1, r4]
10002dce:	e73b      	b.n	10002c48 <_ftoa+0x190>
10002dd0:	4657      	mov	r7, sl
10002dd2:	9d08      	ldr	r5, [sp, #32]
10002dd4:	2c20      	cmp	r4, #32
10002dd6:	d100      	bne.n	10002dda <_ftoa+0x322>
10002dd8:	e72d      	b.n	10002c36 <_ftoa+0x17e>
10002dda:	0022      	movs	r2, r4
10002ddc:	2130      	movs	r1, #48	; 0x30
10002dde:	4640      	mov	r0, r8
10002de0:	2f00      	cmp	r7, #0
10002de2:	d009      	beq.n	10002df8 <_ftoa+0x340>
10002de4:	3201      	adds	r2, #1
10002de6:	54b1      	strb	r1, [r6, r2]
10002de8:	2a20      	cmp	r2, #32
10002dea:	d100      	bne.n	10002dee <_ftoa+0x336>
10002dec:	e723      	b.n	10002c36 <_ftoa+0x17e>
10002dee:	43d3      	mvns	r3, r2
10002df0:	191b      	adds	r3, r3, r4
10002df2:	181b      	adds	r3, r3, r0
10002df4:	2b00      	cmp	r3, #0
10002df6:	d1f5      	bne.n	10002de4 <_ftoa+0x32c>
10002df8:	ab0e      	add	r3, sp, #56	; 0x38
10002dfa:	4698      	mov	r8, r3
10002dfc:	232e      	movs	r3, #46	; 0x2e
10002dfe:	4641      	mov	r1, r8
10002e00:	1c54      	adds	r4, r2, #1
10002e02:	548b      	strb	r3, [r1, r2]
10002e04:	e782      	b.n	10002d0c <_ftoa+0x254>
10002e06:	222b      	movs	r2, #43	; 0x2b
10002e08:	4641      	mov	r1, r8
10002e0a:	1c63      	adds	r3, r4, #1
10002e0c:	550a      	strb	r2, [r1, r4]
10002e0e:	e71b      	b.n	10002c48 <_ftoa+0x190>
10002e10:	07db      	lsls	r3, r3, #31
10002e12:	d400      	bmi.n	10002e16 <_ftoa+0x35e>
10002e14:	e6ee      	b.n	10002bf4 <_ftoa+0x13c>
10002e16:	e7a9      	b.n	10002d6c <_ftoa+0x2b4>
10002e18:	ffefffff 	.word	0xffefffff
10002e1c:	7fefffff 	.word	0x7fefffff
10002e20:	41cdcd65 	.word	0x41cdcd65
10002e24:	c1cdcd65 	.word	0xc1cdcd65
10002e28:	1000b4f0 	.word	0x1000b4f0
10002e2c:	3fe00000 	.word	0x3fe00000
10002e30:	1000b2f4 	.word	0x1000b2f4
10002e34:	1000b2f8 	.word	0x1000b2f8
10002e38:	1000b304 	.word	0x1000b304
10002e3c:	9b24      	ldr	r3, [sp, #144]	; 0x90
10002e3e:	9303      	str	r3, [sp, #12]
10002e40:	9b23      	ldr	r3, [sp, #140]	; 0x8c
10002e42:	9302      	str	r3, [sp, #8]
10002e44:	2303      	movs	r3, #3
10002e46:	9301      	str	r3, [sp, #4]
10002e48:	4b00      	ldr	r3, [pc, #0]	; (10002e4c <_ftoa+0x394>)
10002e4a:	e723      	b.n	10002c94 <_ftoa+0x1dc>
10002e4c:	1000b300 	.word	0x1000b300

10002e50 <_vsnprintf>:
10002e50:	b5f0      	push	{r4, r5, r6, r7, lr}
10002e52:	46de      	mov	lr, fp
10002e54:	464e      	mov	r6, r9
10002e56:	4657      	mov	r7, sl
10002e58:	4645      	mov	r5, r8
10002e5a:	b5e0      	push	{r5, r6, r7, lr}
10002e5c:	b09f      	sub	sp, #124	; 0x7c
10002e5e:	001c      	movs	r4, r3
10002e60:	9b28      	ldr	r3, [sp, #160]	; 0xa0
10002e62:	4691      	mov	r9, r2
10002e64:	9309      	str	r3, [sp, #36]	; 0x24
10002e66:	4ac9      	ldr	r2, [pc, #804]	; (1000318c <_vsnprintf+0x33c>)
10002e68:	4bc9      	ldr	r3, [pc, #804]	; (10003190 <_vsnprintf+0x340>)
10002e6a:	468b      	mov	fp, r1
10002e6c:	9008      	str	r0, [sp, #32]
10002e6e:	601a      	str	r2, [r3, #0]
10002e70:	2900      	cmp	r1, #0
10002e72:	d100      	bne.n	10002e76 <_vsnprintf+0x26>
10002e74:	e218      	b.n	100032a8 <_vsnprintf+0x458>
10002e76:	2300      	movs	r3, #0
10002e78:	7820      	ldrb	r0, [r4, #0]
10002e7a:	469a      	mov	sl, r3
10002e7c:	2800      	cmp	r0, #0
10002e7e:	d100      	bne.n	10002e82 <_vsnprintf+0x32>
10002e80:	e21a      	b.n	100032b8 <_vsnprintf+0x468>
10002e82:	0026      	movs	r6, r4
10002e84:	001d      	movs	r5, r3
10002e86:	465c      	mov	r4, fp
10002e88:	e00a      	b.n	10002ea0 <_vsnprintf+0x50>
10002e8a:	002a      	movs	r2, r5
10002e8c:	1c6f      	adds	r7, r5, #1
10002e8e:	464b      	mov	r3, r9
10002e90:	9d08      	ldr	r5, [sp, #32]
10002e92:	0021      	movs	r1, r4
10002e94:	47a8      	blx	r5
10002e96:	003d      	movs	r5, r7
10002e98:	3601      	adds	r6, #1
10002e9a:	7830      	ldrb	r0, [r6, #0]
10002e9c:	2800      	cmp	r0, #0
10002e9e:	d070      	beq.n	10002f82 <_vsnprintf+0x132>
10002ea0:	2825      	cmp	r0, #37	; 0x25
10002ea2:	d1f2      	bne.n	10002e8a <_vsnprintf+0x3a>
10002ea4:	2310      	movs	r3, #16
10002ea6:	469b      	mov	fp, r3
10002ea8:	3b08      	subs	r3, #8
10002eaa:	469a      	mov	sl, r3
10002eac:	3b04      	subs	r3, #4
10002eae:	4698      	mov	r8, r3
10002eb0:	3b02      	subs	r3, #2
10002eb2:	2100      	movs	r1, #0
10002eb4:	469c      	mov	ip, r3
10002eb6:	1c72      	adds	r2, r6, #1
10002eb8:	7810      	ldrb	r0, [r2, #0]
10002eba:	0016      	movs	r6, r2
10002ebc:	0003      	movs	r3, r0
10002ebe:	3b20      	subs	r3, #32
10002ec0:	b2db      	uxtb	r3, r3
10002ec2:	2b10      	cmp	r3, #16
10002ec4:	d803      	bhi.n	10002ece <_vsnprintf+0x7e>
10002ec6:	4fb3      	ldr	r7, [pc, #716]	; (10003194 <_vsnprintf+0x344>)
10002ec8:	009b      	lsls	r3, r3, #2
10002eca:	58fb      	ldr	r3, [r7, r3]
10002ecc:	469f      	mov	pc, r3
10002ece:	0003      	movs	r3, r0
10002ed0:	3b30      	subs	r3, #48	; 0x30
10002ed2:	2b09      	cmp	r3, #9
10002ed4:	d932      	bls.n	10002f3c <_vsnprintf+0xec>
10002ed6:	2300      	movs	r3, #0
10002ed8:	930a      	str	r3, [sp, #40]	; 0x28
10002eda:	282a      	cmp	r0, #42	; 0x2a
10002edc:	d068      	beq.n	10002fb0 <_vsnprintf+0x160>
10002ede:	2300      	movs	r3, #0
10002ee0:	4698      	mov	r8, r3
10002ee2:	282e      	cmp	r0, #46	; 0x2e
10002ee4:	d03e      	beq.n	10002f64 <_vsnprintf+0x114>
10002ee6:	0003      	movs	r3, r0
10002ee8:	3b68      	subs	r3, #104	; 0x68
10002eea:	b2db      	uxtb	r3, r3
10002eec:	2b12      	cmp	r3, #18
10002eee:	d81c      	bhi.n	10002f2a <_vsnprintf+0xda>
10002ef0:	4aa9      	ldr	r2, [pc, #676]	; (10003198 <_vsnprintf+0x348>)
10002ef2:	009b      	lsls	r3, r3, #2
10002ef4:	58d3      	ldr	r3, [r2, r3]
10002ef6:	469f      	mov	pc, r3
10002ef8:	2301      	movs	r3, #1
10002efa:	3201      	adds	r2, #1
10002efc:	4319      	orrs	r1, r3
10002efe:	e7db      	b.n	10002eb8 <_vsnprintf+0x68>
10002f00:	4663      	mov	r3, ip
10002f02:	3201      	adds	r2, #1
10002f04:	4319      	orrs	r1, r3
10002f06:	e7d7      	b.n	10002eb8 <_vsnprintf+0x68>
10002f08:	4643      	mov	r3, r8
10002f0a:	3201      	adds	r2, #1
10002f0c:	4319      	orrs	r1, r3
10002f0e:	e7d3      	b.n	10002eb8 <_vsnprintf+0x68>
10002f10:	465b      	mov	r3, fp
10002f12:	3201      	adds	r2, #1
10002f14:	4319      	orrs	r1, r3
10002f16:	e7cf      	b.n	10002eb8 <_vsnprintf+0x68>
10002f18:	4653      	mov	r3, sl
10002f1a:	3201      	adds	r2, #1
10002f1c:	4319      	orrs	r1, r3
10002f1e:	e7cb      	b.n	10002eb8 <_vsnprintf+0x68>
10002f20:	2380      	movs	r3, #128	; 0x80
10002f22:	005b      	lsls	r3, r3, #1
10002f24:	7870      	ldrb	r0, [r6, #1]
10002f26:	4319      	orrs	r1, r3
10002f28:	3601      	adds	r6, #1
10002f2a:	0003      	movs	r3, r0
10002f2c:	3b25      	subs	r3, #37	; 0x25
10002f2e:	b2db      	uxtb	r3, r3
10002f30:	2b53      	cmp	r3, #83	; 0x53
10002f32:	d8aa      	bhi.n	10002e8a <_vsnprintf+0x3a>
10002f34:	4a99      	ldr	r2, [pc, #612]	; (1000319c <_vsnprintf+0x34c>)
10002f36:	009b      	lsls	r3, r3, #2
10002f38:	58d3      	ldr	r3, [r2, r3]
10002f3a:	469f      	mov	pc, r3
10002f3c:	2700      	movs	r7, #0
10002f3e:	0003      	movs	r3, r0
10002f40:	00b8      	lsls	r0, r7, #2
10002f42:	19c0      	adds	r0, r0, r7
10002f44:	3601      	adds	r6, #1
10002f46:	0040      	lsls	r0, r0, #1
10002f48:	18c0      	adds	r0, r0, r3
10002f4a:	7833      	ldrb	r3, [r6, #0]
10002f4c:	3830      	subs	r0, #48	; 0x30
10002f4e:	001a      	movs	r2, r3
10002f50:	3a30      	subs	r2, #48	; 0x30
10002f52:	0007      	movs	r7, r0
10002f54:	2a09      	cmp	r2, #9
10002f56:	d9f3      	bls.n	10002f40 <_vsnprintf+0xf0>
10002f58:	900a      	str	r0, [sp, #40]	; 0x28
10002f5a:	0018      	movs	r0, r3
10002f5c:	2300      	movs	r3, #0
10002f5e:	4698      	mov	r8, r3
10002f60:	282e      	cmp	r0, #46	; 0x2e
10002f62:	d1c0      	bne.n	10002ee6 <_vsnprintf+0x96>
10002f64:	2380      	movs	r3, #128	; 0x80
10002f66:	7870      	ldrb	r0, [r6, #1]
10002f68:	00db      	lsls	r3, r3, #3
10002f6a:	4319      	orrs	r1, r3
10002f6c:	0003      	movs	r3, r0
10002f6e:	3b30      	subs	r3, #48	; 0x30
10002f70:	1c72      	adds	r2, r6, #1
10002f72:	2b09      	cmp	r3, #9
10002f74:	d800      	bhi.n	10002f78 <_vsnprintf+0x128>
10002f76:	e1a1      	b.n	100032bc <_vsnprintf+0x46c>
10002f78:	282a      	cmp	r0, #42	; 0x2a
10002f7a:	d100      	bne.n	10002f7e <_vsnprintf+0x12e>
10002f7c:	e1b2      	b.n	100032e4 <_vsnprintf+0x494>
10002f7e:	0016      	movs	r6, r2
10002f80:	e7b1      	b.n	10002ee6 <_vsnprintf+0x96>
10002f82:	46a3      	mov	fp, r4
10002f84:	46aa      	mov	sl, r5
10002f86:	002c      	movs	r4, r5
10002f88:	45d1      	cmp	r9, sl
10002f8a:	d803      	bhi.n	10002f94 <_vsnprintf+0x144>
10002f8c:	2301      	movs	r3, #1
10002f8e:	425b      	negs	r3, r3
10002f90:	444b      	add	r3, r9
10002f92:	469a      	mov	sl, r3
10002f94:	464b      	mov	r3, r9
10002f96:	4652      	mov	r2, sl
10002f98:	4659      	mov	r1, fp
10002f9a:	2000      	movs	r0, #0
10002f9c:	9d08      	ldr	r5, [sp, #32]
10002f9e:	47a8      	blx	r5
10002fa0:	0020      	movs	r0, r4
10002fa2:	b01f      	add	sp, #124	; 0x7c
10002fa4:	bcf0      	pop	{r4, r5, r6, r7}
10002fa6:	46bb      	mov	fp, r7
10002fa8:	46b2      	mov	sl, r6
10002faa:	46a9      	mov	r9, r5
10002fac:	46a0      	mov	r8, r4
10002fae:	bdf0      	pop	{r4, r5, r6, r7, pc}
10002fb0:	9b09      	ldr	r3, [sp, #36]	; 0x24
10002fb2:	cb40      	ldmia	r3!, {r6}
10002fb4:	960a      	str	r6, [sp, #40]	; 0x28
10002fb6:	2e00      	cmp	r6, #0
10002fb8:	db03      	blt.n	10002fc2 <_vsnprintf+0x172>
10002fba:	7850      	ldrb	r0, [r2, #1]
10002fbc:	9309      	str	r3, [sp, #36]	; 0x24
10002fbe:	1c56      	adds	r6, r2, #1
10002fc0:	e78d      	b.n	10002ede <_vsnprintf+0x8e>
10002fc2:	3828      	subs	r0, #40	; 0x28
10002fc4:	4301      	orrs	r1, r0
10002fc6:	4270      	negs	r0, r6
10002fc8:	900a      	str	r0, [sp, #40]	; 0x28
10002fca:	9309      	str	r3, [sp, #36]	; 0x24
10002fcc:	7850      	ldrb	r0, [r2, #1]
10002fce:	1c56      	adds	r6, r2, #1
10002fd0:	e785      	b.n	10002ede <_vsnprintf+0x8e>
10002fd2:	2878      	cmp	r0, #120	; 0x78
10002fd4:	d100      	bne.n	10002fd8 <_vsnprintf+0x188>
10002fd6:	e1df      	b.n	10003398 <_vsnprintf+0x548>
10002fd8:	2858      	cmp	r0, #88	; 0x58
10002fda:	d100      	bne.n	10002fde <_vsnprintf+0x18e>
10002fdc:	e24c      	b.n	10003478 <_vsnprintf+0x628>
10002fde:	286f      	cmp	r0, #111	; 0x6f
10002fe0:	d100      	bne.n	10002fe4 <_vsnprintf+0x194>
10002fe2:	e34f      	b.n	10003684 <_vsnprintf+0x834>
10002fe4:	2862      	cmp	r0, #98	; 0x62
10002fe6:	d101      	bne.n	10002fec <_vsnprintf+0x19c>
10002fe8:	f000 fc30 	bl	1000384c <_vsnprintf+0x9fc>
10002fec:	2310      	movs	r3, #16
10002fee:	000a      	movs	r2, r1
10002ff0:	439a      	bics	r2, r3
10002ff2:	920b      	str	r2, [sp, #44]	; 0x2c
10002ff4:	2869      	cmp	r0, #105	; 0x69
10002ff6:	d001      	beq.n	10002ffc <_vsnprintf+0x1ac>
10002ff8:	f000 fca9 	bl	1000394e <_vsnprintf+0xafe>
10002ffc:	230a      	movs	r3, #10
10002ffe:	930c      	str	r3, [sp, #48]	; 0x30
10003000:	054b      	lsls	r3, r1, #21
10003002:	d500      	bpl.n	10003006 <_vsnprintf+0x1b6>
10003004:	e1d0      	b.n	100033a8 <_vsnprintf+0x558>
10003006:	9a0b      	ldr	r2, [sp, #44]	; 0x2c
10003008:	2380      	movs	r3, #128	; 0x80
1000300a:	0011      	movs	r1, r2
1000300c:	009b      	lsls	r3, r3, #2
1000300e:	4019      	ands	r1, r3
10003010:	468b      	mov	fp, r1
10003012:	421a      	tst	r2, r3
10003014:	d000      	beq.n	10003018 <_vsnprintf+0x1c8>
10003016:	e2a1      	b.n	1000355c <_vsnprintf+0x70c>
10003018:	2380      	movs	r3, #128	; 0x80
1000301a:	0011      	movs	r1, r2
1000301c:	005b      	lsls	r3, r3, #1
1000301e:	4019      	ands	r1, r3
10003020:	468a      	mov	sl, r1
10003022:	421a      	tst	r2, r3
10003024:	d000      	beq.n	10003028 <_vsnprintf+0x1d8>
10003026:	e3b6      	b.n	10003796 <_vsnprintf+0x946>
10003028:	0013      	movs	r3, r2
1000302a:	065b      	lsls	r3, r3, #25
1000302c:	d500      	bpl.n	10003030 <_vsnprintf+0x1e0>
1000302e:	e2ed      	b.n	1000360c <_vsnprintf+0x7bc>
10003030:	0013      	movs	r3, r2
10003032:	9909      	ldr	r1, [sp, #36]	; 0x24
10003034:	061b      	lsls	r3, r3, #24
10003036:	d401      	bmi.n	1000303c <_vsnprintf+0x1ec>
10003038:	f000 fc76 	bl	10003928 <_vsnprintf+0xad8>
1000303c:	c908      	ldmia	r1!, {r3}
1000303e:	b21b      	sxth	r3, r3
10003040:	17d8      	asrs	r0, r3, #31
10003042:	181a      	adds	r2, r3, r0
10003044:	4042      	eors	r2, r0
10003046:	b292      	uxth	r2, r2
10003048:	9109      	str	r1, [sp, #36]	; 0x24
1000304a:	4693      	mov	fp, r2
1000304c:	0fda      	lsrs	r2, r3, #31
1000304e:	9212      	str	r2, [sp, #72]	; 0x48
10003050:	2b00      	cmp	r3, #0
10003052:	d109      	bne.n	10003068 <_vsnprintf+0x218>
10003054:	2380      	movs	r3, #128	; 0x80
10003056:	2210      	movs	r2, #16
10003058:	990b      	ldr	r1, [sp, #44]	; 0x2c
1000305a:	00db      	lsls	r3, r3, #3
1000305c:	400b      	ands	r3, r1
1000305e:	4391      	bics	r1, r2
10003060:	910b      	str	r1, [sp, #44]	; 0x2c
10003062:	2b00      	cmp	r3, #0
10003064:	d000      	beq.n	10003068 <_vsnprintf+0x218>
10003066:	e2e4      	b.n	10003632 <_vsnprintf+0x7e2>
10003068:	9a0b      	ldr	r2, [sp, #44]	; 0x2c
1000306a:	2361      	movs	r3, #97	; 0x61
1000306c:	0692      	lsls	r2, r2, #26
1000306e:	d500      	bpl.n	10003072 <_vsnprintf+0x222>
10003070:	2341      	movs	r3, #65	; 0x41
10003072:	a90e      	add	r1, sp, #56	; 0x38
10003074:	221f      	movs	r2, #31
10003076:	468c      	mov	ip, r1
10003078:	b2db      	uxtb	r3, r3
1000307a:	4462      	add	r2, ip
1000307c:	3b0a      	subs	r3, #10
1000307e:	465f      	mov	r7, fp
10003080:	9513      	str	r5, [sp, #76]	; 0x4c
10003082:	46a3      	mov	fp, r4
10003084:	4655      	mov	r5, sl
10003086:	9c0c      	ldr	r4, [sp, #48]	; 0x30
10003088:	46b2      	mov	sl, r6
1000308a:	930d      	str	r3, [sp, #52]	; 0x34
1000308c:	0016      	movs	r6, r2
1000308e:	e00a      	b.n	100030a6 <_vsnprintf+0x256>
10003090:	3330      	adds	r3, #48	; 0x30
10003092:	b2db      	uxtb	r3, r3
10003094:	3501      	adds	r5, #1
10003096:	5573      	strb	r3, [r6, r5]
10003098:	42a7      	cmp	r7, r4
1000309a:	d200      	bcs.n	1000309e <_vsnprintf+0x24e>
1000309c:	e2ed      	b.n	1000367a <_vsnprintf+0x82a>
1000309e:	2d20      	cmp	r5, #32
100030a0:	d100      	bne.n	100030a4 <_vsnprintf+0x254>
100030a2:	e2ea      	b.n	1000367a <_vsnprintf+0x82a>
100030a4:	0007      	movs	r7, r0
100030a6:	0021      	movs	r1, r4
100030a8:	0038      	movs	r0, r7
100030aa:	f000 fcdd 	bl	10003a68 <__wrap___aeabi_uidiv>
100030ae:	b2cb      	uxtb	r3, r1
100030b0:	2909      	cmp	r1, #9
100030b2:	d9ed      	bls.n	10003090 <_vsnprintf+0x240>
100030b4:	9a0d      	ldr	r2, [sp, #52]	; 0x34
100030b6:	4694      	mov	ip, r2
100030b8:	4463      	add	r3, ip
100030ba:	b2db      	uxtb	r3, r3
100030bc:	e7ea      	b.n	10003094 <_vsnprintf+0x244>
100030be:	2380      	movs	r3, #128	; 0x80
100030c0:	009b      	lsls	r3, r3, #2
100030c2:	7870      	ldrb	r0, [r6, #1]
100030c4:	4319      	orrs	r1, r3
100030c6:	3601      	adds	r6, #1
100030c8:	e72f      	b.n	10002f2a <_vsnprintf+0xda>
100030ca:	7870      	ldrb	r0, [r6, #1]
100030cc:	2868      	cmp	r0, #104	; 0x68
100030ce:	d100      	bne.n	100030d2 <_vsnprintf+0x282>
100030d0:	e1cd      	b.n	1000346e <_vsnprintf+0x61e>
100030d2:	2380      	movs	r3, #128	; 0x80
100030d4:	3601      	adds	r6, #1
100030d6:	4319      	orrs	r1, r3
100030d8:	e727      	b.n	10002f2a <_vsnprintf+0xda>
100030da:	7870      	ldrb	r0, [r6, #1]
100030dc:	286c      	cmp	r0, #108	; 0x6c
100030de:	d100      	bne.n	100030e2 <_vsnprintf+0x292>
100030e0:	e1bf      	b.n	10003462 <_vsnprintf+0x612>
100030e2:	2380      	movs	r3, #128	; 0x80
100030e4:	005b      	lsls	r3, r3, #1
100030e6:	4319      	orrs	r1, r3
100030e8:	3601      	adds	r6, #1
100030ea:	e71e      	b.n	10002f2a <_vsnprintf+0xda>
100030ec:	2846      	cmp	r0, #70	; 0x46
100030ee:	d100      	bne.n	100030f2 <_vsnprintf+0x2a2>
100030f0:	e19b      	b.n	1000342a <_vsnprintf+0x5da>
100030f2:	2207      	movs	r2, #7
100030f4:	9b09      	ldr	r3, [sp, #36]	; 0x24
100030f6:	9104      	str	r1, [sp, #16]
100030f8:	3307      	adds	r3, #7
100030fa:	4393      	bics	r3, r2
100030fc:	9a0a      	ldr	r2, [sp, #40]	; 0x28
100030fe:	0019      	movs	r1, r3
10003100:	9203      	str	r2, [sp, #12]
10003102:	4642      	mov	r2, r8
10003104:	9202      	str	r2, [sp, #8]
10003106:	c90c      	ldmia	r1!, {r2, r3}
10003108:	9808      	ldr	r0, [sp, #32]
1000310a:	9200      	str	r2, [sp, #0]
1000310c:	9301      	str	r3, [sp, #4]
1000310e:	9109      	str	r1, [sp, #36]	; 0x24
10003110:	002a      	movs	r2, r5
10003112:	464b      	mov	r3, r9
10003114:	0021      	movs	r1, r4
10003116:	f7ff fccf 	bl	10002ab8 <_ftoa>
1000311a:	3601      	adds	r6, #1
1000311c:	0005      	movs	r5, r0
1000311e:	e6bc      	b.n	10002e9a <_vsnprintf+0x4a>
10003120:	002a      	movs	r2, r5
10003122:	1c6f      	adds	r7, r5, #1
10003124:	464b      	mov	r3, r9
10003126:	9d08      	ldr	r5, [sp, #32]
10003128:	0021      	movs	r1, r4
1000312a:	2025      	movs	r0, #37	; 0x25
1000312c:	47a8      	blx	r5
1000312e:	3601      	adds	r6, #1
10003130:	003d      	movs	r5, r7
10003132:	e6b2      	b.n	10002e9a <_vsnprintf+0x4a>
10003134:	078b      	lsls	r3, r1, #30
10003136:	d400      	bmi.n	1000313a <_vsnprintf+0x2ea>
10003138:	e1ad      	b.n	10003496 <_vsnprintf+0x646>
1000313a:	9b09      	ldr	r3, [sp, #36]	; 0x24
1000313c:	002a      	movs	r2, r5
1000313e:	469a      	mov	sl, r3
10003140:	1c6b      	adds	r3, r5, #1
10003142:	4698      	mov	r8, r3
10003144:	4653      	mov	r3, sl
10003146:	cb01      	ldmia	r3!, {r0}
10003148:	0021      	movs	r1, r4
1000314a:	469a      	mov	sl, r3
1000314c:	9f08      	ldr	r7, [sp, #32]
1000314e:	464b      	mov	r3, r9
10003150:	b2c0      	uxtb	r0, r0
10003152:	47b8      	blx	r7
10003154:	9b0a      	ldr	r3, [sp, #40]	; 0x28
10003156:	469c      	mov	ip, r3
10003158:	4465      	add	r5, ip
1000315a:	2b01      	cmp	r3, #1
1000315c:	d800      	bhi.n	10003160 <_vsnprintf+0x310>
1000315e:	e286      	b.n	1000366e <_vsnprintf+0x81e>
10003160:	9b08      	ldr	r3, [sp, #32]
10003162:	4647      	mov	r7, r8
10003164:	46b0      	mov	r8, r6
10003166:	0026      	movs	r6, r4
10003168:	464c      	mov	r4, r9
1000316a:	4699      	mov	r9, r3
1000316c:	003a      	movs	r2, r7
1000316e:	0023      	movs	r3, r4
10003170:	3701      	adds	r7, #1
10003172:	0031      	movs	r1, r6
10003174:	2020      	movs	r0, #32
10003176:	47c8      	blx	r9
10003178:	42af      	cmp	r7, r5
1000317a:	d1f7      	bne.n	1000316c <_vsnprintf+0x31c>
1000317c:	46a1      	mov	r9, r4
1000317e:	4653      	mov	r3, sl
10003180:	0034      	movs	r4, r6
10003182:	4646      	mov	r6, r8
10003184:	9309      	str	r3, [sp, #36]	; 0x24
10003186:	3601      	adds	r6, #1
10003188:	e687      	b.n	10002e9a <_vsnprintf+0x4a>
1000318a:	46c0      	nop			; (mov r8, r8)
1000318c:	10002e51 	.word	0x10002e51
10003190:	20001bdc 	.word	0x20001bdc
10003194:	1000b30c 	.word	0x1000b30c
10003198:	1000b350 	.word	0x1000b350
1000319c:	1000b39c 	.word	0x1000b39c
100031a0:	9b09      	ldr	r3, [sp, #36]	; 0x24
100031a2:	cb04      	ldmia	r3!, {r2}
100031a4:	469b      	mov	fp, r3
100031a6:	4643      	mov	r3, r8
100031a8:	9209      	str	r2, [sp, #36]	; 0x24
100031aa:	2b00      	cmp	r3, #0
100031ac:	d100      	bne.n	100031b0 <_vsnprintf+0x360>
100031ae:	e0c6      	b.n	1000333e <_vsnprintf+0x4ee>
100031b0:	7813      	ldrb	r3, [r2, #0]
100031b2:	469c      	mov	ip, r3
100031b4:	2b00      	cmp	r3, #0
100031b6:	d100      	bne.n	100031ba <_vsnprintf+0x36a>
100031b8:	e3bd      	b.n	10003936 <_vsnprintf+0xae6>
100031ba:	4643      	mov	r3, r8
100031bc:	3b01      	subs	r3, #1
100031be:	9a09      	ldr	r2, [sp, #36]	; 0x24
100031c0:	3301      	adds	r3, #1
100031c2:	18d0      	adds	r0, r2, r3
100031c4:	9f0a      	ldr	r7, [sp, #40]	; 0x28
100031c6:	0013      	movs	r3, r2
100031c8:	e001      	b.n	100031ce <_vsnprintf+0x37e>
100031ca:	4283      	cmp	r3, r0
100031cc:	d003      	beq.n	100031d6 <_vsnprintf+0x386>
100031ce:	785a      	ldrb	r2, [r3, #1]
100031d0:	3301      	adds	r3, #1
100031d2:	2a00      	cmp	r2, #0
100031d4:	d1f9      	bne.n	100031ca <_vsnprintf+0x37a>
100031d6:	9a09      	ldr	r2, [sp, #36]	; 0x24
100031d8:	970a      	str	r7, [sp, #40]	; 0x28
100031da:	1a9b      	subs	r3, r3, r2
100031dc:	930b      	str	r3, [sp, #44]	; 0x2c
100031de:	2380      	movs	r3, #128	; 0x80
100031e0:	000a      	movs	r2, r1
100031e2:	00db      	lsls	r3, r3, #3
100031e4:	401a      	ands	r2, r3
100031e6:	920c      	str	r2, [sp, #48]	; 0x30
100031e8:	4219      	tst	r1, r3
100031ea:	d004      	beq.n	100031f6 <_vsnprintf+0x3a6>
100031ec:	9b0b      	ldr	r3, [sp, #44]	; 0x2c
100031ee:	4543      	cmp	r3, r8
100031f0:	d901      	bls.n	100031f6 <_vsnprintf+0x3a6>
100031f2:	4643      	mov	r3, r8
100031f4:	930b      	str	r3, [sp, #44]	; 0x2c
100031f6:	2302      	movs	r3, #2
100031f8:	001a      	movs	r2, r3
100031fa:	400a      	ands	r2, r1
100031fc:	920d      	str	r2, [sp, #52]	; 0x34
100031fe:	420b      	tst	r3, r1
10003200:	d100      	bne.n	10003204 <_vsnprintf+0x3b4>
10003202:	e187      	b.n	10003514 <_vsnprintf+0x6c4>
10003204:	4660      	mov	r0, ip
10003206:	2800      	cmp	r0, #0
10003208:	d100      	bne.n	1000320c <_vsnprintf+0x3bc>
1000320a:	e168      	b.n	100034de <_vsnprintf+0x68e>
1000320c:	9b0c      	ldr	r3, [sp, #48]	; 0x30
1000320e:	2b00      	cmp	r3, #0
10003210:	d100      	bne.n	10003214 <_vsnprintf+0x3c4>
10003212:	e10d      	b.n	10003430 <_vsnprintf+0x5e0>
10003214:	44a8      	add	r8, r5
10003216:	46c2      	mov	sl, r8
10003218:	9b09      	ldr	r3, [sp, #36]	; 0x24
1000321a:	4657      	mov	r7, sl
1000321c:	1b5b      	subs	r3, r3, r5
1000321e:	4698      	mov	r8, r3
10003220:	9b08      	ldr	r3, [sp, #32]
10003222:	46b2      	mov	sl, r6
10003224:	002a      	movs	r2, r5
10003226:	0026      	movs	r6, r4
10003228:	464c      	mov	r4, r9
1000322a:	4699      	mov	r9, r3
1000322c:	e009      	b.n	10003242 <_vsnprintf+0x3f2>
1000322e:	0023      	movs	r3, r4
10003230:	0031      	movs	r1, r6
10003232:	1c55      	adds	r5, r2, #1
10003234:	47c8      	blx	r9
10003236:	4643      	mov	r3, r8
10003238:	5d58      	ldrb	r0, [r3, r5]
1000323a:	2800      	cmp	r0, #0
1000323c:	d100      	bne.n	10003240 <_vsnprintf+0x3f0>
1000323e:	e126      	b.n	1000348e <_vsnprintf+0x63e>
10003240:	002a      	movs	r2, r5
10003242:	4297      	cmp	r7, r2
10003244:	d1f3      	bne.n	1000322e <_vsnprintf+0x3de>
10003246:	46a1      	mov	r9, r4
10003248:	003d      	movs	r5, r7
1000324a:	0034      	movs	r4, r6
1000324c:	4656      	mov	r6, sl
1000324e:	9b0d      	ldr	r3, [sp, #52]	; 0x34
10003250:	2b00      	cmp	r3, #0
10003252:	d000      	beq.n	10003256 <_vsnprintf+0x406>
10003254:	e143      	b.n	100034de <_vsnprintf+0x68e>
10003256:	465b      	mov	r3, fp
10003258:	3601      	adds	r6, #1
1000325a:	9309      	str	r3, [sp, #36]	; 0x24
1000325c:	e61d      	b.n	10002e9a <_vsnprintf+0x4a>
1000325e:	9b09      	ldr	r3, [sp, #36]	; 0x24
10003260:	001a      	movs	r2, r3
10003262:	ca08      	ldmia	r2!, {r3}
10003264:	4692      	mov	sl, r2
10003266:	2b00      	cmp	r3, #0
10003268:	d048      	beq.n	100032fc <_vsnprintf+0x4ac>
1000326a:	2221      	movs	r2, #33	; 0x21
1000326c:	4311      	orrs	r1, r2
1000326e:	468b      	mov	fp, r1
10003270:	a80e      	add	r0, sp, #56	; 0x38
10003272:	4684      	mov	ip, r0
10003274:	211f      	movs	r1, #31
10003276:	4461      	add	r1, ip
10003278:	9509      	str	r5, [sp, #36]	; 0x24
1000327a:	2200      	movs	r2, #0
1000327c:	270f      	movs	r7, #15
1000327e:	46a4      	mov	ip, r4
10003280:	000d      	movs	r5, r1
10003282:	e002      	b.n	1000328a <_vsnprintf+0x43a>
10003284:	2a20      	cmp	r2, #32
10003286:	d00c      	beq.n	100032a2 <_vsnprintf+0x452>
10003288:	000b      	movs	r3, r1
1000328a:	003c      	movs	r4, r7
1000328c:	401c      	ands	r4, r3
1000328e:	0020      	movs	r0, r4
10003290:	3037      	adds	r0, #55	; 0x37
10003292:	2c09      	cmp	r4, #9
10003294:	d800      	bhi.n	10003298 <_vsnprintf+0x448>
10003296:	3807      	subs	r0, #7
10003298:	3201      	adds	r2, #1
1000329a:	54a8      	strb	r0, [r5, r2]
1000329c:	0919      	lsrs	r1, r3, #4
1000329e:	2b0f      	cmp	r3, #15
100032a0:	d8f0      	bhi.n	10003284 <_vsnprintf+0x434>
100032a2:	4664      	mov	r4, ip
100032a4:	9d09      	ldr	r5, [sp, #36]	; 0x24
100032a6:	e032      	b.n	1000330e <_vsnprintf+0x4be>
100032a8:	4bdc      	ldr	r3, [pc, #880]	; (1000361c <_vsnprintf+0x7cc>)
100032aa:	7820      	ldrb	r0, [r4, #0]
100032ac:	9308      	str	r3, [sp, #32]
100032ae:	2300      	movs	r3, #0
100032b0:	469a      	mov	sl, r3
100032b2:	2800      	cmp	r0, #0
100032b4:	d000      	beq.n	100032b8 <_vsnprintf+0x468>
100032b6:	e5e4      	b.n	10002e82 <_vsnprintf+0x32>
100032b8:	2400      	movs	r4, #0
100032ba:	e665      	b.n	10002f88 <_vsnprintf+0x138>
100032bc:	4643      	mov	r3, r8
100032be:	0006      	movs	r6, r0
100032c0:	9f0a      	ldr	r7, [sp, #40]	; 0x28
100032c2:	0098      	lsls	r0, r3, #2
100032c4:	18c0      	adds	r0, r0, r3
100032c6:	3201      	adds	r2, #1
100032c8:	0040      	lsls	r0, r0, #1
100032ca:	1980      	adds	r0, r0, r6
100032cc:	7816      	ldrb	r6, [r2, #0]
100032ce:	0003      	movs	r3, r0
100032d0:	0030      	movs	r0, r6
100032d2:	3830      	subs	r0, #48	; 0x30
100032d4:	3b30      	subs	r3, #48	; 0x30
100032d6:	2809      	cmp	r0, #9
100032d8:	d9f3      	bls.n	100032c2 <_vsnprintf+0x472>
100032da:	0030      	movs	r0, r6
100032dc:	4698      	mov	r8, r3
100032de:	0016      	movs	r6, r2
100032e0:	970a      	str	r7, [sp, #40]	; 0x28
100032e2:	e600      	b.n	10002ee6 <_vsnprintf+0x96>
100032e4:	9b09      	ldr	r3, [sp, #36]	; 0x24
100032e6:	3602      	adds	r6, #2
100032e8:	cb04      	ldmia	r3!, {r2}
100032ea:	4690      	mov	r8, r2
100032ec:	43d2      	mvns	r2, r2
100032ee:	4640      	mov	r0, r8
100032f0:	17d2      	asrs	r2, r2, #31
100032f2:	4010      	ands	r0, r2
100032f4:	4680      	mov	r8, r0
100032f6:	9309      	str	r3, [sp, #36]	; 0x24
100032f8:	7830      	ldrb	r0, [r6, #0]
100032fa:	e5f4      	b.n	10002ee6 <_vsnprintf+0x96>
100032fc:	2210      	movs	r2, #16
100032fe:	0008      	movs	r0, r1
10003300:	4390      	bics	r0, r2
10003302:	3211      	adds	r2, #17
10003304:	4310      	orrs	r0, r2
10003306:	4683      	mov	fp, r0
10003308:	2200      	movs	r2, #0
1000330a:	0549      	lsls	r1, r1, #21
1000330c:	d5b0      	bpl.n	10003270 <_vsnprintf+0x420>
1000330e:	465b      	mov	r3, fp
10003310:	9306      	str	r3, [sp, #24]
10003312:	2308      	movs	r3, #8
10003314:	9305      	str	r3, [sp, #20]
10003316:	4643      	mov	r3, r8
10003318:	9304      	str	r3, [sp, #16]
1000331a:	2310      	movs	r3, #16
1000331c:	9303      	str	r3, [sp, #12]
1000331e:	2300      	movs	r3, #0
10003320:	9302      	str	r3, [sp, #8]
10003322:	ab16      	add	r3, sp, #88	; 0x58
10003324:	9201      	str	r2, [sp, #4]
10003326:	9300      	str	r3, [sp, #0]
10003328:	002a      	movs	r2, r5
1000332a:	464b      	mov	r3, r9
1000332c:	0021      	movs	r1, r4
1000332e:	9808      	ldr	r0, [sp, #32]
10003330:	f7ff f8a6 	bl	10002480 <_ntoa_format>
10003334:	4653      	mov	r3, sl
10003336:	0005      	movs	r5, r0
10003338:	3601      	adds	r6, #1
1000333a:	9309      	str	r3, [sp, #36]	; 0x24
1000333c:	e5ad      	b.n	10002e9a <_vsnprintf+0x4a>
1000333e:	7813      	ldrb	r3, [r2, #0]
10003340:	469c      	mov	ip, r3
10003342:	2b00      	cmp	r3, #0
10003344:	d100      	bne.n	10003348 <_vsnprintf+0x4f8>
10003346:	e2f7      	b.n	10003938 <_vsnprintf+0xae8>
10003348:	2302      	movs	r3, #2
1000334a:	425b      	negs	r3, r3
1000334c:	e737      	b.n	100031be <_vsnprintf+0x36e>
1000334e:	2320      	movs	r3, #32
10003350:	0002      	movs	r2, r0
10003352:	439a      	bics	r2, r3
10003354:	2a47      	cmp	r2, #71	; 0x47
10003356:	d104      	bne.n	10003362 <_vsnprintf+0x512>
10003358:	2380      	movs	r3, #128	; 0x80
1000335a:	011b      	lsls	r3, r3, #4
1000335c:	4319      	orrs	r1, r3
1000335e:	2302      	movs	r3, #2
10003360:	4398      	bics	r0, r3
10003362:	2845      	cmp	r0, #69	; 0x45
10003364:	d101      	bne.n	1000336a <_vsnprintf+0x51a>
10003366:	2320      	movs	r3, #32
10003368:	4319      	orrs	r1, r3
1000336a:	2207      	movs	r2, #7
1000336c:	9b09      	ldr	r3, [sp, #36]	; 0x24
1000336e:	9104      	str	r1, [sp, #16]
10003370:	3307      	adds	r3, #7
10003372:	4393      	bics	r3, r2
10003374:	9a0a      	ldr	r2, [sp, #40]	; 0x28
10003376:	0019      	movs	r1, r3
10003378:	9203      	str	r2, [sp, #12]
1000337a:	4642      	mov	r2, r8
1000337c:	9202      	str	r2, [sp, #8]
1000337e:	c90c      	ldmia	r1!, {r2, r3}
10003380:	9808      	ldr	r0, [sp, #32]
10003382:	9200      	str	r2, [sp, #0]
10003384:	9301      	str	r3, [sp, #4]
10003386:	9109      	str	r1, [sp, #36]	; 0x24
10003388:	002a      	movs	r2, r5
1000338a:	464b      	mov	r3, r9
1000338c:	0021      	movs	r1, r4
1000338e:	f7ff f96d 	bl	1000266c <_etoa>
10003392:	3601      	adds	r6, #1
10003394:	0005      	movs	r5, r0
10003396:	e580      	b.n	10002e9a <_vsnprintf+0x4a>
10003398:	2310      	movs	r3, #16
1000339a:	930c      	str	r3, [sp, #48]	; 0x30
1000339c:	230c      	movs	r3, #12
1000339e:	000a      	movs	r2, r1
100033a0:	439a      	bics	r2, r3
100033a2:	920b      	str	r2, [sp, #44]	; 0x2c
100033a4:	054b      	lsls	r3, r1, #21
100033a6:	d503      	bpl.n	100033b0 <_vsnprintf+0x560>
100033a8:	2301      	movs	r3, #1
100033aa:	9a0b      	ldr	r2, [sp, #44]	; 0x2c
100033ac:	439a      	bics	r2, r3
100033ae:	920b      	str	r2, [sp, #44]	; 0x2c
100033b0:	2869      	cmp	r0, #105	; 0x69
100033b2:	d100      	bne.n	100033b6 <_vsnprintf+0x566>
100033b4:	e627      	b.n	10003006 <_vsnprintf+0x1b6>
100033b6:	2864      	cmp	r0, #100	; 0x64
100033b8:	d100      	bne.n	100033bc <_vsnprintf+0x56c>
100033ba:	e624      	b.n	10003006 <_vsnprintf+0x1b6>
100033bc:	9a0b      	ldr	r2, [sp, #44]	; 0x2c
100033be:	2380      	movs	r3, #128	; 0x80
100033c0:	0011      	movs	r1, r2
100033c2:	009b      	lsls	r3, r3, #2
100033c4:	4019      	ands	r1, r3
100033c6:	468b      	mov	fp, r1
100033c8:	421a      	tst	r2, r3
100033ca:	d000      	beq.n	100033ce <_vsnprintf+0x57e>
100033cc:	e166      	b.n	1000369c <_vsnprintf+0x84c>
100033ce:	2380      	movs	r3, #128	; 0x80
100033d0:	0011      	movs	r1, r2
100033d2:	005b      	lsls	r3, r3, #1
100033d4:	4019      	ands	r1, r3
100033d6:	468a      	mov	sl, r1
100033d8:	421a      	tst	r2, r3
100033da:	d000      	beq.n	100033de <_vsnprintf+0x58e>
100033dc:	e239      	b.n	10003852 <_vsnprintf+0xa02>
100033de:	0013      	movs	r3, r2
100033e0:	065b      	lsls	r3, r3, #25
100033e2:	d500      	bpl.n	100033e6 <_vsnprintf+0x596>
100033e4:	e13c      	b.n	10003660 <_vsnprintf+0x810>
100033e6:	0013      	movs	r3, r2
100033e8:	061b      	lsls	r3, r3, #24
100033ea:	d400      	bmi.n	100033ee <_vsnprintf+0x59e>
100033ec:	e2a6      	b.n	1000393c <_vsnprintf+0xaec>
100033ee:	9b09      	ldr	r3, [sp, #36]	; 0x24
100033f0:	cb04      	ldmia	r3!, {r2}
100033f2:	0412      	lsls	r2, r2, #16
100033f4:	0c12      	lsrs	r2, r2, #16
100033f6:	4693      	mov	fp, r2
100033f8:	9309      	str	r3, [sp, #36]	; 0x24
100033fa:	465b      	mov	r3, fp
100033fc:	2b00      	cmp	r3, #0
100033fe:	d000      	beq.n	10003402 <_vsnprintf+0x5b2>
10003400:	e19a      	b.n	10003738 <_vsnprintf+0x8e8>
10003402:	9a0b      	ldr	r2, [sp, #44]	; 0x2c
10003404:	3310      	adds	r3, #16
10003406:	0011      	movs	r1, r2
10003408:	4399      	bics	r1, r3
1000340a:	910b      	str	r1, [sp, #44]	; 0x2c
1000340c:	0552      	lsls	r2, r2, #21
1000340e:	d400      	bmi.n	10003412 <_vsnprintf+0x5c2>
10003410:	e192      	b.n	10003738 <_vsnprintf+0x8e8>
10003412:	2300      	movs	r3, #0
10003414:	469a      	mov	sl, r3
10003416:	9b0b      	ldr	r3, [sp, #44]	; 0x2c
10003418:	9306      	str	r3, [sp, #24]
1000341a:	9b0a      	ldr	r3, [sp, #40]	; 0x28
1000341c:	9305      	str	r3, [sp, #20]
1000341e:	4643      	mov	r3, r8
10003420:	9304      	str	r3, [sp, #16]
10003422:	9b0c      	ldr	r3, [sp, #48]	; 0x30
10003424:	9303      	str	r3, [sp, #12]
10003426:	2300      	movs	r3, #0
10003428:	e10c      	b.n	10003644 <_vsnprintf+0x7f4>
1000342a:	2320      	movs	r3, #32
1000342c:	4319      	orrs	r1, r3
1000342e:	e660      	b.n	100030f2 <_vsnprintf+0x2a2>
10003430:	9b09      	ldr	r3, [sp, #36]	; 0x24
10003432:	9a0a      	ldr	r2, [sp, #40]	; 0x28
10003434:	1b5b      	subs	r3, r3, r5
10003436:	4698      	mov	r8, r3
10003438:	464b      	mov	r3, r9
1000343a:	4691      	mov	r9, r2
1000343c:	001f      	movs	r7, r3
1000343e:	46b2      	mov	sl, r6
10003440:	0026      	movs	r6, r4
10003442:	9c08      	ldr	r4, [sp, #32]
10003444:	002a      	movs	r2, r5
10003446:	003b      	movs	r3, r7
10003448:	0031      	movs	r1, r6
1000344a:	47a0      	blx	r4
1000344c:	4643      	mov	r3, r8
1000344e:	3501      	adds	r5, #1
10003450:	5d58      	ldrb	r0, [r3, r5]
10003452:	2800      	cmp	r0, #0
10003454:	d1f6      	bne.n	10003444 <_vsnprintf+0x5f4>
10003456:	464a      	mov	r2, r9
10003458:	0034      	movs	r4, r6
1000345a:	46b9      	mov	r9, r7
1000345c:	4656      	mov	r6, sl
1000345e:	920a      	str	r2, [sp, #40]	; 0x28
10003460:	e6f5      	b.n	1000324e <_vsnprintf+0x3fe>
10003462:	23c0      	movs	r3, #192	; 0xc0
10003464:	009b      	lsls	r3, r3, #2
10003466:	78b0      	ldrb	r0, [r6, #2]
10003468:	4319      	orrs	r1, r3
1000346a:	3602      	adds	r6, #2
1000346c:	e55d      	b.n	10002f2a <_vsnprintf+0xda>
1000346e:	23c0      	movs	r3, #192	; 0xc0
10003470:	78b0      	ldrb	r0, [r6, #2]
10003472:	4319      	orrs	r1, r3
10003474:	3602      	adds	r6, #2
10003476:	e558      	b.n	10002f2a <_vsnprintf+0xda>
10003478:	230c      	movs	r3, #12
1000347a:	000a      	movs	r2, r1
1000347c:	439a      	bics	r2, r3
1000347e:	3314      	adds	r3, #20
10003480:	431a      	orrs	r2, r3
10003482:	3b10      	subs	r3, #16
10003484:	920b      	str	r2, [sp, #44]	; 0x2c
10003486:	930c      	str	r3, [sp, #48]	; 0x30
10003488:	054b      	lsls	r3, r1, #21
1000348a:	d48d      	bmi.n	100033a8 <_vsnprintf+0x558>
1000348c:	e796      	b.n	100033bc <_vsnprintf+0x56c>
1000348e:	46a1      	mov	r9, r4
10003490:	0034      	movs	r4, r6
10003492:	4656      	mov	r6, sl
10003494:	e6db      	b.n	1000324e <_vsnprintf+0x3fe>
10003496:	9a0a      	ldr	r2, [sp, #40]	; 0x28
10003498:	2a01      	cmp	r2, #1
1000349a:	d800      	bhi.n	1000349e <_vsnprintf+0x64e>
1000349c:	e253      	b.n	10003946 <_vsnprintf+0xaf6>
1000349e:	1e6b      	subs	r3, r5, #1
100034a0:	189f      	adds	r7, r3, r2
100034a2:	9b08      	ldr	r3, [sp, #32]
100034a4:	46b0      	mov	r8, r6
100034a6:	0026      	movs	r6, r4
100034a8:	464c      	mov	r4, r9
100034aa:	4699      	mov	r9, r3
100034ac:	002a      	movs	r2, r5
100034ae:	0023      	movs	r3, r4
100034b0:	3501      	adds	r5, #1
100034b2:	0031      	movs	r1, r6
100034b4:	2020      	movs	r0, #32
100034b6:	47c8      	blx	r9
100034b8:	42bd      	cmp	r5, r7
100034ba:	d1f7      	bne.n	100034ac <_vsnprintf+0x65c>
100034bc:	46a1      	mov	r9, r4
100034be:	0034      	movs	r4, r6
100034c0:	4646      	mov	r6, r8
100034c2:	9b09      	ldr	r3, [sp, #36]	; 0x24
100034c4:	003a      	movs	r2, r7
100034c6:	cb01      	ldmia	r3!, {r0}
100034c8:	0021      	movs	r1, r4
100034ca:	4698      	mov	r8, r3
100034cc:	1c7d      	adds	r5, r7, #1
100034ce:	464b      	mov	r3, r9
100034d0:	9f08      	ldr	r7, [sp, #32]
100034d2:	b2c0      	uxtb	r0, r0
100034d4:	47b8      	blx	r7
100034d6:	4643      	mov	r3, r8
100034d8:	3601      	adds	r6, #1
100034da:	9309      	str	r3, [sp, #36]	; 0x24
100034dc:	e4dd      	b.n	10002e9a <_vsnprintf+0x4a>
100034de:	9b0b      	ldr	r3, [sp, #44]	; 0x2c
100034e0:	9a0a      	ldr	r2, [sp, #40]	; 0x28
100034e2:	46a8      	mov	r8, r5
100034e4:	429a      	cmp	r2, r3
100034e6:	d800      	bhi.n	100034ea <_vsnprintf+0x69a>
100034e8:	e6b5      	b.n	10003256 <_vsnprintf+0x406>
100034ea:	4694      	mov	ip, r2
100034ec:	4465      	add	r5, ip
100034ee:	1aed      	subs	r5, r5, r3
100034f0:	9b08      	ldr	r3, [sp, #32]
100034f2:	4647      	mov	r7, r8
100034f4:	46b0      	mov	r8, r6
100034f6:	0026      	movs	r6, r4
100034f8:	464c      	mov	r4, r9
100034fa:	4699      	mov	r9, r3
100034fc:	003a      	movs	r2, r7
100034fe:	0023      	movs	r3, r4
10003500:	3701      	adds	r7, #1
10003502:	0031      	movs	r1, r6
10003504:	2020      	movs	r0, #32
10003506:	47c8      	blx	r9
10003508:	42af      	cmp	r7, r5
1000350a:	d1f7      	bne.n	100034fc <_vsnprintf+0x6ac>
1000350c:	46a1      	mov	r9, r4
1000350e:	0034      	movs	r4, r6
10003510:	4646      	mov	r6, r8
10003512:	e6a0      	b.n	10003256 <_vsnprintf+0x406>
10003514:	9a0b      	ldr	r2, [sp, #44]	; 0x2c
10003516:	990a      	ldr	r1, [sp, #40]	; 0x28
10003518:	1c53      	adds	r3, r2, #1
1000351a:	4291      	cmp	r1, r2
1000351c:	d800      	bhi.n	10003520 <_vsnprintf+0x6d0>
1000351e:	e214      	b.n	1000394a <_vsnprintf+0xafa>
10003520:	194b      	adds	r3, r1, r5
10003522:	1a9b      	subs	r3, r3, r2
10003524:	001f      	movs	r7, r3
10003526:	9b08      	ldr	r3, [sp, #32]
10003528:	46b2      	mov	sl, r6
1000352a:	0026      	movs	r6, r4
1000352c:	464c      	mov	r4, r9
1000352e:	4699      	mov	r9, r3
10003530:	002a      	movs	r2, r5
10003532:	0023      	movs	r3, r4
10003534:	3501      	adds	r5, #1
10003536:	0031      	movs	r1, r6
10003538:	2020      	movs	r0, #32
1000353a:	47c8      	blx	r9
1000353c:	42bd      	cmp	r5, r7
1000353e:	d1f7      	bne.n	10003530 <_vsnprintf+0x6e0>
10003540:	9b0a      	ldr	r3, [sp, #40]	; 0x28
10003542:	46a1      	mov	r9, r4
10003544:	3301      	adds	r3, #1
10003546:	930b      	str	r3, [sp, #44]	; 0x2c
10003548:	9b09      	ldr	r3, [sp, #36]	; 0x24
1000354a:	0034      	movs	r4, r6
1000354c:	781b      	ldrb	r3, [r3, #0]
1000354e:	4656      	mov	r6, sl
10003550:	469c      	mov	ip, r3
10003552:	4660      	mov	r0, ip
10003554:	2800      	cmp	r0, #0
10003556:	d000      	beq.n	1000355a <_vsnprintf+0x70a>
10003558:	e658      	b.n	1000320c <_vsnprintf+0x3bc>
1000355a:	e67c      	b.n	10003256 <_vsnprintf+0x406>
1000355c:	2207      	movs	r2, #7
1000355e:	9b09      	ldr	r3, [sp, #36]	; 0x24
10003560:	3307      	adds	r3, #7
10003562:	4393      	bics	r3, r2
10003564:	3201      	adds	r2, #1
10003566:	4694      	mov	ip, r2
10003568:	449c      	add	ip, r3
1000356a:	4662      	mov	r2, ip
1000356c:	685f      	ldr	r7, [r3, #4]
1000356e:	9209      	str	r2, [sp, #36]	; 0x24
10003570:	681a      	ldr	r2, [r3, #0]
10003572:	17fb      	asrs	r3, r7, #31
10003574:	9310      	str	r3, [sp, #64]	; 0x40
10003576:	9311      	str	r3, [sp, #68]	; 0x44
10003578:	9810      	ldr	r0, [sp, #64]	; 0x40
1000357a:	9911      	ldr	r1, [sp, #68]	; 0x44
1000357c:	0003      	movs	r3, r0
1000357e:	4053      	eors	r3, r2
10003580:	930e      	str	r3, [sp, #56]	; 0x38
10003582:	000b      	movs	r3, r1
10003584:	407b      	eors	r3, r7
10003586:	930f      	str	r3, [sp, #60]	; 0x3c
10003588:	4694      	mov	ip, r2
1000358a:	9a0e      	ldr	r2, [sp, #56]	; 0x38
1000358c:	9b0f      	ldr	r3, [sp, #60]	; 0x3c
1000358e:	1a12      	subs	r2, r2, r0
10003590:	418b      	sbcs	r3, r1
10003592:	920e      	str	r2, [sp, #56]	; 0x38
10003594:	930f      	str	r3, [sp, #60]	; 0x3c
10003596:	0ffb      	lsrs	r3, r7, #31
10003598:	4662      	mov	r2, ip
1000359a:	9312      	str	r3, [sp, #72]	; 0x48
1000359c:	2300      	movs	r3, #0
1000359e:	433a      	orrs	r2, r7
100035a0:	469b      	mov	fp, r3
100035a2:	d03d      	beq.n	10003620 <_vsnprintf+0x7d0>
100035a4:	9a0b      	ldr	r2, [sp, #44]	; 0x2c
100035a6:	2361      	movs	r3, #97	; 0x61
100035a8:	0692      	lsls	r2, r2, #26
100035aa:	d500      	bpl.n	100035ae <_vsnprintf+0x75e>
100035ac:	2341      	movs	r3, #65	; 0x41
100035ae:	2200      	movs	r2, #0
100035b0:	b2db      	uxtb	r3, r3
100035b2:	a90e      	add	r1, sp, #56	; 0x38
100035b4:	3b0a      	subs	r3, #10
100035b6:	468c      	mov	ip, r1
100035b8:	4692      	mov	sl, r2
100035ba:	930d      	str	r3, [sp, #52]	; 0x34
100035bc:	4643      	mov	r3, r8
100035be:	321f      	adds	r2, #31
100035c0:	4462      	add	r2, ip
100035c2:	9513      	str	r5, [sp, #76]	; 0x4c
100035c4:	9615      	str	r6, [sp, #84]	; 0x54
100035c6:	4655      	mov	r5, sl
100035c8:	9e0e      	ldr	r6, [sp, #56]	; 0x38
100035ca:	9f0f      	ldr	r7, [sp, #60]	; 0x3c
100035cc:	46a2      	mov	sl, r4
100035ce:	4690      	mov	r8, r2
100035d0:	9c0c      	ldr	r4, [sp, #48]	; 0x30
100035d2:	9314      	str	r3, [sp, #80]	; 0x50
100035d4:	e00c      	b.n	100035f0 <_vsnprintf+0x7a0>
100035d6:	3230      	adds	r2, #48	; 0x30
100035d8:	b2d2      	uxtb	r2, r2
100035da:	4643      	mov	r3, r8
100035dc:	3501      	adds	r5, #1
100035de:	555a      	strb	r2, [r3, r5]
100035e0:	45bb      	cmp	fp, r7
100035e2:	d100      	bne.n	100035e6 <_vsnprintf+0x796>
100035e4:	e18a      	b.n	100038fc <_vsnprintf+0xaac>
100035e6:	2d20      	cmp	r5, #32
100035e8:	d100      	bne.n	100035ec <_vsnprintf+0x79c>
100035ea:	e18a      	b.n	10003902 <_vsnprintf+0xab2>
100035ec:	0006      	movs	r6, r0
100035ee:	000f      	movs	r7, r1
100035f0:	0022      	movs	r2, r4
100035f2:	2300      	movs	r3, #0
100035f4:	0030      	movs	r0, r6
100035f6:	0039      	movs	r1, r7
100035f8:	f000 fa78 	bl	10003aec <__wrap___aeabi_uldivmod>
100035fc:	b2d2      	uxtb	r2, r2
100035fe:	2a09      	cmp	r2, #9
10003600:	d9e9      	bls.n	100035d6 <_vsnprintf+0x786>
10003602:	9b0d      	ldr	r3, [sp, #52]	; 0x34
10003604:	469c      	mov	ip, r3
10003606:	4462      	add	r2, ip
10003608:	b2d2      	uxtb	r2, r2
1000360a:	e7e6      	b.n	100035da <_vsnprintf+0x78a>
1000360c:	23ff      	movs	r3, #255	; 0xff
1000360e:	9909      	ldr	r1, [sp, #36]	; 0x24
10003610:	c904      	ldmia	r1!, {r2}
10003612:	4013      	ands	r3, r2
10003614:	001a      	movs	r2, r3
10003616:	9109      	str	r1, [sp, #36]	; 0x24
10003618:	e517      	b.n	1000304a <_vsnprintf+0x1fa>
1000361a:	46c0      	nop			; (mov r8, r8)
1000361c:	100023e1 	.word	0x100023e1
10003620:	9a0b      	ldr	r2, [sp, #44]	; 0x2c
10003622:	3310      	adds	r3, #16
10003624:	0011      	movs	r1, r2
10003626:	4399      	bics	r1, r3
10003628:	910b      	str	r1, [sp, #44]	; 0x2c
1000362a:	0552      	lsls	r2, r2, #21
1000362c:	d5ba      	bpl.n	100035a4 <_vsnprintf+0x754>
1000362e:	2300      	movs	r3, #0
10003630:	469a      	mov	sl, r3
10003632:	9b0b      	ldr	r3, [sp, #44]	; 0x2c
10003634:	9306      	str	r3, [sp, #24]
10003636:	9b0a      	ldr	r3, [sp, #40]	; 0x28
10003638:	9305      	str	r3, [sp, #20]
1000363a:	4643      	mov	r3, r8
1000363c:	9304      	str	r3, [sp, #16]
1000363e:	9b0c      	ldr	r3, [sp, #48]	; 0x30
10003640:	9303      	str	r3, [sp, #12]
10003642:	9b12      	ldr	r3, [sp, #72]	; 0x48
10003644:	9302      	str	r3, [sp, #8]
10003646:	4653      	mov	r3, sl
10003648:	9301      	str	r3, [sp, #4]
1000364a:	ab16      	add	r3, sp, #88	; 0x58
1000364c:	002a      	movs	r2, r5
1000364e:	9300      	str	r3, [sp, #0]
10003650:	0021      	movs	r1, r4
10003652:	464b      	mov	r3, r9
10003654:	9808      	ldr	r0, [sp, #32]
10003656:	f7fe ff13 	bl	10002480 <_ntoa_format>
1000365a:	3601      	adds	r6, #1
1000365c:	0005      	movs	r5, r0
1000365e:	e41c      	b.n	10002e9a <_vsnprintf+0x4a>
10003660:	22ff      	movs	r2, #255	; 0xff
10003662:	9b09      	ldr	r3, [sp, #36]	; 0x24
10003664:	cb02      	ldmia	r3!, {r1}
10003666:	4011      	ands	r1, r2
10003668:	468b      	mov	fp, r1
1000366a:	9309      	str	r3, [sp, #36]	; 0x24
1000366c:	e6c5      	b.n	100033fa <_vsnprintf+0x5aa>
1000366e:	4653      	mov	r3, sl
10003670:	4645      	mov	r5, r8
10003672:	9309      	str	r3, [sp, #36]	; 0x24
10003674:	3601      	adds	r6, #1
10003676:	f7ff fc10 	bl	10002e9a <_vsnprintf+0x4a>
1000367a:	4656      	mov	r6, sl
1000367c:	465c      	mov	r4, fp
1000367e:	46aa      	mov	sl, r5
10003680:	9d13      	ldr	r5, [sp, #76]	; 0x4c
10003682:	e7d6      	b.n	10003632 <_vsnprintf+0x7e2>
10003684:	2308      	movs	r3, #8
10003686:	930c      	str	r3, [sp, #48]	; 0x30
10003688:	910b      	str	r1, [sp, #44]	; 0x2c
1000368a:	990b      	ldr	r1, [sp, #44]	; 0x2c
1000368c:	2864      	cmp	r0, #100	; 0x64
1000368e:	d000      	beq.n	10003692 <_vsnprintf+0x842>
10003690:	e684      	b.n	1000339c <_vsnprintf+0x54c>
10003692:	9b0b      	ldr	r3, [sp, #44]	; 0x2c
10003694:	055b      	lsls	r3, r3, #21
10003696:	d500      	bpl.n	1000369a <_vsnprintf+0x84a>
10003698:	e686      	b.n	100033a8 <_vsnprintf+0x558>
1000369a:	e4b4      	b.n	10003006 <_vsnprintf+0x1b6>
1000369c:	2207      	movs	r2, #7
1000369e:	9b09      	ldr	r3, [sp, #36]	; 0x24
100036a0:	3307      	adds	r3, #7
100036a2:	4393      	bics	r3, r2
100036a4:	3201      	adds	r2, #1
100036a6:	4694      	mov	ip, r2
100036a8:	449c      	add	ip, r3
100036aa:	4662      	mov	r2, ip
100036ac:	9209      	str	r2, [sp, #36]	; 0x24
100036ae:	681a      	ldr	r2, [r3, #0]
100036b0:	685b      	ldr	r3, [r3, #4]
100036b2:	0010      	movs	r0, r2
100036b4:	469b      	mov	fp, r3
100036b6:	0013      	movs	r3, r2
100036b8:	465a      	mov	r2, fp
100036ba:	4313      	orrs	r3, r2
100036bc:	d107      	bne.n	100036ce <_vsnprintf+0x87e>
100036be:	9a0b      	ldr	r2, [sp, #44]	; 0x2c
100036c0:	3310      	adds	r3, #16
100036c2:	0011      	movs	r1, r2
100036c4:	4399      	bics	r1, r3
100036c6:	910b      	str	r1, [sp, #44]	; 0x2c
100036c8:	0552      	lsls	r2, r2, #21
100036ca:	d500      	bpl.n	100036ce <_vsnprintf+0x87e>
100036cc:	e6a1      	b.n	10003412 <_vsnprintf+0x5c2>
100036ce:	9a0b      	ldr	r2, [sp, #44]	; 0x2c
100036d0:	2361      	movs	r3, #97	; 0x61
100036d2:	0692      	lsls	r2, r2, #26
100036d4:	d500      	bpl.n	100036d8 <_vsnprintf+0x888>
100036d6:	2341      	movs	r3, #65	; 0x41
100036d8:	2200      	movs	r2, #0
100036da:	b2db      	uxtb	r3, r3
100036dc:	a90e      	add	r1, sp, #56	; 0x38
100036de:	3b0a      	subs	r3, #10
100036e0:	468c      	mov	ip, r1
100036e2:	4692      	mov	sl, r2
100036e4:	930d      	str	r3, [sp, #52]	; 0x34
100036e6:	4643      	mov	r3, r8
100036e8:	321f      	adds	r2, #31
100036ea:	4462      	add	r2, ip
100036ec:	465f      	mov	r7, fp
100036ee:	9512      	str	r5, [sp, #72]	; 0x48
100036f0:	46a3      	mov	fp, r4
100036f2:	4655      	mov	r5, sl
100036f4:	0004      	movs	r4, r0
100036f6:	46b2      	mov	sl, r6
100036f8:	4690      	mov	r8, r2
100036fa:	9e0c      	ldr	r6, [sp, #48]	; 0x30
100036fc:	9313      	str	r3, [sp, #76]	; 0x4c
100036fe:	e00d      	b.n	1000371c <_vsnprintf+0x8cc>
10003700:	3230      	adds	r2, #48	; 0x30
10003702:	b2d2      	uxtb	r2, r2
10003704:	4643      	mov	r3, r8
10003706:	3501      	adds	r5, #1
10003708:	555a      	strb	r2, [r3, r5]
1000370a:	2300      	movs	r3, #0
1000370c:	42bb      	cmp	r3, r7
1000370e:	d100      	bne.n	10003712 <_vsnprintf+0x8c2>
10003710:	e100      	b.n	10003914 <_vsnprintf+0xac4>
10003712:	2d20      	cmp	r5, #32
10003714:	d100      	bne.n	10003718 <_vsnprintf+0x8c8>
10003716:	e100      	b.n	1000391a <_vsnprintf+0xaca>
10003718:	0004      	movs	r4, r0
1000371a:	000f      	movs	r7, r1
1000371c:	0032      	movs	r2, r6
1000371e:	2300      	movs	r3, #0
10003720:	0020      	movs	r0, r4
10003722:	0039      	movs	r1, r7
10003724:	f000 f9e2 	bl	10003aec <__wrap___aeabi_uldivmod>
10003728:	b2d2      	uxtb	r2, r2
1000372a:	2a09      	cmp	r2, #9
1000372c:	d9e8      	bls.n	10003700 <_vsnprintf+0x8b0>
1000372e:	9b0d      	ldr	r3, [sp, #52]	; 0x34
10003730:	469c      	mov	ip, r3
10003732:	4462      	add	r2, ip
10003734:	b2d2      	uxtb	r2, r2
10003736:	e7e5      	b.n	10003704 <_vsnprintf+0x8b4>
10003738:	9a0b      	ldr	r2, [sp, #44]	; 0x2c
1000373a:	2361      	movs	r3, #97	; 0x61
1000373c:	0692      	lsls	r2, r2, #26
1000373e:	d500      	bpl.n	10003742 <_vsnprintf+0x8f2>
10003740:	2341      	movs	r3, #65	; 0x41
10003742:	b2db      	uxtb	r3, r3
10003744:	a90e      	add	r1, sp, #56	; 0x38
10003746:	3b0a      	subs	r3, #10
10003748:	221f      	movs	r2, #31
1000374a:	468c      	mov	ip, r1
1000374c:	930d      	str	r3, [sp, #52]	; 0x34
1000374e:	0023      	movs	r3, r4
10003750:	4462      	add	r2, ip
10003752:	465c      	mov	r4, fp
10003754:	9512      	str	r5, [sp, #72]	; 0x48
10003756:	0017      	movs	r7, r2
10003758:	4655      	mov	r5, sl
1000375a:	469b      	mov	fp, r3
1000375c:	46b2      	mov	sl, r6
1000375e:	9e0c      	ldr	r6, [sp, #48]	; 0x30
10003760:	e008      	b.n	10003774 <_vsnprintf+0x924>
10003762:	3330      	adds	r3, #48	; 0x30
10003764:	b2db      	uxtb	r3, r3
10003766:	3501      	adds	r5, #1
10003768:	557b      	strb	r3, [r7, r5]
1000376a:	42b4      	cmp	r4, r6
1000376c:	d30e      	bcc.n	1000378c <_vsnprintf+0x93c>
1000376e:	2d20      	cmp	r5, #32
10003770:	d00c      	beq.n	1000378c <_vsnprintf+0x93c>
10003772:	0004      	movs	r4, r0
10003774:	0031      	movs	r1, r6
10003776:	0020      	movs	r0, r4
10003778:	f000 f976 	bl	10003a68 <__wrap___aeabi_uidiv>
1000377c:	b2cb      	uxtb	r3, r1
1000377e:	2909      	cmp	r1, #9
10003780:	d9ef      	bls.n	10003762 <_vsnprintf+0x912>
10003782:	9a0d      	ldr	r2, [sp, #52]	; 0x34
10003784:	4694      	mov	ip, r2
10003786:	4463      	add	r3, ip
10003788:	b2db      	uxtb	r3, r3
1000378a:	e7ec      	b.n	10003766 <_vsnprintf+0x916>
1000378c:	4656      	mov	r6, sl
1000378e:	465c      	mov	r4, fp
10003790:	46aa      	mov	sl, r5
10003792:	9d12      	ldr	r5, [sp, #72]	; 0x48
10003794:	e63f      	b.n	10003416 <_vsnprintf+0x5c6>
10003796:	9b09      	ldr	r3, [sp, #36]	; 0x24
10003798:	001a      	movs	r2, r3
1000379a:	ca08      	ldmia	r2!, {r3}
1000379c:	17d9      	asrs	r1, r3, #31
1000379e:	9213      	str	r2, [sp, #76]	; 0x4c
100037a0:	185a      	adds	r2, r3, r1
100037a2:	404a      	eors	r2, r1
100037a4:	4692      	mov	sl, r2
100037a6:	0fda      	lsrs	r2, r3, #31
100037a8:	9212      	str	r2, [sp, #72]	; 0x48
100037aa:	2b00      	cmp	r3, #0
100037ac:	d108      	bne.n	100037c0 <_vsnprintf+0x970>
100037ae:	2380      	movs	r3, #128	; 0x80
100037b0:	2210      	movs	r2, #16
100037b2:	990b      	ldr	r1, [sp, #44]	; 0x2c
100037b4:	00db      	lsls	r3, r3, #3
100037b6:	400b      	ands	r3, r1
100037b8:	4391      	bics	r1, r2
100037ba:	910b      	str	r1, [sp, #44]	; 0x2c
100037bc:	2b00      	cmp	r3, #0
100037be:	d12b      	bne.n	10003818 <_vsnprintf+0x9c8>
100037c0:	9a0b      	ldr	r2, [sp, #44]	; 0x2c
100037c2:	2361      	movs	r3, #97	; 0x61
100037c4:	0692      	lsls	r2, r2, #26
100037c6:	d500      	bpl.n	100037ca <_vsnprintf+0x97a>
100037c8:	2341      	movs	r3, #65	; 0x41
100037ca:	aa0e      	add	r2, sp, #56	; 0x38
100037cc:	271f      	movs	r7, #31
100037ce:	4694      	mov	ip, r2
100037d0:	b2db      	uxtb	r3, r3
100037d2:	3b0a      	subs	r3, #10
100037d4:	950d      	str	r5, [sp, #52]	; 0x34
100037d6:	4467      	add	r7, ip
100037d8:	465d      	mov	r5, fp
100037da:	9309      	str	r3, [sp, #36]	; 0x24
100037dc:	46a3      	mov	fp, r4
100037de:	4654      	mov	r4, sl
100037e0:	46b2      	mov	sl, r6
100037e2:	9e0c      	ldr	r6, [sp, #48]	; 0x30
100037e4:	e008      	b.n	100037f8 <_vsnprintf+0x9a8>
100037e6:	3330      	adds	r3, #48	; 0x30
100037e8:	b2db      	uxtb	r3, r3
100037ea:	3501      	adds	r5, #1
100037ec:	557b      	strb	r3, [r7, r5]
100037ee:	42b4      	cmp	r4, r6
100037f0:	d30e      	bcc.n	10003810 <_vsnprintf+0x9c0>
100037f2:	2d20      	cmp	r5, #32
100037f4:	d00c      	beq.n	10003810 <_vsnprintf+0x9c0>
100037f6:	0004      	movs	r4, r0
100037f8:	0031      	movs	r1, r6
100037fa:	0020      	movs	r0, r4
100037fc:	f000 f934 	bl	10003a68 <__wrap___aeabi_uidiv>
10003800:	b2cb      	uxtb	r3, r1
10003802:	2909      	cmp	r1, #9
10003804:	d9ef      	bls.n	100037e6 <_vsnprintf+0x996>
10003806:	9a09      	ldr	r2, [sp, #36]	; 0x24
10003808:	4694      	mov	ip, r2
1000380a:	4463      	add	r3, ip
1000380c:	b2db      	uxtb	r3, r3
1000380e:	e7ec      	b.n	100037ea <_vsnprintf+0x99a>
10003810:	4656      	mov	r6, sl
10003812:	465c      	mov	r4, fp
10003814:	46ab      	mov	fp, r5
10003816:	9d0d      	ldr	r5, [sp, #52]	; 0x34
10003818:	9b0b      	ldr	r3, [sp, #44]	; 0x2c
1000381a:	002a      	movs	r2, r5
1000381c:	9306      	str	r3, [sp, #24]
1000381e:	9b0a      	ldr	r3, [sp, #40]	; 0x28
10003820:	0021      	movs	r1, r4
10003822:	9305      	str	r3, [sp, #20]
10003824:	4643      	mov	r3, r8
10003826:	9304      	str	r3, [sp, #16]
10003828:	9b0c      	ldr	r3, [sp, #48]	; 0x30
1000382a:	9808      	ldr	r0, [sp, #32]
1000382c:	9303      	str	r3, [sp, #12]
1000382e:	9b12      	ldr	r3, [sp, #72]	; 0x48
10003830:	3601      	adds	r6, #1
10003832:	9302      	str	r3, [sp, #8]
10003834:	465b      	mov	r3, fp
10003836:	9301      	str	r3, [sp, #4]
10003838:	ab16      	add	r3, sp, #88	; 0x58
1000383a:	9300      	str	r3, [sp, #0]
1000383c:	464b      	mov	r3, r9
1000383e:	f7fe fe1f 	bl	10002480 <_ntoa_format>
10003842:	9b13      	ldr	r3, [sp, #76]	; 0x4c
10003844:	0005      	movs	r5, r0
10003846:	9309      	str	r3, [sp, #36]	; 0x24
10003848:	f7ff fb27 	bl	10002e9a <_vsnprintf+0x4a>
1000384c:	2302      	movs	r3, #2
1000384e:	930c      	str	r3, [sp, #48]	; 0x30
10003850:	e71a      	b.n	10003688 <_vsnprintf+0x838>
10003852:	9b09      	ldr	r3, [sp, #36]	; 0x24
10003854:	cb04      	ldmia	r3!, {r2}
10003856:	4692      	mov	sl, r2
10003858:	9312      	str	r3, [sp, #72]	; 0x48
1000385a:	2a00      	cmp	r2, #0
1000385c:	d108      	bne.n	10003870 <_vsnprintf+0xa20>
1000385e:	2380      	movs	r3, #128	; 0x80
10003860:	2210      	movs	r2, #16
10003862:	990b      	ldr	r1, [sp, #44]	; 0x2c
10003864:	00db      	lsls	r3, r3, #3
10003866:	400b      	ands	r3, r1
10003868:	4391      	bics	r1, r2
1000386a:	910b      	str	r1, [sp, #44]	; 0x2c
1000386c:	2b00      	cmp	r3, #0
1000386e:	d12b      	bne.n	100038c8 <_vsnprintf+0xa78>
10003870:	9a0b      	ldr	r2, [sp, #44]	; 0x2c
10003872:	2361      	movs	r3, #97	; 0x61
10003874:	0692      	lsls	r2, r2, #26
10003876:	d500      	bpl.n	1000387a <_vsnprintf+0xa2a>
10003878:	2341      	movs	r3, #65	; 0x41
1000387a:	aa0e      	add	r2, sp, #56	; 0x38
1000387c:	271f      	movs	r7, #31
1000387e:	4694      	mov	ip, r2
10003880:	b2db      	uxtb	r3, r3
10003882:	3b0a      	subs	r3, #10
10003884:	950d      	str	r5, [sp, #52]	; 0x34
10003886:	4467      	add	r7, ip
10003888:	465d      	mov	r5, fp
1000388a:	9309      	str	r3, [sp, #36]	; 0x24
1000388c:	46a3      	mov	fp, r4
1000388e:	4654      	mov	r4, sl
10003890:	46b2      	mov	sl, r6
10003892:	9e0c      	ldr	r6, [sp, #48]	; 0x30
10003894:	e008      	b.n	100038a8 <_vsnprintf+0xa58>
10003896:	3330      	adds	r3, #48	; 0x30
10003898:	b2db      	uxtb	r3, r3
1000389a:	3501      	adds	r5, #1
1000389c:	557b      	strb	r3, [r7, r5]
1000389e:	42b4      	cmp	r4, r6
100038a0:	d30e      	bcc.n	100038c0 <_vsnprintf+0xa70>
100038a2:	2d20      	cmp	r5, #32
100038a4:	d00c      	beq.n	100038c0 <_vsnprintf+0xa70>
100038a6:	0004      	movs	r4, r0
100038a8:	0031      	movs	r1, r6
100038aa:	0020      	movs	r0, r4
100038ac:	f000 f8dc 	bl	10003a68 <__wrap___aeabi_uidiv>
100038b0:	b2cb      	uxtb	r3, r1
100038b2:	2909      	cmp	r1, #9
100038b4:	d9ef      	bls.n	10003896 <_vsnprintf+0xa46>
100038b6:	9a09      	ldr	r2, [sp, #36]	; 0x24
100038b8:	4694      	mov	ip, r2
100038ba:	4463      	add	r3, ip
100038bc:	b2db      	uxtb	r3, r3
100038be:	e7ec      	b.n	1000389a <_vsnprintf+0xa4a>
100038c0:	4656      	mov	r6, sl
100038c2:	465c      	mov	r4, fp
100038c4:	46ab      	mov	fp, r5
100038c6:	9d0d      	ldr	r5, [sp, #52]	; 0x34
100038c8:	9b0b      	ldr	r3, [sp, #44]	; 0x2c
100038ca:	002a      	movs	r2, r5
100038cc:	9306      	str	r3, [sp, #24]
100038ce:	9b0a      	ldr	r3, [sp, #40]	; 0x28
100038d0:	0021      	movs	r1, r4
100038d2:	9305      	str	r3, [sp, #20]
100038d4:	4643      	mov	r3, r8
100038d6:	9304      	str	r3, [sp, #16]
100038d8:	9b0c      	ldr	r3, [sp, #48]	; 0x30
100038da:	9808      	ldr	r0, [sp, #32]
100038dc:	9303      	str	r3, [sp, #12]
100038de:	2300      	movs	r3, #0
100038e0:	9302      	str	r3, [sp, #8]
100038e2:	465b      	mov	r3, fp
100038e4:	9301      	str	r3, [sp, #4]
100038e6:	ab16      	add	r3, sp, #88	; 0x58
100038e8:	9300      	str	r3, [sp, #0]
100038ea:	464b      	mov	r3, r9
100038ec:	f7fe fdc8 	bl	10002480 <_ntoa_format>
100038f0:	9b12      	ldr	r3, [sp, #72]	; 0x48
100038f2:	0005      	movs	r5, r0
100038f4:	9309      	str	r3, [sp, #36]	; 0x24
100038f6:	3601      	adds	r6, #1
100038f8:	f7ff facf 	bl	10002e9a <_vsnprintf+0x4a>
100038fc:	42b4      	cmp	r4, r6
100038fe:	d800      	bhi.n	10003902 <_vsnprintf+0xab2>
10003900:	e671      	b.n	100035e6 <_vsnprintf+0x796>
10003902:	9b14      	ldr	r3, [sp, #80]	; 0x50
10003904:	4654      	mov	r4, sl
10003906:	960e      	str	r6, [sp, #56]	; 0x38
10003908:	970f      	str	r7, [sp, #60]	; 0x3c
1000390a:	46aa      	mov	sl, r5
1000390c:	4698      	mov	r8, r3
1000390e:	9e15      	ldr	r6, [sp, #84]	; 0x54
10003910:	9d13      	ldr	r5, [sp, #76]	; 0x4c
10003912:	e68e      	b.n	10003632 <_vsnprintf+0x7e2>
10003914:	42a6      	cmp	r6, r4
10003916:	d800      	bhi.n	1000391a <_vsnprintf+0xaca>
10003918:	e6fb      	b.n	10003712 <_vsnprintf+0x8c2>
1000391a:	9b13      	ldr	r3, [sp, #76]	; 0x4c
1000391c:	4656      	mov	r6, sl
1000391e:	4698      	mov	r8, r3
10003920:	46aa      	mov	sl, r5
10003922:	465c      	mov	r4, fp
10003924:	9d12      	ldr	r5, [sp, #72]	; 0x48
10003926:	e576      	b.n	10003416 <_vsnprintf+0x5c6>
10003928:	c908      	ldmia	r1!, {r3}
1000392a:	17d8      	asrs	r0, r3, #31
1000392c:	181a      	adds	r2, r3, r0
1000392e:	4042      	eors	r2, r0
10003930:	9109      	str	r1, [sp, #36]	; 0x24
10003932:	f7ff fb8a 	bl	1000304a <_vsnprintf+0x1fa>
10003936:	2300      	movs	r3, #0
10003938:	930b      	str	r3, [sp, #44]	; 0x2c
1000393a:	e450      	b.n	100031de <_vsnprintf+0x38e>
1000393c:	9b09      	ldr	r3, [sp, #36]	; 0x24
1000393e:	cb04      	ldmia	r3!, {r2}
10003940:	4693      	mov	fp, r2
10003942:	9309      	str	r3, [sp, #36]	; 0x24
10003944:	e559      	b.n	100033fa <_vsnprintf+0x5aa>
10003946:	002f      	movs	r7, r5
10003948:	e5bb      	b.n	100034c2 <_vsnprintf+0x672>
1000394a:	930b      	str	r3, [sp, #44]	; 0x2c
1000394c:	e601      	b.n	10003552 <_vsnprintf+0x702>
1000394e:	3b06      	subs	r3, #6
10003950:	930c      	str	r3, [sp, #48]	; 0x30
10003952:	e69a      	b.n	1000368a <_vsnprintf+0x83a>

10003954 <vfctprintf>:
10003954:	b500      	push	{lr}
10003956:	b085      	sub	sp, #20
10003958:	9103      	str	r1, [sp, #12]
1000395a:	2101      	movs	r1, #1
1000395c:	9002      	str	r0, [sp, #8]
1000395e:	9300      	str	r3, [sp, #0]
10003960:	4803      	ldr	r0, [pc, #12]	; (10003970 <vfctprintf+0x1c>)
10003962:	0013      	movs	r3, r2
10003964:	424a      	negs	r2, r1
10003966:	a902      	add	r1, sp, #8
10003968:	f7ff fa72 	bl	10002e50 <_vsnprintf>
1000396c:	b005      	add	sp, #20
1000396e:	bd00      	pop	{pc}
10003970:	1000265d 	.word	0x1000265d

10003974 <weak_raw_vprintf>:
10003974:	b510      	push	{r4, lr}
10003976:	4a09      	ldr	r2, [pc, #36]	; (1000399c <weak_raw_vprintf+0x28>)
10003978:	0003      	movs	r3, r0
1000397a:	6814      	ldr	r4, [r2, #0]
1000397c:	b084      	sub	sp, #16
1000397e:	2c00      	cmp	r4, #0
10003980:	d008      	beq.n	10003994 <weak_raw_vprintf+0x20>
10003982:	2201      	movs	r2, #1
10003984:	9100      	str	r1, [sp, #0]
10003986:	4806      	ldr	r0, [pc, #24]	; (100039a0 <weak_raw_vprintf+0x2c>)
10003988:	4252      	negs	r2, r2
1000398a:	a903      	add	r1, sp, #12
1000398c:	47a0      	blx	r4
1000398e:	2001      	movs	r0, #1
10003990:	b004      	add	sp, #16
10003992:	bd10      	pop	{r4, pc}
10003994:	f001 f968 	bl	10004c68 <__wrap_puts>
10003998:	2000      	movs	r0, #0
1000399a:	e7f9      	b.n	10003990 <weak_raw_vprintf+0x1c>
1000399c:	20001bdc 	.word	0x20001bdc
100039a0:	1000264d 	.word	0x1000264d

100039a4 <__aeabi_bits_init>:
100039a4:	4801      	ldr	r0, [pc, #4]	; (100039ac <__aeabi_bits_init+0x8>)
100039a6:	2104      	movs	r1, #4
100039a8:	4b01      	ldr	r3, [pc, #4]	; (100039b0 <__aeabi_bits_init+0xc>)
100039aa:	4718      	bx	r3
100039ac:	20000410 	.word	0x20000410
100039b0:	100039d5 	.word	0x100039d5

100039b4 <rom_func_lookup>:
100039b4:	2314      	movs	r3, #20
100039b6:	b510      	push	{r4, lr}
100039b8:	0001      	movs	r1, r0
100039ba:	8818      	ldrh	r0, [r3, #0]
100039bc:	3304      	adds	r3, #4
100039be:	881b      	ldrh	r3, [r3, #0]
100039c0:	4798      	blx	r3
100039c2:	bd10      	pop	{r4, pc}

100039c4 <rom_data_lookup>:
100039c4:	2316      	movs	r3, #22
100039c6:	b510      	push	{r4, lr}
100039c8:	0001      	movs	r1, r0
100039ca:	8818      	ldrh	r0, [r3, #0]
100039cc:	3302      	adds	r3, #2
100039ce:	881b      	ldrh	r3, [r3, #0]
100039d0:	4798      	blx	r3
100039d2:	bd10      	pop	{r4, pc}

100039d4 <rom_funcs_lookup>:
100039d4:	b5f8      	push	{r3, r4, r5, r6, r7, lr}
100039d6:	4647      	mov	r7, r8
100039d8:	46ce      	mov	lr, r9
100039da:	b580      	push	{r7, lr}
100039dc:	1e0f      	subs	r7, r1, #0
100039de:	d019      	beq.n	10003a14 <rom_funcs_lookup+0x40>
100039e0:	2314      	movs	r3, #20
100039e2:	4699      	mov	r9, r3
100039e4:	3304      	adds	r3, #4
100039e6:	0004      	movs	r4, r0
100039e8:	2500      	movs	r5, #0
100039ea:	2601      	movs	r6, #1
100039ec:	4698      	mov	r8, r3
100039ee:	464b      	mov	r3, r9
100039f0:	8818      	ldrh	r0, [r3, #0]
100039f2:	4643      	mov	r3, r8
100039f4:	6821      	ldr	r1, [r4, #0]
100039f6:	881b      	ldrh	r3, [r3, #0]
100039f8:	4798      	blx	r3
100039fa:	c401      	stmia	r4!, {r0}
100039fc:	1e43      	subs	r3, r0, #1
100039fe:	4198      	sbcs	r0, r3
10003a00:	3501      	adds	r5, #1
10003a02:	4240      	negs	r0, r0
10003a04:	4006      	ands	r6, r0
10003a06:	42af      	cmp	r7, r5
10003a08:	d1f1      	bne.n	100039ee <rom_funcs_lookup+0x1a>
10003a0a:	0030      	movs	r0, r6
10003a0c:	bcc0      	pop	{r6, r7}
10003a0e:	46b9      	mov	r9, r7
10003a10:	46b0      	mov	r8, r6
10003a12:	bdf8      	pop	{r3, r4, r5, r6, r7, pc}
10003a14:	2601      	movs	r6, #1
10003a16:	e7f8      	b.n	10003a0a <rom_funcs_lookup+0x36>

10003a18 <__wrap___aeabi_idiv>:
10003a18:	4a12      	ldr	r2, [pc, #72]	; (10003a64 <divmod_s32s32_savestate+0x18>)
10003a1a:	6f93      	ldr	r3, [r2, #120]	; 0x78
10003a1c:	089b      	lsrs	r3, r3, #2
10003a1e:	d215      	bcs.n	10003a4c <divmod_s32s32_savestate>

10003a20 <divmod_s32s32_unsafe>:
10003a20:	6690      	str	r0, [r2, #104]	; 0x68
10003a22:	66d1      	str	r1, [r2, #108]	; 0x6c
10003a24:	2900      	cmp	r1, #0
10003a26:	d005      	beq.n	10003a34 <divmod_s32s32_unsafe+0x14>
10003a28:	e7ff      	b.n	10003a2a <divmod_s32s32_unsafe+0xa>
10003a2a:	e7ff      	b.n	10003a2c <divmod_s32s32_unsafe+0xc>
10003a2c:	e7ff      	b.n	10003a2e <divmod_s32s32_unsafe+0xe>
10003a2e:	6f51      	ldr	r1, [r2, #116]	; 0x74
10003a30:	6f10      	ldr	r0, [r2, #112]	; 0x70
10003a32:	4770      	bx	lr
10003a34:	b504      	push	{r2, lr}
10003a36:	2180      	movs	r1, #128	; 0x80
10003a38:	0609      	lsls	r1, r1, #24
10003a3a:	17c2      	asrs	r2, r0, #31
10003a3c:	4051      	eors	r1, r2
10003a3e:	2800      	cmp	r0, #0
10003a40:	d000      	beq.n	10003a44 <divmod_s32s32_unsafe+0x24>
10003a42:	43c8      	mvns	r0, r1
10003a44:	f007 fb90 	bl	1000b168 <____aeabi_idiv0_veneer>
10003a48:	2100      	movs	r1, #0
10003a4a:	bd04      	pop	{r2, pc}

10003a4c <divmod_s32s32_savestate>:
10003a4c:	b5f0      	push	{r4, r5, r6, r7, lr}
10003a4e:	6e14      	ldr	r4, [r2, #96]	; 0x60
10003a50:	6e55      	ldr	r5, [r2, #100]	; 0x64
10003a52:	6f57      	ldr	r7, [r2, #116]	; 0x74
10003a54:	6f16      	ldr	r6, [r2, #112]	; 0x70
10003a56:	f7ff ffe3 	bl	10003a20 <divmod_s32s32_unsafe>
10003a5a:	6614      	str	r4, [r2, #96]	; 0x60
10003a5c:	6655      	str	r5, [r2, #100]	; 0x64
10003a5e:	6757      	str	r7, [r2, #116]	; 0x74
10003a60:	6716      	str	r6, [r2, #112]	; 0x70
10003a62:	bdf0      	pop	{r4, r5, r6, r7, pc}
10003a64:	d0000000 	.word	0xd0000000

10003a68 <__wrap___aeabi_uidiv>:
10003a68:	4a11      	ldr	r2, [pc, #68]	; (10003ab0 <divmod_u32u32_savestate+0x18>)
10003a6a:	6f93      	ldr	r3, [r2, #120]	; 0x78
10003a6c:	089b      	lsrs	r3, r3, #2
10003a6e:	d213      	bcs.n	10003a98 <divmod_u32u32_savestate>

10003a70 <divmod_u32u32_unsafe>:
10003a70:	6610      	str	r0, [r2, #96]	; 0x60
10003a72:	6651      	str	r1, [r2, #100]	; 0x64
10003a74:	2900      	cmp	r1, #0
10003a76:	d005      	beq.n	10003a84 <divmod_u32u32_unsafe+0x14>
10003a78:	e7ff      	b.n	10003a7a <divmod_u32u32_unsafe+0xa>
10003a7a:	e7ff      	b.n	10003a7c <divmod_u32u32_unsafe+0xc>
10003a7c:	e7ff      	b.n	10003a7e <divmod_u32u32_unsafe+0xe>
10003a7e:	6f51      	ldr	r1, [r2, #116]	; 0x74
10003a80:	6f10      	ldr	r0, [r2, #112]	; 0x70
10003a82:	4770      	bx	lr
10003a84:	b504      	push	{r2, lr}
10003a86:	2800      	cmp	r0, #0
10003a88:	d001      	beq.n	10003a8e <divmod_u32u32_unsafe+0x1e>
10003a8a:	2000      	movs	r0, #0
10003a8c:	43c0      	mvns	r0, r0
10003a8e:	f007 fb6b 	bl	1000b168 <____aeabi_idiv0_veneer>
10003a92:	2100      	movs	r1, #0
10003a94:	bd04      	pop	{r2, pc}
10003a96:	46c0      	nop			; (mov r8, r8)

10003a98 <divmod_u32u32_savestate>:
10003a98:	b5f0      	push	{r4, r5, r6, r7, lr}
10003a9a:	6e14      	ldr	r4, [r2, #96]	; 0x60
10003a9c:	6e55      	ldr	r5, [r2, #100]	; 0x64
10003a9e:	6f57      	ldr	r7, [r2, #116]	; 0x74
10003aa0:	6f16      	ldr	r6, [r2, #112]	; 0x70
10003aa2:	f7ff ffe5 	bl	10003a70 <divmod_u32u32_unsafe>
10003aa6:	6614      	str	r4, [r2, #96]	; 0x60
10003aa8:	6655      	str	r5, [r2, #100]	; 0x64
10003aaa:	6757      	str	r7, [r2, #116]	; 0x74
10003aac:	6716      	str	r6, [r2, #112]	; 0x70
10003aae:	bdf0      	pop	{r4, r5, r6, r7, pc}
10003ab0:	d0000000 	.word	0xd0000000

10003ab4 <__wrap___aeabi_ldivmod>:
10003ab4:	4694      	mov	ip, r2
10003ab6:	4a4e      	ldr	r2, [pc, #312]	; (10003bf0 <udiv0+0x1a>)
10003ab8:	6f92      	ldr	r2, [r2, #120]	; 0x78
10003aba:	0892      	lsrs	r2, r2, #2
10003abc:	4662      	mov	r2, ip
10003abe:	d201      	bcs.n	10003ac4 <divmod_s64s64_savestate>
10003ac0:	e030      	b.n	10003b24 <divmod_s64s64_unsafe>
10003ac2:	46c0      	nop			; (mov r8, r8)

10003ac4 <divmod_s64s64_savestate>:
10003ac4:	b5f0      	push	{r4, r5, r6, r7, lr}
10003ac6:	4e4a      	ldr	r6, [pc, #296]	; (10003bf0 <udiv0+0x1a>)
10003ac8:	6fb5      	ldr	r5, [r6, #120]	; 0x78
10003aca:	086d      	lsrs	r5, r5, #1
10003acc:	d3fc      	bcc.n	10003ac8 <divmod_s64s64_savestate+0x4>
10003ace:	6e34      	ldr	r4, [r6, #96]	; 0x60
10003ad0:	6e75      	ldr	r5, [r6, #100]	; 0x64
10003ad2:	6f77      	ldr	r7, [r6, #116]	; 0x74
10003ad4:	6f36      	ldr	r6, [r6, #112]	; 0x70
10003ad6:	f000 f825 	bl	10003b24 <divmod_s64s64_unsafe>
10003ada:	4694      	mov	ip, r2
10003adc:	4a44      	ldr	r2, [pc, #272]	; (10003bf0 <udiv0+0x1a>)
10003ade:	6614      	str	r4, [r2, #96]	; 0x60
10003ae0:	6655      	str	r5, [r2, #100]	; 0x64
10003ae2:	6757      	str	r7, [r2, #116]	; 0x74
10003ae4:	6716      	str	r6, [r2, #112]	; 0x70
10003ae6:	4662      	mov	r2, ip
10003ae8:	bdf0      	pop	{r4, r5, r6, r7, pc}
10003aea:	46c0      	nop			; (mov r8, r8)

10003aec <__wrap___aeabi_uldivmod>:
10003aec:	4694      	mov	ip, r2
10003aee:	4a40      	ldr	r2, [pc, #256]	; (10003bf0 <udiv0+0x1a>)
10003af0:	6f92      	ldr	r2, [r2, #120]	; 0x78
10003af2:	0892      	lsrs	r2, r2, #2
10003af4:	4662      	mov	r2, ip
10003af6:	d201      	bcs.n	10003afc <divmod_u64u64_savestate>
10003af8:	e058      	b.n	10003bac <divmod_u64u64_unsafe>
10003afa:	46c0      	nop			; (mov r8, r8)

10003afc <divmod_u64u64_savestate>:
10003afc:	b5f0      	push	{r4, r5, r6, r7, lr}
10003afe:	4e3c      	ldr	r6, [pc, #240]	; (10003bf0 <udiv0+0x1a>)
10003b00:	6fb5      	ldr	r5, [r6, #120]	; 0x78
10003b02:	086d      	lsrs	r5, r5, #1
10003b04:	d3fc      	bcc.n	10003b00 <divmod_u64u64_savestate+0x4>
10003b06:	6e34      	ldr	r4, [r6, #96]	; 0x60
10003b08:	6e75      	ldr	r5, [r6, #100]	; 0x64
10003b0a:	6f77      	ldr	r7, [r6, #116]	; 0x74
10003b0c:	6f36      	ldr	r6, [r6, #112]	; 0x70
10003b0e:	f000 f84d 	bl	10003bac <divmod_u64u64_unsafe>
10003b12:	4694      	mov	ip, r2
10003b14:	4a36      	ldr	r2, [pc, #216]	; (10003bf0 <udiv0+0x1a>)
10003b16:	6614      	str	r4, [r2, #96]	; 0x60
10003b18:	6655      	str	r5, [r2, #100]	; 0x64
10003b1a:	6757      	str	r7, [r2, #116]	; 0x74
10003b1c:	6716      	str	r6, [r2, #112]	; 0x70
10003b1e:	4662      	mov	r2, ip
10003b20:	bdf0      	pop	{r4, r5, r6, r7, pc}
10003b22:	46c0      	nop			; (mov r8, r8)

10003b24 <divmod_s64s64_unsafe>:
10003b24:	2b00      	cmp	r3, #0
10003b26:	db24      	blt.n	10003b72 <l41_1+0x26>
10003b28:	d011      	beq.n	10003b4e <l41_1+0x2>
10003b2a:	2900      	cmp	r1, #0
10003b2c:	da3e      	bge.n	10003bac <divmod_u64u64_unsafe>
10003b2e:	b500      	push	{lr}
10003b30:	43c9      	mvns	r1, r1
10003b32:	4240      	negs	r0, r0
10003b34:	d100      	bne.n	10003b38 <l39_1>
10003b36:	3101      	adds	r1, #1

10003b38 <l39_1>:
10003b38:	f000 f838 	bl	10003bac <divmod_u64u64_unsafe>
10003b3c:	43c9      	mvns	r1, r1
10003b3e:	4240      	negs	r0, r0
10003b40:	d100      	bne.n	10003b44 <l40_1>
10003b42:	3101      	adds	r1, #1

10003b44 <l40_1>:
10003b44:	43db      	mvns	r3, r3
10003b46:	4252      	negs	r2, r2
10003b48:	d100      	bne.n	10003b4c <l41_1>
10003b4a:	3301      	adds	r3, #1

10003b4c <l41_1>:
10003b4c:	bd00      	pop	{pc}
10003b4e:	2a00      	cmp	r2, #0
10003b50:	d1eb      	bne.n	10003b2a <divmod_s64s64_unsafe+0x6>
10003b52:	2800      	cmp	r0, #0
10003b54:	d101      	bne.n	10003b5a <l41_1+0xe>
10003b56:	2900      	cmp	r1, #0
10003b58:	d005      	beq.n	10003b66 <l41_1+0x1a>
10003b5a:	2000      	movs	r0, #0
10003b5c:	0fc9      	lsrs	r1, r1, #31
10003b5e:	07c9      	lsls	r1, r1, #31
10003b60:	d101      	bne.n	10003b66 <l41_1+0x1a>
10003b62:	43c0      	mvns	r0, r0
10003b64:	0841      	lsrs	r1, r0, #1
10003b66:	b500      	push	{lr}
10003b68:	f007 faf6 	bl	1000b158 <____aeabi_ldiv0_veneer>
10003b6c:	2200      	movs	r2, #0
10003b6e:	2300      	movs	r3, #0
10003b70:	bd00      	pop	{pc}
10003b72:	b500      	push	{lr}
10003b74:	2900      	cmp	r1, #0
10003b76:	db0a      	blt.n	10003b8e <l43_1+0x2>
10003b78:	43db      	mvns	r3, r3
10003b7a:	4252      	negs	r2, r2
10003b7c:	d100      	bne.n	10003b80 <l42_1>
10003b7e:	3301      	adds	r3, #1

10003b80 <l42_1>:
10003b80:	f000 f814 	bl	10003bac <divmod_u64u64_unsafe>
10003b84:	43c9      	mvns	r1, r1
10003b86:	4240      	negs	r0, r0
10003b88:	d100      	bne.n	10003b8c <l43_1>
10003b8a:	3101      	adds	r1, #1

10003b8c <l43_1>:
10003b8c:	bd00      	pop	{pc}
10003b8e:	43c9      	mvns	r1, r1
10003b90:	4240      	negs	r0, r0
10003b92:	d100      	bne.n	10003b96 <l44_1>
10003b94:	3101      	adds	r1, #1

10003b96 <l44_1>:
10003b96:	43db      	mvns	r3, r3
10003b98:	4252      	negs	r2, r2
10003b9a:	d100      	bne.n	10003b9e <l45_1>
10003b9c:	3301      	adds	r3, #1

10003b9e <l45_1>:
10003b9e:	f000 f805 	bl	10003bac <divmod_u64u64_unsafe>
10003ba2:	43db      	mvns	r3, r3
10003ba4:	4252      	negs	r2, r2
10003ba6:	d100      	bne.n	10003baa <l46_1>
10003ba8:	3301      	adds	r3, #1

10003baa <l46_1>:
10003baa:	bd00      	pop	{pc}

10003bac <divmod_u64u64_unsafe>:
10003bac:	2900      	cmp	r1, #0
10003bae:	d123      	bne.n	10003bf8 <y64>
10003bb0:	2b00      	cmp	r3, #0
10003bb2:	d118      	bne.n	10003be6 <udiv0+0x10>
10003bb4:	2a00      	cmp	r2, #0
10003bb6:	d00c      	beq.n	10003bd2 <divmod_u64u64_unsafe+0x26>
10003bb8:	46bc      	mov	ip, r7
10003bba:	4f0d      	ldr	r7, [pc, #52]	; (10003bf0 <udiv0+0x1a>)
10003bbc:	6638      	str	r0, [r7, #96]	; 0x60
10003bbe:	667a      	str	r2, [r7, #100]	; 0x64
10003bc0:	2100      	movs	r1, #0
10003bc2:	2300      	movs	r3, #0
10003bc4:	e7ff      	b.n	10003bc6 <divmod_u64u64_unsafe+0x1a>
10003bc6:	e7ff      	b.n	10003bc8 <divmod_u64u64_unsafe+0x1c>
10003bc8:	e7ff      	b.n	10003bca <divmod_u64u64_unsafe+0x1e>
10003bca:	6f7a      	ldr	r2, [r7, #116]	; 0x74
10003bcc:	6f38      	ldr	r0, [r7, #112]	; 0x70
10003bce:	4667      	mov	r7, ip
10003bd0:	4770      	bx	lr
10003bd2:	2800      	cmp	r0, #0
10003bd4:	d001      	beq.n	10003bda <udiv0+0x4>

10003bd6 <udiv0>:
10003bd6:	4807      	ldr	r0, [pc, #28]	; (10003bf4 <udiv0+0x1e>)
10003bd8:	0001      	movs	r1, r0
10003bda:	b500      	push	{lr}
10003bdc:	f007 fabc 	bl	1000b158 <____aeabi_ldiv0_veneer>
10003be0:	2200      	movs	r2, #0
10003be2:	2300      	movs	r3, #0
10003be4:	bd00      	pop	{pc}
10003be6:	0002      	movs	r2, r0
10003be8:	000b      	movs	r3, r1
10003bea:	2000      	movs	r0, #0
10003bec:	2100      	movs	r1, #0
10003bee:	4770      	bx	lr
10003bf0:	d0000000 	.word	0xd0000000
10003bf4:	ffffffff 	.word	0xffffffff

10003bf8 <y64>:
10003bf8:	2b00      	cmp	r3, #0
10003bfa:	d000      	beq.n	10003bfe <y64+0x6>
10003bfc:	e0bf      	b.n	10003d7e <y64_x48>
10003bfe:	0c13      	lsrs	r3, r2, #16
10003c00:	d128      	bne.n	10003c54 <y64_x32>
10003c02:	2a00      	cmp	r2, #0
10003c04:	d0e7      	beq.n	10003bd6 <udiv0>
10003c06:	b480      	push	{r7}
10003c08:	4f11      	ldr	r7, [pc, #68]	; (10003c50 <y64+0x58>)
10003c0a:	6639      	str	r1, [r7, #96]	; 0x60
10003c0c:	667a      	str	r2, [r7, #100]	; 0x64
10003c0e:	e7ff      	b.n	10003c10 <y64+0x18>
10003c10:	e7ff      	b.n	10003c12 <y64+0x1a>
10003c12:	b430      	push	{r4, r5}
10003c14:	0c04      	lsrs	r4, r0, #16
10003c16:	6f7b      	ldr	r3, [r7, #116]	; 0x74
10003c18:	6f39      	ldr	r1, [r7, #112]	; 0x70
10003c1a:	041b      	lsls	r3, r3, #16
10003c1c:	4323      	orrs	r3, r4
10003c1e:	663b      	str	r3, [r7, #96]	; 0x60
10003c20:	667a      	str	r2, [r7, #100]	; 0x64
10003c22:	e7ff      	b.n	10003c24 <y64+0x2c>
10003c24:	e7ff      	b.n	10003c26 <y64+0x2e>
10003c26:	e7ff      	b.n	10003c28 <y64+0x30>
10003c28:	46c0      	nop			; (mov r8, r8)
10003c2a:	b284      	uxth	r4, r0
10003c2c:	6f7b      	ldr	r3, [r7, #116]	; 0x74
10003c2e:	6f3d      	ldr	r5, [r7, #112]	; 0x70
10003c30:	041b      	lsls	r3, r3, #16
10003c32:	4323      	orrs	r3, r4
10003c34:	663b      	str	r3, [r7, #96]	; 0x60
10003c36:	667a      	str	r2, [r7, #100]	; 0x64
10003c38:	e7ff      	b.n	10003c3a <y64+0x42>
10003c3a:	e7ff      	b.n	10003c3c <y64+0x44>
10003c3c:	46c0      	nop			; (mov r8, r8)
10003c3e:	2300      	movs	r3, #0
10003c40:	042c      	lsls	r4, r5, #16
10003c42:	0c2d      	lsrs	r5, r5, #16
10003c44:	6f7a      	ldr	r2, [r7, #116]	; 0x74
10003c46:	6f38      	ldr	r0, [r7, #112]	; 0x70
10003c48:	1900      	adds	r0, r0, r4
10003c4a:	4169      	adcs	r1, r5
10003c4c:	bcb0      	pop	{r4, r5, r7}
10003c4e:	4770      	bx	lr
10003c50:	d0000000 	.word	0xd0000000

10003c54 <y64_x32>:
10003c54:	b5f0      	push	{r4, r5, r6, r7, lr}
10003c56:	4694      	mov	ip, r2
10003c58:	2500      	movs	r5, #0
10003c5a:	0e14      	lsrs	r4, r2, #24
10003c5c:	d101      	bne.n	10003c62 <y64_x32+0xe>
10003c5e:	0212      	lsls	r2, r2, #8
10003c60:	3508      	adds	r5, #8
10003c62:	0f14      	lsrs	r4, r2, #28
10003c64:	d101      	bne.n	10003c6a <y64_x32+0x16>
10003c66:	0112      	lsls	r2, r2, #4
10003c68:	3504      	adds	r5, #4
10003c6a:	0f94      	lsrs	r4, r2, #30
10003c6c:	d101      	bne.n	10003c72 <y64_x32+0x1e>
10003c6e:	0092      	lsls	r2, r2, #2
10003c70:	3502      	adds	r5, #2
10003c72:	0fd4      	lsrs	r4, r2, #31
10003c74:	d101      	bne.n	10003c7a <y64_x32+0x26>
10003c76:	0052      	lsls	r2, r2, #1
10003c78:	3501      	adds	r5, #1
10003c7a:	0bd4      	lsrs	r4, r2, #15
10003c7c:	3401      	adds	r4, #1
10003c7e:	4f25      	ldr	r7, [pc, #148]	; (10003d14 <y64_x32+0xc0>)
10003c80:	667c      	str	r4, [r7, #100]	; 0x64
10003c82:	4c25      	ldr	r4, [pc, #148]	; (10003d18 <y64_x32+0xc4>)
10003c84:	663c      	str	r4, [r7, #96]	; 0x60
10003c86:	0c0e      	lsrs	r6, r1, #16
10003c88:	b293      	uxth	r3, r2
10003c8a:	e7ff      	b.n	10003c8c <y64_x32+0x38>
10003c8c:	e7ff      	b.n	10003c8e <y64_x32+0x3a>
10003c8e:	e7ff      	b.n	10003c90 <y64_x32+0x3c>
10003c90:	6f3c      	ldr	r4, [r7, #112]	; 0x70
10003c92:	4366      	muls	r6, r4
10003c94:	0c36      	lsrs	r6, r6, #16
10003c96:	0377      	lsls	r7, r6, #13
10003c98:	46be      	mov	lr, r7
10003c9a:	4373      	muls	r3, r6
10003c9c:	0bdf      	lsrs	r7, r3, #15
10003c9e:	045b      	lsls	r3, r3, #17
10003ca0:	1ac0      	subs	r0, r0, r3
10003ca2:	41b9      	sbcs	r1, r7
10003ca4:	0c13      	lsrs	r3, r2, #16
10003ca6:	4373      	muls	r3, r6
10003ca8:	18db      	adds	r3, r3, r3
10003caa:	1ac9      	subs	r1, r1, r3
10003cac:	08ce      	lsrs	r6, r1, #3
10003cae:	4366      	muls	r6, r4
10003cb0:	0c36      	lsrs	r6, r6, #16
10003cb2:	44b6      	add	lr, r6
10003cb4:	b293      	uxth	r3, r2
10003cb6:	4373      	muls	r3, r6
10003cb8:	0f1f      	lsrs	r7, r3, #28
10003cba:	011b      	lsls	r3, r3, #4
10003cbc:	1ac0      	subs	r0, r0, r3
10003cbe:	41b9      	sbcs	r1, r7
10003cc0:	0c13      	lsrs	r3, r2, #16
10003cc2:	4373      	muls	r3, r6
10003cc4:	0b1f      	lsrs	r7, r3, #12
10003cc6:	051b      	lsls	r3, r3, #20
10003cc8:	1ac0      	subs	r0, r0, r3
10003cca:	41b9      	sbcs	r1, r7
10003ccc:	0d86      	lsrs	r6, r0, #22
10003cce:	028f      	lsls	r7, r1, #10
10003cd0:	433e      	orrs	r6, r7
10003cd2:	4366      	muls	r6, r4
10003cd4:	0c36      	lsrs	r6, r6, #16
10003cd6:	2d09      	cmp	r5, #9
10003cd8:	db24      	blt.n	10003d24 <last0>
10003cda:	0a52      	lsrs	r2, r2, #9
10003cdc:	4372      	muls	r2, r6
10003cde:	1a80      	subs	r0, r0, r2
10003ce0:	0377      	lsls	r7, r6, #13
10003ce2:	0a46      	lsrs	r6, r0, #9
10003ce4:	4366      	muls	r6, r4
10003ce6:	0c36      	lsrs	r6, r6, #16
10003ce8:	2316      	movs	r3, #22
10003cea:	1b5b      	subs	r3, r3, r5
10003cec:	40de      	lsrs	r6, r3
10003cee:	40df      	lsrs	r7, r3
10003cf0:	19bf      	adds	r7, r7, r6
10003cf2:	4664      	mov	r4, ip
10003cf4:	4366      	muls	r6, r4
10003cf6:	1b82      	subs	r2, r0, r6
10003cf8:	4670      	mov	r0, lr
10003cfa:	3504      	adds	r5, #4
10003cfc:	3306      	adds	r3, #6
10003cfe:	0001      	movs	r1, r0
10003d00:	40d9      	lsrs	r1, r3
10003d02:	40a8      	lsls	r0, r5
10003d04:	19c0      	adds	r0, r0, r7
10003d06:	d300      	bcc.n	10003d0a <y64_x32+0xb6>
10003d08:	3101      	adds	r1, #1
10003d0a:	42a2      	cmp	r2, r4
10003d0c:	d206      	bcs.n	10003d1c <y64_x32+0xc8>
10003d0e:	2300      	movs	r3, #0
10003d10:	bdf0      	pop	{r4, r5, r6, r7, pc}
10003d12:	0000      	.short	0x0000
10003d14:	d0000000 	.word	0xd0000000
10003d18:	ffffffff 	.word	0xffffffff
10003d1c:	1b12      	subs	r2, r2, r4
10003d1e:	3001      	adds	r0, #1
10003d20:	d3f3      	bcc.n	10003d0a <y64_x32+0xb6>
10003d22:	e7f1      	b.n	10003d08 <y64_x32+0xb4>

10003d24 <last0>:
10003d24:	2709      	movs	r7, #9
10003d26:	1b7f      	subs	r7, r7, r5
10003d28:	40fe      	lsrs	r6, r7
10003d2a:	4664      	mov	r4, ip
10003d2c:	b2a2      	uxth	r2, r4
10003d2e:	4372      	muls	r2, r6
10003d30:	1a80      	subs	r0, r0, r2
10003d32:	d200      	bcs.n	10003d36 <last0+0x12>
10003d34:	3901      	subs	r1, #1
10003d36:	0c22      	lsrs	r2, r4, #16
10003d38:	4372      	muls	r2, r6
10003d3a:	0c13      	lsrs	r3, r2, #16
10003d3c:	0412      	lsls	r2, r2, #16
10003d3e:	1a82      	subs	r2, r0, r2
10003d40:	4199      	sbcs	r1, r3
10003d42:	000b      	movs	r3, r1
10003d44:	4670      	mov	r0, lr
10003d46:	3504      	adds	r5, #4
10003d48:	3713      	adds	r7, #19
10003d4a:	0001      	movs	r1, r0
10003d4c:	40f9      	lsrs	r1, r7
10003d4e:	40a8      	lsls	r0, r5
10003d50:	1980      	adds	r0, r0, r6
10003d52:	d300      	bcc.n	10003d56 <last0+0x32>
10003d54:	3101      	adds	r1, #1
10003d56:	2b00      	cmp	r3, #0
10003d58:	d102      	bne.n	10003d60 <last0+0x3c>
10003d5a:	42a2      	cmp	r2, r4
10003d5c:	d20a      	bcs.n	10003d74 <last0+0x50>
10003d5e:	bdf0      	pop	{r4, r5, r6, r7, pc}
10003d60:	3001      	adds	r0, #1
10003d62:	d300      	bcc.n	10003d66 <last0+0x42>
10003d64:	3101      	adds	r1, #1
10003d66:	1b12      	subs	r2, r2, r4
10003d68:	d2fa      	bcs.n	10003d60 <last0+0x3c>
10003d6a:	3b01      	subs	r3, #1
10003d6c:	d1f8      	bne.n	10003d60 <last0+0x3c>
10003d6e:	42a2      	cmp	r2, r4
10003d70:	d200      	bcs.n	10003d74 <last0+0x50>
10003d72:	bdf0      	pop	{r4, r5, r6, r7, pc}
10003d74:	3001      	adds	r0, #1
10003d76:	d300      	bcc.n	10003d7a <last0+0x56>
10003d78:	3101      	adds	r1, #1
10003d7a:	1b12      	subs	r2, r2, r4
10003d7c:	e7f7      	b.n	10003d6e <last0+0x4a>

10003d7e <y64_x48>:
10003d7e:	b5f0      	push	{r4, r5, r6, r7, lr}
10003d80:	0c1c      	lsrs	r4, r3, #16
10003d82:	d000      	beq.n	10003d86 <y64_x48+0x8>
10003d84:	e080      	b.n	10003e88 <y64_x64>
10003d86:	b40c      	push	{r2, r3}
10003d88:	2500      	movs	r5, #0
10003d8a:	0a1c      	lsrs	r4, r3, #8
10003d8c:	d104      	bne.n	10003d98 <y64_x48+0x1a>
10003d8e:	021b      	lsls	r3, r3, #8
10003d90:	0e16      	lsrs	r6, r2, #24
10003d92:	4333      	orrs	r3, r6
10003d94:	0212      	lsls	r2, r2, #8
10003d96:	3508      	adds	r5, #8
10003d98:	0b1c      	lsrs	r4, r3, #12
10003d9a:	d104      	bne.n	10003da6 <y64_x48+0x28>
10003d9c:	011b      	lsls	r3, r3, #4
10003d9e:	0f16      	lsrs	r6, r2, #28
10003da0:	4333      	orrs	r3, r6
10003da2:	0112      	lsls	r2, r2, #4
10003da4:	3504      	adds	r5, #4
10003da6:	0b9c      	lsrs	r4, r3, #14
10003da8:	d104      	bne.n	10003db4 <y64_x48+0x36>
10003daa:	009b      	lsls	r3, r3, #2
10003dac:	0f96      	lsrs	r6, r2, #30
10003dae:	4333      	orrs	r3, r6
10003db0:	0092      	lsls	r2, r2, #2
10003db2:	3502      	adds	r5, #2
10003db4:	0bdc      	lsrs	r4, r3, #15
10003db6:	d102      	bne.n	10003dbe <y64_x48+0x40>
10003db8:	1892      	adds	r2, r2, r2
10003dba:	415b      	adcs	r3, r3
10003dbc:	3501      	adds	r5, #1
10003dbe:	001c      	movs	r4, r3
10003dc0:	1897      	adds	r7, r2, r2
10003dc2:	4164      	adcs	r4, r4
10003dc4:	3401      	adds	r4, #1
10003dc6:	4f46      	ldr	r7, [pc, #280]	; (10003ee0 <y64_x64+0x58>)
10003dc8:	667c      	str	r4, [r7, #100]	; 0x64
10003dca:	4c46      	ldr	r4, [pc, #280]	; (10003ee4 <y64_x64+0x5c>)
10003dcc:	663c      	str	r4, [r7, #96]	; 0x60
10003dce:	0c0e      	lsrs	r6, r1, #16
10003dd0:	e7ff      	b.n	10003dd2 <y64_x48+0x54>
10003dd2:	e7ff      	b.n	10003dd4 <y64_x48+0x56>
10003dd4:	e7ff      	b.n	10003dd6 <y64_x48+0x58>
10003dd6:	46c0      	nop			; (mov r8, r8)
10003dd8:	6f3c      	ldr	r4, [r7, #112]	; 0x70
10003dda:	4366      	muls	r6, r4
10003ddc:	0c36      	lsrs	r6, r6, #16
10003dde:	0377      	lsls	r7, r6, #13
10003de0:	46be      	mov	lr, r7
10003de2:	b297      	uxth	r7, r2
10003de4:	4377      	muls	r7, r6
10003de6:	1bc0      	subs	r0, r0, r7
10003de8:	d200      	bcs.n	10003dec <y64_x48+0x6e>
10003dea:	3901      	subs	r1, #1
10003dec:	1bc0      	subs	r0, r0, r7
10003dee:	d200      	bcs.n	10003df2 <y64_x48+0x74>
10003df0:	3901      	subs	r1, #1
10003df2:	b29f      	uxth	r7, r3
10003df4:	4377      	muls	r7, r6
10003df6:	1bc9      	subs	r1, r1, r7
10003df8:	1bc9      	subs	r1, r1, r7
10003dfa:	0c17      	lsrs	r7, r2, #16
10003dfc:	4377      	muls	r7, r6
10003dfe:	047e      	lsls	r6, r7, #17
10003e00:	0bff      	lsrs	r7, r7, #15
10003e02:	1b80      	subs	r0, r0, r6
10003e04:	41b9      	sbcs	r1, r7
10003e06:	08ce      	lsrs	r6, r1, #3
10003e08:	4366      	muls	r6, r4
10003e0a:	0c36      	lsrs	r6, r6, #16
10003e0c:	2d0c      	cmp	r5, #12
10003e0e:	db33      	blt.n	10003e78 <last1>
10003e10:	44b6      	add	lr, r6
10003e12:	0b12      	lsrs	r2, r2, #12
10003e14:	051f      	lsls	r7, r3, #20
10003e16:	433a      	orrs	r2, r7
10003e18:	0b1b      	lsrs	r3, r3, #12
10003e1a:	b297      	uxth	r7, r2
10003e1c:	4377      	muls	r7, r6
10003e1e:	1bc0      	subs	r0, r0, r7
10003e20:	d200      	bcs.n	10003e24 <y64_x48+0xa6>
10003e22:	3901      	subs	r1, #1
10003e24:	b29f      	uxth	r7, r3
10003e26:	4377      	muls	r7, r6
10003e28:	1bc9      	subs	r1, r1, r7
10003e2a:	0c17      	lsrs	r7, r2, #16
10003e2c:	4377      	muls	r7, r6
10003e2e:	043e      	lsls	r6, r7, #16
10003e30:	0c3f      	lsrs	r7, r7, #16
10003e32:	1b80      	subs	r0, r0, r6
10003e34:	41b9      	sbcs	r1, r7
10003e36:	0d86      	lsrs	r6, r0, #22
10003e38:	028f      	lsls	r7, r1, #10
10003e3a:	433e      	orrs	r6, r7
10003e3c:	4366      	muls	r6, r4
10003e3e:	2729      	movs	r7, #41	; 0x29
10003e40:	1b7f      	subs	r7, r7, r5
10003e42:	40fe      	lsrs	r6, r7
10003e44:	3d0c      	subs	r5, #12
10003e46:	4677      	mov	r7, lr
10003e48:	40af      	lsls	r7, r5
10003e4a:	19bf      	adds	r7, r7, r6
10003e4c:	bc30      	pop	{r4, r5}
10003e4e:	b2a2      	uxth	r2, r4
10003e50:	b2ab      	uxth	r3, r5
10003e52:	4372      	muls	r2, r6
10003e54:	4373      	muls	r3, r6
10003e56:	1a80      	subs	r0, r0, r2
10003e58:	4199      	sbcs	r1, r3
10003e5a:	0c22      	lsrs	r2, r4, #16
10003e5c:	4372      	muls	r2, r6
10003e5e:	0c13      	lsrs	r3, r2, #16
10003e60:	0412      	lsls	r2, r2, #16
10003e62:	1a80      	subs	r0, r0, r2
10003e64:	4199      	sbcs	r1, r3
10003e66:	0002      	movs	r2, r0
10003e68:	000b      	movs	r3, r1
10003e6a:	3701      	adds	r7, #1
10003e6c:	1b00      	subs	r0, r0, r4
10003e6e:	41a9      	sbcs	r1, r5
10003e70:	d2f9      	bcs.n	10003e66 <y64_x48+0xe8>
10003e72:	1e78      	subs	r0, r7, #1
10003e74:	2100      	movs	r1, #0
10003e76:	bdf0      	pop	{r4, r5, r6, r7, pc}

10003e78 <last1>:
10003e78:	270c      	movs	r7, #12
10003e7a:	1b7f      	subs	r7, r7, r5
10003e7c:	40fe      	lsrs	r6, r7
10003e7e:	4677      	mov	r7, lr
10003e80:	0b7f      	lsrs	r7, r7, #13
10003e82:	40af      	lsls	r7, r5
10003e84:	19ff      	adds	r7, r7, r7
10003e86:	e7e0      	b.n	10003e4a <y64_x48+0xcc>

10003e88 <y64_x64>:
10003e88:	2400      	movs	r4, #0
10003e8a:	1c5d      	adds	r5, r3, #1
10003e8c:	d007      	beq.n	10003e9e <y64_x64+0x16>
10003e8e:	4f14      	ldr	r7, [pc, #80]	; (10003ee0 <y64_x64+0x58>)
10003e90:	667d      	str	r5, [r7, #100]	; 0x64
10003e92:	6639      	str	r1, [r7, #96]	; 0x60
10003e94:	e7ff      	b.n	10003e96 <y64_x64+0xe>
10003e96:	e7ff      	b.n	10003e98 <y64_x64+0x10>
10003e98:	e7ff      	b.n	10003e9a <y64_x64+0x12>
10003e9a:	e7ff      	b.n	10003e9c <y64_x64+0x14>
10003e9c:	6f3c      	ldr	r4, [r7, #112]	; 0x70
10003e9e:	b295      	uxth	r5, r2
10003ea0:	b29e      	uxth	r6, r3
10003ea2:	4365      	muls	r5, r4
10003ea4:	4366      	muls	r6, r4
10003ea6:	1b40      	subs	r0, r0, r5
10003ea8:	41b1      	sbcs	r1, r6
10003eaa:	0c15      	lsrs	r5, r2, #16
10003eac:	0c1e      	lsrs	r6, r3, #16
10003eae:	4365      	muls	r5, r4
10003eb0:	4366      	muls	r6, r4
10003eb2:	0436      	lsls	r6, r6, #16
10003eb4:	0c2f      	lsrs	r7, r5, #16
10003eb6:	433e      	orrs	r6, r7
10003eb8:	042d      	lsls	r5, r5, #16
10003eba:	1b40      	subs	r0, r0, r5
10003ebc:	41b1      	sbcs	r1, r6
10003ebe:	4299      	cmp	r1, r3
10003ec0:	d204      	bcs.n	10003ecc <y64_x64+0x44>
10003ec2:	0002      	movs	r2, r0
10003ec4:	000b      	movs	r3, r1
10003ec6:	0020      	movs	r0, r4
10003ec8:	2100      	movs	r1, #0
10003eca:	bdf0      	pop	{r4, r5, r6, r7, pc}
10003ecc:	d101      	bne.n	10003ed2 <y64_x64+0x4a>
10003ece:	4290      	cmp	r0, r2
10003ed0:	d3f7      	bcc.n	10003ec2 <y64_x64+0x3a>
10003ed2:	1a80      	subs	r0, r0, r2
10003ed4:	4199      	sbcs	r1, r3
10003ed6:	3401      	adds	r4, #1
10003ed8:	4299      	cmp	r1, r3
10003eda:	d3f2      	bcc.n	10003ec2 <y64_x64+0x3a>
10003edc:	e7f6      	b.n	10003ecc <y64_x64+0x44>
10003ede:	0000      	.short	0x0000
10003ee0:	d0000000 	.word	0xd0000000
10003ee4:	ffffffff 	.word	0xffffffff

10003ee8 <__wrap___aeabi_drsub>:
10003ee8:	4048      	eors	r0, r1
10003eea:	4041      	eors	r1, r0
10003eec:	4048      	eors	r0, r1

10003eee <__wrap___aeabi_dsub>:
10003eee:	b418      	push	{r3, r4}
10003ef0:	4b1b      	ldr	r3, [pc, #108]	; (10003f60 <__wrap___aeabi_dmul+0x12>)
10003ef2:	685b      	ldr	r3, [r3, #4]
10003ef4:	46fc      	mov	ip, pc
10003ef6:	9301      	str	r3, [sp, #4]
10003ef8:	bd08      	pop	{r3, pc}
10003efa:	df04      	.short	0xdf04
10003efc:	1000419f 	.word	0x1000419f

10003f00 <__wrap___aeabi_dadd>:
10003f00:	b418      	push	{r3, r4}
10003f02:	4b17      	ldr	r3, [pc, #92]	; (10003f60 <__wrap___aeabi_dmul+0x12>)
10003f04:	681b      	ldr	r3, [r3, #0]
10003f06:	46fc      	mov	ip, pc
10003f08:	9301      	str	r3, [sp, #4]
10003f0a:	bd08      	pop	{r3, pc}
10003f0c:	41a9df00 	.word	0x41a9df00
10003f10:	1000      	.short	0x1000

10003f12 <__wrap___aeabi_ddiv>:
10003f12:	4694      	mov	ip, r2
10003f14:	4a13      	ldr	r2, [pc, #76]	; (10003f64 <__wrap___aeabi_dmul+0x16>)
10003f16:	6f92      	ldr	r2, [r2, #120]	; 0x78
10003f18:	0892      	lsrs	r2, r2, #2
10003f1a:	d209      	bcs.n	10003f30 <ddiv_save_state>
10003f1c:	4662      	mov	r2, ip

10003f1e <ddiv_shim_call>:
10003f1e:	b418      	push	{r3, r4}
10003f20:	4b0f      	ldr	r3, [pc, #60]	; (10003f60 <__wrap___aeabi_dmul+0x12>)
10003f22:	68db      	ldr	r3, [r3, #12]
10003f24:	46fc      	mov	ip, pc
10003f26:	9301      	str	r3, [sp, #4]
10003f28:	bd08      	pop	{r3, pc}
10003f2a:	df0c      	.short	0xdf0c
10003f2c:	10004461 	.word	0x10004461

10003f30 <ddiv_save_state>:
10003f30:	4a0c      	ldr	r2, [pc, #48]	; (10003f64 <__wrap___aeabi_dmul+0x16>)
10003f32:	b5f0      	push	{r4, r5, r6, r7, lr}
10003f34:	6e14      	ldr	r4, [r2, #96]	; 0x60
10003f36:	6e55      	ldr	r5, [r2, #100]	; 0x64
10003f38:	6f57      	ldr	r7, [r2, #116]	; 0x74
10003f3a:	6f16      	ldr	r6, [r2, #112]	; 0x70
10003f3c:	4662      	mov	r2, ip
10003f3e:	f7ff ffee 	bl	10003f1e <ddiv_shim_call>
10003f42:	4a08      	ldr	r2, [pc, #32]	; (10003f64 <__wrap___aeabi_dmul+0x16>)
10003f44:	6614      	str	r4, [r2, #96]	; 0x60
10003f46:	6655      	str	r5, [r2, #100]	; 0x64
10003f48:	6757      	str	r7, [r2, #116]	; 0x74
10003f4a:	6716      	str	r6, [r2, #112]	; 0x70
10003f4c:	bdf0      	pop	{r4, r5, r6, r7, pc}

10003f4e <__wrap___aeabi_dmul>:
10003f4e:	b418      	push	{r3, r4}
10003f50:	4b03      	ldr	r3, [pc, #12]	; (10003f60 <__wrap___aeabi_dmul+0x12>)
10003f52:	689b      	ldr	r3, [r3, #8]
10003f54:	46fc      	mov	ip, pc
10003f56:	9301      	str	r3, [sp, #4]
10003f58:	bd08      	pop	{r3, pc}
10003f5a:	df08      	.short	0xdf08
10003f5c:	10004305 	.word	0x10004305
10003f60:	20000e38 	.word	0x20000e38
10003f64:	d0000000 	.word	0xd0000000

10003f68 <__wrap___aeabi_cdrcmple>:
10003f68:	b5ff      	push	{r0, r1, r2, r3, r4, r5, r6, r7, lr}
10003f6a:	4050      	eors	r0, r2
10003f6c:	4042      	eors	r2, r0
10003f6e:	4050      	eors	r0, r2
10003f70:	4059      	eors	r1, r3
10003f72:	404b      	eors	r3, r1
10003f74:	4059      	eors	r1, r3
10003f76:	e000      	b.n	10003f7a <__aeabi_dfcmple_guts>

10003f78 <__wrap___aeabi_cdcmpeq>:
10003f78:	b5ff      	push	{r0, r1, r2, r3, r4, r5, r6, r7, lr}

10003f7a <__aeabi_dfcmple_guts>:
10003f7a:	4f15      	ldr	r7, [pc, #84]	; (10003fd0 <__aeabi_dfcmple_guts+0x56>)
10003f7c:	004c      	lsls	r4, r1, #1
10003f7e:	0d64      	lsrs	r4, r4, #21
10003f80:	d003      	beq.n	10003f8a <__aeabi_dfcmple_guts+0x10>
10003f82:	42bc      	cmp	r4, r7
10003f84:	d104      	bne.n	10003f90 <__aeabi_dfcmple_guts+0x16>
10003f86:	030c      	lsls	r4, r1, #12
10003f88:	d814      	bhi.n	10003fb4 <__aeabi_dfcmple_guts+0x3a>
10003f8a:	2000      	movs	r0, #0
10003f8c:	0d09      	lsrs	r1, r1, #20
10003f8e:	0509      	lsls	r1, r1, #20
10003f90:	005c      	lsls	r4, r3, #1
10003f92:	0d64      	lsrs	r4, r4, #21
10003f94:	d003      	beq.n	10003f9e <__aeabi_dfcmple_guts+0x24>
10003f96:	42bc      	cmp	r4, r7
10003f98:	d104      	bne.n	10003fa4 <__aeabi_dfcmple_guts+0x2a>
10003f9a:	031c      	lsls	r4, r3, #12
10003f9c:	d80a      	bhi.n	10003fb4 <__aeabi_dfcmple_guts+0x3a>
10003f9e:	2200      	movs	r2, #0
10003fa0:	0d1b      	lsrs	r3, r3, #20
10003fa2:	051b      	lsls	r3, r3, #20
10003fa4:	2601      	movs	r6, #1
10003fa6:	404b      	eors	r3, r1
10003fa8:	d409      	bmi.n	10003fbe <__aeabi_dfcmple_guts+0x44>
10003faa:	404b      	eors	r3, r1
10003fac:	d503      	bpl.n	10003fb6 <__aeabi_dfcmple_guts+0x3c>
10003fae:	428b      	cmp	r3, r1
10003fb0:	d100      	bne.n	10003fb4 <__aeabi_dfcmple_guts+0x3a>
10003fb2:	4282      	cmp	r2, r0
10003fb4:	bdff      	pop	{r0, r1, r2, r3, r4, r5, r6, r7, pc}
10003fb6:	4299      	cmp	r1, r3
10003fb8:	d1fc      	bne.n	10003fb4 <__aeabi_dfcmple_guts+0x3a>
10003fba:	4290      	cmp	r0, r2
10003fbc:	bdff      	pop	{r0, r1, r2, r3, r4, r5, r6, r7, pc}
10003fbe:	430b      	orrs	r3, r1
10003fc0:	18db      	adds	r3, r3, r3
10003fc2:	4303      	orrs	r3, r0
10003fc4:	4313      	orrs	r3, r2
10003fc6:	d0f5      	beq.n	10003fb4 <__aeabi_dfcmple_guts+0x3a>
10003fc8:	43c9      	mvns	r1, r1
10003fca:	1849      	adds	r1, r1, r1
10003fcc:	bdff      	pop	{r0, r1, r2, r3, r4, r5, r6, r7, pc}
10003fce:	0000      	.short	0x0000
10003fd0:	000007ff 	.word	0x000007ff

10003fd4 <__wrap___aeabi_dcmplt>:
10003fd4:	b500      	push	{lr}
10003fd6:	f7ff ffcf 	bl	10003f78 <__wrap___aeabi_cdcmpeq>
10003fda:	4180      	sbcs	r0, r0
10003fdc:	bd00      	pop	{pc}
10003fde:	46c0      	nop			; (mov r8, r8)

10003fe0 <__wrap___aeabi_dcmple>:
10003fe0:	b500      	push	{lr}
10003fe2:	f7ff ffc9 	bl	10003f78 <__wrap___aeabi_cdcmpeq>
10003fe6:	d901      	bls.n	10003fec <__wrap___aeabi_dcmple+0xc>
10003fe8:	2000      	movs	r0, #0
10003fea:	bd00      	pop	{pc}
10003fec:	2001      	movs	r0, #1
10003fee:	bd00      	pop	{pc}

10003ff0 <__wrap___aeabi_dcmpge>:
10003ff0:	b500      	push	{lr}
10003ff2:	f7ff ffb9 	bl	10003f68 <__wrap___aeabi_cdrcmple>
10003ff6:	d901      	bls.n	10003ffc <__wrap___aeabi_dcmpge+0xc>
10003ff8:	2000      	movs	r0, #0
10003ffa:	bd00      	pop	{pc}
10003ffc:	2001      	movs	r0, #1
10003ffe:	bd00      	pop	{pc}

10004000 <__wrap___aeabi_dcmpgt>:
10004000:	b500      	push	{lr}
10004002:	f7ff ffb1 	bl	10003f68 <__wrap___aeabi_cdrcmple>
10004006:	4180      	sbcs	r0, r0
10004008:	bd00      	pop	{pc}

1000400a <__wrap___aeabi_dcmpun>:
1000400a:	2001      	movs	r0, #1
1000400c:	0540      	lsls	r0, r0, #21
1000400e:	004a      	lsls	r2, r1, #1
10004010:	1812      	adds	r2, r2, r0
10004012:	d804      	bhi.n	1000401e <__wrap___aeabi_dcmpun+0x14>
10004014:	005a      	lsls	r2, r3, #1
10004016:	1812      	adds	r2, r2, r0
10004018:	d801      	bhi.n	1000401e <__wrap___aeabi_dcmpun+0x14>
1000401a:	2000      	movs	r0, #0
1000401c:	4770      	bx	lr
1000401e:	2001      	movs	r0, #1
10004020:	4770      	bx	lr
10004022:	2000      	movs	r0, #0
10004024:	4770      	bx	lr
	...

10004028 <__wrap___aeabi_ui2d>:
10004028:	2100      	movs	r1, #0
1000402a:	2800      	cmp	r0, #0
1000402c:	d105      	bne.n	1000403a <__wrap___aeabi_i2d+0xa>
1000402e:	4770      	bx	lr

10004030 <__wrap___aeabi_i2d>:
10004030:	17c1      	asrs	r1, r0, #31
10004032:	4048      	eors	r0, r1
10004034:	1a40      	subs	r0, r0, r1
10004036:	d0fa      	beq.n	1000402e <__wrap___aeabi_ui2d+0x6>
10004038:	07c9      	lsls	r1, r1, #31
1000403a:	b513      	push	{r0, r1, r4, lr}
1000403c:	4b06      	ldr	r3, [pc, #24]	; (10004058 <__wrap___aeabi_i2d+0x28>)
1000403e:	681b      	ldr	r3, [r3, #0]
10004040:	4798      	blx	r3
10004042:	bc0c      	pop	{r2, r3}
10004044:	1c44      	adds	r4, r0, #1
10004046:	40a2      	lsls	r2, r4
10004048:	0510      	lsls	r0, r2, #20
1000404a:	0b12      	lsrs	r2, r2, #12
1000404c:	4903      	ldr	r1, [pc, #12]	; (1000405c <__wrap___aeabi_i2d+0x2c>)
1000404e:	1b09      	subs	r1, r1, r4
10004050:	0509      	lsls	r1, r1, #20
10004052:	4319      	orrs	r1, r3
10004054:	4311      	orrs	r1, r2
10004056:	bd10      	pop	{r4, pc}
10004058:	20001c04 	.word	0x20001c04
1000405c:	0000041f 	.word	0x0000041f

10004060 <__wrap___aeabi_d2iz>:
10004060:	b510      	push	{r4, lr}
10004062:	004c      	lsls	r4, r1, #1
10004064:	0d62      	lsrs	r2, r4, #21
10004066:	2380      	movs	r3, #128	; 0x80
10004068:	18d2      	adds	r2, r2, r3
1000406a:	00db      	lsls	r3, r3, #3
1000406c:	1ad2      	subs	r2, r2, r3
1000406e:	055b      	lsls	r3, r3, #21
10004070:	2a7e      	cmp	r2, #126	; 0x7e
10004072:	dd10      	ble.n	10004096 <__wrap___aeabi_d2iz+0x36>
10004074:	3a9e      	subs	r2, #158	; 0x9e
10004076:	da13      	bge.n	100040a0 <__wrap___aeabi_d2iz+0x40>
10004078:	17cc      	asrs	r4, r1, #31
1000407a:	0309      	lsls	r1, r1, #12
1000407c:	0849      	lsrs	r1, r1, #1
1000407e:	4319      	orrs	r1, r3
10004080:	4252      	negs	r2, r2
10004082:	40d1      	lsrs	r1, r2
10004084:	0064      	lsls	r4, r4, #1
10004086:	3401      	adds	r4, #1
10004088:	3215      	adds	r2, #21
1000408a:	2a20      	cmp	r2, #32
1000408c:	da05      	bge.n	1000409a <__wrap___aeabi_d2iz+0x3a>
1000408e:	40d0      	lsrs	r0, r2
10004090:	4308      	orrs	r0, r1
10004092:	4360      	muls	r0, r4
10004094:	bd10      	pop	{r4, pc}
10004096:	2000      	movs	r0, #0
10004098:	bd10      	pop	{r4, pc}
1000409a:	4608      	mov	r0, r1
1000409c:	4360      	muls	r0, r4
1000409e:	bd10      	pop	{r4, pc}
100040a0:	0fc8      	lsrs	r0, r1, #31
100040a2:	18c0      	adds	r0, r0, r3
100040a4:	3801      	subs	r0, #1
100040a6:	bd10      	pop	{r4, pc}

100040a8 <__wrap___aeabi_d2uiz>:
100040a8:	b418      	push	{r3, r4}
100040aa:	4b04      	ldr	r3, [pc, #16]	; (100040bc <__wrap___aeabi_d2uiz+0x14>)
100040ac:	6a5b      	ldr	r3, [r3, #36]	; 0x24
100040ae:	46fc      	mov	ip, pc
100040b0:	9301      	str	r3, [sp, #4]
100040b2:	bd08      	pop	{r3, pc}
100040b4:	4611df24 	.word	0x4611df24
100040b8:	00001000 	.word	0x00001000
100040bc:	20000e38 	.word	0x20000e38

100040c0 <__wrap___aeabi_d2f>:
100040c0:	b418      	push	{r3, r4}
100040c2:	4b04      	ldr	r3, [pc, #16]	; (100040d4 <__wrap___aeabi_d2f+0x14>)
100040c4:	6fdb      	ldr	r3, [r3, #124]	; 0x7c
100040c6:	46fc      	mov	ip, pc
100040c8:	9301      	str	r3, [sp, #4]
100040ca:	bd08      	pop	{r3, pc}
100040cc:	4691df7c 	.word	0x4691df7c
100040d0:	00001000 	.word	0x00001000
100040d4:	20000e38 	.word	0x20000e38

100040d8 <__aeabi_double_init>:
100040d8:	2313      	movs	r3, #19
100040da:	b570      	push	{r4, r5, r6, lr}
100040dc:	781d      	ldrb	r5, [r3, #0]
100040de:	2d01      	cmp	r5, #1
100040e0:	d015      	beq.n	1000410e <__aeabi_double_init+0x36>
100040e2:	dd10      	ble.n	10004106 <__aeabi_double_init+0x2e>
100040e4:	481c      	ldr	r0, [pc, #112]	; (10004158 <__aeabi_double_init+0x80>)
100040e6:	f7ff fc6d 	bl	100039c4 <rom_data_lookup>
100040ea:	4c1c      	ldr	r4, [pc, #112]	; (1000415c <__aeabi_double_init+0x84>)
100040ec:	0001      	movs	r1, r0
100040ee:	2280      	movs	r2, #128	; 0x80
100040f0:	0020      	movs	r0, r4
100040f2:	f000 fc51 	bl	10004998 <__wrap___aeabi_memcpy>
100040f6:	2d02      	cmp	r5, #2
100040f8:	d006      	beq.n	10004108 <__aeabi_double_init+0x30>
100040fa:	4819      	ldr	r0, [pc, #100]	; (10004160 <__aeabi_double_init+0x88>)
100040fc:	f7ff fc5a 	bl	100039b4 <rom_func_lookup>
10004100:	4b18      	ldr	r3, [pc, #96]	; (10004164 <__aeabi_double_init+0x8c>)
10004102:	6018      	str	r0, [r3, #0]
10004104:	bd70      	pop	{r4, r5, r6, pc}
10004106:	4c15      	ldr	r4, [pc, #84]	; (1000415c <__aeabi_double_init+0x84>)
10004108:	4b17      	ldr	r3, [pc, #92]	; (10004168 <__aeabi_double_init+0x90>)
1000410a:	64a3      	str	r3, [r4, #72]	; 0x48
1000410c:	e7f5      	b.n	100040fa <__aeabi_double_init+0x22>
1000410e:	4b16      	ldr	r3, [pc, #88]	; (10004168 <__aeabi_double_init+0x90>)
10004110:	4c12      	ldr	r4, [pc, #72]	; (1000415c <__aeabi_double_init+0x84>)
10004112:	6023      	str	r3, [r4, #0]
10004114:	6063      	str	r3, [r4, #4]
10004116:	60a3      	str	r3, [r4, #8]
10004118:	60e3      	str	r3, [r4, #12]
1000411a:	6123      	str	r3, [r4, #16]
1000411c:	6163      	str	r3, [r4, #20]
1000411e:	61a3      	str	r3, [r4, #24]
10004120:	61e3      	str	r3, [r4, #28]
10004122:	6223      	str	r3, [r4, #32]
10004124:	6263      	str	r3, [r4, #36]	; 0x24
10004126:	62a3      	str	r3, [r4, #40]	; 0x28
10004128:	62e3      	str	r3, [r4, #44]	; 0x2c
1000412a:	6323      	str	r3, [r4, #48]	; 0x30
1000412c:	6363      	str	r3, [r4, #52]	; 0x34
1000412e:	63a3      	str	r3, [r4, #56]	; 0x38
10004130:	63e3      	str	r3, [r4, #60]	; 0x3c
10004132:	6423      	str	r3, [r4, #64]	; 0x40
10004134:	6463      	str	r3, [r4, #68]	; 0x44
10004136:	64a3      	str	r3, [r4, #72]	; 0x48
10004138:	64e3      	str	r3, [r4, #76]	; 0x4c
1000413a:	6523      	str	r3, [r4, #80]	; 0x50
1000413c:	6563      	str	r3, [r4, #84]	; 0x54
1000413e:	65a3      	str	r3, [r4, #88]	; 0x58
10004140:	65e3      	str	r3, [r4, #92]	; 0x5c
10004142:	6623      	str	r3, [r4, #96]	; 0x60
10004144:	6663      	str	r3, [r4, #100]	; 0x64
10004146:	66a3      	str	r3, [r4, #104]	; 0x68
10004148:	66e3      	str	r3, [r4, #108]	; 0x6c
1000414a:	6723      	str	r3, [r4, #112]	; 0x70
1000414c:	6763      	str	r3, [r4, #116]	; 0x74
1000414e:	67a3      	str	r3, [r4, #120]	; 0x78
10004150:	67e3      	str	r3, [r4, #124]	; 0x7c
10004152:	64a3      	str	r3, [r4, #72]	; 0x48
10004154:	e7d1      	b.n	100040fa <__aeabi_double_init+0x22>
10004156:	46c0      	nop			; (mov r8, r8)
10004158:	00004453 	.word	0x00004453
1000415c:	20000e38 	.word	0x20000e38
10004160:	0000334c 	.word	0x0000334c
10004164:	20001c04 	.word	0x20001c04
10004168:	1000416d 	.word	0x1000416d

1000416c <double_table_shim_on_use_helper>:
1000416c:	b507      	push	{r0, r1, r2, lr}
1000416e:	4660      	mov	r0, ip
10004170:	8801      	ldrh	r1, [r0, #0]
10004172:	0a0a      	lsrs	r2, r1, #8
10004174:	3002      	adds	r0, #2
10004176:	2adf      	cmp	r2, #223	; 0xdf
10004178:	d1fa      	bne.n	10004170 <double_table_shim_on_use_helper+0x4>
1000417a:	b2c9      	uxtb	r1, r1
1000417c:	0882      	lsrs	r2, r0, #2
1000417e:	d304      	bcc.n	1000418a <double_table_shim_on_use_helper+0x1e>
10004180:	8802      	ldrh	r2, [r0, #0]
10004182:	8840      	ldrh	r0, [r0, #2]
10004184:	0400      	lsls	r0, r0, #16
10004186:	4310      	orrs	r0, r2
10004188:	e000      	b.n	1000418c <double_table_shim_on_use_helper+0x20>
1000418a:	6800      	ldr	r0, [r0, #0]
1000418c:	4a01      	ldr	r2, [pc, #4]	; (10004194 <double_table_shim_on_use_helper+0x28>)
1000418e:	5050      	str	r0, [r2, r1]
10004190:	9003      	str	r0, [sp, #12]
10004192:	bd07      	pop	{r0, r1, r2, pc}
10004194:	20000e38 	.word	0x20000e38

10004198 <drsub_shim>:
10004198:	b40f      	push	{r0, r1, r2, r3}
1000419a:	bc03      	pop	{r0, r1}
1000419c:	bc0c      	pop	{r2, r3}

1000419e <dsub_shim>:
1000419e:	b5f0      	push	{r4, r5, r6, r7, lr}
100041a0:	2401      	movs	r4, #1
100041a2:	07e4      	lsls	r4, r4, #31
100041a4:	4063      	eors	r3, r4
100041a6:	e000      	b.n	100041aa <da_entry>

100041a8 <dadd_shim>:
100041a8:	b5f0      	push	{r4, r5, r6, r7, lr}

100041aa <da_entry>:
100041aa:	0d0c      	lsrs	r4, r1, #20
100041ac:	0fcf      	lsrs	r7, r1, #31
100041ae:	1e66      	subs	r6, r4, #1
100041b0:	0536      	lsls	r6, r6, #20
100041b2:	1b89      	subs	r1, r1, r6
100041b4:	0564      	lsls	r4, r4, #21
100041b6:	d303      	bcc.n	100041c0 <l7_1>
100041b8:	43c9      	mvns	r1, r1
100041ba:	4240      	negs	r0, r0
100041bc:	d300      	bcc.n	100041c0 <l7_1>
100041be:	3101      	adds	r1, #1

100041c0 <l7_1>:
100041c0:	0d64      	lsrs	r4, r4, #21
100041c2:	d003      	beq.n	100041cc <l7_2>
100041c4:	1c66      	adds	r6, r4, #1
100041c6:	0af6      	lsrs	r6, r6, #11
100041c8:	d007      	beq.n	100041da <l7_3>
100041ca:	1be4      	subs	r4, r4, r7

100041cc <l7_2>:
100041cc:	2000      	movs	r0, #0
100041ce:	007f      	lsls	r7, r7, #1
100041d0:	1c79      	adds	r1, r7, #1
100041d2:	0789      	lsls	r1, r1, #30
100041d4:	1289      	asrs	r1, r1, #10
100041d6:	3c80      	subs	r4, #128	; 0x80
100041d8:	0324      	lsls	r4, r4, #12

100041da <l7_3>:
100041da:	0d1d      	lsrs	r5, r3, #20
100041dc:	0fdf      	lsrs	r7, r3, #31
100041de:	1e6e      	subs	r6, r5, #1
100041e0:	0536      	lsls	r6, r6, #20
100041e2:	1b9b      	subs	r3, r3, r6
100041e4:	056d      	lsls	r5, r5, #21
100041e6:	d303      	bcc.n	100041f0 <l8_1>
100041e8:	43db      	mvns	r3, r3
100041ea:	4252      	negs	r2, r2
100041ec:	d300      	bcc.n	100041f0 <l8_1>
100041ee:	3301      	adds	r3, #1

100041f0 <l8_1>:
100041f0:	0d6d      	lsrs	r5, r5, #21
100041f2:	d003      	beq.n	100041fc <l8_2>
100041f4:	1c6e      	adds	r6, r5, #1
100041f6:	0af6      	lsrs	r6, r6, #11
100041f8:	d007      	beq.n	1000420a <l8_3>
100041fa:	1bed      	subs	r5, r5, r7

100041fc <l8_2>:
100041fc:	2200      	movs	r2, #0
100041fe:	007f      	lsls	r7, r7, #1
10004200:	1c7b      	adds	r3, r7, #1
10004202:	079b      	lsls	r3, r3, #30
10004204:	129b      	asrs	r3, r3, #10
10004206:	3d80      	subs	r5, #128	; 0x80
10004208:	032d      	lsls	r5, r5, #12

1000420a <l8_3>:
1000420a:	1b2f      	subs	r7, r5, r4
1000420c:	1b66      	subs	r6, r4, r5
1000420e:	d458      	bmi.n	100042c2 <da_ygtx>
10004210:	46a4      	mov	ip, r4
10004212:	2e20      	cmp	r6, #32
10004214:	da46      	bge.n	100042a4 <da_xrgty>
10004216:	3720      	adds	r7, #32
10004218:	0014      	movs	r4, r2
1000421a:	40bc      	lsls	r4, r7

1000421c <da_xgty0>:
1000421c:	001d      	movs	r5, r3
1000421e:	40bd      	lsls	r5, r7
10004220:	40f2      	lsrs	r2, r6
10004222:	4133      	asrs	r3, r6
10004224:	432a      	orrs	r2, r5

10004226 <da_add>:
10004226:	1880      	adds	r0, r0, r2
10004228:	4159      	adcs	r1, r3

1000422a <da_pack>:
1000422a:	0fcb      	lsrs	r3, r1, #31
1000422c:	d005      	beq.n	1000423a <da_pack+0x10>
1000422e:	43c9      	mvns	r1, r1
10004230:	43c0      	mvns	r0, r0
10004232:	2200      	movs	r2, #0
10004234:	4264      	negs	r4, r4
10004236:	4150      	adcs	r0, r2
10004238:	4151      	adcs	r1, r2
1000423a:	4662      	mov	r2, ip
1000423c:	0d4d      	lsrs	r5, r1, #21
1000423e:	d128      	bne.n	10004292 <da_0>
10004240:	0d0d      	lsrs	r5, r1, #20
10004242:	d107      	bne.n	10004254 <da_1>
10004244:	2800      	cmp	r0, #0
10004246:	d01f      	beq.n	10004288 <da_5>

10004248 <da_2>:
10004248:	1924      	adds	r4, r4, r4
1000424a:	4140      	adcs	r0, r0
1000424c:	4149      	adcs	r1, r1
1000424e:	3a01      	subs	r2, #1
10004250:	0d0d      	lsrs	r5, r1, #20
10004252:	d0f9      	beq.n	10004248 <da_2>

10004254 <da_1>:
10004254:	0064      	lsls	r4, r4, #1
10004256:	d306      	bcc.n	10004266 <da_3>

10004258 <da_4>:
10004258:	3001      	adds	r0, #1
1000425a:	d300      	bcc.n	1000425e <da_4+0x6>
1000425c:	3101      	adds	r1, #1
1000425e:	2c00      	cmp	r4, #0
10004260:	d101      	bne.n	10004266 <da_3>
10004262:	0840      	lsrs	r0, r0, #1
10004264:	0040      	lsls	r0, r0, #1

10004266 <da_3>:
10004266:	3a01      	subs	r2, #1
10004268:	d40b      	bmi.n	10004282 <da_6>
1000426a:	1c94      	adds	r4, r2, #2
1000426c:	0ae4      	lsrs	r4, r4, #11
1000426e:	d104      	bne.n	1000427a <da_7>
10004270:	0512      	lsls	r2, r2, #20
10004272:	4411      	add	r1, r2
10004274:	07db      	lsls	r3, r3, #31
10004276:	4419      	add	r1, r3
10004278:	bdf0      	pop	{r4, r5, r6, r7, pc}

1000427a <da_7>:
1000427a:	07d9      	lsls	r1, r3, #31
1000427c:	4b20      	ldr	r3, [pc, #128]	; (10004300 <da_xmgty+0x4>)
1000427e:	4319      	orrs	r1, r3
10004280:	e000      	b.n	10004284 <da_6+0x2>

10004282 <da_6>:
10004282:	07d9      	lsls	r1, r3, #31
10004284:	2000      	movs	r0, #0
10004286:	bdf0      	pop	{r4, r5, r6, r7, pc}

10004288 <da_5>:
10004288:	2900      	cmp	r1, #0
1000428a:	d1dd      	bne.n	10004248 <da_2>
1000428c:	2c00      	cmp	r4, #0
1000428e:	d1db      	bne.n	10004248 <da_2>
10004290:	bdf0      	pop	{r4, r5, r6, r7, pc}

10004292 <da_0>:
10004292:	3201      	adds	r2, #1
10004294:	07c6      	lsls	r6, r0, #31
10004296:	0840      	lsrs	r0, r0, #1
10004298:	07cd      	lsls	r5, r1, #31
1000429a:	4328      	orrs	r0, r5
1000429c:	0849      	lsrs	r1, r1, #1
1000429e:	2e00      	cmp	r6, #0
100042a0:	d0e1      	beq.n	10004266 <da_3>
100042a2:	e7d9      	b.n	10004258 <da_4>

100042a4 <da_xrgty>:
100042a4:	2e3c      	cmp	r6, #60	; 0x3c
100042a6:	da29      	bge.n	100042fc <da_xmgty>
100042a8:	3e20      	subs	r6, #32
100042aa:	3740      	adds	r7, #64	; 0x40
100042ac:	0014      	movs	r4, r2
100042ae:	40bc      	lsls	r4, r7
100042b0:	d000      	beq.n	100042b4 <da_xrgty+0x10>
100042b2:	2401      	movs	r4, #1
100042b4:	40f2      	lsrs	r2, r6
100042b6:	4314      	orrs	r4, r2
100042b8:	001a      	movs	r2, r3
100042ba:	40bb      	lsls	r3, r7
100042bc:	431c      	orrs	r4, r3
100042be:	17d3      	asrs	r3, r2, #31
100042c0:	e7ac      	b.n	1000421c <da_xgty0>

100042c2 <da_ygtx>:
100042c2:	46ac      	mov	ip, r5
100042c4:	2f20      	cmp	r7, #32
100042c6:	da08      	bge.n	100042da <da_yrgtx>
100042c8:	3620      	adds	r6, #32
100042ca:	0004      	movs	r4, r0
100042cc:	40b4      	lsls	r4, r6

100042ce <da_ygtx0>:
100042ce:	000d      	movs	r5, r1
100042d0:	40b5      	lsls	r5, r6
100042d2:	40f8      	lsrs	r0, r7
100042d4:	4139      	asrs	r1, r7
100042d6:	4328      	orrs	r0, r5
100042d8:	e7a5      	b.n	10004226 <da_add>

100042da <da_yrgtx>:
100042da:	2f3c      	cmp	r7, #60	; 0x3c
100042dc:	da0c      	bge.n	100042f8 <da_ymgtx>
100042de:	3f20      	subs	r7, #32
100042e0:	3640      	adds	r6, #64	; 0x40
100042e2:	0004      	movs	r4, r0
100042e4:	40b4      	lsls	r4, r6
100042e6:	d000      	beq.n	100042ea <da_yrgtx+0x10>
100042e8:	2401      	movs	r4, #1
100042ea:	40f8      	lsrs	r0, r7
100042ec:	4304      	orrs	r4, r0
100042ee:	0008      	movs	r0, r1
100042f0:	40b1      	lsls	r1, r6
100042f2:	430c      	orrs	r4, r1
100042f4:	17c1      	asrs	r1, r0, #31
100042f6:	e7ea      	b.n	100042ce <da_ygtx0>

100042f8 <da_ymgtx>:
100042f8:	0010      	movs	r0, r2
100042fa:	0019      	movs	r1, r3

100042fc <da_xmgty>:
100042fc:	2400      	movs	r4, #0
100042fe:	e794      	b.n	1000422a <da_pack>
10004300:	7ff00000 	.word	0x7ff00000

10004304 <dmul_shim>:
10004304:	b5f0      	push	{r4, r5, r6, r7, lr}
10004306:	0d0c      	lsrs	r4, r1, #20
10004308:	1e66      	subs	r6, r4, #1
1000430a:	0536      	lsls	r6, r6, #20
1000430c:	1b89      	subs	r1, r1, r6
1000430e:	0ae6      	lsrs	r6, r4, #11
10004310:	0564      	lsls	r4, r4, #21
10004312:	0d64      	lsrs	r4, r4, #21
10004314:	d002      	beq.n	1000431c <l11_1>
10004316:	1c65      	adds	r5, r4, #1
10004318:	0aed      	lsrs	r5, r5, #11
1000431a:	d004      	beq.n	10004326 <l11_2>

1000431c <l11_1>:
1000431c:	2000      	movs	r0, #0
1000431e:	2101      	movs	r1, #1
10004320:	0509      	lsls	r1, r1, #20
10004322:	3c80      	subs	r4, #128	; 0x80
10004324:	0324      	lsls	r4, r4, #12

10004326 <l11_2>:
10004326:	46a4      	mov	ip, r4
10004328:	0d1c      	lsrs	r4, r3, #20
1000432a:	1e67      	subs	r7, r4, #1
1000432c:	053f      	lsls	r7, r7, #20
1000432e:	1bdb      	subs	r3, r3, r7
10004330:	0ae7      	lsrs	r7, r4, #11
10004332:	0564      	lsls	r4, r4, #21
10004334:	0d64      	lsrs	r4, r4, #21
10004336:	d002      	beq.n	1000433e <l12_1>
10004338:	1c65      	adds	r5, r4, #1
1000433a:	0aed      	lsrs	r5, r5, #11
1000433c:	d004      	beq.n	10004348 <l12_2>

1000433e <l12_1>:
1000433e:	2200      	movs	r2, #0
10004340:	2301      	movs	r3, #1
10004342:	051b      	lsls	r3, r3, #20
10004344:	3c80      	subs	r4, #128	; 0x80
10004346:	0324      	lsls	r4, r4, #12

10004348 <l12_2>:
10004348:	4077      	eors	r7, r6
1000434a:	4464      	add	r4, ip
1000434c:	b497      	push	{r0, r1, r2, r4, r7}
1000434e:	b284      	uxth	r4, r0
10004350:	b296      	uxth	r6, r2
10004352:	4374      	muls	r4, r6
10004354:	0c07      	lsrs	r7, r0, #16
10004356:	437e      	muls	r6, r7
10004358:	0c15      	lsrs	r5, r2, #16
1000435a:	436f      	muls	r7, r5
1000435c:	b280      	uxth	r0, r0
1000435e:	4368      	muls	r0, r5
10004360:	1836      	adds	r6, r6, r0
10004362:	d302      	bcc.n	1000436a <l13_1>
10004364:	2001      	movs	r0, #1
10004366:	0400      	lsls	r0, r0, #16
10004368:	183f      	adds	r7, r7, r0

1000436a <l13_1>:
1000436a:	0430      	lsls	r0, r6, #16
1000436c:	0c35      	lsrs	r5, r6, #16
1000436e:	1900      	adds	r0, r0, r4
10004370:	417d      	adcs	r5, r7
10004372:	4684      	mov	ip, r0
10004374:	b288      	uxth	r0, r1
10004376:	b29a      	uxth	r2, r3
10004378:	4350      	muls	r0, r2
1000437a:	0c0c      	lsrs	r4, r1, #16
1000437c:	4362      	muls	r2, r4
1000437e:	0c1f      	lsrs	r7, r3, #16
10004380:	437c      	muls	r4, r7
10004382:	b28e      	uxth	r6, r1
10004384:	437e      	muls	r6, r7
10004386:	1992      	adds	r2, r2, r6
10004388:	d302      	bcc.n	10004390 <l14_1>
1000438a:	2601      	movs	r6, #1
1000438c:	0436      	lsls	r6, r6, #16
1000438e:	19a4      	adds	r4, r4, r6

10004390 <l14_1>:
10004390:	0416      	lsls	r6, r2, #16
10004392:	0c17      	lsrs	r7, r2, #16
10004394:	1836      	adds	r6, r6, r0
10004396:	4167      	adcs	r7, r4
10004398:	bc01      	pop	{r0}
1000439a:	b281      	uxth	r1, r0
1000439c:	b29a      	uxth	r2, r3
1000439e:	4351      	muls	r1, r2
100043a0:	0c04      	lsrs	r4, r0, #16
100043a2:	4362      	muls	r2, r4
100043a4:	0c1b      	lsrs	r3, r3, #16
100043a6:	435c      	muls	r4, r3
100043a8:	b280      	uxth	r0, r0
100043aa:	4358      	muls	r0, r3
100043ac:	1812      	adds	r2, r2, r0
100043ae:	d302      	bcc.n	100043b6 <l15_1>
100043b0:	2001      	movs	r0, #1
100043b2:	0400      	lsls	r0, r0, #16
100043b4:	1824      	adds	r4, r4, r0

100043b6 <l15_1>:
100043b6:	0410      	lsls	r0, r2, #16
100043b8:	0c13      	lsrs	r3, r2, #16
100043ba:	1840      	adds	r0, r0, r1
100043bc:	4163      	adcs	r3, r4
100043be:	182d      	adds	r5, r5, r0
100043c0:	415e      	adcs	r6, r3
100043c2:	2000      	movs	r0, #0
100043c4:	4147      	adcs	r7, r0
100043c6:	bc06      	pop	{r1, r2}
100043c8:	b288      	uxth	r0, r1
100043ca:	b293      	uxth	r3, r2
100043cc:	4358      	muls	r0, r3
100043ce:	0c0c      	lsrs	r4, r1, #16
100043d0:	4363      	muls	r3, r4
100043d2:	0c12      	lsrs	r2, r2, #16
100043d4:	4354      	muls	r4, r2
100043d6:	b289      	uxth	r1, r1
100043d8:	4351      	muls	r1, r2
100043da:	185b      	adds	r3, r3, r1
100043dc:	d302      	bcc.n	100043e4 <l16_1>
100043de:	2101      	movs	r1, #1
100043e0:	0409      	lsls	r1, r1, #16
100043e2:	1864      	adds	r4, r4, r1

100043e4 <l16_1>:
100043e4:	0419      	lsls	r1, r3, #16
100043e6:	0c1a      	lsrs	r2, r3, #16
100043e8:	1809      	adds	r1, r1, r0
100043ea:	4162      	adcs	r2, r4
100043ec:	186d      	adds	r5, r5, r1
100043ee:	4156      	adcs	r6, r2
100043f0:	2000      	movs	r0, #0
100043f2:	4147      	adcs	r7, r0
100043f4:	bc18      	pop	{r3, r4}
100043f6:	02f9      	lsls	r1, r7, #11
100043f8:	0d72      	lsrs	r2, r6, #21
100043fa:	4311      	orrs	r1, r2
100043fc:	02f0      	lsls	r0, r6, #11
100043fe:	0d6a      	lsrs	r2, r5, #21
10004400:	4310      	orrs	r0, r2
10004402:	02ed      	lsls	r5, r5, #11
10004404:	0d0a      	lsrs	r2, r1, #20
10004406:	d103      	bne.n	10004410 <l16_1+0x2c>
10004408:	196d      	adds	r5, r5, r5
1000440a:	4140      	adcs	r0, r0
1000440c:	4149      	adcs	r1, r1
1000440e:	3b01      	subs	r3, #1
10004410:	4e12      	ldr	r6, [pc, #72]	; (1000445c <dm_1+0xa>)
10004412:	1b9b      	subs	r3, r3, r6
10004414:	0076      	lsls	r6, r6, #1
10004416:	42b3      	cmp	r3, r6
10004418:	d20e      	bcs.n	10004438 <dm_0>
1000441a:	006d      	lsls	r5, r5, #1
1000441c:	d307      	bcc.n	1000442e <l16_1+0x4a>
1000441e:	3001      	adds	r0, #1
10004420:	2600      	movs	r6, #0
10004422:	4171      	adcs	r1, r6
10004424:	4666      	mov	r6, ip
10004426:	4335      	orrs	r5, r6
10004428:	d101      	bne.n	1000442e <l16_1+0x4a>
1000442a:	0840      	lsrs	r0, r0, #1
1000442c:	0040      	lsls	r0, r0, #1
1000442e:	051b      	lsls	r3, r3, #20
10004430:	18c9      	adds	r1, r1, r3

10004432 <dm_2>:
10004432:	07e4      	lsls	r4, r4, #31
10004434:	4421      	add	r1, r4
10004436:	bdf0      	pop	{r4, r5, r6, r7, pc}

10004438 <dm_0>:
10004438:	da0b      	bge.n	10004452 <dm_1>
1000443a:	3301      	adds	r3, #1
1000443c:	d106      	bne.n	1000444c <dm_0+0x14>
1000443e:	3001      	adds	r0, #1
10004440:	d104      	bne.n	1000444c <dm_0+0x14>
10004442:	3101      	adds	r1, #1
10004444:	0d4f      	lsrs	r7, r1, #21
10004446:	d001      	beq.n	1000444c <dm_0+0x14>
10004448:	0849      	lsrs	r1, r1, #1
1000444a:	e7f2      	b.n	10004432 <dm_2>
1000444c:	07e1      	lsls	r1, r4, #31
1000444e:	2000      	movs	r0, #0
10004450:	bdf0      	pop	{r4, r5, r6, r7, pc}

10004452 <dm_1>:
10004452:	3601      	adds	r6, #1
10004454:	0531      	lsls	r1, r6, #20
10004456:	2000      	movs	r0, #0
10004458:	e7eb      	b.n	10004432 <dm_2>
1000445a:	0000      	.short	0x0000
1000445c:	000003ff 	.word	0x000003ff

10004460 <ddiv_shim>:
10004460:	b5f0      	push	{r4, r5, r6, r7, lr}

10004462 <ddiv0>:
10004462:	0d1c      	lsrs	r4, r3, #20
10004464:	1e67      	subs	r7, r4, #1
10004466:	053f      	lsls	r7, r7, #20
10004468:	1bdb      	subs	r3, r3, r7
1000446a:	0ae7      	lsrs	r7, r4, #11
1000446c:	0564      	lsls	r4, r4, #21
1000446e:	0d64      	lsrs	r4, r4, #21
10004470:	d002      	beq.n	10004478 <l19_1>
10004472:	1c66      	adds	r6, r4, #1
10004474:	0af6      	lsrs	r6, r6, #11
10004476:	d004      	beq.n	10004482 <l19_2>

10004478 <l19_1>:
10004478:	2200      	movs	r2, #0
1000447a:	2301      	movs	r3, #1
1000447c:	051b      	lsls	r3, r3, #20
1000447e:	3c80      	subs	r4, #128	; 0x80
10004480:	0324      	lsls	r4, r4, #12

10004482 <l19_2>:
10004482:	25d0      	movs	r5, #208	; 0xd0
10004484:	062d      	lsls	r5, r5, #24
10004486:	2600      	movs	r6, #0
10004488:	43f6      	mvns	r6, r6
1000448a:	662e      	str	r6, [r5, #96]	; 0x60
1000448c:	091e      	lsrs	r6, r3, #4
1000448e:	666e      	str	r6, [r5, #100]	; 0x64
10004490:	0fce      	lsrs	r6, r1, #31
10004492:	19f6      	adds	r6, r6, r7
10004494:	46b4      	mov	ip, r6
10004496:	0049      	lsls	r1, r1, #1
10004498:	0d4f      	lsrs	r7, r1, #21
1000449a:	d002      	beq.n	100044a2 <l19_2+0x20>
1000449c:	1c7e      	adds	r6, r7, #1
1000449e:	0af6      	lsrs	r6, r6, #11
100044a0:	d003      	beq.n	100044aa <l19_2+0x28>
100044a2:	2000      	movs	r0, #0
100044a4:	2100      	movs	r1, #0
100044a6:	3f40      	subs	r7, #64	; 0x40
100044a8:	033f      	lsls	r7, r7, #12
100044aa:	1b3e      	subs	r6, r7, r4
100044ac:	00b6      	lsls	r6, r6, #2
100044ae:	44b4      	add	ip, r6
100044b0:	3f01      	subs	r7, #1
100044b2:	057f      	lsls	r7, r7, #21
100044b4:	1bc9      	subs	r1, r1, r7
100044b6:	0849      	lsrs	r1, r1, #1
100044b8:	6f2e      	ldr	r6, [r5, #112]	; 0x70
100044ba:	3601      	adds	r6, #1
100044bc:	0876      	lsrs	r6, r6, #1
100044be:	029c      	lsls	r4, r3, #10
100044c0:	0d95      	lsrs	r5, r2, #22
100044c2:	4325      	orrs	r5, r4
100044c4:	4375      	muls	r5, r6
100044c6:	13ed      	asrs	r5, r5, #15
100044c8:	4375      	muls	r5, r6
100044ca:	13ad      	asrs	r5, r5, #14
100044cc:	3501      	adds	r5, #1
100044ce:	106d      	asrs	r5, r5, #1
100044d0:	03f6      	lsls	r6, r6, #15
100044d2:	1b76      	subs	r6, r6, r5
100044d4:	b40c      	push	{r2, r3}
100044d6:	02cc      	lsls	r4, r1, #11
100044d8:	0d45      	lsrs	r5, r0, #21
100044da:	432c      	orrs	r4, r5
100044dc:	b2a2      	uxth	r2, r4
100044de:	b2b3      	uxth	r3, r6
100044e0:	435a      	muls	r2, r3
100044e2:	0c27      	lsrs	r7, r4, #16
100044e4:	437b      	muls	r3, r7
100044e6:	0c35      	lsrs	r5, r6, #16
100044e8:	436f      	muls	r7, r5
100044ea:	b2a4      	uxth	r4, r4
100044ec:	436c      	muls	r4, r5
100044ee:	191b      	adds	r3, r3, r4
100044f0:	d302      	bcc.n	100044f8 <l20_1>
100044f2:	2401      	movs	r4, #1
100044f4:	0424      	lsls	r4, r4, #16
100044f6:	193f      	adds	r7, r7, r4

100044f8 <l20_1>:
100044f8:	041c      	lsls	r4, r3, #16
100044fa:	0c1d      	lsrs	r5, r3, #16
100044fc:	18a4      	adds	r4, r4, r2
100044fe:	417d      	adcs	r5, r7
10004500:	1924      	adds	r4, r4, r4
10004502:	416d      	adcs	r5, r5
10004504:	9a00      	ldr	r2, [sp, #0]
10004506:	b291      	uxth	r1, r2
10004508:	b2ac      	uxth	r4, r5
1000450a:	4361      	muls	r1, r4
1000450c:	0c17      	lsrs	r7, r2, #16
1000450e:	437c      	muls	r4, r7
10004510:	0c2b      	lsrs	r3, r5, #16
10004512:	435f      	muls	r7, r3
10004514:	b292      	uxth	r2, r2
10004516:	435a      	muls	r2, r3
10004518:	18a4      	adds	r4, r4, r2
1000451a:	d302      	bcc.n	10004522 <l21_1>
1000451c:	2201      	movs	r2, #1
1000451e:	0412      	lsls	r2, r2, #16
10004520:	18bf      	adds	r7, r7, r2

10004522 <l21_1>:
10004522:	0422      	lsls	r2, r4, #16
10004524:	0c23      	lsrs	r3, r4, #16
10004526:	1852      	adds	r2, r2, r1
10004528:	417b      	adcs	r3, r7
1000452a:	9c01      	ldr	r4, [sp, #4]
1000452c:	436c      	muls	r4, r5
1000452e:	191b      	adds	r3, r3, r4
10004530:	0e52      	lsrs	r2, r2, #25
10004532:	01d9      	lsls	r1, r3, #7
10004534:	430a      	orrs	r2, r1
10004536:	0144      	lsls	r4, r0, #5
10004538:	1aa0      	subs	r0, r4, r2
1000453a:	b281      	uxth	r1, r0
1000453c:	b2b2      	uxth	r2, r6
1000453e:	4351      	muls	r1, r2
10004540:	1403      	asrs	r3, r0, #16
10004542:	435a      	muls	r2, r3
10004544:	0c36      	lsrs	r6, r6, #16
10004546:	4373      	muls	r3, r6
10004548:	b287      	uxth	r7, r0
1000454a:	4377      	muls	r7, r6
1000454c:	17d6      	asrs	r6, r2, #31
1000454e:	19d2      	adds	r2, r2, r7
10004550:	2700      	movs	r7, #0
10004552:	417e      	adcs	r6, r7
10004554:	0436      	lsls	r6, r6, #16
10004556:	199b      	adds	r3, r3, r6
10004558:	0417      	lsls	r7, r2, #16
1000455a:	0c16      	lsrs	r6, r2, #16
1000455c:	187f      	adds	r7, r7, r1
1000455e:	415e      	adcs	r6, r3
10004560:	1673      	asrs	r3, r6, #25
10004562:	18ed      	adds	r5, r5, r3
10004564:	01f3      	lsls	r3, r6, #7
10004566:	2600      	movs	r6, #0
10004568:	3380      	adds	r3, #128	; 0x80
1000456a:	4175      	adcs	r5, r6
1000456c:	0fa9      	lsrs	r1, r5, #30
1000456e:	d106      	bne.n	1000457e <dd_0>
10004570:	0064      	lsls	r4, r4, #1
10004572:	0a69      	lsrs	r1, r5, #9
10004574:	05e8      	lsls	r0, r5, #23
10004576:	0a5b      	lsrs	r3, r3, #9
10004578:	4318      	orrs	r0, r3
1000457a:	d209      	bcs.n	10004590 <dd_1>
1000457c:	e02f      	b.n	100045de <dd_2>

1000457e <dd_0>:
1000457e:	2204      	movs	r2, #4
10004580:	4494      	add	ip, r2
10004582:	3380      	adds	r3, #128	; 0x80
10004584:	4175      	adcs	r5, r6
10004586:	0aa9      	lsrs	r1, r5, #10
10004588:	05a8      	lsls	r0, r5, #22
1000458a:	0a9b      	lsrs	r3, r3, #10
1000458c:	4318      	orrs	r0, r3
1000458e:	d326      	bcc.n	100045de <dd_2>

10004590 <dd_1>:
10004590:	4140      	adcs	r0, r0
10004592:	4149      	adcs	r1, r1
10004594:	0424      	lsls	r4, r4, #16
10004596:	9a00      	ldr	r2, [sp, #0]
10004598:	9b01      	ldr	r3, [sp, #4]
1000459a:	000d      	movs	r5, r1
1000459c:	4355      	muls	r5, r2
1000459e:	1b64      	subs	r4, r4, r5
100045a0:	4343      	muls	r3, r0
100045a2:	1ae4      	subs	r4, r4, r3
100045a4:	b295      	uxth	r5, r2
100045a6:	b286      	uxth	r6, r0
100045a8:	4375      	muls	r5, r6
100045aa:	0c17      	lsrs	r7, r2, #16
100045ac:	437e      	muls	r6, r7
100045ae:	0c03      	lsrs	r3, r0, #16
100045b0:	435f      	muls	r7, r3
100045b2:	b292      	uxth	r2, r2
100045b4:	435a      	muls	r2, r3
100045b6:	18b6      	adds	r6, r6, r2
100045b8:	d302      	bcc.n	100045c0 <l23_1>
100045ba:	2201      	movs	r2, #1
100045bc:	0412      	lsls	r2, r2, #16
100045be:	18bf      	adds	r7, r7, r2

100045c0 <l23_1>:
100045c0:	0432      	lsls	r2, r6, #16
100045c2:	0c33      	lsrs	r3, r6, #16
100045c4:	1952      	adds	r2, r2, r5
100045c6:	417b      	adcs	r3, r7
100045c8:	4252      	negs	r2, r2
100045ca:	419c      	sbcs	r4, r3
100045cc:	2c00      	cmp	r4, #0
100045ce:	d402      	bmi.n	100045d6 <l23_1+0x16>
100045d0:	2200      	movs	r2, #0
100045d2:	3001      	adds	r0, #1
100045d4:	4151      	adcs	r1, r2
100045d6:	0840      	lsrs	r0, r0, #1
100045d8:	07ca      	lsls	r2, r1, #31
100045da:	4310      	orrs	r0, r2
100045dc:	0849      	lsrs	r1, r1, #1

100045de <dd_2>:
100045de:	b002      	add	sp, #8
100045e0:	4662      	mov	r2, ip
100045e2:	07d7      	lsls	r7, r2, #31
100045e4:	1092      	asrs	r2, r2, #2
100045e6:	4b08      	ldr	r3, [pc, #32]	; (10004608 <dd_4+0x6>)
100045e8:	18d2      	adds	r2, r2, r3
100045ea:	4b08      	ldr	r3, [pc, #32]	; (1000460c <dd_4+0xa>)
100045ec:	429a      	cmp	r2, r3
100045ee:	d203      	bcs.n	100045f8 <dd_3>
100045f0:	0512      	lsls	r2, r2, #20
100045f2:	1889      	adds	r1, r1, r2

100045f4 <dd_5>:
100045f4:	19c9      	adds	r1, r1, r7
100045f6:	bdf0      	pop	{r4, r5, r6, r7, pc}

100045f8 <dd_3>:
100045f8:	2000      	movs	r0, #0
100045fa:	2a00      	cmp	r2, #0
100045fc:	dc01      	bgt.n	10004602 <dd_4>
100045fe:	0039      	movs	r1, r7
10004600:	bdf0      	pop	{r4, r5, r6, r7, pc}

10004602 <dd_4>:
10004602:	3301      	adds	r3, #1
10004604:	0519      	lsls	r1, r3, #20
10004606:	e7f5      	b.n	100045f4 <dd_5>
10004608:	000003fd 	.word	0x000003fd
1000460c:	000007fe 	.word	0x000007fe

10004610 <double2uint_shim>:
10004610:	2200      	movs	r2, #0

10004612 <double2ufix_shim>:
10004612:	b500      	push	{lr}
10004614:	3220      	adds	r2, #32
10004616:	f000 f804 	bl	10004622 <double2ufix64_shim>
1000461a:	0008      	movs	r0, r1
1000461c:	bd00      	pop	{pc}
	...

10004620 <double2uint64_shim>:
10004620:	2200      	movs	r2, #0

10004622 <double2ufix64_shim>:
10004622:	150b      	asrs	r3, r1, #20
10004624:	d40a      	bmi.n	1000463c <ret_dzero>

10004626 <d2fix>:
10004626:	b510      	push	{r4, lr}
10004628:	4694      	mov	ip, r2
1000462a:	f000 f85f 	bl	100046ec <dunpacks>
1000462e:	1414      	asrs	r4, r2, #16
10004630:	3401      	adds	r4, #1
10004632:	da00      	bge.n	10004636 <d2fix+0x10>
10004634:	2100      	movs	r1, #0
10004636:	17cb      	asrs	r3, r1, #31
10004638:	4c14      	ldr	r4, [pc, #80]	; (1000468c <d2fix_a+0x4a>)
1000463a:	4720      	bx	r4

1000463c <ret_dzero>:
1000463c:	2000      	movs	r0, #0
1000463e:	2100      	movs	r1, #0
10004640:	4770      	bx	lr

10004642 <d2fix_a>:
10004642:	4462      	add	r2, ip
10004644:	3a34      	subs	r2, #52	; 0x34
10004646:	d40c      	bmi.n	10004662 <d2fix_a+0x20>
10004648:	2a0c      	cmp	r2, #12
1000464a:	da07      	bge.n	1000465c <d2fix_a+0x1a>
1000464c:	0004      	movs	r4, r0
1000464e:	4091      	lsls	r1, r2
10004650:	4090      	lsls	r0, r2
10004652:	4252      	negs	r2, r2
10004654:	3220      	adds	r2, #32
10004656:	40d4      	lsrs	r4, r2
10004658:	4321      	orrs	r1, r4
1000465a:	bd10      	pop	{r4, pc}
1000465c:	43d8      	mvns	r0, r3
1000465e:	43d9      	mvns	r1, r3
10004660:	bd10      	pop	{r4, pc}
10004662:	3220      	adds	r2, #32
10004664:	d407      	bmi.n	10004676 <d2fix_a+0x34>
10004666:	460c      	mov	r4, r1
10004668:	4094      	lsls	r4, r2
1000466a:	4252      	negs	r2, r2
1000466c:	3220      	adds	r2, #32
1000466e:	4111      	asrs	r1, r2
10004670:	40d0      	lsrs	r0, r2
10004672:	4320      	orrs	r0, r4
10004674:	bd10      	pop	{r4, pc}
10004676:	0008      	movs	r0, r1
10004678:	17c9      	asrs	r1, r1, #31
1000467a:	3220      	adds	r2, #32
1000467c:	d403      	bmi.n	10004686 <d2fix_a+0x44>
1000467e:	4252      	negs	r2, r2
10004680:	3220      	adds	r2, #32
10004682:	4110      	asrs	r0, r2
10004684:	bd10      	pop	{r4, pc}
10004686:	0018      	movs	r0, r3
10004688:	0019      	movs	r1, r3
1000468a:	bd10      	pop	{r4, pc}
1000468c:	10004643 	.word	0x10004643

10004690 <double2float_shim>:
10004690:	004a      	lsls	r2, r1, #1
10004692:	0d52      	lsrs	r2, r2, #21
10004694:	4b14      	ldr	r3, [pc, #80]	; (100046e8 <double2float_shim+0x58>)
10004696:	1ad2      	subs	r2, r2, r3
10004698:	dd13      	ble.n	100046c2 <double2float_shim+0x32>
1000469a:	2aff      	cmp	r2, #255	; 0xff
1000469c:	da1e      	bge.n	100046dc <double2float_shim+0x4c>
1000469e:	05d2      	lsls	r2, r2, #23
100046a0:	0fcb      	lsrs	r3, r1, #31
100046a2:	07db      	lsls	r3, r3, #31
100046a4:	431a      	orrs	r2, r3
100046a6:	00c3      	lsls	r3, r0, #3
100046a8:	0f40      	lsrs	r0, r0, #29
100046aa:	0309      	lsls	r1, r1, #12
100046ac:	0a49      	lsrs	r1, r1, #9
100046ae:	4308      	orrs	r0, r1
100046b0:	4310      	orrs	r0, r2
100046b2:	005b      	lsls	r3, r3, #1
100046b4:	d301      	bcc.n	100046ba <double2float_shim+0x2a>
100046b6:	d001      	beq.n	100046bc <double2float_shim+0x2c>
100046b8:	3001      	adds	r0, #1
100046ba:	4770      	bx	lr
100046bc:	0843      	lsrs	r3, r0, #1
100046be:	d2fb      	bcs.n	100046b8 <double2float_shim+0x28>
100046c0:	4770      	bx	lr
100046c2:	d002      	beq.n	100046ca <double2float_shim+0x3a>
100046c4:	0fc8      	lsrs	r0, r1, #31
100046c6:	07c0      	lsls	r0, r0, #31
100046c8:	4770      	bx	lr
100046ca:	030a      	lsls	r2, r1, #12
100046cc:	1312      	asrs	r2, r2, #12
100046ce:	3201      	adds	r2, #1
100046d0:	d1f8      	bne.n	100046c4 <double2float_shim+0x34>
100046d2:	0f42      	lsrs	r2, r0, #29
100046d4:	2a07      	cmp	r2, #7
100046d6:	d1f5      	bne.n	100046c4 <double2float_shim+0x34>
100046d8:	2201      	movs	r2, #1
100046da:	e000      	b.n	100046de <double2float_shim+0x4e>
100046dc:	22ff      	movs	r2, #255	; 0xff
100046de:	0fc8      	lsrs	r0, r1, #31
100046e0:	0200      	lsls	r0, r0, #8
100046e2:	1880      	adds	r0, r0, r2
100046e4:	05c0      	lsls	r0, r0, #23
100046e6:	4770      	bx	lr
100046e8:	00000380 	.word	0x00000380

100046ec <dunpacks>:
100046ec:	0d0a      	lsrs	r2, r1, #20
100046ee:	0fcc      	lsrs	r4, r1, #31
100046f0:	1e53      	subs	r3, r2, #1
100046f2:	051b      	lsls	r3, r3, #20
100046f4:	1ac9      	subs	r1, r1, r3
100046f6:	0552      	lsls	r2, r2, #21
100046f8:	d303      	bcc.n	10004702 <l59_1>
100046fa:	43c9      	mvns	r1, r1
100046fc:	4240      	negs	r0, r0
100046fe:	d300      	bcc.n	10004702 <l59_1>
10004700:	3101      	adds	r1, #1

10004702 <l59_1>:
10004702:	0d52      	lsrs	r2, r2, #21
10004704:	d003      	beq.n	1000470e <l59_2>
10004706:	1c53      	adds	r3, r2, #1
10004708:	0adb      	lsrs	r3, r3, #11
1000470a:	d007      	beq.n	1000471c <l59_3>
1000470c:	1b12      	subs	r2, r2, r4

1000470e <l59_2>:
1000470e:	2000      	movs	r0, #0
10004710:	0064      	lsls	r4, r4, #1
10004712:	1c61      	adds	r1, r4, #1
10004714:	0789      	lsls	r1, r1, #30
10004716:	1289      	asrs	r1, r1, #10
10004718:	3a80      	subs	r2, #128	; 0x80
1000471a:	0312      	lsls	r2, r2, #12

1000471c <l59_3>:
1000471c:	4b01      	ldr	r3, [pc, #4]	; (10004724 <l59_3+0x8>)
1000471e:	1ad2      	subs	r2, r2, r3
10004720:	4770      	bx	lr
10004722:	0000      	.short	0x0000
10004724:	000003ff 	.word	0x000003ff

10004728 <__wrap___aeabi_lmul>:
10004728:	4351      	muls	r1, r2
1000472a:	4343      	muls	r3, r0
1000472c:	18c9      	adds	r1, r1, r3
1000472e:	468c      	mov	ip, r1
10004730:	0c11      	lsrs	r1, r2, #16
10004732:	b283      	uxth	r3, r0
10004734:	434b      	muls	r3, r1
10004736:	b410      	push	{r4}
10004738:	0c04      	lsrs	r4, r0, #16
1000473a:	4361      	muls	r1, r4
1000473c:	b292      	uxth	r2, r2
1000473e:	b280      	uxth	r0, r0
10004740:	4350      	muls	r0, r2
10004742:	4362      	muls	r2, r4
10004744:	041c      	lsls	r4, r3, #16
10004746:	0c1b      	lsrs	r3, r3, #16
10004748:	1900      	adds	r0, r0, r4
1000474a:	bc10      	pop	{r4}
1000474c:	4159      	adcs	r1, r3
1000474e:	0413      	lsls	r3, r2, #16
10004750:	0c12      	lsrs	r2, r2, #16
10004752:	18c0      	adds	r0, r0, r3
10004754:	4151      	adcs	r1, r2
10004756:	4461      	add	r1, ip
10004758:	4770      	bx	lr
	...

1000475c <__wrap___aeabi_frsub>:
1000475c:	4048      	eors	r0, r1
1000475e:	4041      	eors	r1, r0
10004760:	4048      	eors	r0, r1

10004762 <__wrap___aeabi_fsub>:
10004762:	4b0e      	ldr	r3, [pc, #56]	; (1000479c <__wrap___aeabi_fmul+0x6>)
10004764:	685b      	ldr	r3, [r3, #4]
10004766:	4718      	bx	r3

10004768 <__wrap___aeabi_fadd>:
10004768:	4b0c      	ldr	r3, [pc, #48]	; (1000479c <__wrap___aeabi_fmul+0x6>)
1000476a:	681b      	ldr	r3, [r3, #0]
1000476c:	4718      	bx	r3

1000476e <__wrap___aeabi_fdiv>:
1000476e:	4a0c      	ldr	r2, [pc, #48]	; (100047a0 <__wrap___aeabi_fmul+0xa>)
10004770:	6f93      	ldr	r3, [r2, #120]	; 0x78
10004772:	089b      	lsrs	r3, r3, #2
10004774:	d202      	bcs.n	1000477c <fdiv_save_state>

10004776 <fdiv_shim_call>:
10004776:	4b09      	ldr	r3, [pc, #36]	; (1000479c <__wrap___aeabi_fmul+0x6>)
10004778:	68db      	ldr	r3, [r3, #12]
1000477a:	4718      	bx	r3

1000477c <fdiv_save_state>:
1000477c:	b5f0      	push	{r4, r5, r6, r7, lr}
1000477e:	6e14      	ldr	r4, [r2, #96]	; 0x60
10004780:	6e55      	ldr	r5, [r2, #100]	; 0x64
10004782:	6f57      	ldr	r7, [r2, #116]	; 0x74
10004784:	6f16      	ldr	r6, [r2, #112]	; 0x70
10004786:	f7ff fff6 	bl	10004776 <fdiv_shim_call>
1000478a:	4a05      	ldr	r2, [pc, #20]	; (100047a0 <__wrap___aeabi_fmul+0xa>)
1000478c:	6614      	str	r4, [r2, #96]	; 0x60
1000478e:	6655      	str	r5, [r2, #100]	; 0x64
10004790:	6757      	str	r7, [r2, #116]	; 0x74
10004792:	6716      	str	r6, [r2, #112]	; 0x70
10004794:	bdf0      	pop	{r4, r5, r6, r7, pc}

10004796 <__wrap___aeabi_fmul>:
10004796:	4b01      	ldr	r3, [pc, #4]	; (1000479c <__wrap___aeabi_fmul+0x6>)
10004798:	689b      	ldr	r3, [r3, #8]
1000479a:	4718      	bx	r3
1000479c:	20000f38 	.word	0x20000f38
100047a0:	d0000000 	.word	0xd0000000

100047a4 <__wrap___aeabi_ui2f>:
100047a4:	1a49      	subs	r1, r1, r1
100047a6:	2800      	cmp	r0, #0
100047a8:	d108      	bne.n	100047bc <__aeabi_i2f_main>
100047aa:	4608      	mov	r0, r1
100047ac:	4770      	bx	lr
	...

100047b0 <__wrap___aeabi_i2f>:
100047b0:	0fc1      	lsrs	r1, r0, #31
100047b2:	07c9      	lsls	r1, r1, #31
100047b4:	d500      	bpl.n	100047b8 <__wrap___aeabi_i2f+0x8>
100047b6:	4240      	negs	r0, r0
100047b8:	2800      	cmp	r0, #0
100047ba:	d017      	beq.n	100047ec <__aeabi_i2f_main+0x30>

100047bc <__aeabi_i2f_main>:
100047bc:	46f4      	mov	ip, lr
100047be:	b403      	push	{r0, r1}
100047c0:	4b0b      	ldr	r3, [pc, #44]	; (100047f0 <__aeabi_i2f_main+0x34>)
100047c2:	681b      	ldr	r3, [r3, #0]
100047c4:	4798      	blx	r3
100047c6:	bc06      	pop	{r1, r2}
100047c8:	4081      	lsls	r1, r0
100047ca:	389e      	subs	r0, #158	; 0x9e
100047cc:	4240      	negs	r0, r0
100047ce:	3180      	adds	r1, #128	; 0x80
100047d0:	d207      	bcs.n	100047e2 <__aeabi_i2f_main+0x26>
100047d2:	060b      	lsls	r3, r1, #24
100047d4:	d007      	beq.n	100047e6 <__aeabi_i2f_main+0x2a>
100047d6:	0049      	lsls	r1, r1, #1
100047d8:	0a49      	lsrs	r1, r1, #9
100047da:	05c0      	lsls	r0, r0, #23
100047dc:	4310      	orrs	r0, r2
100047de:	4308      	orrs	r0, r1
100047e0:	4760      	bx	ip
100047e2:	3001      	adds	r0, #1
100047e4:	e7f8      	b.n	100047d8 <__aeabi_i2f_main+0x1c>
100047e6:	0a49      	lsrs	r1, r1, #9
100047e8:	0289      	lsls	r1, r1, #10
100047ea:	e7f5      	b.n	100047d8 <__aeabi_i2f_main+0x1c>
100047ec:	4770      	bx	lr
100047ee:	0000      	.short	0x0000
100047f0:	20001c04 	.word	0x20001c04

100047f4 <__wrap___aeabi_f2iz>:
100047f4:	0041      	lsls	r1, r0, #1
100047f6:	0e0a      	lsrs	r2, r1, #24
100047f8:	2380      	movs	r3, #128	; 0x80
100047fa:	061b      	lsls	r3, r3, #24
100047fc:	2a7e      	cmp	r2, #126	; 0x7e
100047fe:	dd0b      	ble.n	10004818 <__wrap___aeabi_f2iz+0x24>
10004800:	3a9e      	subs	r2, #158	; 0x9e
10004802:	da0b      	bge.n	1000481c <__wrap___aeabi_f2iz+0x28>
10004804:	17c1      	asrs	r1, r0, #31
10004806:	0240      	lsls	r0, r0, #9
10004808:	0840      	lsrs	r0, r0, #1
1000480a:	4318      	orrs	r0, r3
1000480c:	4252      	negs	r2, r2
1000480e:	40d0      	lsrs	r0, r2
10004810:	0049      	lsls	r1, r1, #1
10004812:	3101      	adds	r1, #1
10004814:	4348      	muls	r0, r1
10004816:	4770      	bx	lr
10004818:	2000      	movs	r0, #0
1000481a:	4770      	bx	lr
1000481c:	0fc0      	lsrs	r0, r0, #31
1000481e:	18c0      	adds	r0, r0, r3
10004820:	3801      	subs	r0, #1
10004822:	4770      	bx	lr
10004824:	42c0      	cmn	r0, r0
10004826:	d30d      	bcc.n	10004844 <float2int>
10004828:	b500      	push	{lr}
1000482a:	0040      	lsls	r0, r0, #1
1000482c:	0840      	lsrs	r0, r0, #1
1000482e:	2100      	movs	r1, #0
10004830:	f000 f812 	bl	10004858 <__wrap___aeabi_f2uiz>
10004834:	2800      	cmp	r0, #0
10004836:	d401      	bmi.n	1000483c <__wrap___aeabi_f2iz+0x48>
10004838:	4240      	negs	r0, r0
1000483a:	bd00      	pop	{pc}
1000483c:	2080      	movs	r0, #128	; 0x80
1000483e:	0600      	lsls	r0, r0, #24
10004840:	bd00      	pop	{pc}
	...

10004844 <float2int>:
10004844:	4b03      	ldr	r3, [pc, #12]	; (10004854 <float2int+0x10>)
10004846:	69db      	ldr	r3, [r3, #28]
10004848:	46fc      	mov	ip, pc
1000484a:	4718      	bx	r3
1000484c:	4909df1c 	.word	0x4909df1c
10004850:	00001000 	.word	0x00001000
10004854:	20000f38 	.word	0x20000f38

10004858 <__wrap___aeabi_f2uiz>:
10004858:	4b01      	ldr	r3, [pc, #4]	; (10004860 <__wrap___aeabi_f2uiz+0x8>)
1000485a:	6a5b      	ldr	r3, [r3, #36]	; 0x24
1000485c:	4718      	bx	r3
1000485e:	0000      	.short	0x0000
10004860:	20000f38 	.word	0x20000f38

10004864 <__wrap___aeabi_f2d>:
10004864:	4b03      	ldr	r3, [pc, #12]	; (10004874 <__wrap___aeabi_f2d+0x10>)
10004866:	6fdb      	ldr	r3, [r3, #124]	; 0x7c
10004868:	46fc      	mov	ip, pc
1000486a:	4718      	bx	r3
1000486c:	4921df7c 	.word	0x4921df7c
10004870:	00001000 	.word	0x00001000
10004874:	20000f38 	.word	0x20000f38

10004878 <__aeabi_float_init>:
10004878:	2313      	movs	r3, #19
1000487a:	b510      	push	{r4, lr}
1000487c:	4812      	ldr	r0, [pc, #72]	; (100048c8 <__aeabi_float_init+0x50>)
1000487e:	781c      	ldrb	r4, [r3, #0]
10004880:	f7ff f8a0 	bl	100039c4 <rom_data_lookup>
10004884:	0001      	movs	r1, r0
10004886:	2c01      	cmp	r4, #1
10004888:	d00a      	beq.n	100048a0 <__aeabi_float_init+0x28>
1000488a:	dd03      	ble.n	10004894 <__aeabi_float_init+0x1c>
1000488c:	2280      	movs	r2, #128	; 0x80
1000488e:	480f      	ldr	r0, [pc, #60]	; (100048cc <__aeabi_float_init+0x54>)
10004890:	f000 f882 	bl	10004998 <__wrap___aeabi_memcpy>
10004894:	480e      	ldr	r0, [pc, #56]	; (100048d0 <__aeabi_float_init+0x58>)
10004896:	f7ff f88d 	bl	100039b4 <rom_func_lookup>
1000489a:	4b0e      	ldr	r3, [pc, #56]	; (100048d4 <__aeabi_float_init+0x5c>)
1000489c:	6018      	str	r0, [r3, #0]
1000489e:	bd10      	pop	{r4, pc}
100048a0:	4c0a      	ldr	r4, [pc, #40]	; (100048cc <__aeabi_float_init+0x54>)
100048a2:	2254      	movs	r2, #84	; 0x54
100048a4:	0020      	movs	r0, r4
100048a6:	f000 f877 	bl	10004998 <__wrap___aeabi_memcpy>
100048aa:	4b0b      	ldr	r3, [pc, #44]	; (100048d8 <__aeabi_float_init+0x60>)
100048ac:	6563      	str	r3, [r4, #84]	; 0x54
100048ae:	65a3      	str	r3, [r4, #88]	; 0x58
100048b0:	65e3      	str	r3, [r4, #92]	; 0x5c
100048b2:	6623      	str	r3, [r4, #96]	; 0x60
100048b4:	6663      	str	r3, [r4, #100]	; 0x64
100048b6:	66a3      	str	r3, [r4, #104]	; 0x68
100048b8:	66e3      	str	r3, [r4, #108]	; 0x6c
100048ba:	6723      	str	r3, [r4, #112]	; 0x70
100048bc:	6763      	str	r3, [r4, #116]	; 0x74
100048be:	67a3      	str	r3, [r4, #120]	; 0x78
100048c0:	67e3      	str	r3, [r4, #124]	; 0x7c
100048c2:	6223      	str	r3, [r4, #32]
100048c4:	61e3      	str	r3, [r4, #28]
100048c6:	e7e5      	b.n	10004894 <__aeabi_float_init+0x1c>
100048c8:	00004653 	.word	0x00004653
100048cc:	20000f38 	.word	0x20000f38
100048d0:	0000334c 	.word	0x0000334c
100048d4:	20001c04 	.word	0x20001c04
100048d8:	100048dd 	.word	0x100048dd

100048dc <float_table_shim_on_use_helper>:
100048dc:	b507      	push	{r0, r1, r2, lr}
100048de:	4660      	mov	r0, ip
100048e0:	8801      	ldrh	r1, [r0, #0]
100048e2:	0a0a      	lsrs	r2, r1, #8
100048e4:	3002      	adds	r0, #2
100048e6:	2adf      	cmp	r2, #223	; 0xdf
100048e8:	d1fa      	bne.n	100048e0 <float_table_shim_on_use_helper+0x4>
100048ea:	b2c9      	uxtb	r1, r1
100048ec:	0882      	lsrs	r2, r0, #2
100048ee:	d304      	bcc.n	100048fa <float_table_shim_on_use_helper+0x1e>
100048f0:	8802      	ldrh	r2, [r0, #0]
100048f2:	8840      	ldrh	r0, [r0, #2]
100048f4:	0400      	lsls	r0, r0, #16
100048f6:	4310      	orrs	r0, r2
100048f8:	e000      	b.n	100048fc <float_table_shim_on_use_helper+0x20>
100048fa:	6800      	ldr	r0, [r0, #0]
100048fc:	4a01      	ldr	r2, [pc, #4]	; (10004904 <float_table_shim_on_use_helper+0x28>)
100048fe:	5050      	str	r0, [r2, r1]
10004900:	9003      	str	r0, [sp, #12]
10004902:	bd07      	pop	{r0, r1, r2, pc}
10004904:	20000f38 	.word	0x20000f38

10004908 <float2int_shim>:
10004908:	2100      	movs	r1, #0

1000490a <float2fix_shim>:
1000490a:	15c2      	asrs	r2, r0, #23
1000490c:	3280      	adds	r2, #128	; 0x80
1000490e:	3280      	adds	r2, #128	; 0x80
10004910:	d001      	beq.n	10004916 <float2fix_shim+0xc>
10004912:	4a02      	ldr	r2, [pc, #8]	; (1000491c <float2fix_shim+0x12>)
10004914:	4710      	bx	r2
10004916:	2000      	movs	r0, #0
10004918:	4770      	bx	lr
1000491a:	0000      	.short	0x0000
1000491c:	00002acd 	.word	0x00002acd

10004920 <float2double_shim>:
10004920:	0fc3      	lsrs	r3, r0, #31
10004922:	07db      	lsls	r3, r3, #31
10004924:	0041      	lsls	r1, r0, #1
10004926:	0e0a      	lsrs	r2, r1, #24
10004928:	d007      	beq.n	1000493a <float2double_shim+0x1a>
1000492a:	2aff      	cmp	r2, #255	; 0xff
1000492c:	d008      	beq.n	10004940 <float2double_shim+0x20>
1000492e:	0909      	lsrs	r1, r1, #4
10004930:	4a05      	ldr	r2, [pc, #20]	; (10004948 <float2double_shim+0x28>)
10004932:	1889      	adds	r1, r1, r2
10004934:	4319      	orrs	r1, r3
10004936:	0740      	lsls	r0, r0, #29
10004938:	4770      	bx	lr
1000493a:	0019      	movs	r1, r3
1000493c:	2000      	movs	r0, #0
1000493e:	4770      	bx	lr
10004940:	4902      	ldr	r1, [pc, #8]	; (1000494c <float2double_shim+0x2c>)
10004942:	18c9      	adds	r1, r1, r3
10004944:	e7fa      	b.n	1000493c <float2double_shim+0x1c>
10004946:	0000      	.short	0x0000
10004948:	38000000 	.word	0x38000000
1000494c:	7ff00000 	.word	0x7ff00000

10004950 <__wrap_malloc>:
10004950:	b510      	push	{r4, lr}
10004952:	0004      	movs	r4, r0
10004954:	f005 ffaa 	bl	1000a8ac <malloc>
10004958:	2800      	cmp	r0, #0
1000495a:	d004      	beq.n	10004966 <__wrap_malloc+0x16>
1000495c:	4b03      	ldr	r3, [pc, #12]	; (1000496c <__wrap_malloc+0x1c>)
1000495e:	1904      	adds	r4, r0, r4
10004960:	429c      	cmp	r4, r3
10004962:	d800      	bhi.n	10004966 <__wrap_malloc+0x16>
10004964:	bd10      	pop	{r4, pc}
10004966:	4802      	ldr	r0, [pc, #8]	; (10004970 <__wrap_malloc+0x20>)
10004968:	f7fd faf8 	bl	10001f5c <panic>
1000496c:	20040000 	.word	0x20040000
10004970:	1000b540 	.word	0x1000b540

10004974 <__wrap_free>:
10004974:	b510      	push	{r4, lr}
10004976:	f005 ffa3 	bl	1000a8c0 <free>
1000497a:	bd10      	pop	{r4, pc}

1000497c <__aeabi_mem_init>:
1000497c:	4801      	ldr	r0, [pc, #4]	; (10004984 <__aeabi_mem_init+0x8>)
1000497e:	2104      	movs	r1, #4
10004980:	4b01      	ldr	r3, [pc, #4]	; (10004988 <__aeabi_mem_init+0xc>)
10004982:	4718      	bx	r3
10004984:	20000420 	.word	0x20000420
10004988:	100039d5 	.word	0x100039d5

1000498c <__wrap_memset>:
1000498c:	4b01      	ldr	r3, [pc, #4]	; (10004994 <__wrap_memset+0x8>)
1000498e:	681b      	ldr	r3, [r3, #0]
10004990:	4718      	bx	r3
10004992:	0000      	.short	0x0000
10004994:	20000420 	.word	0x20000420

10004998 <__wrap___aeabi_memcpy>:
10004998:	4b01      	ldr	r3, [pc, #4]	; (100049a0 <__wrap___aeabi_memcpy+0x8>)
1000499a:	685b      	ldr	r3, [r3, #4]
1000499c:	4718      	bx	r3
1000499e:	0000      	.short	0x0000
100049a0:	20000420 	.word	0x20000420

100049a4 <stdio_out_chars_no_crlf>:
100049a4:	0003      	movs	r3, r0
100049a6:	b510      	push	{r4, lr}
100049a8:	0008      	movs	r0, r1
100049aa:	0011      	movs	r1, r2
100049ac:	681b      	ldr	r3, [r3, #0]
100049ae:	4798      	blx	r3
100049b0:	bd10      	pop	{r4, pc}
100049b2:	46c0      	nop			; (mov r8, r8)

100049b4 <stdio_out_chars_crlf>:
100049b4:	b5f0      	push	{r4, r5, r6, r7, lr}
100049b6:	4646      	mov	r6, r8
100049b8:	464f      	mov	r7, r9
100049ba:	46d6      	mov	lr, sl
100049bc:	b5c0      	push	{r6, r7, lr}
100049be:	7c43      	ldrb	r3, [r0, #17]
100049c0:	4680      	mov	r8, r0
100049c2:	000e      	movs	r6, r1
100049c4:	0017      	movs	r7, r2
100049c6:	2b00      	cmp	r3, #0
100049c8:	d046      	beq.n	10004a58 <stdio_out_chars_crlf+0xa4>
100049ca:	2a00      	cmp	r2, #0
100049cc:	dd3f      	ble.n	10004a4e <stdio_out_chars_crlf+0x9a>
100049ce:	1e4b      	subs	r3, r1, #1
100049d0:	4699      	mov	r9, r3
100049d2:	4b24      	ldr	r3, [pc, #144]	; (10004a64 <stdio_out_chars_crlf+0xb0>)
100049d4:	2501      	movs	r5, #1
100049d6:	2400      	movs	r4, #0
100049d8:	2000      	movs	r0, #0
100049da:	469a      	mov	sl, r3
100049dc:	e00d      	b.n	100049fa <stdio_out_chars_crlf+0x46>
100049de:	464b      	mov	r3, r9
100049e0:	5d1b      	ldrb	r3, [r3, r4]
100049e2:	3b0d      	subs	r3, #13
100049e4:	425a      	negs	r2, r3
100049e6:	4153      	adcs	r3, r2
100049e8:	5d32      	ldrb	r2, [r6, r4]
100049ea:	b2db      	uxtb	r3, r3
100049ec:	2a0a      	cmp	r2, #10
100049ee:	d00b      	beq.n	10004a08 <stdio_out_chars_crlf+0x54>
100049f0:	002b      	movs	r3, r5
100049f2:	3401      	adds	r4, #1
100049f4:	3501      	adds	r5, #1
100049f6:	429f      	cmp	r7, r3
100049f8:	dd1a      	ble.n	10004a30 <stdio_out_chars_crlf+0x7c>
100049fa:	2c00      	cmp	r4, #0
100049fc:	d1ef      	bne.n	100049de <stdio_out_chars_crlf+0x2a>
100049fe:	4643      	mov	r3, r8
10004a00:	5d32      	ldrb	r2, [r6, r4]
10004a02:	7c1b      	ldrb	r3, [r3, #16]
10004a04:	2a0a      	cmp	r2, #10
10004a06:	d1f3      	bne.n	100049f0 <stdio_out_chars_crlf+0x3c>
10004a08:	2b00      	cmp	r3, #0
10004a0a:	d1f1      	bne.n	100049f0 <stdio_out_chars_crlf+0x3c>
10004a0c:	42a0      	cmp	r0, r4
10004a0e:	da04      	bge.n	10004a1a <stdio_out_chars_crlf+0x66>
10004a10:	4643      	mov	r3, r8
10004a12:	1a21      	subs	r1, r4, r0
10004a14:	681b      	ldr	r3, [r3, #0]
10004a16:	1830      	adds	r0, r6, r0
10004a18:	4798      	blx	r3
10004a1a:	4643      	mov	r3, r8
10004a1c:	4650      	mov	r0, sl
10004a1e:	681b      	ldr	r3, [r3, #0]
10004a20:	2102      	movs	r1, #2
10004a22:	4798      	blx	r3
10004a24:	3401      	adds	r4, #1
10004a26:	0028      	movs	r0, r5
10004a28:	002b      	movs	r3, r5
10004a2a:	3501      	adds	r5, #1
10004a2c:	429f      	cmp	r7, r3
10004a2e:	dce4      	bgt.n	100049fa <stdio_out_chars_crlf+0x46>
10004a30:	4287      	cmp	r7, r0
10004a32:	dd04      	ble.n	10004a3e <stdio_out_chars_crlf+0x8a>
10004a34:	4643      	mov	r3, r8
10004a36:	1a39      	subs	r1, r7, r0
10004a38:	681b      	ldr	r3, [r3, #0]
10004a3a:	1830      	adds	r0, r6, r0
10004a3c:	4798      	blx	r3
10004a3e:	19f6      	adds	r6, r6, r7
10004a40:	3e01      	subs	r6, #1
10004a42:	7833      	ldrb	r3, [r6, #0]
10004a44:	3b0d      	subs	r3, #13
10004a46:	425a      	negs	r2, r3
10004a48:	4153      	adcs	r3, r2
10004a4a:	4642      	mov	r2, r8
10004a4c:	7413      	strb	r3, [r2, #16]
10004a4e:	bce0      	pop	{r5, r6, r7}
10004a50:	46ba      	mov	sl, r7
10004a52:	46b1      	mov	r9, r6
10004a54:	46a8      	mov	r8, r5
10004a56:	bdf0      	pop	{r4, r5, r6, r7, pc}
10004a58:	6803      	ldr	r3, [r0, #0]
10004a5a:	0011      	movs	r1, r2
10004a5c:	0030      	movs	r0, r6
10004a5e:	4798      	blx	r3
10004a60:	e7f5      	b.n	10004a4e <stdio_out_chars_crlf+0x9a>
10004a62:	46c0      	nop			; (mov r8, r8)
10004a64:	1000b5b4 	.word	0x1000b5b4

10004a68 <stdio_buffered_printer>:
10004a68:	b5f0      	push	{r4, r5, r6, r7, lr}
10004a6a:	46c6      	mov	lr, r8
10004a6c:	000c      	movs	r4, r1
10004a6e:	6809      	ldr	r1, [r1, #0]
10004a70:	0006      	movs	r6, r0
10004a72:	b500      	push	{lr}
10004a74:	2980      	cmp	r1, #128	; 0x80
10004a76:	d006      	beq.n	10004a86 <stdio_buffered_printer+0x1e>
10004a78:	1c4b      	adds	r3, r1, #1
10004a7a:	6023      	str	r3, [r4, #0]
10004a7c:	1864      	adds	r4, r4, r1
10004a7e:	7126      	strb	r6, [r4, #4]
10004a80:	bc80      	pop	{r7}
10004a82:	46b8      	mov	r8, r7
10004a84:	bdf0      	pop	{r4, r5, r6, r7, pc}
10004a86:	4b0f      	ldr	r3, [pc, #60]	; (10004ac4 <stdio_buffered_printer+0x5c>)
10004a88:	681d      	ldr	r5, [r3, #0]
10004a8a:	2d00      	cmp	r5, #0
10004a8c:	d016      	beq.n	10004abc <stdio_buffered_printer+0x54>
10004a8e:	1d23      	adds	r3, r4, #4
10004a90:	4698      	mov	r8, r3
10004a92:	4f0d      	ldr	r7, [pc, #52]	; (10004ac8 <stdio_buffered_printer+0x60>)
10004a94:	e002      	b.n	10004a9c <stdio_buffered_printer+0x34>
10004a96:	68ed      	ldr	r5, [r5, #12]
10004a98:	2d00      	cmp	r5, #0
10004a9a:	d00f      	beq.n	10004abc <stdio_buffered_printer+0x54>
10004a9c:	682b      	ldr	r3, [r5, #0]
10004a9e:	2b00      	cmp	r3, #0
10004aa0:	d0f9      	beq.n	10004a96 <stdio_buffered_printer+0x2e>
10004aa2:	683b      	ldr	r3, [r7, #0]
10004aa4:	2b00      	cmp	r3, #0
10004aa6:	d001      	beq.n	10004aac <stdio_buffered_printer+0x44>
10004aa8:	42ab      	cmp	r3, r5
10004aaa:	d1f4      	bne.n	10004a96 <stdio_buffered_printer+0x2e>
10004aac:	0028      	movs	r0, r5
10004aae:	4641      	mov	r1, r8
10004ab0:	6822      	ldr	r2, [r4, #0]
10004ab2:	f7ff ff7f 	bl	100049b4 <stdio_out_chars_crlf>
10004ab6:	68ed      	ldr	r5, [r5, #12]
10004ab8:	2d00      	cmp	r5, #0
10004aba:	d1ef      	bne.n	10004a9c <stdio_buffered_printer+0x34>
10004abc:	2301      	movs	r3, #1
10004abe:	2100      	movs	r1, #0
10004ac0:	e7db      	b.n	10004a7a <stdio_buffered_printer+0x12>
10004ac2:	46c0      	nop			; (mov r8, r8)
10004ac4:	200017cc 	.word	0x200017cc
10004ac8:	200017d0 	.word	0x200017d0

10004acc <stdio_put_string.isra.0>:
10004acc:	b5f0      	push	{r4, r5, r6, r7, lr}
10004ace:	4657      	mov	r7, sl
10004ad0:	464e      	mov	r6, r9
10004ad2:	4645      	mov	r5, r8
10004ad4:	46de      	mov	lr, fp
10004ad6:	001c      	movs	r4, r3
10004ad8:	23d0      	movs	r3, #208	; 0xd0
10004ada:	b5e0      	push	{r5, r6, r7, lr}
10004adc:	061b      	lsls	r3, r3, #24
10004ade:	681f      	ldr	r7, [r3, #0]
10004ae0:	4b34      	ldr	r3, [pc, #208]	; (10004bb4 <stdio_put_string.isra.0+0xe8>)
10004ae2:	b083      	sub	sp, #12
10004ae4:	0006      	movs	r6, r0
10004ae6:	000d      	movs	r5, r1
10004ae8:	0018      	movs	r0, r3
10004aea:	a901      	add	r1, sp, #4
10004aec:	4691      	mov	r9, r2
10004aee:	469a      	mov	sl, r3
10004af0:	f006 fb42 	bl	1000b178 <__mutex_try_enter_veneer>
10004af4:	4680      	mov	r8, r0
10004af6:	2800      	cmp	r0, #0
10004af8:	d108      	bne.n	10004b0c <stdio_put_string.isra.0+0x40>
10004afa:	9b01      	ldr	r3, [sp, #4]
10004afc:	b27f      	sxtb	r7, r7
10004afe:	429f      	cmp	r7, r3
10004b00:	d004      	beq.n	10004b0c <stdio_put_string.isra.0+0x40>
10004b02:	4650      	mov	r0, sl
10004b04:	f006 fb48 	bl	1000b198 <__mutex_enter_blocking_veneer>
10004b08:	2301      	movs	r3, #1
10004b0a:	4698      	mov	r8, r3
10004b0c:	1c6b      	adds	r3, r5, #1
10004b0e:	d103      	bne.n	10004b18 <stdio_put_string.isra.0+0x4c>
10004b10:	0030      	movs	r0, r6
10004b12:	f006 f9af 	bl	1000ae74 <strlen>
10004b16:	0005      	movs	r5, r0
10004b18:	2c00      	cmp	r4, #0
10004b1a:	d127      	bne.n	10004b6c <stdio_put_string.isra.0+0xa0>
10004b1c:	4f26      	ldr	r7, [pc, #152]	; (10004bb8 <stdio_put_string.isra.0+0xec>)
10004b1e:	4b27      	ldr	r3, [pc, #156]	; (10004bbc <stdio_put_string.isra.0+0xf0>)
10004b20:	681c      	ldr	r4, [r3, #0]
10004b22:	2c00      	cmp	r4, #0
10004b24:	d018      	beq.n	10004b58 <stdio_put_string.isra.0+0x8c>
10004b26:	464b      	mov	r3, r9
10004b28:	2b00      	cmp	r3, #0
10004b2a:	d121      	bne.n	10004b70 <stdio_put_string.isra.0+0xa4>
10004b2c:	4b24      	ldr	r3, [pc, #144]	; (10004bc0 <stdio_put_string.isra.0+0xf4>)
10004b2e:	4699      	mov	r9, r3
10004b30:	e002      	b.n	10004b38 <stdio_put_string.isra.0+0x6c>
10004b32:	68e4      	ldr	r4, [r4, #12]
10004b34:	2c00      	cmp	r4, #0
10004b36:	d00f      	beq.n	10004b58 <stdio_put_string.isra.0+0x8c>
10004b38:	6823      	ldr	r3, [r4, #0]
10004b3a:	2b00      	cmp	r3, #0
10004b3c:	d0f9      	beq.n	10004b32 <stdio_put_string.isra.0+0x66>
10004b3e:	464b      	mov	r3, r9
10004b40:	681b      	ldr	r3, [r3, #0]
10004b42:	2b00      	cmp	r3, #0
10004b44:	d001      	beq.n	10004b4a <stdio_put_string.isra.0+0x7e>
10004b46:	42a3      	cmp	r3, r4
10004b48:	d1f3      	bne.n	10004b32 <stdio_put_string.isra.0+0x66>
10004b4a:	0020      	movs	r0, r4
10004b4c:	002a      	movs	r2, r5
10004b4e:	0031      	movs	r1, r6
10004b50:	47b8      	blx	r7
10004b52:	68e4      	ldr	r4, [r4, #12]
10004b54:	2c00      	cmp	r4, #0
10004b56:	d1ef      	bne.n	10004b38 <stdio_put_string.isra.0+0x6c>
10004b58:	4643      	mov	r3, r8
10004b5a:	2b00      	cmp	r3, #0
10004b5c:	d125      	bne.n	10004baa <stdio_put_string.isra.0+0xde>
10004b5e:	b003      	add	sp, #12
10004b60:	bcf0      	pop	{r4, r5, r6, r7}
10004b62:	46bb      	mov	fp, r7
10004b64:	46b2      	mov	sl, r6
10004b66:	46a9      	mov	r9, r5
10004b68:	46a0      	mov	r8, r4
10004b6a:	bdf0      	pop	{r4, r5, r6, r7, pc}
10004b6c:	4f15      	ldr	r7, [pc, #84]	; (10004bc4 <stdio_put_string.isra.0+0xf8>)
10004b6e:	e7d6      	b.n	10004b1e <stdio_put_string.isra.0+0x52>
10004b70:	4b13      	ldr	r3, [pc, #76]	; (10004bc0 <stdio_put_string.isra.0+0xf4>)
10004b72:	4699      	mov	r9, r3
10004b74:	230a      	movs	r3, #10
10004b76:	469b      	mov	fp, r3
10004b78:	e002      	b.n	10004b80 <stdio_put_string.isra.0+0xb4>
10004b7a:	68e4      	ldr	r4, [r4, #12]
10004b7c:	2c00      	cmp	r4, #0
10004b7e:	d0eb      	beq.n	10004b58 <stdio_put_string.isra.0+0x8c>
10004b80:	6823      	ldr	r3, [r4, #0]
10004b82:	2b00      	cmp	r3, #0
10004b84:	d0f9      	beq.n	10004b7a <stdio_put_string.isra.0+0xae>
10004b86:	464b      	mov	r3, r9
10004b88:	681b      	ldr	r3, [r3, #0]
10004b8a:	2b00      	cmp	r3, #0
10004b8c:	d001      	beq.n	10004b92 <stdio_put_string.isra.0+0xc6>
10004b8e:	42a3      	cmp	r3, r4
10004b90:	d1f3      	bne.n	10004b7a <stdio_put_string.isra.0+0xae>
10004b92:	002a      	movs	r2, r5
10004b94:	0031      	movs	r1, r6
10004b96:	0020      	movs	r0, r4
10004b98:	47b8      	blx	r7
10004b9a:	465a      	mov	r2, fp
10004b9c:	466b      	mov	r3, sp
10004b9e:	0020      	movs	r0, r4
10004ba0:	711a      	strb	r2, [r3, #4]
10004ba2:	a901      	add	r1, sp, #4
10004ba4:	2201      	movs	r2, #1
10004ba6:	47b8      	blx	r7
10004ba8:	e7e7      	b.n	10004b7a <stdio_put_string.isra.0+0xae>
10004baa:	4650      	mov	r0, sl
10004bac:	f006 facc 	bl	1000b148 <__mutex_exit_veneer>
10004bb0:	e7d5      	b.n	10004b5e <stdio_put_string.isra.0+0x92>
10004bb2:	46c0      	nop			; (mov r8, r8)
10004bb4:	20000cc0 	.word	0x20000cc0
10004bb8:	100049b5 	.word	0x100049b5
10004bbc:	200017cc 	.word	0x200017cc
10004bc0:	200017d0 	.word	0x200017d0
10004bc4:	100049a5 	.word	0x100049a5

10004bc8 <__wrap_putchar>:
10004bc8:	b5f0      	push	{r4, r5, r6, r7, lr}
10004bca:	46ce      	mov	lr, r9
10004bcc:	4647      	mov	r7, r8
10004bce:	b580      	push	{r7, lr}
10004bd0:	b083      	sub	sp, #12
10004bd2:	466b      	mov	r3, sp
10004bd4:	1cde      	adds	r6, r3, #3
10004bd6:	23d0      	movs	r3, #208	; 0xd0
10004bd8:	7030      	strb	r0, [r6, #0]
10004bda:	061b      	lsls	r3, r3, #24
10004bdc:	681c      	ldr	r4, [r3, #0]
10004bde:	4b1f      	ldr	r3, [pc, #124]	; (10004c5c <__wrap_putchar+0x94>)
10004be0:	4680      	mov	r8, r0
10004be2:	a901      	add	r1, sp, #4
10004be4:	0018      	movs	r0, r3
10004be6:	4699      	mov	r9, r3
10004be8:	f006 fac6 	bl	1000b178 <__mutex_try_enter_veneer>
10004bec:	1e07      	subs	r7, r0, #0
10004bee:	d020      	beq.n	10004c32 <__wrap_putchar+0x6a>
10004bf0:	4b1b      	ldr	r3, [pc, #108]	; (10004c60 <__wrap_putchar+0x98>)
10004bf2:	681c      	ldr	r4, [r3, #0]
10004bf4:	2c00      	cmp	r4, #0
10004bf6:	d028      	beq.n	10004c4a <__wrap_putchar+0x82>
10004bf8:	4d1a      	ldr	r5, [pc, #104]	; (10004c64 <__wrap_putchar+0x9c>)
10004bfa:	e002      	b.n	10004c02 <__wrap_putchar+0x3a>
10004bfc:	68e4      	ldr	r4, [r4, #12]
10004bfe:	2c00      	cmp	r4, #0
10004c00:	d00f      	beq.n	10004c22 <__wrap_putchar+0x5a>
10004c02:	6823      	ldr	r3, [r4, #0]
10004c04:	2b00      	cmp	r3, #0
10004c06:	d0f9      	beq.n	10004bfc <__wrap_putchar+0x34>
10004c08:	682b      	ldr	r3, [r5, #0]
10004c0a:	2b00      	cmp	r3, #0
10004c0c:	d001      	beq.n	10004c12 <__wrap_putchar+0x4a>
10004c0e:	42a3      	cmp	r3, r4
10004c10:	d1f4      	bne.n	10004bfc <__wrap_putchar+0x34>
10004c12:	0020      	movs	r0, r4
10004c14:	2201      	movs	r2, #1
10004c16:	0031      	movs	r1, r6
10004c18:	f7ff fecc 	bl	100049b4 <stdio_out_chars_crlf>
10004c1c:	68e4      	ldr	r4, [r4, #12]
10004c1e:	2c00      	cmp	r4, #0
10004c20:	d1ef      	bne.n	10004c02 <__wrap_putchar+0x3a>
10004c22:	2f00      	cmp	r7, #0
10004c24:	d111      	bne.n	10004c4a <__wrap_putchar+0x82>
10004c26:	4640      	mov	r0, r8
10004c28:	b003      	add	sp, #12
10004c2a:	bcc0      	pop	{r6, r7}
10004c2c:	46b9      	mov	r9, r7
10004c2e:	46b0      	mov	r8, r6
10004c30:	bdf0      	pop	{r4, r5, r6, r7, pc}
10004c32:	9b01      	ldr	r3, [sp, #4]
10004c34:	b264      	sxtb	r4, r4
10004c36:	429c      	cmp	r4, r3
10004c38:	d00b      	beq.n	10004c52 <__wrap_putchar+0x8a>
10004c3a:	4648      	mov	r0, r9
10004c3c:	f006 faac 	bl	1000b198 <__mutex_enter_blocking_veneer>
10004c40:	4b07      	ldr	r3, [pc, #28]	; (10004c60 <__wrap_putchar+0x98>)
10004c42:	2701      	movs	r7, #1
10004c44:	681c      	ldr	r4, [r3, #0]
10004c46:	2c00      	cmp	r4, #0
10004c48:	d1d6      	bne.n	10004bf8 <__wrap_putchar+0x30>
10004c4a:	4648      	mov	r0, r9
10004c4c:	f006 fa7c 	bl	1000b148 <__mutex_exit_veneer>
10004c50:	e7e9      	b.n	10004c26 <__wrap_putchar+0x5e>
10004c52:	4b03      	ldr	r3, [pc, #12]	; (10004c60 <__wrap_putchar+0x98>)
10004c54:	681c      	ldr	r4, [r3, #0]
10004c56:	2c00      	cmp	r4, #0
10004c58:	d1ce      	bne.n	10004bf8 <__wrap_putchar+0x30>
10004c5a:	e7e4      	b.n	10004c26 <__wrap_putchar+0x5e>
10004c5c:	20000cc0 	.word	0x20000cc0
10004c60:	200017cc 	.word	0x200017cc
10004c64:	200017d0 	.word	0x200017d0

10004c68 <__wrap_puts>:
10004c68:	b570      	push	{r4, r5, r6, lr}
10004c6a:	0004      	movs	r4, r0
10004c6c:	f006 f902 	bl	1000ae74 <strlen>
10004c70:	2300      	movs	r3, #0
10004c72:	0001      	movs	r1, r0
10004c74:	0005      	movs	r5, r0
10004c76:	2201      	movs	r2, #1
10004c78:	0020      	movs	r0, r4
10004c7a:	f7ff ff27 	bl	10004acc <stdio_put_string.isra.0>
10004c7e:	4b08      	ldr	r3, [pc, #32]	; (10004ca0 <__wrap_puts+0x38>)
10004c80:	681c      	ldr	r4, [r3, #0]
10004c82:	2c00      	cmp	r4, #0
10004c84:	d006      	beq.n	10004c94 <__wrap_puts+0x2c>
10004c86:	6863      	ldr	r3, [r4, #4]
10004c88:	2b00      	cmp	r3, #0
10004c8a:	d005      	beq.n	10004c98 <__wrap_puts+0x30>
10004c8c:	4798      	blx	r3
10004c8e:	68e4      	ldr	r4, [r4, #12]
10004c90:	2c00      	cmp	r4, #0
10004c92:	d1f8      	bne.n	10004c86 <__wrap_puts+0x1e>
10004c94:	0028      	movs	r0, r5
10004c96:	bd70      	pop	{r4, r5, r6, pc}
10004c98:	68e4      	ldr	r4, [r4, #12]
10004c9a:	2c00      	cmp	r4, #0
10004c9c:	d1f3      	bne.n	10004c86 <__wrap_puts+0x1e>
10004c9e:	e7f9      	b.n	10004c94 <__wrap_puts+0x2c>
10004ca0:	200017cc 	.word	0x200017cc

10004ca4 <stdio_set_driver_enabled>:
10004ca4:	4a0a      	ldr	r2, [pc, #40]	; (10004cd0 <stdio_set_driver_enabled+0x2c>)
10004ca6:	6813      	ldr	r3, [r2, #0]
10004ca8:	2b00      	cmp	r3, #0
10004caa:	d105      	bne.n	10004cb8 <stdio_set_driver_enabled+0x14>
10004cac:	e00c      	b.n	10004cc8 <stdio_set_driver_enabled+0x24>
10004cae:	001a      	movs	r2, r3
10004cb0:	68db      	ldr	r3, [r3, #12]
10004cb2:	320c      	adds	r2, #12
10004cb4:	2b00      	cmp	r3, #0
10004cb6:	d007      	beq.n	10004cc8 <stdio_set_driver_enabled+0x24>
10004cb8:	4298      	cmp	r0, r3
10004cba:	d1f8      	bne.n	10004cae <stdio_set_driver_enabled+0xa>
10004cbc:	2900      	cmp	r1, #0
10004cbe:	d102      	bne.n	10004cc6 <stdio_set_driver_enabled+0x22>
10004cc0:	68c3      	ldr	r3, [r0, #12]
10004cc2:	6013      	str	r3, [r2, #0]
10004cc4:	60c1      	str	r1, [r0, #12]
10004cc6:	4770      	bx	lr
10004cc8:	2900      	cmp	r1, #0
10004cca:	d0fc      	beq.n	10004cc6 <stdio_set_driver_enabled+0x22>
10004ccc:	6010      	str	r0, [r2, #0]
10004cce:	e7fa      	b.n	10004cc6 <stdio_set_driver_enabled+0x22>
10004cd0:	200017cc 	.word	0x200017cc

10004cd4 <__wrap_vprintf>:
10004cd4:	b5f0      	push	{r4, r5, r6, r7, lr}
10004cd6:	4647      	mov	r7, r8
10004cd8:	46ce      	mov	lr, r9
10004cda:	23d0      	movs	r3, #208	; 0xd0
10004cdc:	b580      	push	{r7, lr}
10004cde:	061b      	lsls	r3, r3, #24
10004ce0:	681d      	ldr	r5, [r3, #0]
10004ce2:	4b2e      	ldr	r3, [pc, #184]	; (10004d9c <__wrap_vprintf+0xc8>)
10004ce4:	b0a5      	sub	sp, #148	; 0x94
10004ce6:	0007      	movs	r7, r0
10004ce8:	000c      	movs	r4, r1
10004cea:	0018      	movs	r0, r3
10004cec:	a903      	add	r1, sp, #12
10004cee:	4698      	mov	r8, r3
10004cf0:	f006 fa42 	bl	1000b178 <__mutex_try_enter_veneer>
10004cf4:	1e06      	subs	r6, r0, #0
10004cf6:	d107      	bne.n	10004d08 <__wrap_vprintf+0x34>
10004cf8:	9b03      	ldr	r3, [sp, #12]
10004cfa:	b26d      	sxtb	r5, r5
10004cfc:	429d      	cmp	r5, r3
10004cfe:	d003      	beq.n	10004d08 <__wrap_vprintf+0x34>
10004d00:	4640      	mov	r0, r8
10004d02:	f006 fa49 	bl	1000b198 <__mutex_enter_blocking_veneer>
10004d06:	3601      	adds	r6, #1
10004d08:	2284      	movs	r2, #132	; 0x84
10004d0a:	2100      	movs	r1, #0
10004d0c:	a803      	add	r0, sp, #12
10004d0e:	f7ff fe3d 	bl	1000498c <__wrap_memset>
10004d12:	0023      	movs	r3, r4
10004d14:	003a      	movs	r2, r7
10004d16:	4822      	ldr	r0, [pc, #136]	; (10004da0 <__wrap_vprintf+0xcc>)
10004d18:	a903      	add	r1, sp, #12
10004d1a:	f7fe fe1b 	bl	10003954 <vfctprintf>
10004d1e:	9b03      	ldr	r3, [sp, #12]
10004d20:	0007      	movs	r7, r0
10004d22:	2b00      	cmp	r3, #0
10004d24:	d114      	bne.n	10004d50 <__wrap_vprintf+0x7c>
10004d26:	4b1f      	ldr	r3, [pc, #124]	; (10004da4 <__wrap_vprintf+0xd0>)
10004d28:	681c      	ldr	r4, [r3, #0]
10004d2a:	2c00      	cmp	r4, #0
10004d2c:	d006      	beq.n	10004d3c <__wrap_vprintf+0x68>
10004d2e:	6863      	ldr	r3, [r4, #4]
10004d30:	2b00      	cmp	r3, #0
10004d32:	d00b      	beq.n	10004d4c <__wrap_vprintf+0x78>
10004d34:	4798      	blx	r3
10004d36:	68e4      	ldr	r4, [r4, #12]
10004d38:	2c00      	cmp	r4, #0
10004d3a:	d1f8      	bne.n	10004d2e <__wrap_vprintf+0x5a>
10004d3c:	2e00      	cmp	r6, #0
10004d3e:	d127      	bne.n	10004d90 <__wrap_vprintf+0xbc>
10004d40:	0038      	movs	r0, r7
10004d42:	b025      	add	sp, #148	; 0x94
10004d44:	bcc0      	pop	{r6, r7}
10004d46:	46b9      	mov	r9, r7
10004d48:	46b0      	mov	r8, r6
10004d4a:	bdf0      	pop	{r4, r5, r6, r7, pc}
10004d4c:	68e4      	ldr	r4, [r4, #12]
10004d4e:	e7ec      	b.n	10004d2a <__wrap_vprintf+0x56>
10004d50:	4b14      	ldr	r3, [pc, #80]	; (10004da4 <__wrap_vprintf+0xd0>)
10004d52:	681d      	ldr	r5, [r3, #0]
10004d54:	4699      	mov	r9, r3
10004d56:	2d00      	cmp	r5, #0
10004d58:	d01e      	beq.n	10004d98 <__wrap_vprintf+0xc4>
10004d5a:	4c13      	ldr	r4, [pc, #76]	; (10004da8 <__wrap_vprintf+0xd4>)
10004d5c:	e002      	b.n	10004d64 <__wrap_vprintf+0x90>
10004d5e:	68ed      	ldr	r5, [r5, #12]
10004d60:	2d00      	cmp	r5, #0
10004d62:	d011      	beq.n	10004d88 <__wrap_vprintf+0xb4>
10004d64:	682b      	ldr	r3, [r5, #0]
10004d66:	2b00      	cmp	r3, #0
10004d68:	d0f9      	beq.n	10004d5e <__wrap_vprintf+0x8a>
10004d6a:	6823      	ldr	r3, [r4, #0]
10004d6c:	2b00      	cmp	r3, #0
10004d6e:	d001      	beq.n	10004d74 <__wrap_vprintf+0xa0>
10004d70:	42ab      	cmp	r3, r5
10004d72:	d1f4      	bne.n	10004d5e <__wrap_vprintf+0x8a>
10004d74:	9b03      	ldr	r3, [sp, #12]
10004d76:	0028      	movs	r0, r5
10004d78:	001a      	movs	r2, r3
10004d7a:	a904      	add	r1, sp, #16
10004d7c:	9301      	str	r3, [sp, #4]
10004d7e:	f7ff fe19 	bl	100049b4 <stdio_out_chars_crlf>
10004d82:	68ed      	ldr	r5, [r5, #12]
10004d84:	2d00      	cmp	r5, #0
10004d86:	d1ed      	bne.n	10004d64 <__wrap_vprintf+0x90>
10004d88:	464b      	mov	r3, r9
10004d8a:	9503      	str	r5, [sp, #12]
10004d8c:	681c      	ldr	r4, [r3, #0]
10004d8e:	e7cc      	b.n	10004d2a <__wrap_vprintf+0x56>
10004d90:	4640      	mov	r0, r8
10004d92:	f006 f9d9 	bl	1000b148 <__mutex_exit_veneer>
10004d96:	e7d3      	b.n	10004d40 <__wrap_vprintf+0x6c>
10004d98:	9503      	str	r5, [sp, #12]
10004d9a:	e7cf      	b.n	10004d3c <__wrap_vprintf+0x68>
10004d9c:	20000cc0 	.word	0x20000cc0
10004da0:	10004a69 	.word	0x10004a69
10004da4:	200017cc 	.word	0x200017cc
10004da8:	200017d0 	.word	0x200017d0

10004dac <__wrap_printf>:
10004dac:	b40f      	push	{r0, r1, r2, r3}
10004dae:	b500      	push	{lr}
10004db0:	b083      	sub	sp, #12
10004db2:	a904      	add	r1, sp, #16
10004db4:	c901      	ldmia	r1!, {r0}
10004db6:	9101      	str	r1, [sp, #4]
10004db8:	f7ff ff8c 	bl	10004cd4 <__wrap_vprintf>
10004dbc:	b003      	add	sp, #12
10004dbe:	bc08      	pop	{r3}
10004dc0:	b004      	add	sp, #16
10004dc2:	4718      	bx	r3

10004dc4 <stdio_init_all>:
10004dc4:	b510      	push	{r4, lr}
10004dc6:	f000 f93d 	bl	10005044 <stdio_usb_init>
10004dca:	bd10      	pop	{r4, pc}

10004dcc <resetd_init>:
10004dcc:	4770      	bx	lr
10004dce:	46c0      	nop			; (mov r8, r8)

10004dd0 <resetd_reset>:
10004dd0:	2200      	movs	r2, #0
10004dd2:	4b01      	ldr	r3, [pc, #4]	; (10004dd8 <resetd_reset+0x8>)
10004dd4:	701a      	strb	r2, [r3, #0]
10004dd6:	4770      	bx	lr
10004dd8:	20001c49 	.word	0x20001c49

10004ddc <resetd_open>:
10004ddc:	794b      	ldrb	r3, [r1, #5]
10004dde:	2000      	movs	r0, #0
10004de0:	2bff      	cmp	r3, #255	; 0xff
10004de2:	d10b      	bne.n	10004dfc <resetd_open+0x20>
10004de4:	798b      	ldrb	r3, [r1, #6]
10004de6:	2b00      	cmp	r3, #0
10004de8:	d108      	bne.n	10004dfc <resetd_open+0x20>
10004dea:	79cb      	ldrb	r3, [r1, #7]
10004dec:	2b01      	cmp	r3, #1
10004dee:	d105      	bne.n	10004dfc <resetd_open+0x20>
10004df0:	2a08      	cmp	r2, #8
10004df2:	d903      	bls.n	10004dfc <resetd_open+0x20>
10004df4:	788a      	ldrb	r2, [r1, #2]
10004df6:	4b02      	ldr	r3, [pc, #8]	; (10004e00 <resetd_open+0x24>)
10004df8:	3009      	adds	r0, #9
10004dfa:	701a      	strb	r2, [r3, #0]
10004dfc:	4770      	bx	lr
10004dfe:	46c0      	nop			; (mov r8, r8)
10004e00:	20001c49 	.word	0x20001c49

10004e04 <resetd_xfer_cb>:
10004e04:	2001      	movs	r0, #1
10004e06:	4770      	bx	lr

10004e08 <resetd_control_xfer_cb>:
10004e08:	b570      	push	{r4, r5, r6, lr}
10004e0a:	2900      	cmp	r1, #0
10004e0c:	d115      	bne.n	10004e3a <resetd_control_xfer_cb+0x32>
10004e0e:	4915      	ldr	r1, [pc, #84]	; (10004e64 <resetd_control_xfer_cb+0x5c>)
10004e10:	7953      	ldrb	r3, [r2, #5]
10004e12:	7910      	ldrb	r0, [r2, #4]
10004e14:	7809      	ldrb	r1, [r1, #0]
10004e16:	021b      	lsls	r3, r3, #8
10004e18:	4303      	orrs	r3, r0
10004e1a:	2000      	movs	r0, #0
10004e1c:	4299      	cmp	r1, r3
10004e1e:	d000      	beq.n	10004e22 <resetd_control_xfer_cb+0x1a>
10004e20:	bd70      	pop	{r4, r5, r6, pc}
10004e22:	7853      	ldrb	r3, [r2, #1]
10004e24:	2b01      	cmp	r3, #1
10004e26:	d00a      	beq.n	10004e3e <resetd_control_xfer_cb+0x36>
10004e28:	2b02      	cmp	r3, #2
10004e2a:	d1f9      	bne.n	10004e20 <resetd_control_xfer_cb+0x18>
10004e2c:	2000      	movs	r0, #0
10004e2e:	2264      	movs	r2, #100	; 0x64
10004e30:	2100      	movs	r1, #0
10004e32:	f7fd fa75 	bl	10002320 <watchdog_reboot>
10004e36:	2001      	movs	r0, #1
10004e38:	e7f2      	b.n	10004e20 <resetd_control_xfer_cb+0x18>
10004e3a:	2001      	movs	r0, #1
10004e3c:	e7f0      	b.n	10004e20 <resetd_control_xfer_cb+0x18>
10004e3e:	7894      	ldrb	r4, [r2, #2]
10004e40:	78d2      	ldrb	r2, [r2, #3]
10004e42:	0005      	movs	r5, r0
10004e44:	0212      	lsls	r2, r2, #8
10004e46:	4314      	orrs	r4, r2
10004e48:	05d2      	lsls	r2, r2, #23
10004e4a:	d502      	bpl.n	10004e52 <resetd_control_xfer_cb+0x4a>
10004e4c:	0a62      	lsrs	r2, r4, #9
10004e4e:	4093      	lsls	r3, r2
10004e50:	001d      	movs	r5, r3
10004e52:	4805      	ldr	r0, [pc, #20]	; (10004e68 <resetd_control_xfer_cb+0x60>)
10004e54:	f7fe fdae 	bl	100039b4 <rom_func_lookup>
10004e58:	217f      	movs	r1, #127	; 0x7f
10004e5a:	0003      	movs	r3, r0
10004e5c:	4021      	ands	r1, r4
10004e5e:	0028      	movs	r0, r5
10004e60:	4798      	blx	r3
10004e62:	46c0      	nop			; (mov r8, r8)
10004e64:	20001c49 	.word	0x20001c49
10004e68:	00004255 	.word	0x00004255

10004e6c <usbd_app_driver_get_cb>:
10004e6c:	2301      	movs	r3, #1
10004e6e:	7003      	strb	r3, [r0, #0]
10004e70:	4800      	ldr	r0, [pc, #0]	; (10004e74 <usbd_app_driver_get_cb+0x8>)
10004e72:	4770      	bx	lr
10004e74:	1000b5b8 	.word	0x1000b5b8

10004e78 <tud_cdc_line_coding_cb>:
10004e78:	7848      	ldrb	r0, [r1, #1]
10004e7a:	780b      	ldrb	r3, [r1, #0]
10004e7c:	788a      	ldrb	r2, [r1, #2]
10004e7e:	0200      	lsls	r0, r0, #8
10004e80:	4318      	orrs	r0, r3
10004e82:	0412      	lsls	r2, r2, #16
10004e84:	4310      	orrs	r0, r2
10004e86:	2296      	movs	r2, #150	; 0x96
10004e88:	78cb      	ldrb	r3, [r1, #3]
10004e8a:	b510      	push	{r4, lr}
10004e8c:	061b      	lsls	r3, r3, #24
10004e8e:	4303      	orrs	r3, r0
10004e90:	00d2      	lsls	r2, r2, #3
10004e92:	4293      	cmp	r3, r2
10004e94:	d000      	beq.n	10004e98 <tud_cdc_line_coding_cb+0x20>
10004e96:	bd10      	pop	{r4, pc}
10004e98:	4803      	ldr	r0, [pc, #12]	; (10004ea8 <tud_cdc_line_coding_cb+0x30>)
10004e9a:	f7fe fd8b 	bl	100039b4 <rom_func_lookup>
10004e9e:	2100      	movs	r1, #0
10004ea0:	0003      	movs	r3, r0
10004ea2:	0008      	movs	r0, r1
10004ea4:	4798      	blx	r3
10004ea6:	46c0      	nop			; (mov r8, r8)
10004ea8:	00004255 	.word	0x00004255

10004eac <stdio_usb_in_chars>:
10004eac:	b570      	push	{r4, r5, r6, lr}
10004eae:	4c18      	ldr	r4, [pc, #96]	; (10004f10 <stdio_usb_in_chars+0x64>)
10004eb0:	b082      	sub	sp, #8
10004eb2:	0006      	movs	r6, r0
10004eb4:	000d      	movs	r5, r1
10004eb6:	0020      	movs	r0, r4
10004eb8:	a901      	add	r1, sp, #4
10004eba:	f006 f95d 	bl	1000b178 <__mutex_try_enter_veneer>
10004ebe:	2800      	cmp	r0, #0
10004ec0:	d108      	bne.n	10004ed4 <stdio_usb_in_chars+0x28>
10004ec2:	23d0      	movs	r3, #208	; 0xd0
10004ec4:	061b      	lsls	r3, r3, #24
10004ec6:	681b      	ldr	r3, [r3, #0]
10004ec8:	9a01      	ldr	r2, [sp, #4]
10004eca:	429a      	cmp	r2, r3
10004ecc:	d01c      	beq.n	10004f08 <stdio_usb_in_chars+0x5c>
10004ece:	0020      	movs	r0, r4
10004ed0:	f006 f962 	bl	1000b198 <__mutex_enter_blocking_veneer>
10004ed4:	2000      	movs	r0, #0
10004ed6:	f001 fe1f 	bl	10006b18 <tud_cdc_n_connected>
10004eda:	2800      	cmp	r0, #0
10004edc:	d107      	bne.n	10004eee <stdio_usb_in_chars+0x42>
10004ede:	2503      	movs	r5, #3
10004ee0:	426d      	negs	r5, r5
10004ee2:	0020      	movs	r0, r4
10004ee4:	f006 f930 	bl	1000b148 <__mutex_exit_veneer>
10004ee8:	0028      	movs	r0, r5
10004eea:	b002      	add	sp, #8
10004eec:	bd70      	pop	{r4, r5, r6, pc}
10004eee:	2000      	movs	r0, #0
10004ef0:	f001 fe2a 	bl	10006b48 <tud_cdc_n_available>
10004ef4:	2800      	cmp	r0, #0
10004ef6:	d0f2      	beq.n	10004ede <stdio_usb_in_chars+0x32>
10004ef8:	002a      	movs	r2, r5
10004efa:	0031      	movs	r1, r6
10004efc:	2000      	movs	r0, #0
10004efe:	f001 fe2f 	bl	10006b60 <tud_cdc_n_read>
10004f02:	1e05      	subs	r5, r0, #0
10004f04:	d0eb      	beq.n	10004ede <stdio_usb_in_chars+0x32>
10004f06:	e7ec      	b.n	10004ee2 <stdio_usb_in_chars+0x36>
10004f08:	2503      	movs	r5, #3
10004f0a:	426d      	negs	r5, r5
10004f0c:	e7ec      	b.n	10004ee8 <stdio_usb_in_chars+0x3c>
10004f0e:	46c0      	nop			; (mov r8, r8)
10004f10:	20001c0c 	.word	0x20001c0c

10004f14 <stdio_usb_out_chars>:
10004f14:	b5f0      	push	{r4, r5, r6, r7, lr}
10004f16:	46de      	mov	lr, fp
10004f18:	464f      	mov	r7, r9
10004f1a:	4646      	mov	r6, r8
10004f1c:	b5c0      	push	{r6, r7, lr}
10004f1e:	4b33      	ldr	r3, [pc, #204]	; (10004fec <stdio_usb_out_chars+0xd8>)
10004f20:	b082      	sub	sp, #8
10004f22:	4681      	mov	r9, r0
10004f24:	000d      	movs	r5, r1
10004f26:	0018      	movs	r0, r3
10004f28:	a901      	add	r1, sp, #4
10004f2a:	469b      	mov	fp, r3
10004f2c:	f006 f924 	bl	1000b178 <__mutex_try_enter_veneer>
10004f30:	2800      	cmp	r0, #0
10004f32:	d108      	bne.n	10004f46 <stdio_usb_out_chars+0x32>
10004f34:	23d0      	movs	r3, #208	; 0xd0
10004f36:	061b      	lsls	r3, r3, #24
10004f38:	681b      	ldr	r3, [r3, #0]
10004f3a:	9a01      	ldr	r2, [sp, #4]
10004f3c:	429a      	cmp	r2, r3
10004f3e:	d04f      	beq.n	10004fe0 <stdio_usb_out_chars+0xcc>
10004f40:	4658      	mov	r0, fp
10004f42:	f006 f929 	bl	1000b198 <__mutex_enter_blocking_veneer>
10004f46:	2000      	movs	r0, #0
10004f48:	f001 fde6 	bl	10006b18 <tud_cdc_n_connected>
10004f4c:	2800      	cmp	r0, #0
10004f4e:	d03f      	beq.n	10004fd0 <stdio_usb_out_chars+0xbc>
10004f50:	2400      	movs	r4, #0
10004f52:	2d00      	cmp	r5, #0
10004f54:	dd41      	ble.n	10004fda <stdio_usb_out_chars+0xc6>
10004f56:	4e26      	ldr	r6, [pc, #152]	; (10004ff0 <stdio_usb_out_chars+0xdc>)
10004f58:	e011      	b.n	10004f7e <stdio_usb_out_chars+0x6a>
10004f5a:	464b      	mov	r3, r9
10004f5c:	2000      	movs	r0, #0
10004f5e:	1919      	adds	r1, r3, r4
10004f60:	f001 fe72 	bl	10006c48 <tud_cdc_n_write>
10004f64:	4680      	mov	r8, r0
10004f66:	f000 fe65 	bl	10005c34 <tud_task>
10004f6a:	2000      	movs	r0, #0
10004f6c:	f001 fe30 	bl	10006bd0 <tud_cdc_n_write_flush>
10004f70:	f7fc fc84 	bl	1000187c <time_us_64>
10004f74:	6030      	str	r0, [r6, #0]
10004f76:	6071      	str	r1, [r6, #4]
10004f78:	4444      	add	r4, r8
10004f7a:	42ac      	cmp	r4, r5
10004f7c:	da2d      	bge.n	10004fda <stdio_usb_out_chars+0xc6>
10004f7e:	2000      	movs	r0, #0
10004f80:	f001 fe7c 	bl	10006c7c <tud_cdc_n_write_available>
10004f84:	1b2f      	subs	r7, r5, r4
10004f86:	0002      	movs	r2, r0
10004f88:	42b8      	cmp	r0, r7
10004f8a:	dd00      	ble.n	10004f8e <stdio_usb_out_chars+0x7a>
10004f8c:	003a      	movs	r2, r7
10004f8e:	2a00      	cmp	r2, #0
10004f90:	d1e3      	bne.n	10004f5a <stdio_usb_out_chars+0x46>
10004f92:	f000 fe4f 	bl	10005c34 <tud_task>
10004f96:	2000      	movs	r0, #0
10004f98:	f001 fe1a 	bl	10006bd0 <tud_cdc_n_write_flush>
10004f9c:	2000      	movs	r0, #0
10004f9e:	f001 fdbb 	bl	10006b18 <tud_cdc_n_connected>
10004fa2:	2800      	cmp	r0, #0
10004fa4:	d019      	beq.n	10004fda <stdio_usb_out_chars+0xc6>
10004fa6:	2000      	movs	r0, #0
10004fa8:	f001 fe68 	bl	10006c7c <tud_cdc_n_write_available>
10004fac:	2800      	cmp	r0, #0
10004fae:	d1e4      	bne.n	10004f7a <stdio_usb_out_chars+0x66>
10004fb0:	f7fc fc64 	bl	1000187c <time_us_64>
10004fb4:	6832      	ldr	r2, [r6, #0]
10004fb6:	6873      	ldr	r3, [r6, #4]
10004fb8:	000f      	movs	r7, r1
10004fba:	2100      	movs	r1, #0
10004fbc:	4684      	mov	ip, r0
10004fbe:	480d      	ldr	r0, [pc, #52]	; (10004ff4 <stdio_usb_out_chars+0xe0>)
10004fc0:	1812      	adds	r2, r2, r0
10004fc2:	414b      	adcs	r3, r1
10004fc4:	429f      	cmp	r7, r3
10004fc6:	d808      	bhi.n	10004fda <stdio_usb_out_chars+0xc6>
10004fc8:	d1d7      	bne.n	10004f7a <stdio_usb_out_chars+0x66>
10004fca:	4594      	cmp	ip, r2
10004fcc:	d9d5      	bls.n	10004f7a <stdio_usb_out_chars+0x66>
10004fce:	e004      	b.n	10004fda <stdio_usb_out_chars+0xc6>
10004fd0:	2000      	movs	r0, #0
10004fd2:	2100      	movs	r1, #0
10004fd4:	4b06      	ldr	r3, [pc, #24]	; (10004ff0 <stdio_usb_out_chars+0xdc>)
10004fd6:	6018      	str	r0, [r3, #0]
10004fd8:	6059      	str	r1, [r3, #4]
10004fda:	4658      	mov	r0, fp
10004fdc:	f006 f8b4 	bl	1000b148 <__mutex_exit_veneer>
10004fe0:	b002      	add	sp, #8
10004fe2:	bce0      	pop	{r5, r6, r7}
10004fe4:	46bb      	mov	fp, r7
10004fe6:	46b1      	mov	r9, r6
10004fe8:	46a8      	mov	r8, r5
10004fea:	bdf0      	pop	{r4, r5, r6, r7, pc}
10004fec:	20001c0c 	.word	0x20001c0c
10004ff0:	20000e30 	.word	0x20000e30
10004ff4:	0007a120 	.word	0x0007a120

10004ff8 <timer_task>:
10004ff8:	b510      	push	{r4, lr}
10004ffa:	4b04      	ldr	r3, [pc, #16]	; (1000500c <timer_task+0x14>)
10004ffc:	7818      	ldrb	r0, [r3, #0]
10004ffe:	f7fb fd9f 	bl	10000b40 <irq_set_pending>
10005002:	20fa      	movs	r0, #250	; 0xfa
10005004:	2100      	movs	r1, #0
10005006:	0080      	lsls	r0, r0, #2
10005008:	bd10      	pop	{r4, pc}
1000500a:	46c0      	nop			; (mov r8, r8)
1000500c:	20001c4a 	.word	0x20001c4a

10005010 <usb_irq>:
10005010:	b510      	push	{r4, lr}
10005012:	4b02      	ldr	r3, [pc, #8]	; (1000501c <usb_irq+0xc>)
10005014:	7818      	ldrb	r0, [r3, #0]
10005016:	f7fb fd93 	bl	10000b40 <irq_set_pending>
1000501a:	bd10      	pop	{r4, pc}
1000501c:	20001c4a 	.word	0x20001c4a

10005020 <low_priority_worker_irq>:
10005020:	b510      	push	{r4, lr}
10005022:	4c07      	ldr	r4, [pc, #28]	; (10005040 <low_priority_worker_irq+0x20>)
10005024:	2100      	movs	r1, #0
10005026:	0020      	movs	r0, r4
10005028:	f006 f8a6 	bl	1000b178 <__mutex_try_enter_veneer>
1000502c:	2800      	cmp	r0, #0
1000502e:	d100      	bne.n	10005032 <low_priority_worker_irq+0x12>
10005030:	bd10      	pop	{r4, pc}
10005032:	f000 fdff 	bl	10005c34 <tud_task>
10005036:	0020      	movs	r0, r4
10005038:	f006 f886 	bl	1000b148 <__mutex_exit_veneer>
1000503c:	e7f8      	b.n	10005030 <low_priority_worker_irq+0x10>
1000503e:	46c0      	nop			; (mov r8, r8)
10005040:	20001c0c 	.word	0x20001c0c

10005044 <stdio_usb_init>:
10005044:	b5f0      	push	{r4, r5, r6, r7, lr}
10005046:	4b24      	ldr	r3, [pc, #144]	; (100050d8 <stdio_usb_init+0x94>)
10005048:	b085      	sub	sp, #20
1000504a:	781b      	ldrb	r3, [r3, #0]
1000504c:	f001 fffe 	bl	1000704c <tusb_init>
10005050:	4822      	ldr	r0, [pc, #136]	; (100050dc <stdio_usb_init+0x98>)
10005052:	f7fc fec3 	bl	10001ddc <mutex_init>
10005056:	2001      	movs	r0, #1
10005058:	f7fb fffa 	bl	10001050 <user_irq_claim_unused>
1000505c:	23ff      	movs	r3, #255	; 0xff
1000505e:	4c20      	ldr	r4, [pc, #128]	; (100050e0 <stdio_usb_init+0x9c>)
10005060:	4920      	ldr	r1, [pc, #128]	; (100050e4 <stdio_usb_init+0xa0>)
10005062:	7020      	strb	r0, [r4, #0]
10005064:	4018      	ands	r0, r3
10005066:	f7fb fd91 	bl	10000b8c <irq_set_exclusive_handler>
1000506a:	7820      	ldrb	r0, [r4, #0]
1000506c:	2101      	movs	r1, #1
1000506e:	f7fb fd55 	bl	10000b1c <irq_set_enabled>
10005072:	2005      	movs	r0, #5
10005074:	f7fb fd6c 	bl	10000b50 <irq_has_shared_handler>
10005078:	1e04      	subs	r4, r0, #0
1000507a:	d00c      	beq.n	10005096 <stdio_usb_init+0x52>
1000507c:	2200      	movs	r2, #0
1000507e:	2005      	movs	r0, #5
10005080:	4919      	ldr	r1, [pc, #100]	; (100050e8 <stdio_usb_init+0xa4>)
10005082:	f7fb fdad 	bl	10000be0 <irq_add_shared_handler>
10005086:	2101      	movs	r1, #1
10005088:	4818      	ldr	r0, [pc, #96]	; (100050ec <stdio_usb_init+0xa8>)
1000508a:	f7ff fe0b 	bl	10004ca4 <stdio_set_driver_enabled>
1000508e:	2401      	movs	r4, #1
10005090:	0020      	movs	r0, r4
10005092:	b005      	add	sp, #20
10005094:	bdf0      	pop	{r4, r5, r6, r7, pc}
10005096:	f7fc fa51 	bl	1000153c <alarm_pool_get_default>
1000509a:	0005      	movs	r5, r0
1000509c:	f7fc fbee 	bl	1000187c <time_us_64>
100050a0:	22fa      	movs	r2, #250	; 0xfa
100050a2:	0006      	movs	r6, r0
100050a4:	000f      	movs	r7, r1
100050a6:	2300      	movs	r3, #0
100050a8:	0092      	lsls	r2, r2, #2
100050aa:	1992      	adds	r2, r2, r6
100050ac:	417b      	adcs	r3, r7
100050ae:	4299      	cmp	r1, r3
100050b0:	d80e      	bhi.n	100050d0 <stdio_usb_init+0x8c>
100050b2:	d00b      	beq.n	100050cc <stdio_usb_init+0x88>
100050b4:	2101      	movs	r1, #1
100050b6:	9102      	str	r1, [sp, #8]
100050b8:	2100      	movs	r1, #0
100050ba:	9101      	str	r1, [sp, #4]
100050bc:	490c      	ldr	r1, [pc, #48]	; (100050f0 <stdio_usb_init+0xac>)
100050be:	0028      	movs	r0, r5
100050c0:	9100      	str	r1, [sp, #0]
100050c2:	f7fc fa3f 	bl	10001544 <alarm_pool_add_alarm_at>
100050c6:	2800      	cmp	r0, #0
100050c8:	d0e2      	beq.n	10005090 <stdio_usb_init+0x4c>
100050ca:	e7dc      	b.n	10005086 <stdio_usb_init+0x42>
100050cc:	4290      	cmp	r0, r2
100050ce:	d9f1      	bls.n	100050b4 <stdio_usb_init+0x70>
100050d0:	2201      	movs	r2, #1
100050d2:	4252      	negs	r2, r2
100050d4:	17d3      	asrs	r3, r2, #31
100050d6:	e7ed      	b.n	100050b4 <stdio_usb_init+0x70>
100050d8:	1000b800 	.word	0x1000b800
100050dc:	20001c0c 	.word	0x20001c0c
100050e0:	20001c4a 	.word	0x20001c4a
100050e4:	10005021 	.word	0x10005021
100050e8:	10005011 	.word	0x10005011
100050ec:	20000430 	.word	0x20000430
100050f0:	10004ff9 	.word	0x10004ff9

100050f4 <tud_descriptor_device_cb>:
100050f4:	4800      	ldr	r0, [pc, #0]	; (100050f8 <tud_descriptor_device_cb+0x4>)
100050f6:	4770      	bx	lr
100050f8:	1000b670 	.word	0x1000b670

100050fc <tud_descriptor_configuration_cb>:
100050fc:	4800      	ldr	r0, [pc, #0]	; (10005100 <tud_descriptor_configuration_cb+0x4>)
100050fe:	4770      	bx	lr
10005100:	1000b61c 	.word	0x1000b61c

10005104 <tud_descriptor_string_cb>:
10005104:	b570      	push	{r4, r5, r6, lr}
10005106:	0004      	movs	r4, r0
10005108:	4817      	ldr	r0, [pc, #92]	; (10005168 <tud_descriptor_string_cb+0x64>)
1000510a:	7803      	ldrb	r3, [r0, #0]
1000510c:	2b00      	cmp	r3, #0
1000510e:	d021      	beq.n	10005154 <tud_descriptor_string_cb+0x50>
10005110:	2c00      	cmp	r4, #0
10005112:	d106      	bne.n	10005122 <tud_descriptor_string_cb+0x1e>
10005114:	24c1      	movs	r4, #193	; 0xc1
10005116:	4815      	ldr	r0, [pc, #84]	; (1000516c <tud_descriptor_string_cb+0x68>)
10005118:	4b15      	ldr	r3, [pc, #84]	; (10005170 <tud_descriptor_string_cb+0x6c>)
1000511a:	00a4      	lsls	r4, r4, #2
1000511c:	8043      	strh	r3, [r0, #2]
1000511e:	8004      	strh	r4, [r0, #0]
10005120:	bd70      	pop	{r4, r5, r6, pc}
10005122:	2c05      	cmp	r4, #5
10005124:	d81d      	bhi.n	10005162 <tud_descriptor_string_cb+0x5e>
10005126:	4b13      	ldr	r3, [pc, #76]	; (10005174 <tud_descriptor_string_cb+0x70>)
10005128:	4810      	ldr	r0, [pc, #64]	; (1000516c <tud_descriptor_string_cb+0x68>)
1000512a:	00a4      	lsls	r4, r4, #2
1000512c:	58e5      	ldr	r5, [r4, r3]
1000512e:	1c81      	adds	r1, r0, #2
10005130:	2300      	movs	r3, #0
10005132:	e004      	b.n	1000513e <tud_descriptor_string_cb+0x3a>
10005134:	3301      	adds	r3, #1
10005136:	800a      	strh	r2, [r1, #0]
10005138:	3102      	adds	r1, #2
1000513a:	2b13      	cmp	r3, #19
1000513c:	d00e      	beq.n	1000515c <tud_descriptor_string_cb+0x58>
1000513e:	5cea      	ldrb	r2, [r5, r3]
10005140:	b2dc      	uxtb	r4, r3
10005142:	2a00      	cmp	r2, #0
10005144:	d1f6      	bne.n	10005134 <tud_descriptor_string_cb+0x30>
10005146:	23c0      	movs	r3, #192	; 0xc0
10005148:	3401      	adds	r4, #1
1000514a:	b2e4      	uxtb	r4, r4
1000514c:	0064      	lsls	r4, r4, #1
1000514e:	009b      	lsls	r3, r3, #2
10005150:	431c      	orrs	r4, r3
10005152:	e7e4      	b.n	1000511e <tud_descriptor_string_cb+0x1a>
10005154:	2111      	movs	r1, #17
10005156:	f002 fa0f 	bl	10007578 <pico_get_unique_board_id_string>
1000515a:	e7d9      	b.n	10005110 <tud_descriptor_string_cb+0xc>
1000515c:	24ca      	movs	r4, #202	; 0xca
1000515e:	00a4      	lsls	r4, r4, #2
10005160:	e7dd      	b.n	1000511e <tud_descriptor_string_cb+0x1a>
10005162:	2000      	movs	r0, #0
10005164:	e7dc      	b.n	10005120 <tud_descriptor_string_cb+0x1c>
10005166:	46c0      	nop			; (mov r8, r8)
10005168:	20001c2c 	.word	0x20001c2c
1000516c:	2000179c 	.word	0x2000179c
10005170:	00000409 	.word	0x00000409
10005174:	1000b684 	.word	0x1000b684

10005178 <dcd_rp2040_irq>:
10005178:	b5f0      	push	{r4, r5, r6, r7, lr}
1000517a:	2398      	movs	r3, #152	; 0x98
1000517c:	4657      	mov	r7, sl
1000517e:	4645      	mov	r5, r8
10005180:	46de      	mov	lr, fp
10005182:	464e      	mov	r6, r9
10005184:	4a6c      	ldr	r2, [pc, #432]	; (10005338 <dcd_rp2040_irq+0x1c0>)
10005186:	b5e0      	push	{r5, r6, r7, lr}
10005188:	58d7      	ldr	r7, [r2, r3]
1000518a:	2580      	movs	r5, #128	; 0x80
1000518c:	003c      	movs	r4, r7
1000518e:	026d      	lsls	r5, r5, #9
10005190:	3b88      	subs	r3, #136	; 0x88
10005192:	469a      	mov	sl, r3
10005194:	b083      	sub	sp, #12
10005196:	402c      	ands	r4, r5
10005198:	422f      	tst	r7, r5
1000519a:	d00f      	beq.n	100051bc <dcd_rp2040_irq+0x44>
1000519c:	2201      	movs	r2, #1
1000519e:	2123      	movs	r1, #35	; 0x23
100051a0:	4b66      	ldr	r3, [pc, #408]	; (1000533c <dcd_rp2040_irq+0x1c4>)
100051a2:	2000      	movs	r0, #0
100051a4:	545a      	strb	r2, [r3, r1]
100051a6:	70da      	strb	r2, [r3, #3]
100051a8:	4965      	ldr	r1, [pc, #404]	; (10005340 <dcd_rp2040_irq+0x1c8>)
100051aa:	f001 fa73 	bl	10006694 <dcd_event_setup_received>
100051ae:	2280      	movs	r2, #128	; 0x80
100051b0:	4b64      	ldr	r3, [pc, #400]	; (10005344 <dcd_rp2040_irq+0x1cc>)
100051b2:	0292      	lsls	r2, r2, #10
100051b4:	651a      	str	r2, [r3, #80]	; 0x50
100051b6:	4b64      	ldr	r3, [pc, #400]	; (10005348 <dcd_rp2040_irq+0x1d0>)
100051b8:	002c      	movs	r4, r5
100051ba:	469a      	mov	sl, r3
100051bc:	06fb      	lsls	r3, r7, #27
100051be:	d417      	bmi.n	100051f0 <dcd_rp2040_irq+0x78>
100051c0:	2380      	movs	r3, #128	; 0x80
100051c2:	015b      	lsls	r3, r3, #5
100051c4:	421f      	tst	r7, r3
100051c6:	d145      	bne.n	10005254 <dcd_rp2040_irq+0xdc>
100051c8:	2380      	movs	r3, #128	; 0x80
100051ca:	01db      	lsls	r3, r3, #7
100051cc:	421f      	tst	r7, r3
100051ce:	d000      	beq.n	100051d2 <dcd_rp2040_irq+0x5a>
100051d0:	e088      	b.n	100052e4 <dcd_rp2040_irq+0x16c>
100051d2:	2380      	movs	r3, #128	; 0x80
100051d4:	021b      	lsls	r3, r3, #8
100051d6:	421f      	tst	r7, r3
100051d8:	d000      	beq.n	100051dc <dcd_rp2040_irq+0x64>
100051da:	e091      	b.n	10005300 <dcd_rp2040_irq+0x188>
100051dc:	42bc      	cmp	r4, r7
100051de:	d000      	beq.n	100051e2 <dcd_rp2040_irq+0x6a>
100051e0:	e0a5      	b.n	1000532e <dcd_rp2040_irq+0x1b6>
100051e2:	b003      	add	sp, #12
100051e4:	bcf0      	pop	{r4, r5, r6, r7}
100051e6:	46bb      	mov	fp, r7
100051e8:	46b2      	mov	sl, r6
100051ea:	46a9      	mov	r9, r5
100051ec:	46a0      	mov	r8, r4
100051ee:	bdf0      	pop	{r4, r5, r6, r7, pc}
100051f0:	4b51      	ldr	r3, [pc, #324]	; (10005338 <dcd_rp2040_irq+0x1c0>)
100051f2:	6d9b      	ldr	r3, [r3, #88]	; 0x58
100051f4:	4698      	mov	r8, r3
100051f6:	2b00      	cmp	r3, #0
100051f8:	d027      	beq.n	1000524a <dcd_rp2040_irq+0xd2>
100051fa:	4b52      	ldr	r3, [pc, #328]	; (10005344 <dcd_rp2040_irq+0x1cc>)
100051fc:	2400      	movs	r4, #0
100051fe:	469b      	mov	fp, r3
10005200:	2301      	movs	r3, #1
10005202:	4699      	mov	r9, r3
10005204:	4643      	mov	r3, r8
10005206:	2601      	movs	r6, #1
10005208:	46b8      	mov	r8, r7
1000520a:	001f      	movs	r7, r3
1000520c:	e004      	b.n	10005218 <dcd_rp2040_irq+0xa0>
1000520e:	3401      	adds	r4, #1
10005210:	0076      	lsls	r6, r6, #1
10005212:	b2e4      	uxtb	r4, r4
10005214:	2c20      	cmp	r4, #32
10005216:	d017      	beq.n	10005248 <dcd_rp2040_irq+0xd0>
10005218:	4237      	tst	r7, r6
1000521a:	d0f8      	beq.n	1000520e <dcd_rp2040_irq+0x96>
1000521c:	465b      	mov	r3, fp
1000521e:	659e      	str	r6, [r3, #88]	; 0x58
10005220:	464b      	mov	r3, r9
10005222:	0865      	lsrs	r5, r4, #1
10005224:	43a3      	bics	r3, r4
10005226:	006d      	lsls	r5, r5, #1
10005228:	18ed      	adds	r5, r5, r3
1000522a:	4b44      	ldr	r3, [pc, #272]	; (1000533c <dcd_rp2040_irq+0x1c4>)
1000522c:	016d      	lsls	r5, r5, #5
1000522e:	469c      	mov	ip, r3
10005230:	4465      	add	r5, ip
10005232:	0028      	movs	r0, r5
10005234:	f000 fb8a 	bl	1000594c <hw_endpoint_xfer_continue>
10005238:	2800      	cmp	r0, #0
1000523a:	d16c      	bne.n	10005316 <dcd_rp2040_irq+0x19e>
1000523c:	3401      	adds	r4, #1
1000523e:	43b7      	bics	r7, r6
10005240:	b2e4      	uxtb	r4, r4
10005242:	0076      	lsls	r6, r6, #1
10005244:	2f00      	cmp	r7, #0
10005246:	d1e5      	bne.n	10005214 <dcd_rp2040_irq+0x9c>
10005248:	4647      	mov	r7, r8
1000524a:	2380      	movs	r3, #128	; 0x80
1000524c:	015b      	lsls	r3, r3, #5
1000524e:	4654      	mov	r4, sl
10005250:	421f      	tst	r7, r3
10005252:	d0b9      	beq.n	100051c8 <dcd_rp2040_irq+0x50>
10005254:	431c      	orrs	r4, r3
10005256:	2300      	movs	r3, #0
10005258:	4a37      	ldr	r2, [pc, #220]	; (10005338 <dcd_rp2040_irq+0x1c0>)
1000525a:	2100      	movs	r1, #0
1000525c:	6013      	str	r3, [r2, #0]
1000525e:	4a38      	ldr	r2, [pc, #224]	; (10005340 <dcd_rp2040_irq+0x1c8>)
10005260:	483a      	ldr	r0, [pc, #232]	; (1000534c <dcd_rp2040_irq+0x1d4>)
10005262:	6093      	str	r3, [r2, #8]
10005264:	60d3      	str	r3, [r2, #12]
10005266:	4a3a      	ldr	r2, [pc, #232]	; (10005350 <dcd_rp2040_irq+0x1d8>)
10005268:	6093      	str	r3, [r2, #8]
1000526a:	60d3      	str	r3, [r2, #12]
1000526c:	4a39      	ldr	r2, [pc, #228]	; (10005354 <dcd_rp2040_irq+0x1dc>)
1000526e:	6093      	str	r3, [r2, #8]
10005270:	60d3      	str	r3, [r2, #12]
10005272:	4a39      	ldr	r2, [pc, #228]	; (10005358 <dcd_rp2040_irq+0x1e0>)
10005274:	6093      	str	r3, [r2, #8]
10005276:	60d3      	str	r3, [r2, #12]
10005278:	4a38      	ldr	r2, [pc, #224]	; (1000535c <dcd_rp2040_irq+0x1e4>)
1000527a:	6093      	str	r3, [r2, #8]
1000527c:	60d3      	str	r3, [r2, #12]
1000527e:	4a38      	ldr	r2, [pc, #224]	; (10005360 <dcd_rp2040_irq+0x1e8>)
10005280:	6093      	str	r3, [r2, #8]
10005282:	60d3      	str	r3, [r2, #12]
10005284:	4a37      	ldr	r2, [pc, #220]	; (10005364 <dcd_rp2040_irq+0x1ec>)
10005286:	6093      	str	r3, [r2, #8]
10005288:	60d3      	str	r3, [r2, #12]
1000528a:	4a37      	ldr	r2, [pc, #220]	; (10005368 <dcd_rp2040_irq+0x1f0>)
1000528c:	6093      	str	r3, [r2, #8]
1000528e:	60d3      	str	r3, [r2, #12]
10005290:	4a36      	ldr	r2, [pc, #216]	; (1000536c <dcd_rp2040_irq+0x1f4>)
10005292:	6093      	str	r3, [r2, #8]
10005294:	60d3      	str	r3, [r2, #12]
10005296:	4a36      	ldr	r2, [pc, #216]	; (10005370 <dcd_rp2040_irq+0x1f8>)
10005298:	6093      	str	r3, [r2, #8]
1000529a:	60d3      	str	r3, [r2, #12]
1000529c:	4a35      	ldr	r2, [pc, #212]	; (10005374 <dcd_rp2040_irq+0x1fc>)
1000529e:	6093      	str	r3, [r2, #8]
100052a0:	60d3      	str	r3, [r2, #12]
100052a2:	4a35      	ldr	r2, [pc, #212]	; (10005378 <dcd_rp2040_irq+0x200>)
100052a4:	6093      	str	r3, [r2, #8]
100052a6:	60d3      	str	r3, [r2, #12]
100052a8:	4a34      	ldr	r2, [pc, #208]	; (1000537c <dcd_rp2040_irq+0x204>)
100052aa:	6093      	str	r3, [r2, #8]
100052ac:	60d3      	str	r3, [r2, #12]
100052ae:	4a34      	ldr	r2, [pc, #208]	; (10005380 <dcd_rp2040_irq+0x208>)
100052b0:	6093      	str	r3, [r2, #8]
100052b2:	60d3      	str	r3, [r2, #12]
100052b4:	4a33      	ldr	r2, [pc, #204]	; (10005384 <dcd_rp2040_irq+0x20c>)
100052b6:	6093      	str	r3, [r2, #8]
100052b8:	60d3      	str	r3, [r2, #12]
100052ba:	22f0      	movs	r2, #240	; 0xf0
100052bc:	0092      	lsls	r2, r2, #2
100052be:	f7ff fb65 	bl	1000498c <__wrap_memset>
100052c2:	4b31      	ldr	r3, [pc, #196]	; (10005388 <dcd_rp2040_irq+0x210>)
100052c4:	4a31      	ldr	r2, [pc, #196]	; (1000538c <dcd_rp2040_irq+0x214>)
100052c6:	2100      	movs	r1, #0
100052c8:	601a      	str	r2, [r3, #0]
100052ca:	2000      	movs	r0, #0
100052cc:	2201      	movs	r2, #1
100052ce:	f001 f9b7 	bl	10006640 <dcd_event_bus_reset>
100052d2:	2280      	movs	r2, #128	; 0x80
100052d4:	4b1b      	ldr	r3, [pc, #108]	; (10005344 <dcd_rp2040_irq+0x1cc>)
100052d6:	0312      	lsls	r2, r2, #12
100052d8:	651a      	str	r2, [r3, #80]	; 0x50
100052da:	2380      	movs	r3, #128	; 0x80
100052dc:	01db      	lsls	r3, r3, #7
100052de:	421f      	tst	r7, r3
100052e0:	d100      	bne.n	100052e4 <dcd_rp2040_irq+0x16c>
100052e2:	e776      	b.n	100051d2 <dcd_rp2040_irq+0x5a>
100052e4:	2201      	movs	r2, #1
100052e6:	2104      	movs	r1, #4
100052e8:	2000      	movs	r0, #0
100052ea:	431c      	orrs	r4, r3
100052ec:	f001 f918 	bl	10006520 <dcd_event_bus_signal>
100052f0:	2210      	movs	r2, #16
100052f2:	4b14      	ldr	r3, [pc, #80]	; (10005344 <dcd_rp2040_irq+0x1cc>)
100052f4:	651a      	str	r2, [r3, #80]	; 0x50
100052f6:	2380      	movs	r3, #128	; 0x80
100052f8:	021b      	lsls	r3, r3, #8
100052fa:	421f      	tst	r7, r3
100052fc:	d100      	bne.n	10005300 <dcd_rp2040_irq+0x188>
100052fe:	e76d      	b.n	100051dc <dcd_rp2040_irq+0x64>
10005300:	2201      	movs	r2, #1
10005302:	2105      	movs	r1, #5
10005304:	2000      	movs	r0, #0
10005306:	431c      	orrs	r4, r3
10005308:	f001 f90a 	bl	10006520 <dcd_event_bus_signal>
1000530c:	2280      	movs	r2, #128	; 0x80
1000530e:	4b0d      	ldr	r3, [pc, #52]	; (10005344 <dcd_rp2040_irq+0x1cc>)
10005310:	0112      	lsls	r2, r2, #4
10005312:	651a      	str	r2, [r3, #80]	; 0x50
10005314:	e762      	b.n	100051dc <dcd_rp2040_irq+0x64>
10005316:	464b      	mov	r3, r9
10005318:	8aaa      	ldrh	r2, [r5, #20]
1000531a:	78a9      	ldrb	r1, [r5, #2]
1000531c:	2000      	movs	r0, #0
1000531e:	9300      	str	r3, [sp, #0]
10005320:	2300      	movs	r3, #0
10005322:	f001 f9df 	bl	100066e4 <dcd_event_xfer_complete>
10005326:	0028      	movs	r0, r5
10005328:	f000 fa4c 	bl	100057c4 <hw_endpoint_reset_transfer>
1000532c:	e786      	b.n	1000523c <dcd_rp2040_irq+0xc4>
1000532e:	0021      	movs	r1, r4
10005330:	4817      	ldr	r0, [pc, #92]	; (10005390 <dcd_rp2040_irq+0x218>)
10005332:	4079      	eors	r1, r7
10005334:	f7fc fe12 	bl	10001f5c <panic>
10005338:	50110000 	.word	0x50110000
1000533c:	200017dc 	.word	0x200017dc
10005340:	50100000 	.word	0x50100000
10005344:	50113000 	.word	0x50113000
10005348:	00010010 	.word	0x00010010
1000534c:	2000181c 	.word	0x2000181c
10005350:	50100008 	.word	0x50100008
10005354:	50100010 	.word	0x50100010
10005358:	50100018 	.word	0x50100018
1000535c:	50100020 	.word	0x50100020
10005360:	50100028 	.word	0x50100028
10005364:	50100030 	.word	0x50100030
10005368:	50100038 	.word	0x50100038
1000536c:	50100040 	.word	0x50100040
10005370:	50100048 	.word	0x50100048
10005374:	50100050 	.word	0x50100050
10005378:	50100058 	.word	0x50100058
1000537c:	50100060 	.word	0x50100060
10005380:	50100068 	.word	0x50100068
10005384:	50100070 	.word	0x50100070
10005388:	20001be4 	.word	0x20001be4
1000538c:	50100180 	.word	0x50100180
10005390:	1000b69c 	.word	0x1000b69c

10005394 <dcd_int_enable>:
10005394:	b510      	push	{r4, lr}
10005396:	2101      	movs	r1, #1
10005398:	2005      	movs	r0, #5
1000539a:	f7fb fbbf 	bl	10000b1c <irq_set_enabled>
1000539e:	bd10      	pop	{r4, pc}

100053a0 <dcd_set_address>:
100053a0:	b510      	push	{r4, lr}
100053a2:	2200      	movs	r2, #0
100053a4:	2100      	movs	r1, #0
100053a6:	4802      	ldr	r0, [pc, #8]	; (100053b0 <dcd_set_address+0x10>)
100053a8:	f000 fa34 	bl	10005814 <hw_endpoint_xfer_start>
100053ac:	bd10      	pop	{r4, pc}
100053ae:	46c0      	nop			; (mov r8, r8)
100053b0:	200017fc 	.word	0x200017fc

100053b4 <dcd_connect>:
100053b4:	2280      	movs	r2, #128	; 0x80
100053b6:	4b02      	ldr	r3, [pc, #8]	; (100053c0 <dcd_connect+0xc>)
100053b8:	0252      	lsls	r2, r2, #9
100053ba:	64da      	str	r2, [r3, #76]	; 0x4c
100053bc:	4770      	bx	lr
100053be:	46c0      	nop			; (mov r8, r8)
100053c0:	50112000 	.word	0x50112000

100053c4 <dcd_init>:
100053c4:	b5f0      	push	{r4, r5, r6, r7, lr}
100053c6:	46c6      	mov	lr, r8
100053c8:	b500      	push	{lr}
100053ca:	0006      	movs	r6, r0
100053cc:	f000 f9d4 	bl	10005778 <rp2040_usb_init>
100053d0:	230c      	movs	r3, #12
100053d2:	4d35      	ldr	r5, [pc, #212]	; (100054a8 <dcd_init+0xe4>)
100053d4:	2005      	movs	r0, #5
100053d6:	67ab      	str	r3, [r5, #120]	; 0x78
100053d8:	4934      	ldr	r1, [pc, #208]	; (100054ac <dcd_init+0xe8>)
100053da:	f7fb fbd7 	bl	10000b8c <irq_set_exclusive_handler>
100053de:	2340      	movs	r3, #64	; 0x40
100053e0:	4698      	mov	r8, r3
100053e2:	4c33      	ldr	r4, [pc, #204]	; (100054b0 <dcd_init+0xec>)
100053e4:	2240      	movs	r2, #64	; 0x40
100053e6:	2100      	movs	r1, #0
100053e8:	0020      	movs	r0, r4
100053ea:	f7ff facf 	bl	1000498c <__wrap_memset>
100053ee:	4643      	mov	r3, r8
100053f0:	2701      	movs	r7, #1
100053f2:	83a3      	strh	r3, [r4, #28]
100053f4:	2121      	movs	r1, #33	; 0x21
100053f6:	2300      	movs	r3, #0
100053f8:	4a2e      	ldr	r2, [pc, #184]	; (100054b4 <dcd_init+0xf0>)
100053fa:	7067      	strb	r7, [r4, #1]
100053fc:	60a2      	str	r2, [r4, #8]
100053fe:	6013      	str	r3, [r2, #0]
10005400:	5463      	strb	r3, [r4, r1]
10005402:	315f      	adds	r1, #95	; 0x5f
10005404:	8461      	strh	r1, [r4, #34]	; 0x22
10005406:	4641      	mov	r1, r8
10005408:	87a1      	strh	r1, [r4, #60]	; 0x3c
1000540a:	3902      	subs	r1, #2
1000540c:	5463      	strb	r3, [r4, r1]
1000540e:	4a2a      	ldr	r2, [pc, #168]	; (100054b8 <dcd_init+0xf4>)
10005410:	492a      	ldr	r1, [pc, #168]	; (100054bc <dcd_init+0xf8>)
10005412:	6063      	str	r3, [r4, #4]
10005414:	60e2      	str	r2, [r4, #12]
10005416:	62a1      	str	r1, [r4, #40]	; 0x28
10005418:	600b      	str	r3, [r1, #0]
1000541a:	62e2      	str	r2, [r4, #44]	; 0x2c
1000541c:	4a28      	ldr	r2, [pc, #160]	; (100054c0 <dcd_init+0xfc>)
1000541e:	6263      	str	r3, [r4, #36]	; 0x24
10005420:	6093      	str	r3, [r2, #8]
10005422:	60d3      	str	r3, [r2, #12]
10005424:	4a27      	ldr	r2, [pc, #156]	; (100054c4 <dcd_init+0x100>)
10005426:	0020      	movs	r0, r4
10005428:	6093      	str	r3, [r2, #8]
1000542a:	60d3      	str	r3, [r2, #12]
1000542c:	4a26      	ldr	r2, [pc, #152]	; (100054c8 <dcd_init+0x104>)
1000542e:	2100      	movs	r1, #0
10005430:	6093      	str	r3, [r2, #8]
10005432:	60d3      	str	r3, [r2, #12]
10005434:	4a25      	ldr	r2, [pc, #148]	; (100054cc <dcd_init+0x108>)
10005436:	3040      	adds	r0, #64	; 0x40
10005438:	6093      	str	r3, [r2, #8]
1000543a:	60d3      	str	r3, [r2, #12]
1000543c:	4a24      	ldr	r2, [pc, #144]	; (100054d0 <dcd_init+0x10c>)
1000543e:	6093      	str	r3, [r2, #8]
10005440:	60d3      	str	r3, [r2, #12]
10005442:	4a24      	ldr	r2, [pc, #144]	; (100054d4 <dcd_init+0x110>)
10005444:	6093      	str	r3, [r2, #8]
10005446:	60d3      	str	r3, [r2, #12]
10005448:	4a23      	ldr	r2, [pc, #140]	; (100054d8 <dcd_init+0x114>)
1000544a:	6093      	str	r3, [r2, #8]
1000544c:	60d3      	str	r3, [r2, #12]
1000544e:	4a23      	ldr	r2, [pc, #140]	; (100054dc <dcd_init+0x118>)
10005450:	6093      	str	r3, [r2, #8]
10005452:	60d3      	str	r3, [r2, #12]
10005454:	4a22      	ldr	r2, [pc, #136]	; (100054e0 <dcd_init+0x11c>)
10005456:	6093      	str	r3, [r2, #8]
10005458:	60d3      	str	r3, [r2, #12]
1000545a:	4a22      	ldr	r2, [pc, #136]	; (100054e4 <dcd_init+0x120>)
1000545c:	6093      	str	r3, [r2, #8]
1000545e:	60d3      	str	r3, [r2, #12]
10005460:	4a21      	ldr	r2, [pc, #132]	; (100054e8 <dcd_init+0x124>)
10005462:	6093      	str	r3, [r2, #8]
10005464:	60d3      	str	r3, [r2, #12]
10005466:	4a21      	ldr	r2, [pc, #132]	; (100054ec <dcd_init+0x128>)
10005468:	6093      	str	r3, [r2, #8]
1000546a:	60d3      	str	r3, [r2, #12]
1000546c:	4a20      	ldr	r2, [pc, #128]	; (100054f0 <dcd_init+0x12c>)
1000546e:	6093      	str	r3, [r2, #8]
10005470:	60d3      	str	r3, [r2, #12]
10005472:	4a20      	ldr	r2, [pc, #128]	; (100054f4 <dcd_init+0x130>)
10005474:	6093      	str	r3, [r2, #8]
10005476:	60d3      	str	r3, [r2, #12]
10005478:	4a1f      	ldr	r2, [pc, #124]	; (100054f8 <dcd_init+0x134>)
1000547a:	6093      	str	r3, [r2, #8]
1000547c:	60d3      	str	r3, [r2, #12]
1000547e:	22f0      	movs	r2, #240	; 0xf0
10005480:	0092      	lsls	r2, r2, #2
10005482:	f7ff fa83 	bl	1000498c <__wrap_memset>
10005486:	4b1d      	ldr	r3, [pc, #116]	; (100054fc <dcd_init+0x138>)
10005488:	4a1d      	ldr	r2, [pc, #116]	; (10005500 <dcd_init+0x13c>)
1000548a:	0030      	movs	r0, r6
1000548c:	601a      	str	r2, [r3, #0]
1000548e:	2380      	movs	r3, #128	; 0x80
10005490:	059b      	lsls	r3, r3, #22
10005492:	642f      	str	r7, [r5, #64]	; 0x40
10005494:	64eb      	str	r3, [r5, #76]	; 0x4c
10005496:	2390      	movs	r3, #144	; 0x90
10005498:	4a1a      	ldr	r2, [pc, #104]	; (10005504 <dcd_init+0x140>)
1000549a:	50ea      	str	r2, [r5, r3]
1000549c:	f7ff ff8a 	bl	100053b4 <dcd_connect>
100054a0:	bc80      	pop	{r7}
100054a2:	46b8      	mov	r8, r7
100054a4:	bdf0      	pop	{r4, r5, r6, r7, pc}
100054a6:	46c0      	nop			; (mov r8, r8)
100054a8:	50110000 	.word	0x50110000
100054ac:	10005179 	.word	0x10005179
100054b0:	200017dc 	.word	0x200017dc
100054b4:	50100084 	.word	0x50100084
100054b8:	50100100 	.word	0x50100100
100054bc:	50100080 	.word	0x50100080
100054c0:	50100000 	.word	0x50100000
100054c4:	50100008 	.word	0x50100008
100054c8:	50100010 	.word	0x50100010
100054cc:	50100018 	.word	0x50100018
100054d0:	50100020 	.word	0x50100020
100054d4:	50100028 	.word	0x50100028
100054d8:	50100030 	.word	0x50100030
100054dc:	50100038 	.word	0x50100038
100054e0:	50100040 	.word	0x50100040
100054e4:	50100048 	.word	0x50100048
100054e8:	50100050 	.word	0x50100050
100054ec:	50100058 	.word	0x50100058
100054f0:	50100060 	.word	0x50100060
100054f4:	50100068 	.word	0x50100068
100054f8:	50100070 	.word	0x50100070
100054fc:	20001be4 	.word	0x20001be4
10005500:	50100180 	.word	0x50100180
10005504:	0001d010 	.word	0x0001d010

10005508 <dcd_edpt0_status_complete>:
10005508:	780b      	ldrb	r3, [r1, #0]
1000550a:	065b      	lsls	r3, r3, #25
1000550c:	d102      	bne.n	10005514 <dcd_edpt0_status_complete+0xc>
1000550e:	784b      	ldrb	r3, [r1, #1]
10005510:	2b05      	cmp	r3, #5
10005512:	d000      	beq.n	10005516 <dcd_edpt0_status_complete+0xe>
10005514:	4770      	bx	lr
10005516:	788a      	ldrb	r2, [r1, #2]
10005518:	4b01      	ldr	r3, [pc, #4]	; (10005520 <dcd_edpt0_status_complete+0x18>)
1000551a:	601a      	str	r2, [r3, #0]
1000551c:	e7fa      	b.n	10005514 <dcd_edpt0_status_complete+0xc>
1000551e:	46c0      	nop			; (mov r8, r8)
10005520:	50110000 	.word	0x50110000

10005524 <dcd_edpt_open>:
10005524:	b5f0      	push	{r4, r5, r6, r7, lr}
10005526:	46ce      	mov	lr, r9
10005528:	4647      	mov	r7, r8
1000552a:	2307      	movs	r3, #7
1000552c:	b580      	push	{r7, lr}
1000552e:	7948      	ldrb	r0, [r1, #5]
10005530:	788e      	ldrb	r6, [r1, #2]
10005532:	790a      	ldrb	r2, [r1, #4]
10005534:	4003      	ands	r3, r0
10005536:	78c8      	ldrb	r0, [r1, #3]
10005538:	217f      	movs	r1, #127	; 0x7f
1000553a:	0780      	lsls	r0, r0, #30
1000553c:	4031      	ands	r1, r6
1000553e:	021b      	lsls	r3, r3, #8
10005540:	09f4      	lsrs	r4, r6, #7
10005542:	4313      	orrs	r3, r2
10005544:	004f      	lsls	r7, r1, #1
10005546:	0f82      	lsrs	r2, r0, #30
10005548:	4694      	mov	ip, r2
1000554a:	4691      	mov	r9, r2
1000554c:	4d2a      	ldr	r5, [pc, #168]	; (100055f8 <dcd_edpt_open+0xd4>)
1000554e:	193a      	adds	r2, r7, r4
10005550:	0152      	lsls	r2, r2, #5
10005552:	18aa      	adds	r2, r5, r2
10005554:	7096      	strb	r6, [r2, #2]
10005556:	2601      	movs	r6, #1
10005558:	4066      	eors	r6, r4
1000555a:	7056      	strb	r6, [r2, #1]
1000555c:	4660      	mov	r0, ip
1000555e:	2600      	movs	r6, #0
10005560:	8393      	strh	r3, [r2, #28]
10005562:	70d6      	strb	r6, [r2, #3]
10005564:	7790      	strb	r0, [r2, #30]
10005566:	00ca      	lsls	r2, r1, #3
10005568:	2c01      	cmp	r4, #1
1000556a:	d029      	beq.n	100055c0 <dcd_edpt_open+0x9c>
1000556c:	4823      	ldr	r0, [pc, #140]	; (100055fc <dcd_edpt_open+0xd8>)
1000556e:	4684      	mov	ip, r0
10005570:	0188      	lsls	r0, r1, #6
10005572:	4462      	add	r2, ip
10005574:	4684      	mov	ip, r0
10005576:	44ac      	add	ip, r5
10005578:	4660      	mov	r0, ip
1000557a:	6082      	str	r2, [r0, #8]
1000557c:	6016      	str	r6, [r2, #0]
1000557e:	2900      	cmp	r1, #0
10005580:	d029      	beq.n	100055d6 <dcd_edpt_open+0xb2>
10005582:	4a1f      	ldr	r2, [pc, #124]	; (10005600 <dcd_edpt_open+0xdc>)
10005584:	00c9      	lsls	r1, r1, #3
10005586:	4690      	mov	r8, r2
10005588:	4441      	add	r1, r8
1000558a:	6041      	str	r1, [r0, #4]
1000558c:	223f      	movs	r2, #63	; 0x3f
1000558e:	333f      	adds	r3, #63	; 0x3f
10005590:	4393      	bics	r3, r2
10005592:	464a      	mov	r2, r9
10005594:	2a02      	cmp	r2, #2
10005596:	d100      	bne.n	1000559a <dcd_edpt_open+0x76>
10005598:	005b      	lsls	r3, r3, #1
1000559a:	491a      	ldr	r1, [pc, #104]	; (10005604 <dcd_edpt_open+0xe0>)
1000559c:	193f      	adds	r7, r7, r4
1000559e:	680a      	ldr	r2, [r1, #0]
100055a0:	017f      	lsls	r7, r7, #5
100055a2:	18d3      	adds	r3, r2, r3
100055a4:	600b      	str	r3, [r1, #0]
100055a6:	4b18      	ldr	r3, [pc, #96]	; (10005608 <dcd_edpt_open+0xe4>)
100055a8:	19ed      	adds	r5, r5, r7
100055aa:	4053      	eors	r3, r2
100055ac:	60ea      	str	r2, [r5, #12]
100055ae:	464a      	mov	r2, r9
100055b0:	0690      	lsls	r0, r2, #26
100055b2:	4318      	orrs	r0, r3
100055b4:	2380      	movs	r3, #128	; 0x80
100055b6:	061b      	lsls	r3, r3, #24
100055b8:	4318      	orrs	r0, r3
100055ba:	686b      	ldr	r3, [r5, #4]
100055bc:	6018      	str	r0, [r3, #0]
100055be:	e010      	b.n	100055e2 <dcd_edpt_open+0xbe>
100055c0:	4812      	ldr	r0, [pc, #72]	; (1000560c <dcd_edpt_open+0xe8>)
100055c2:	4684      	mov	ip, r0
100055c4:	0188      	lsls	r0, r1, #6
100055c6:	4462      	add	r2, ip
100055c8:	4684      	mov	ip, r0
100055ca:	44ac      	add	ip, r5
100055cc:	4660      	mov	r0, ip
100055ce:	6282      	str	r2, [r0, #40]	; 0x28
100055d0:	6016      	str	r6, [r2, #0]
100055d2:	2900      	cmp	r1, #0
100055d4:	d10a      	bne.n	100055ec <dcd_edpt_open+0xc8>
100055d6:	2300      	movs	r3, #0
100055d8:	0164      	lsls	r4, r4, #5
100055da:	192d      	adds	r5, r5, r4
100055dc:	606b      	str	r3, [r5, #4]
100055de:	4b0c      	ldr	r3, [pc, #48]	; (10005610 <dcd_edpt_open+0xec>)
100055e0:	60eb      	str	r3, [r5, #12]
100055e2:	2001      	movs	r0, #1
100055e4:	bcc0      	pop	{r6, r7}
100055e6:	46b9      	mov	r9, r7
100055e8:	46b0      	mov	r8, r6
100055ea:	bdf0      	pop	{r4, r5, r6, r7, pc}
100055ec:	4a06      	ldr	r2, [pc, #24]	; (10005608 <dcd_edpt_open+0xe4>)
100055ee:	00c9      	lsls	r1, r1, #3
100055f0:	4690      	mov	r8, r2
100055f2:	4441      	add	r1, r8
100055f4:	6241      	str	r1, [r0, #36]	; 0x24
100055f6:	e7c9      	b.n	1000558c <dcd_edpt_open+0x68>
100055f8:	200017dc 	.word	0x200017dc
100055fc:	50100084 	.word	0x50100084
10005600:	50100004 	.word	0x50100004
10005604:	20001be4 	.word	0x20001be4
10005608:	50100000 	.word	0x50100000
1000560c:	50100080 	.word	0x50100080
10005610:	50100100 	.word	0x50100100

10005614 <dcd_edpt_close_all>:
10005614:	2300      	movs	r3, #0
10005616:	4a1c      	ldr	r2, [pc, #112]	; (10005688 <dcd_edpt_close_all+0x74>)
10005618:	b510      	push	{r4, lr}
1000561a:	6093      	str	r3, [r2, #8]
1000561c:	60d3      	str	r3, [r2, #12]
1000561e:	4a1b      	ldr	r2, [pc, #108]	; (1000568c <dcd_edpt_close_all+0x78>)
10005620:	2100      	movs	r1, #0
10005622:	6093      	str	r3, [r2, #8]
10005624:	60d3      	str	r3, [r2, #12]
10005626:	4a1a      	ldr	r2, [pc, #104]	; (10005690 <dcd_edpt_close_all+0x7c>)
10005628:	481a      	ldr	r0, [pc, #104]	; (10005694 <dcd_edpt_close_all+0x80>)
1000562a:	6093      	str	r3, [r2, #8]
1000562c:	60d3      	str	r3, [r2, #12]
1000562e:	4a1a      	ldr	r2, [pc, #104]	; (10005698 <dcd_edpt_close_all+0x84>)
10005630:	6093      	str	r3, [r2, #8]
10005632:	60d3      	str	r3, [r2, #12]
10005634:	4a19      	ldr	r2, [pc, #100]	; (1000569c <dcd_edpt_close_all+0x88>)
10005636:	6093      	str	r3, [r2, #8]
10005638:	60d3      	str	r3, [r2, #12]
1000563a:	4a19      	ldr	r2, [pc, #100]	; (100056a0 <dcd_edpt_close_all+0x8c>)
1000563c:	6093      	str	r3, [r2, #8]
1000563e:	60d3      	str	r3, [r2, #12]
10005640:	4a18      	ldr	r2, [pc, #96]	; (100056a4 <dcd_edpt_close_all+0x90>)
10005642:	6093      	str	r3, [r2, #8]
10005644:	60d3      	str	r3, [r2, #12]
10005646:	4a18      	ldr	r2, [pc, #96]	; (100056a8 <dcd_edpt_close_all+0x94>)
10005648:	6093      	str	r3, [r2, #8]
1000564a:	60d3      	str	r3, [r2, #12]
1000564c:	4a17      	ldr	r2, [pc, #92]	; (100056ac <dcd_edpt_close_all+0x98>)
1000564e:	6093      	str	r3, [r2, #8]
10005650:	60d3      	str	r3, [r2, #12]
10005652:	4a17      	ldr	r2, [pc, #92]	; (100056b0 <dcd_edpt_close_all+0x9c>)
10005654:	6093      	str	r3, [r2, #8]
10005656:	60d3      	str	r3, [r2, #12]
10005658:	4a16      	ldr	r2, [pc, #88]	; (100056b4 <dcd_edpt_close_all+0xa0>)
1000565a:	6093      	str	r3, [r2, #8]
1000565c:	60d3      	str	r3, [r2, #12]
1000565e:	4a16      	ldr	r2, [pc, #88]	; (100056b8 <dcd_edpt_close_all+0xa4>)
10005660:	6093      	str	r3, [r2, #8]
10005662:	60d3      	str	r3, [r2, #12]
10005664:	4a15      	ldr	r2, [pc, #84]	; (100056bc <dcd_edpt_close_all+0xa8>)
10005666:	6093      	str	r3, [r2, #8]
10005668:	60d3      	str	r3, [r2, #12]
1000566a:	4a15      	ldr	r2, [pc, #84]	; (100056c0 <dcd_edpt_close_all+0xac>)
1000566c:	6093      	str	r3, [r2, #8]
1000566e:	60d3      	str	r3, [r2, #12]
10005670:	4a14      	ldr	r2, [pc, #80]	; (100056c4 <dcd_edpt_close_all+0xb0>)
10005672:	6093      	str	r3, [r2, #8]
10005674:	60d3      	str	r3, [r2, #12]
10005676:	22f0      	movs	r2, #240	; 0xf0
10005678:	0092      	lsls	r2, r2, #2
1000567a:	f7ff f987 	bl	1000498c <__wrap_memset>
1000567e:	4b12      	ldr	r3, [pc, #72]	; (100056c8 <dcd_edpt_close_all+0xb4>)
10005680:	4a12      	ldr	r2, [pc, #72]	; (100056cc <dcd_edpt_close_all+0xb8>)
10005682:	601a      	str	r2, [r3, #0]
10005684:	bd10      	pop	{r4, pc}
10005686:	46c0      	nop			; (mov r8, r8)
10005688:	50100000 	.word	0x50100000
1000568c:	50100008 	.word	0x50100008
10005690:	50100010 	.word	0x50100010
10005694:	2000181c 	.word	0x2000181c
10005698:	50100018 	.word	0x50100018
1000569c:	50100020 	.word	0x50100020
100056a0:	50100028 	.word	0x50100028
100056a4:	50100030 	.word	0x50100030
100056a8:	50100038 	.word	0x50100038
100056ac:	50100040 	.word	0x50100040
100056b0:	50100048 	.word	0x50100048
100056b4:	50100050 	.word	0x50100050
100056b8:	50100058 	.word	0x50100058
100056bc:	50100060 	.word	0x50100060
100056c0:	50100068 	.word	0x50100068
100056c4:	50100070 	.word	0x50100070
100056c8:	20001be4 	.word	0x20001be4
100056cc:	50100180 	.word	0x50100180

100056d0 <dcd_edpt_xfer>:
100056d0:	b510      	push	{r4, lr}
100056d2:	207f      	movs	r0, #127	; 0x7f
100056d4:	000c      	movs	r4, r1
100056d6:	4020      	ands	r0, r4
100056d8:	0040      	lsls	r0, r0, #1
100056da:	09e4      	lsrs	r4, r4, #7
100056dc:	0011      	movs	r1, r2
100056de:	1900      	adds	r0, r0, r4
100056e0:	001a      	movs	r2, r3
100056e2:	4b03      	ldr	r3, [pc, #12]	; (100056f0 <dcd_edpt_xfer+0x20>)
100056e4:	0140      	lsls	r0, r0, #5
100056e6:	18c0      	adds	r0, r0, r3
100056e8:	f000 f894 	bl	10005814 <hw_endpoint_xfer_start>
100056ec:	2001      	movs	r0, #1
100056ee:	bd10      	pop	{r4, pc}
100056f0:	200017dc 	.word	0x200017dc

100056f4 <dcd_edpt_stall>:
100056f4:	227f      	movs	r2, #127	; 0x7f
100056f6:	0013      	movs	r3, r2
100056f8:	b510      	push	{r4, lr}
100056fa:	400b      	ands	r3, r1
100056fc:	420a      	tst	r2, r1
100056fe:	d00b      	beq.n	10005718 <dcd_edpt_stall+0x24>
10005700:	09c9      	lsrs	r1, r1, #7
10005702:	2280      	movs	r2, #128	; 0x80
10005704:	0058      	lsls	r0, r3, #1
10005706:	1840      	adds	r0, r0, r1
10005708:	4906      	ldr	r1, [pc, #24]	; (10005724 <dcd_edpt_stall+0x30>)
1000570a:	0140      	lsls	r0, r0, #5
1000570c:	1840      	adds	r0, r0, r1
1000570e:	0112      	lsls	r2, r2, #4
10005710:	2100      	movs	r1, #0
10005712:	f000 f85d 	bl	100057d0 <_hw_endpoint_buffer_control_update32>
10005716:	bd10      	pop	{r4, pc}
10005718:	2202      	movs	r2, #2
1000571a:	4803      	ldr	r0, [pc, #12]	; (10005728 <dcd_edpt_stall+0x34>)
1000571c:	09c9      	lsrs	r1, r1, #7
1000571e:	1a52      	subs	r2, r2, r1
10005720:	6682      	str	r2, [r0, #104]	; 0x68
10005722:	e7ee      	b.n	10005702 <dcd_edpt_stall+0xe>
10005724:	200017dc 	.word	0x200017dc
10005728:	50112000 	.word	0x50112000

1000572c <dcd_edpt_clear_stall>:
1000572c:	227f      	movs	r2, #127	; 0x7f
1000572e:	0010      	movs	r0, r2
10005730:	b510      	push	{r4, lr}
10005732:	4008      	ands	r0, r1
10005734:	420a      	tst	r2, r1
10005736:	d100      	bne.n	1000573a <dcd_edpt_clear_stall+0xe>
10005738:	bd10      	pop	{r4, pc}
1000573a:	2300      	movs	r3, #0
1000573c:	09c9      	lsrs	r1, r1, #7
1000573e:	0040      	lsls	r0, r0, #1
10005740:	1840      	adds	r0, r0, r1
10005742:	4904      	ldr	r1, [pc, #16]	; (10005754 <dcd_edpt_clear_stall+0x28>)
10005744:	0140      	lsls	r0, r0, #5
10005746:	1808      	adds	r0, r1, r0
10005748:	2200      	movs	r2, #0
1000574a:	4903      	ldr	r1, [pc, #12]	; (10005758 <dcd_edpt_clear_stall+0x2c>)
1000574c:	70c3      	strb	r3, [r0, #3]
1000574e:	f000 f83f 	bl	100057d0 <_hw_endpoint_buffer_control_update32>
10005752:	e7f1      	b.n	10005738 <dcd_edpt_clear_stall+0xc>
10005754:	200017dc 	.word	0x200017dc
10005758:	fffff7ff 	.word	0xfffff7ff

1000575c <_hw_endpoint_buffer_control_update32.part.0.isra.0>:
1000575c:	217f      	movs	r1, #127	; 0x7f
1000575e:	09c3      	lsrs	r3, r0, #7
10005760:	4a03      	ldr	r2, [pc, #12]	; (10005770 <_hw_endpoint_buffer_control_update32.part.0.isra.0+0x14>)
10005762:	009b      	lsls	r3, r3, #2
10005764:	4001      	ands	r1, r0
10005766:	b510      	push	{r4, lr}
10005768:	589a      	ldr	r2, [r3, r2]
1000576a:	4802      	ldr	r0, [pc, #8]	; (10005774 <_hw_endpoint_buffer_control_update32.part.0.isra.0+0x18>)
1000576c:	f7fc fbf6 	bl	10001f5c <panic>
10005770:	20000444 	.word	0x20000444
10005774:	1000b6b0 	.word	0x1000b6b0

10005778 <rp2040_usb_init>:
10005778:	2280      	movs	r2, #128	; 0x80
1000577a:	4b0d      	ldr	r3, [pc, #52]	; (100057b0 <rp2040_usb_init+0x38>)
1000577c:	0452      	lsls	r2, r2, #17
1000577e:	b510      	push	{r4, lr}
10005780:	601a      	str	r2, [r3, #0]
10005782:	4b0c      	ldr	r3, [pc, #48]	; (100057b4 <rp2040_usb_init+0x3c>)
10005784:	490c      	ldr	r1, [pc, #48]	; (100057b8 <rp2040_usb_init+0x40>)
10005786:	601a      	str	r2, [r3, #0]
10005788:	0010      	movs	r0, r2
1000578a:	688b      	ldr	r3, [r1, #8]
1000578c:	4398      	bics	r0, r3
1000578e:	d1fb      	bne.n	10005788 <rp2040_usb_init+0x10>
10005790:	4c0a      	ldr	r4, [pc, #40]	; (100057bc <rp2040_usb_init+0x44>)
10005792:	229c      	movs	r2, #156	; 0x9c
10005794:	2100      	movs	r1, #0
10005796:	0020      	movs	r0, r4
10005798:	f7ff f8f8 	bl	1000498c <__wrap_memset>
1000579c:	2280      	movs	r2, #128	; 0x80
1000579e:	2100      	movs	r1, #0
100057a0:	0152      	lsls	r2, r2, #5
100057a2:	4807      	ldr	r0, [pc, #28]	; (100057c0 <rp2040_usb_init+0x48>)
100057a4:	f7ff f8f2 	bl	1000498c <__wrap_memset>
100057a8:	2309      	movs	r3, #9
100057aa:	6763      	str	r3, [r4, #116]	; 0x74
100057ac:	bd10      	pop	{r4, pc}
100057ae:	46c0      	nop			; (mov r8, r8)
100057b0:	4000e000 	.word	0x4000e000
100057b4:	4000f000 	.word	0x4000f000
100057b8:	4000c000 	.word	0x4000c000
100057bc:	50110000 	.word	0x50110000
100057c0:	50100000 	.word	0x50100000

100057c4 <hw_endpoint_reset_transfer>:
100057c4:	2300      	movs	r3, #0
100057c6:	7403      	strb	r3, [r0, #16]
100057c8:	8243      	strh	r3, [r0, #18]
100057ca:	8283      	strh	r3, [r0, #20]
100057cc:	6183      	str	r3, [r0, #24]
100057ce:	4770      	bx	lr

100057d0 <_hw_endpoint_buffer_control_update32>:
100057d0:	b510      	push	{r4, lr}
100057d2:	6883      	ldr	r3, [r0, #8]
100057d4:	2900      	cmp	r1, #0
100057d6:	d001      	beq.n	100057dc <_hw_endpoint_buffer_control_update32+0xc>
100057d8:	681c      	ldr	r4, [r3, #0]
100057da:	4021      	ands	r1, r4
100057dc:	2a00      	cmp	r2, #0
100057de:	d011      	beq.n	10005804 <_hw_endpoint_buffer_control_update32+0x34>
100057e0:	2480      	movs	r4, #128	; 0x80
100057e2:	00e4      	lsls	r4, r4, #3
100057e4:	4311      	orrs	r1, r2
100057e6:	4222      	tst	r2, r4
100057e8:	d00c      	beq.n	10005804 <_hw_endpoint_buffer_control_update32+0x34>
100057ea:	681a      	ldr	r2, [r3, #0]
100057ec:	4222      	tst	r2, r4
100057ee:	d10b      	bne.n	10005808 <_hw_endpoint_buffer_control_update32+0x38>
100057f0:	4a07      	ldr	r2, [pc, #28]	; (10005810 <_hw_endpoint_buffer_control_update32+0x40>)
100057f2:	400a      	ands	r2, r1
100057f4:	601a      	str	r2, [r3, #0]
100057f6:	e7ff      	b.n	100057f8 <_hw_endpoint_buffer_control_update32+0x28>
100057f8:	e7ff      	b.n	100057fa <_hw_endpoint_buffer_control_update32+0x2a>
100057fa:	e7ff      	b.n	100057fc <_hw_endpoint_buffer_control_update32+0x2c>
100057fc:	e7ff      	b.n	100057fe <_hw_endpoint_buffer_control_update32+0x2e>
100057fe:	e7ff      	b.n	10005800 <_hw_endpoint_buffer_control_update32+0x30>
10005800:	e7ff      	b.n	10005802 <_hw_endpoint_buffer_control_update32+0x32>
10005802:	6883      	ldr	r3, [r0, #8]
10005804:	6019      	str	r1, [r3, #0]
10005806:	bd10      	pop	{r4, pc}
10005808:	7880      	ldrb	r0, [r0, #2]
1000580a:	f7ff ffa7 	bl	1000575c <_hw_endpoint_buffer_control_update32.part.0.isra.0>
1000580e:	46c0      	nop			; (mov r8, r8)
10005810:	fffffbff 	.word	0xfffffbff

10005814 <hw_endpoint_xfer_start>:
10005814:	b5f0      	push	{r4, r5, r6, r7, lr}
10005816:	46c6      	mov	lr, r8
10005818:	2300      	movs	r3, #0
1000581a:	b500      	push	{lr}
1000581c:	8283      	strh	r3, [r0, #20]
1000581e:	3301      	adds	r3, #1
10005820:	7403      	strb	r3, [r0, #16]
10005822:	6843      	ldr	r3, [r0, #4]
10005824:	0004      	movs	r4, r0
10005826:	681e      	ldr	r6, [r3, #0]
10005828:	8b83      	ldrh	r3, [r0, #28]
1000582a:	6181      	str	r1, [r0, #24]
1000582c:	1c1f      	adds	r7, r3, #0
1000582e:	4293      	cmp	r3, r2
10005830:	d900      	bls.n	10005834 <hw_endpoint_xfer_start+0x20>
10005832:	1c17      	adds	r7, r2, #0
10005834:	2580      	movs	r5, #128	; 0x80
10005836:	b2bf      	uxth	r7, r7
10005838:	1bd2      	subs	r2, r2, r7
1000583a:	b293      	uxth	r3, r2
1000583c:	78e2      	ldrb	r2, [r4, #3]
1000583e:	00ed      	lsls	r5, r5, #3
10005840:	8263      	strh	r3, [r4, #18]
10005842:	433d      	orrs	r5, r7
10005844:	2a00      	cmp	r2, #0
10005846:	d002      	beq.n	1000584e <hw_endpoint_xfer_start+0x3a>
10005848:	2590      	movs	r5, #144	; 0x90
1000584a:	01ad      	lsls	r5, r5, #6
1000584c:	433d      	orrs	r5, r7
1000584e:	2001      	movs	r0, #1
10005850:	4042      	eors	r2, r0
10005852:	70e2      	strb	r2, [r4, #3]
10005854:	7862      	ldrb	r2, [r4, #1]
10005856:	2a00      	cmp	r2, #0
10005858:	d051      	beq.n	100058fe <hw_endpoint_xfer_start+0xea>
1000585a:	2b00      	cmp	r3, #0
1000585c:	d11d      	bne.n	1000589a <hw_endpoint_xfer_start+0x86>
1000585e:	23a0      	movs	r3, #160	; 0xa0
10005860:	01db      	lsls	r3, r3, #7
10005862:	431d      	orrs	r5, r3
10005864:	4b35      	ldr	r3, [pc, #212]	; (1000593c <hw_endpoint_xfer_start+0x128>)
10005866:	6c1b      	ldr	r3, [r3, #64]	; 0x40
10005868:	4b35      	ldr	r3, [pc, #212]	; (10005940 <hw_endpoint_xfer_start+0x12c>)
1000586a:	4033      	ands	r3, r6
1000586c:	2680      	movs	r6, #128	; 0x80
1000586e:	05b6      	lsls	r6, r6, #22
10005870:	431e      	orrs	r6, r3
10005872:	6863      	ldr	r3, [r4, #4]
10005874:	68a2      	ldr	r2, [r4, #8]
10005876:	601e      	str	r6, [r3, #0]
10005878:	6813      	ldr	r3, [r2, #0]
1000587a:	055b      	lsls	r3, r3, #21
1000587c:	d45a      	bmi.n	10005934 <hw_endpoint_xfer_start+0x120>
1000587e:	4b31      	ldr	r3, [pc, #196]	; (10005944 <hw_endpoint_xfer_start+0x130>)
10005880:	402b      	ands	r3, r5
10005882:	6013      	str	r3, [r2, #0]
10005884:	e7ff      	b.n	10005886 <hw_endpoint_xfer_start+0x72>
10005886:	e7ff      	b.n	10005888 <hw_endpoint_xfer_start+0x74>
10005888:	e7ff      	b.n	1000588a <hw_endpoint_xfer_start+0x76>
1000588a:	e7ff      	b.n	1000588c <hw_endpoint_xfer_start+0x78>
1000588c:	e7ff      	b.n	1000588e <hw_endpoint_xfer_start+0x7a>
1000588e:	e7ff      	b.n	10005890 <hw_endpoint_xfer_start+0x7c>
10005890:	68a3      	ldr	r3, [r4, #8]
10005892:	601d      	str	r5, [r3, #0]
10005894:	bc80      	pop	{r7}
10005896:	46b8      	mov	r8, r7
10005898:	bdf0      	pop	{r4, r5, r6, r7, pc}
1000589a:	2280      	movs	r2, #128	; 0x80
1000589c:	0152      	lsls	r2, r2, #5
1000589e:	4315      	orrs	r5, r2
100058a0:	4a26      	ldr	r2, [pc, #152]	; (1000593c <hw_endpoint_xfer_start+0x128>)
100058a2:	6c12      	ldr	r2, [r2, #64]	; 0x40
100058a4:	0792      	lsls	r2, r2, #30
100058a6:	d403      	bmi.n	100058b0 <hw_endpoint_xfer_start+0x9c>
100058a8:	78a2      	ldrb	r2, [r4, #2]
100058aa:	09d2      	lsrs	r2, r2, #7
100058ac:	2a01      	cmp	r2, #1
100058ae:	d1db      	bne.n	10005868 <hw_endpoint_xfer_start+0x54>
100058b0:	8ba2      	ldrh	r2, [r4, #28]
100058b2:	1c11      	adds	r1, r2, #0
100058b4:	429a      	cmp	r2, r3
100058b6:	d900      	bls.n	100058ba <hw_endpoint_xfer_start+0xa6>
100058b8:	1c19      	adds	r1, r3, #0
100058ba:	2780      	movs	r7, #128	; 0x80
100058bc:	b28a      	uxth	r2, r1
100058be:	00ff      	lsls	r7, r7, #3
100058c0:	1a9b      	subs	r3, r3, r2
100058c2:	4690      	mov	r8, r2
100058c4:	4317      	orrs	r7, r2
100058c6:	78e2      	ldrb	r2, [r4, #3]
100058c8:	b29b      	uxth	r3, r3
100058ca:	8263      	strh	r3, [r4, #18]
100058cc:	2a00      	cmp	r2, #0
100058ce:	d003      	beq.n	100058d8 <hw_endpoint_xfer_start+0xc4>
100058d0:	2790      	movs	r7, #144	; 0x90
100058d2:	4641      	mov	r1, r8
100058d4:	01bf      	lsls	r7, r7, #6
100058d6:	430f      	orrs	r7, r1
100058d8:	2101      	movs	r1, #1
100058da:	404a      	eors	r2, r1
100058dc:	70e2      	strb	r2, [r4, #3]
100058de:	7862      	ldrb	r2, [r4, #1]
100058e0:	2a00      	cmp	r2, #0
100058e2:	d019      	beq.n	10005918 <hw_endpoint_xfer_start+0x104>
100058e4:	2b00      	cmp	r3, #0
100058e6:	d102      	bne.n	100058ee <hw_endpoint_xfer_start+0xda>
100058e8:	2380      	movs	r3, #128	; 0x80
100058ea:	01db      	lsls	r3, r3, #7
100058ec:	431f      	orrs	r7, r3
100058ee:	4b16      	ldr	r3, [pc, #88]	; (10005948 <hw_endpoint_xfer_start+0x134>)
100058f0:	043f      	lsls	r7, r7, #16
100058f2:	4033      	ands	r3, r6
100058f4:	26a0      	movs	r6, #160	; 0xa0
100058f6:	05f6      	lsls	r6, r6, #23
100058f8:	433d      	orrs	r5, r7
100058fa:	431e      	orrs	r6, r3
100058fc:	e7b9      	b.n	10005872 <hw_endpoint_xfer_start+0x5e>
100058fe:	003a      	movs	r2, r7
10005900:	68e0      	ldr	r0, [r4, #12]
10005902:	f7ff f849 	bl	10004998 <__wrap___aeabi_memcpy>
10005906:	69a3      	ldr	r3, [r4, #24]
10005908:	469c      	mov	ip, r3
1000590a:	2380      	movs	r3, #128	; 0x80
1000590c:	4467      	add	r7, ip
1000590e:	021b      	lsls	r3, r3, #8
10005910:	431d      	orrs	r5, r3
10005912:	61a7      	str	r7, [r4, #24]
10005914:	8a63      	ldrh	r3, [r4, #18]
10005916:	e7a0      	b.n	1000585a <hw_endpoint_xfer_start+0x46>
10005918:	68e0      	ldr	r0, [r4, #12]
1000591a:	4642      	mov	r2, r8
1000591c:	69a1      	ldr	r1, [r4, #24]
1000591e:	3040      	adds	r0, #64	; 0x40
10005920:	f7ff f83a 	bl	10004998 <__wrap___aeabi_memcpy>
10005924:	69a3      	ldr	r3, [r4, #24]
10005926:	4443      	add	r3, r8
10005928:	61a3      	str	r3, [r4, #24]
1000592a:	2380      	movs	r3, #128	; 0x80
1000592c:	021b      	lsls	r3, r3, #8
1000592e:	431f      	orrs	r7, r3
10005930:	8a63      	ldrh	r3, [r4, #18]
10005932:	e7d7      	b.n	100058e4 <hw_endpoint_xfer_start+0xd0>
10005934:	78a0      	ldrb	r0, [r4, #2]
10005936:	f7ff ff11 	bl	1000575c <_hw_endpoint_buffer_control_update32.part.0.isra.0>
1000593a:	46c0      	nop			; (mov r8, r8)
1000593c:	50110000 	.word	0x50110000
10005940:	afffffff 	.word	0xafffffff
10005944:	fffffbff 	.word	0xfffffbff
10005948:	dfffffff 	.word	0xdfffffff

1000594c <hw_endpoint_xfer_continue>:
1000594c:	b5f0      	push	{r4, r5, r6, r7, lr}
1000594e:	46c6      	mov	lr, r8
10005950:	b500      	push	{lr}
10005952:	7c06      	ldrb	r6, [r0, #16]
10005954:	0004      	movs	r4, r0
10005956:	2e00      	cmp	r6, #0
10005958:	d100      	bne.n	1000595c <hw_endpoint_xfer_continue+0x10>
1000595a:	e0d3      	b.n	10005b04 <hw_endpoint_xfer_continue+0x1b8>
1000595c:	6883      	ldr	r3, [r0, #8]
1000595e:	681a      	ldr	r2, [r3, #0]
10005960:	681d      	ldr	r5, [r3, #0]
10005962:	7843      	ldrb	r3, [r0, #1]
10005964:	05ad      	lsls	r5, r5, #22
10005966:	0dad      	lsrs	r5, r5, #22
10005968:	2b00      	cmp	r3, #0
1000596a:	d151      	bne.n	10005a10 <hw_endpoint_xfer_continue+0xc4>
1000596c:	8a83      	ldrh	r3, [r0, #20]
1000596e:	18eb      	adds	r3, r5, r3
10005970:	b29b      	uxth	r3, r3
10005972:	8283      	strh	r3, [r0, #20]
10005974:	8ba1      	ldrh	r1, [r4, #28]
10005976:	428d      	cmp	r5, r1
10005978:	d207      	bcs.n	1000598a <hw_endpoint_xfer_continue+0x3e>
1000597a:	2300      	movs	r3, #0
1000597c:	8263      	strh	r3, [r4, #18]
1000597e:	6863      	ldr	r3, [r4, #4]
10005980:	681b      	ldr	r3, [r3, #0]
10005982:	0030      	movs	r0, r6
10005984:	bc80      	pop	{r7}
10005986:	46b8      	mov	r8, r7
10005988:	bdf0      	pop	{r4, r5, r6, r7, pc}
1000598a:	6862      	ldr	r2, [r4, #4]
1000598c:	6812      	ldr	r2, [r2, #0]
1000598e:	0052      	lsls	r2, r2, #1
10005990:	d502      	bpl.n	10005998 <hw_endpoint_xfer_continue+0x4c>
10005992:	428d      	cmp	r5, r1
10005994:	d100      	bne.n	10005998 <hw_endpoint_xfer_continue+0x4c>
10005996:	e075      	b.n	10005a84 <hw_endpoint_xfer_continue+0x138>
10005998:	8a63      	ldrh	r3, [r4, #18]
1000599a:	2b00      	cmp	r3, #0
1000599c:	d0f1      	beq.n	10005982 <hw_endpoint_xfer_continue+0x36>
1000599e:	6862      	ldr	r2, [r4, #4]
100059a0:	1c1f      	adds	r7, r3, #0
100059a2:	6816      	ldr	r6, [r2, #0]
100059a4:	428b      	cmp	r3, r1
100059a6:	d900      	bls.n	100059aa <hw_endpoint_xfer_continue+0x5e>
100059a8:	1c0f      	adds	r7, r1, #0
100059aa:	2580      	movs	r5, #128	; 0x80
100059ac:	b2bf      	uxth	r7, r7
100059ae:	1bdb      	subs	r3, r3, r7
100059b0:	78e2      	ldrb	r2, [r4, #3]
100059b2:	b29b      	uxth	r3, r3
100059b4:	00ed      	lsls	r5, r5, #3
100059b6:	8263      	strh	r3, [r4, #18]
100059b8:	433d      	orrs	r5, r7
100059ba:	2a00      	cmp	r2, #0
100059bc:	d002      	beq.n	100059c4 <hw_endpoint_xfer_continue+0x78>
100059be:	2590      	movs	r5, #144	; 0x90
100059c0:	01ad      	lsls	r5, r5, #6
100059c2:	433d      	orrs	r5, r7
100059c4:	2101      	movs	r1, #1
100059c6:	404a      	eors	r2, r1
100059c8:	70e2      	strb	r2, [r4, #3]
100059ca:	7862      	ldrb	r2, [r4, #1]
100059cc:	2a00      	cmp	r2, #0
100059ce:	d068      	beq.n	10005aa2 <hw_endpoint_xfer_continue+0x156>
100059d0:	2b00      	cmp	r3, #0
100059d2:	d12a      	bne.n	10005a2a <hw_endpoint_xfer_continue+0xde>
100059d4:	23a0      	movs	r3, #160	; 0xa0
100059d6:	01db      	lsls	r3, r3, #7
100059d8:	431d      	orrs	r5, r3
100059da:	4b4f      	ldr	r3, [pc, #316]	; (10005b18 <hw_endpoint_xfer_continue+0x1cc>)
100059dc:	6c1b      	ldr	r3, [r3, #64]	; 0x40
100059de:	4b4f      	ldr	r3, [pc, #316]	; (10005b1c <hw_endpoint_xfer_continue+0x1d0>)
100059e0:	4033      	ands	r3, r6
100059e2:	2680      	movs	r6, #128	; 0x80
100059e4:	05b6      	lsls	r6, r6, #22
100059e6:	431e      	orrs	r6, r3
100059e8:	6863      	ldr	r3, [r4, #4]
100059ea:	68a2      	ldr	r2, [r4, #8]
100059ec:	601e      	str	r6, [r3, #0]
100059ee:	6813      	ldr	r3, [r2, #0]
100059f0:	055b      	lsls	r3, r3, #21
100059f2:	d500      	bpl.n	100059f6 <hw_endpoint_xfer_continue+0xaa>
100059f4:	e08d      	b.n	10005b12 <hw_endpoint_xfer_continue+0x1c6>
100059f6:	4b4a      	ldr	r3, [pc, #296]	; (10005b20 <hw_endpoint_xfer_continue+0x1d4>)
100059f8:	402b      	ands	r3, r5
100059fa:	6013      	str	r3, [r2, #0]
100059fc:	e7ff      	b.n	100059fe <hw_endpoint_xfer_continue+0xb2>
100059fe:	e7ff      	b.n	10005a00 <hw_endpoint_xfer_continue+0xb4>
10005a00:	e7ff      	b.n	10005a02 <hw_endpoint_xfer_continue+0xb6>
10005a02:	e7ff      	b.n	10005a04 <hw_endpoint_xfer_continue+0xb8>
10005a04:	e7ff      	b.n	10005a06 <hw_endpoint_xfer_continue+0xba>
10005a06:	e7ff      	b.n	10005a08 <hw_endpoint_xfer_continue+0xbc>
10005a08:	68a3      	ldr	r3, [r4, #8]
10005a0a:	2600      	movs	r6, #0
10005a0c:	601d      	str	r5, [r3, #0]
10005a0e:	e7b8      	b.n	10005982 <hw_endpoint_xfer_continue+0x36>
10005a10:	002a      	movs	r2, r5
10005a12:	68c1      	ldr	r1, [r0, #12]
10005a14:	6980      	ldr	r0, [r0, #24]
10005a16:	f7fe ffbf 	bl	10004998 <__wrap___aeabi_memcpy>
10005a1a:	8aa3      	ldrh	r3, [r4, #20]
10005a1c:	69a2      	ldr	r2, [r4, #24]
10005a1e:	18eb      	adds	r3, r5, r3
10005a20:	b29b      	uxth	r3, r3
10005a22:	1952      	adds	r2, r2, r5
10005a24:	82a3      	strh	r3, [r4, #20]
10005a26:	61a2      	str	r2, [r4, #24]
10005a28:	e7a4      	b.n	10005974 <hw_endpoint_xfer_continue+0x28>
10005a2a:	2280      	movs	r2, #128	; 0x80
10005a2c:	0152      	lsls	r2, r2, #5
10005a2e:	4315      	orrs	r5, r2
10005a30:	4a39      	ldr	r2, [pc, #228]	; (10005b18 <hw_endpoint_xfer_continue+0x1cc>)
10005a32:	6c12      	ldr	r2, [r2, #64]	; 0x40
10005a34:	0792      	lsls	r2, r2, #30
10005a36:	d403      	bmi.n	10005a40 <hw_endpoint_xfer_continue+0xf4>
10005a38:	78a2      	ldrb	r2, [r4, #2]
10005a3a:	09d2      	lsrs	r2, r2, #7
10005a3c:	2a01      	cmp	r2, #1
10005a3e:	d1ce      	bne.n	100059de <hw_endpoint_xfer_continue+0x92>
10005a40:	8ba2      	ldrh	r2, [r4, #28]
10005a42:	1c11      	adds	r1, r2, #0
10005a44:	429a      	cmp	r2, r3
10005a46:	d83f      	bhi.n	10005ac8 <hw_endpoint_xfer_continue+0x17c>
10005a48:	2780      	movs	r7, #128	; 0x80
10005a4a:	b28a      	uxth	r2, r1
10005a4c:	00ff      	lsls	r7, r7, #3
10005a4e:	1a9b      	subs	r3, r3, r2
10005a50:	4690      	mov	r8, r2
10005a52:	4317      	orrs	r7, r2
10005a54:	78e2      	ldrb	r2, [r4, #3]
10005a56:	b29b      	uxth	r3, r3
10005a58:	8263      	strh	r3, [r4, #18]
10005a5a:	2a00      	cmp	r2, #0
10005a5c:	d12f      	bne.n	10005abe <hw_endpoint_xfer_continue+0x172>
10005a5e:	2101      	movs	r1, #1
10005a60:	404a      	eors	r2, r1
10005a62:	70e2      	strb	r2, [r4, #3]
10005a64:	7862      	ldrb	r2, [r4, #1]
10005a66:	2a00      	cmp	r2, #0
10005a68:	d03e      	beq.n	10005ae8 <hw_endpoint_xfer_continue+0x19c>
10005a6a:	2b00      	cmp	r3, #0
10005a6c:	d102      	bne.n	10005a74 <hw_endpoint_xfer_continue+0x128>
10005a6e:	2380      	movs	r3, #128	; 0x80
10005a70:	01db      	lsls	r3, r3, #7
10005a72:	431f      	orrs	r7, r3
10005a74:	4b2b      	ldr	r3, [pc, #172]	; (10005b24 <hw_endpoint_xfer_continue+0x1d8>)
10005a76:	043f      	lsls	r7, r7, #16
10005a78:	4033      	ands	r3, r6
10005a7a:	26a0      	movs	r6, #160	; 0xa0
10005a7c:	05f6      	lsls	r6, r6, #23
10005a7e:	433d      	orrs	r5, r7
10005a80:	431e      	orrs	r6, r3
10005a82:	e7b1      	b.n	100059e8 <hw_endpoint_xfer_continue+0x9c>
10005a84:	68a2      	ldr	r2, [r4, #8]
10005a86:	6815      	ldr	r5, [r2, #0]
10005a88:	7862      	ldrb	r2, [r4, #1]
10005a8a:	01ad      	lsls	r5, r5, #6
10005a8c:	0dad      	lsrs	r5, r5, #22
10005a8e:	2a00      	cmp	r2, #0
10005a90:	d11c      	bne.n	10005acc <hw_endpoint_xfer_continue+0x180>
10005a92:	18eb      	adds	r3, r5, r3
10005a94:	82a3      	strh	r3, [r4, #20]
10005a96:	428d      	cmp	r5, r1
10005a98:	d300      	bcc.n	10005a9c <hw_endpoint_xfer_continue+0x150>
10005a9a:	e77d      	b.n	10005998 <hw_endpoint_xfer_continue+0x4c>
10005a9c:	2300      	movs	r3, #0
10005a9e:	8263      	strh	r3, [r4, #18]
10005aa0:	e76f      	b.n	10005982 <hw_endpoint_xfer_continue+0x36>
10005aa2:	003a      	movs	r2, r7
10005aa4:	69a1      	ldr	r1, [r4, #24]
10005aa6:	68e0      	ldr	r0, [r4, #12]
10005aa8:	f7fe ff76 	bl	10004998 <__wrap___aeabi_memcpy>
10005aac:	69a3      	ldr	r3, [r4, #24]
10005aae:	469c      	mov	ip, r3
10005ab0:	2380      	movs	r3, #128	; 0x80
10005ab2:	4467      	add	r7, ip
10005ab4:	021b      	lsls	r3, r3, #8
10005ab6:	431d      	orrs	r5, r3
10005ab8:	61a7      	str	r7, [r4, #24]
10005aba:	8a63      	ldrh	r3, [r4, #18]
10005abc:	e788      	b.n	100059d0 <hw_endpoint_xfer_continue+0x84>
10005abe:	2790      	movs	r7, #144	; 0x90
10005ac0:	4641      	mov	r1, r8
10005ac2:	01bf      	lsls	r7, r7, #6
10005ac4:	430f      	orrs	r7, r1
10005ac6:	e7ca      	b.n	10005a5e <hw_endpoint_xfer_continue+0x112>
10005ac8:	1c19      	adds	r1, r3, #0
10005aca:	e7bd      	b.n	10005a48 <hw_endpoint_xfer_continue+0xfc>
10005acc:	68e1      	ldr	r1, [r4, #12]
10005ace:	002a      	movs	r2, r5
10005ad0:	3140      	adds	r1, #64	; 0x40
10005ad2:	69a0      	ldr	r0, [r4, #24]
10005ad4:	f7fe ff60 	bl	10004998 <__wrap___aeabi_memcpy>
10005ad8:	8aa3      	ldrh	r3, [r4, #20]
10005ada:	8ba1      	ldrh	r1, [r4, #28]
10005adc:	18eb      	adds	r3, r5, r3
10005ade:	82a3      	strh	r3, [r4, #20]
10005ae0:	69a3      	ldr	r3, [r4, #24]
10005ae2:	195b      	adds	r3, r3, r5
10005ae4:	61a3      	str	r3, [r4, #24]
10005ae6:	e7d6      	b.n	10005a96 <hw_endpoint_xfer_continue+0x14a>
10005ae8:	68e0      	ldr	r0, [r4, #12]
10005aea:	4642      	mov	r2, r8
10005aec:	69a1      	ldr	r1, [r4, #24]
10005aee:	3040      	adds	r0, #64	; 0x40
10005af0:	f7fe ff52 	bl	10004998 <__wrap___aeabi_memcpy>
10005af4:	69a3      	ldr	r3, [r4, #24]
10005af6:	4443      	add	r3, r8
10005af8:	61a3      	str	r3, [r4, #24]
10005afa:	2380      	movs	r3, #128	; 0x80
10005afc:	021b      	lsls	r3, r3, #8
10005afe:	431f      	orrs	r7, r3
10005b00:	8a63      	ldrh	r3, [r4, #18]
10005b02:	e7b2      	b.n	10005a6a <hw_endpoint_xfer_continue+0x11e>
10005b04:	237f      	movs	r3, #127	; 0x7f
10005b06:	7881      	ldrb	r1, [r0, #2]
10005b08:	4a07      	ldr	r2, [pc, #28]	; (10005b28 <hw_endpoint_xfer_continue+0x1dc>)
10005b0a:	4808      	ldr	r0, [pc, #32]	; (10005b2c <hw_endpoint_xfer_continue+0x1e0>)
10005b0c:	4019      	ands	r1, r3
10005b0e:	f7fc fa25 	bl	10001f5c <panic>
10005b12:	78a0      	ldrb	r0, [r4, #2]
10005b14:	f7ff fe22 	bl	1000575c <_hw_endpoint_buffer_control_update32.part.0.isra.0>
10005b18:	50110000 	.word	0x50110000
10005b1c:	afffffff 	.word	0xafffffff
10005b20:	fffffbff 	.word	0xfffffbff
10005b24:	dfffffff 	.word	0xdfffffff
10005b28:	20000444 	.word	0x20000444
10005b2c:	1000b6d0 	.word	0x1000b6d0

10005b30 <tud_mounted>:
10005b30:	4b02      	ldr	r3, [pc, #8]	; (10005b3c <tud_mounted+0xc>)
10005b32:	7858      	ldrb	r0, [r3, #1]
10005b34:	1e43      	subs	r3, r0, #1
10005b36:	4198      	sbcs	r0, r3
10005b38:	b2c0      	uxtb	r0, r0
10005b3a:	4770      	bx	lr
10005b3c:	20001504 	.word	0x20001504

10005b40 <tud_suspended>:
10005b40:	4b02      	ldr	r3, [pc, #8]	; (10005b4c <tud_suspended+0xc>)
10005b42:	7818      	ldrb	r0, [r3, #0]
10005b44:	0740      	lsls	r0, r0, #29
10005b46:	0fc0      	lsrs	r0, r0, #31
10005b48:	4770      	bx	lr
10005b4a:	46c0      	nop			; (mov r8, r8)
10005b4c:	20001504 	.word	0x20001504

10005b50 <tud_inited>:
10005b50:	4b01      	ldr	r3, [pc, #4]	; (10005b58 <tud_inited+0x8>)
10005b52:	7818      	ldrb	r0, [r3, #0]
10005b54:	4770      	bx	lr
10005b56:	46c0      	nop			; (mov r8, r8)
10005b58:	20001c43 	.word	0x20001c43

10005b5c <tud_init>:
10005b5c:	b5f8      	push	{r3, r4, r5, r6, r7, lr}
10005b5e:	4647      	mov	r7, r8
10005b60:	46ce      	mov	lr, r9
10005b62:	b580      	push	{r7, lr}
10005b64:	4f29      	ldr	r7, [pc, #164]	; (10005c0c <tud_init+0xb0>)
10005b66:	0005      	movs	r5, r0
10005b68:	783b      	ldrb	r3, [r7, #0]
10005b6a:	2b00      	cmp	r3, #0
10005b6c:	d004      	beq.n	10005b78 <tud_init+0x1c>
10005b6e:	2001      	movs	r0, #1
10005b70:	bcc0      	pop	{r6, r7}
10005b72:	46b9      	mov	r9, r7
10005b74:	46b0      	mov	r8, r6
10005b76:	bdf8      	pop	{r3, r4, r5, r6, r7, pc}
10005b78:	2253      	movs	r2, #83	; 0x53
10005b7a:	2100      	movs	r1, #0
10005b7c:	4824      	ldr	r0, [pc, #144]	; (10005c10 <tud_init+0xb4>)
10005b7e:	f7fe ff05 	bl	1000498c <__wrap_memset>
10005b82:	4c24      	ldr	r4, [pc, #144]	; (10005c14 <tud_init+0xb8>)
10005b84:	0020      	movs	r0, r4
10005b86:	f7fc f929 	bl	10001ddc <mutex_init>
10005b8a:	4b23      	ldr	r3, [pc, #140]	; (10005c18 <tud_init+0xbc>)
10005b8c:	601c      	str	r4, [r3, #0]
10005b8e:	4c23      	ldr	r4, [pc, #140]	; (10005c1c <tud_init+0xc0>)
10005b90:	0020      	movs	r0, r4
10005b92:	301c      	adds	r0, #28
10005b94:	f7fc f93e 	bl	10001e14 <critical_section_init>
10005b98:	0020      	movs	r0, r4
10005b9a:	f001 fca1 	bl	100074e0 <tu_fifo_clear>
10005b9e:	4b20      	ldr	r3, [pc, #128]	; (10005c20 <tud_init+0xc4>)
10005ba0:	4e20      	ldr	r6, [pc, #128]	; (10005c24 <tud_init+0xc8>)
10005ba2:	601c      	str	r4, [r3, #0]
10005ba4:	4b20      	ldr	r3, [pc, #128]	; (10005c28 <tud_init+0xcc>)
10005ba6:	4698      	mov	r8, r3
10005ba8:	2b00      	cmp	r3, #0
10005baa:	d004      	beq.n	10005bb6 <tud_init+0x5a>
10005bac:	0030      	movs	r0, r6
10005bae:	f7ff f95d 	bl	10004e6c <usbd_app_driver_get_cb>
10005bb2:	4b1e      	ldr	r3, [pc, #120]	; (10005c2c <tud_init+0xd0>)
10005bb4:	6018      	str	r0, [r3, #0]
10005bb6:	4642      	mov	r2, r8
10005bb8:	2400      	movs	r4, #0
10005bba:	7833      	ldrb	r3, [r6, #0]
10005bbc:	2a00      	cmp	r2, #0
10005bbe:	d01d      	beq.n	10005bfc <tud_init+0xa0>
10005bc0:	4a1b      	ldr	r2, [pc, #108]	; (10005c30 <tud_init+0xd4>)
10005bc2:	4690      	mov	r8, r2
10005bc4:	4a19      	ldr	r2, [pc, #100]	; (10005c2c <tud_init+0xd0>)
10005bc6:	4691      	mov	r9, r2
10005bc8:	429c      	cmp	r4, r3
10005bca:	d310      	bcc.n	10005bee <tud_init+0x92>
10005bcc:	d11b      	bne.n	10005c06 <tud_init+0xaa>
10005bce:	4643      	mov	r3, r8
10005bd0:	4798      	blx	r3
10005bd2:	3401      	adds	r4, #1
10005bd4:	7833      	ldrb	r3, [r6, #0]
10005bd6:	b2e4      	uxtb	r4, r4
10005bd8:	42a3      	cmp	r3, r4
10005bda:	d2f5      	bcs.n	10005bc8 <tud_init+0x6c>
10005bdc:	0028      	movs	r0, r5
10005bde:	f7ff fbf1 	bl	100053c4 <dcd_init>
10005be2:	0028      	movs	r0, r5
10005be4:	f7ff fbd6 	bl	10005394 <dcd_int_enable>
10005be8:	2301      	movs	r3, #1
10005bea:	703b      	strb	r3, [r7, #0]
10005bec:	e7bf      	b.n	10005b6e <tud_init+0x12>
10005bee:	464a      	mov	r2, r9
10005bf0:	0063      	lsls	r3, r4, #1
10005bf2:	6812      	ldr	r2, [r2, #0]
10005bf4:	191b      	adds	r3, r3, r4
10005bf6:	00db      	lsls	r3, r3, #3
10005bf8:	589b      	ldr	r3, [r3, r2]
10005bfa:	e7e9      	b.n	10005bd0 <tud_init+0x74>
10005bfc:	f001 f84a 	bl	10006c94 <cdcd_init>
10005c00:	7833      	ldrb	r3, [r6, #0]
10005c02:	2b00      	cmp	r3, #0
10005c04:	d0ea      	beq.n	10005bdc <tud_init+0x80>
10005c06:	2300      	movs	r3, #0
10005c08:	681b      	ldr	r3, [r3, #0]
10005c0a:	deff      	udf	#255	; 0xff
10005c0c:	20001c43 	.word	0x20001c43
10005c10:	20001504 	.word	0x20001504
10005c14:	200014bc 	.word	0x200014bc
10005c18:	20001558 	.word	0x20001558
10005c1c:	2000044c 	.word	0x2000044c
10005c20:	2000155c 	.word	0x2000155c
10005c24:	20001c42 	.word	0x20001c42
10005c28:	10004e6d 	.word	0x10004e6d
10005c2c:	200011cc 	.word	0x200011cc
10005c30:	10006c95 	.word	0x10006c95

10005c34 <tud_task>:
10005c34:	b5f0      	push	{r4, r5, r6, r7, lr}
10005c36:	46de      	mov	lr, fp
10005c38:	4657      	mov	r7, sl
10005c3a:	464e      	mov	r6, r9
10005c3c:	4645      	mov	r5, r8
10005c3e:	b5e0      	push	{r5, r6, r7, lr}
10005c40:	b08b      	sub	sp, #44	; 0x2c
10005c42:	f001 fa09 	bl	10007058 <tusb_inited>
10005c46:	2800      	cmp	r0, #0
10005c48:	d100      	bne.n	10005c4c <tud_task+0x18>
10005c4a:	e144      	b.n	10005ed6 <tud_task+0x2a2>
10005c4c:	4bc2      	ldr	r3, [pc, #776]	; (10005f58 <tud_task+0x324>)
10005c4e:	4ec3      	ldr	r6, [pc, #780]	; (10005f5c <tud_task+0x328>)
10005c50:	469b      	mov	fp, r3
10005c52:	ac07      	add	r4, sp, #28
10005c54:	6835      	ldr	r5, [r6, #0]
10005c56:	69ea      	ldr	r2, [r5, #28]
10005c58:	f3ef 8110 	mrs	r1, PRIMASK
10005c5c:	b672      	cpsid	i
10005c5e:	6813      	ldr	r3, [r2, #0]
10005c60:	2b00      	cmp	r3, #0
10005c62:	d0fc      	beq.n	10005c5e <tud_task+0x2a>
10005c64:	f3bf 8f5f 	dmb	sy
10005c68:	6229      	str	r1, [r5, #32]
10005c6a:	0028      	movs	r0, r5
10005c6c:	0021      	movs	r1, r4
10005c6e:	f001 faab 	bl	100071c8 <tu_fifo_read>
10005c72:	69ea      	ldr	r2, [r5, #28]
10005c74:	6a2b      	ldr	r3, [r5, #32]
10005c76:	f3bf 8f5f 	dmb	sy
10005c7a:	2100      	movs	r1, #0
10005c7c:	6011      	str	r1, [r2, #0]
10005c7e:	f383 8810 	msr	PRIMASK, r3
10005c82:	2800      	cmp	r0, #0
10005c84:	d100      	bne.n	10005c88 <tud_task+0x54>
10005c86:	e126      	b.n	10005ed6 <tud_task+0x2a2>
10005c88:	7863      	ldrb	r3, [r4, #1]
10005c8a:	2b08      	cmp	r3, #8
10005c8c:	d8e2      	bhi.n	10005c54 <tud_task+0x20>
10005c8e:	465a      	mov	r2, fp
10005c90:	009b      	lsls	r3, r3, #2
10005c92:	58d3      	ldr	r3, [r2, r3]
10005c94:	469f      	mov	pc, r3
10005c96:	6863      	ldr	r3, [r4, #4]
10005c98:	2b00      	cmp	r3, #0
10005c9a:	d0db      	beq.n	10005c54 <tud_task+0x20>
10005c9c:	68a0      	ldr	r0, [r4, #8]
10005c9e:	4798      	blx	r3
10005ca0:	e7d8      	b.n	10005c54 <tud_task+0x20>
10005ca2:	227f      	movs	r2, #127	; 0x7f
10005ca4:	7921      	ldrb	r1, [r4, #4]
10005ca6:	4bae      	ldr	r3, [pc, #696]	; (10005f60 <tud_task+0x32c>)
10005ca8:	400a      	ands	r2, r1
10005caa:	0055      	lsls	r5, r2, #1
10005cac:	09c8      	lsrs	r0, r1, #7
10005cae:	195b      	adds	r3, r3, r5
10005cb0:	181b      	adds	r3, r3, r0
10005cb2:	0018      	movs	r0, r3
10005cb4:	2701      	movs	r7, #1
10005cb6:	3030      	adds	r0, #48	; 0x30
10005cb8:	78c5      	ldrb	r5, [r0, #3]
10005cba:	43bd      	bics	r5, r7
10005cbc:	70c5      	strb	r5, [r0, #3]
10005cbe:	78c5      	ldrb	r5, [r0, #3]
10005cc0:	3703      	adds	r7, #3
10005cc2:	43bd      	bics	r5, r7
10005cc4:	70c5      	strb	r5, [r0, #3]
10005cc6:	2a00      	cmp	r2, #0
10005cc8:	d100      	bne.n	10005ccc <tud_task+0x98>
10005cca:	e10b      	b.n	10005ee4 <tud_task+0x2b0>
10005ccc:	4aa5      	ldr	r2, [pc, #660]	; (10005f64 <tud_task+0x330>)
10005cce:	7cdb      	ldrb	r3, [r3, #19]
10005cd0:	2a00      	cmp	r2, #0
10005cd2:	d006      	beq.n	10005ce2 <tud_task+0xae>
10005cd4:	4aa4      	ldr	r2, [pc, #656]	; (10005f68 <tud_task+0x334>)
10005cd6:	7812      	ldrb	r2, [r2, #0]
10005cd8:	4293      	cmp	r3, r2
10005cda:	d200      	bcs.n	10005cde <tud_task+0xaa>
10005cdc:	e191      	b.n	10006002 <tud_task+0x3ce>
10005cde:	1a9b      	subs	r3, r3, r2
10005ce0:	b2db      	uxtb	r3, r3
10005ce2:	2b00      	cmp	r3, #0
10005ce4:	d000      	beq.n	10005ce8 <tud_task+0xb4>
10005ce6:	e0f6      	b.n	10005ed6 <tud_task+0x2a2>
10005ce8:	4da0      	ldr	r5, [pc, #640]	; (10005f6c <tud_task+0x338>)
10005cea:	7962      	ldrb	r2, [r4, #5]
10005cec:	7820      	ldrb	r0, [r4, #0]
10005cee:	68a3      	ldr	r3, [r4, #8]
10005cf0:	47a8      	blx	r5
10005cf2:	e7af      	b.n	10005c54 <tud_task+0x20>
10005cf4:	2201      	movs	r2, #1
10005cf6:	4f9a      	ldr	r7, [pc, #616]	; (10005f60 <tud_task+0x32c>)
10005cf8:	2101      	movs	r1, #1
10005cfa:	783b      	ldrb	r3, [r7, #0]
10005cfc:	2004      	movs	r0, #4
10005cfe:	4313      	orrs	r3, r2
10005d00:	703b      	strb	r3, [r7, #0]
10005d02:	2333      	movs	r3, #51	; 0x33
10005d04:	5cfa      	ldrb	r2, [r7, r3]
10005d06:	438a      	bics	r2, r1
10005d08:	54fa      	strb	r2, [r7, r3]
10005d0a:	5cfa      	ldrb	r2, [r7, r3]
10005d0c:	4382      	bics	r2, r0
10005d0e:	54fa      	strb	r2, [r7, r3]
10005d10:	3301      	adds	r3, #1
10005d12:	5cfa      	ldrb	r2, [r7, r3]
10005d14:	438a      	bics	r2, r1
10005d16:	54fa      	strb	r2, [r7, r3]
10005d18:	5cfa      	ldrb	r2, [r7, r3]
10005d1a:	4382      	bics	r2, r0
10005d1c:	54fa      	strb	r2, [r7, r3]
10005d1e:	7823      	ldrb	r3, [r4, #0]
10005d20:	2000      	movs	r0, #0
10005d22:	469a      	mov	sl, r3
10005d24:	f000 fe66 	bl	100069f4 <usbd_control_set_complete_callback>
10005d28:	2260      	movs	r2, #96	; 0x60
10005d2a:	7923      	ldrb	r3, [r4, #4]
10005d2c:	401a      	ands	r2, r3
10005d2e:	2a60      	cmp	r2, #96	; 0x60
10005d30:	d00d      	beq.n	10005d4e <tud_task+0x11a>
10005d32:	2a40      	cmp	r2, #64	; 0x40
10005d34:	d100      	bne.n	10005d38 <tud_task+0x104>
10005d36:	e0f2      	b.n	10005f1e <tud_task+0x2ea>
10005d38:	06db      	lsls	r3, r3, #27
10005d3a:	0edb      	lsrs	r3, r3, #27
10005d3c:	2b01      	cmp	r3, #1
10005d3e:	d100      	bne.n	10005d42 <tud_task+0x10e>
10005d40:	e16a      	b.n	10006018 <tud_task+0x3e4>
10005d42:	2b02      	cmp	r3, #2
10005d44:	d100      	bne.n	10005d48 <tud_task+0x114>
10005d46:	e121      	b.n	10005f8c <tud_task+0x358>
10005d48:	2b00      	cmp	r3, #0
10005d4a:	d100      	bne.n	10005d4e <tud_task+0x11a>
10005d4c:	e0f6      	b.n	10005f3c <tud_task+0x308>
10005d4e:	7820      	ldrb	r0, [r4, #0]
10005d50:	2100      	movs	r1, #0
10005d52:	f7ff fccf 	bl	100056f4 <dcd_edpt_stall>
10005d56:	2180      	movs	r1, #128	; 0x80
10005d58:	7820      	ldrb	r0, [r4, #0]
10005d5a:	f7ff fccb 	bl	100056f4 <dcd_edpt_stall>
10005d5e:	e779      	b.n	10005c54 <tud_task+0x20>
10005d60:	4b7f      	ldr	r3, [pc, #508]	; (10005f60 <tud_task+0x32c>)
10005d62:	781b      	ldrb	r3, [r3, #0]
10005d64:	07db      	lsls	r3, r3, #31
10005d66:	d400      	bmi.n	10005d6a <tud_task+0x136>
10005d68:	e774      	b.n	10005c54 <tud_task+0x20>
10005d6a:	4b81      	ldr	r3, [pc, #516]	; (10005f70 <tud_task+0x33c>)
10005d6c:	2b00      	cmp	r3, #0
10005d6e:	d100      	bne.n	10005d72 <tud_task+0x13e>
10005d70:	e770      	b.n	10005c54 <tud_task+0x20>
10005d72:	e000      	b.n	10005d76 <tud_task+0x142>
10005d74:	bf00      	nop
10005d76:	e76d      	b.n	10005c54 <tud_task+0x20>
10005d78:	4b79      	ldr	r3, [pc, #484]	; (10005f60 <tud_task+0x32c>)
10005d7a:	781a      	ldrb	r2, [r3, #0]
10005d7c:	07d2      	lsls	r2, r2, #31
10005d7e:	d400      	bmi.n	10005d82 <tud_task+0x14e>
10005d80:	e768      	b.n	10005c54 <tud_task+0x20>
10005d82:	4a7c      	ldr	r2, [pc, #496]	; (10005f74 <tud_task+0x340>)
10005d84:	2a00      	cmp	r2, #0
10005d86:	d100      	bne.n	10005d8a <tud_task+0x156>
10005d88:	e764      	b.n	10005c54 <tud_task+0x20>
10005d8a:	7818      	ldrb	r0, [r3, #0]
10005d8c:	0700      	lsls	r0, r0, #28
10005d8e:	0fc0      	lsrs	r0, r0, #31
10005d90:	e000      	b.n	10005d94 <tud_task+0x160>
10005d92:	bf00      	nop
10005d94:	e75e      	b.n	10005c54 <tud_task+0x20>
10005d96:	4d74      	ldr	r5, [pc, #464]	; (10005f68 <tud_task+0x334>)
10005d98:	4a72      	ldr	r2, [pc, #456]	; (10005f64 <tud_task+0x330>)
10005d9a:	2700      	movs	r7, #0
10005d9c:	782b      	ldrb	r3, [r5, #0]
10005d9e:	2a00      	cmp	r2, #0
10005da0:	d100      	bne.n	10005da4 <tud_task+0x170>
10005da2:	e0b6      	b.n	10005f12 <tud_task+0x2de>
10005da4:	4a74      	ldr	r2, [pc, #464]	; (10005f78 <tud_task+0x344>)
10005da6:	4690      	mov	r8, r2
10005da8:	429f      	cmp	r7, r3
10005daa:	d308      	bcc.n	10005dbe <tud_task+0x18a>
10005dac:	429f      	cmp	r7, r3
10005dae:	d000      	beq.n	10005db2 <tud_task+0x17e>
10005db0:	e0b2      	b.n	10005f18 <tud_task+0x2e4>
10005db2:	3701      	adds	r7, #1
10005db4:	b2ff      	uxtb	r7, r7
10005db6:	429f      	cmp	r7, r3
10005db8:	d900      	bls.n	10005dbc <tud_task+0x188>
10005dba:	e74b      	b.n	10005c54 <tud_task+0x20>
10005dbc:	d2f6      	bcs.n	10005dac <tud_task+0x178>
10005dbe:	4641      	mov	r1, r8
10005dc0:	6809      	ldr	r1, [r1, #0]
10005dc2:	007a      	lsls	r2, r7, #1
10005dc4:	468c      	mov	ip, r1
10005dc6:	19d2      	adds	r2, r2, r7
10005dc8:	00d2      	lsls	r2, r2, #3
10005dca:	4462      	add	r2, ip
10005dcc:	6952      	ldr	r2, [r2, #20]
10005dce:	2a00      	cmp	r2, #0
10005dd0:	d0ef      	beq.n	10005db2 <tud_task+0x17e>
10005dd2:	7820      	ldrb	r0, [r4, #0]
10005dd4:	4790      	blx	r2
10005dd6:	3701      	adds	r7, #1
10005dd8:	782b      	ldrb	r3, [r5, #0]
10005dda:	b2ff      	uxtb	r7, r7
10005ddc:	429f      	cmp	r7, r3
10005dde:	d9e3      	bls.n	10005da8 <tud_task+0x174>
10005de0:	e738      	b.n	10005c54 <tud_task+0x20>
10005de2:	7823      	ldrb	r3, [r4, #0]
10005de4:	4d60      	ldr	r5, [pc, #384]	; (10005f68 <tud_task+0x334>)
10005de6:	4a5f      	ldr	r2, [pc, #380]	; (10005f64 <tud_task+0x330>)
10005de8:	4698      	mov	r8, r3
10005dea:	2700      	movs	r7, #0
10005dec:	782b      	ldrb	r3, [r5, #0]
10005dee:	2a00      	cmp	r2, #0
10005df0:	d100      	bne.n	10005df4 <tud_task+0x1c0>
10005df2:	e086      	b.n	10005f02 <tud_task+0x2ce>
10005df4:	4a61      	ldr	r2, [pc, #388]	; (10005f7c <tud_task+0x348>)
10005df6:	4691      	mov	r9, r2
10005df8:	4a5f      	ldr	r2, [pc, #380]	; (10005f78 <tud_task+0x344>)
10005dfa:	4692      	mov	sl, r2
10005dfc:	002a      	movs	r2, r5
10005dfe:	4645      	mov	r5, r8
10005e00:	4690      	mov	r8, r2
10005e02:	42bb      	cmp	r3, r7
10005e04:	d85e      	bhi.n	10005ec4 <tud_task+0x290>
10005e06:	d000      	beq.n	10005e0a <tud_task+0x1d6>
10005e08:	e078      	b.n	10005efc <tud_task+0x2c8>
10005e0a:	464b      	mov	r3, r9
10005e0c:	0028      	movs	r0, r5
10005e0e:	4798      	blx	r3
10005e10:	4643      	mov	r3, r8
10005e12:	3701      	adds	r7, #1
10005e14:	781b      	ldrb	r3, [r3, #0]
10005e16:	b2ff      	uxtb	r7, r7
10005e18:	42bb      	cmp	r3, r7
10005e1a:	d2f2      	bcs.n	10005e02 <tud_task+0x1ce>
10005e1c:	4d50      	ldr	r5, [pc, #320]	; (10005f60 <tud_task+0x32c>)
10005e1e:	2253      	movs	r2, #83	; 0x53
10005e20:	2100      	movs	r1, #0
10005e22:	0028      	movs	r0, r5
10005e24:	f7fe fdb2 	bl	1000498c <__wrap_memset>
10005e28:	2210      	movs	r2, #16
10005e2a:	21ff      	movs	r1, #255	; 0xff
10005e2c:	1ce8      	adds	r0, r5, #3
10005e2e:	f7fe fdad 	bl	1000498c <__wrap_memset>
10005e32:	0028      	movs	r0, r5
10005e34:	2220      	movs	r2, #32
10005e36:	21ff      	movs	r1, #255	; 0xff
10005e38:	3013      	adds	r0, #19
10005e3a:	f7fe fda7 	bl	1000498c <__wrap_memset>
10005e3e:	f000 fdcf 	bl	100069e0 <usbd_control_reset>
10005e42:	4b4f      	ldr	r3, [pc, #316]	; (10005f80 <tud_task+0x34c>)
10005e44:	2b00      	cmp	r3, #0
10005e46:	d100      	bne.n	10005e4a <tud_task+0x216>
10005e48:	e704      	b.n	10005c54 <tud_task+0x20>
10005e4a:	e000      	b.n	10005e4e <tud_task+0x21a>
10005e4c:	bf00      	nop
10005e4e:	e701      	b.n	10005c54 <tud_task+0x20>
10005e50:	7823      	ldrb	r3, [r4, #0]
10005e52:	4d45      	ldr	r5, [pc, #276]	; (10005f68 <tud_task+0x334>)
10005e54:	4a43      	ldr	r2, [pc, #268]	; (10005f64 <tud_task+0x330>)
10005e56:	4698      	mov	r8, r3
10005e58:	2700      	movs	r7, #0
10005e5a:	782b      	ldrb	r3, [r5, #0]
10005e5c:	2a00      	cmp	r2, #0
10005e5e:	d047      	beq.n	10005ef0 <tud_task+0x2bc>
10005e60:	4a46      	ldr	r2, [pc, #280]	; (10005f7c <tud_task+0x348>)
10005e62:	4691      	mov	r9, r2
10005e64:	4a44      	ldr	r2, [pc, #272]	; (10005f78 <tud_task+0x344>)
10005e66:	4692      	mov	sl, r2
10005e68:	002a      	movs	r2, r5
10005e6a:	4645      	mov	r5, r8
10005e6c:	4690      	mov	r8, r2
10005e6e:	429f      	cmp	r7, r3
10005e70:	d31f      	bcc.n	10005eb2 <tud_task+0x27e>
10005e72:	d143      	bne.n	10005efc <tud_task+0x2c8>
10005e74:	464b      	mov	r3, r9
10005e76:	0028      	movs	r0, r5
10005e78:	4798      	blx	r3
10005e7a:	4643      	mov	r3, r8
10005e7c:	3701      	adds	r7, #1
10005e7e:	781b      	ldrb	r3, [r3, #0]
10005e80:	b2ff      	uxtb	r7, r7
10005e82:	42bb      	cmp	r3, r7
10005e84:	d2f3      	bcs.n	10005e6e <tud_task+0x23a>
10005e86:	4d36      	ldr	r5, [pc, #216]	; (10005f60 <tud_task+0x32c>)
10005e88:	2253      	movs	r2, #83	; 0x53
10005e8a:	2100      	movs	r1, #0
10005e8c:	0028      	movs	r0, r5
10005e8e:	f7fe fd7d 	bl	1000498c <__wrap_memset>
10005e92:	2210      	movs	r2, #16
10005e94:	21ff      	movs	r1, #255	; 0xff
10005e96:	1ce8      	adds	r0, r5, #3
10005e98:	f7fe fd78 	bl	1000498c <__wrap_memset>
10005e9c:	0028      	movs	r0, r5
10005e9e:	2220      	movs	r2, #32
10005ea0:	21ff      	movs	r1, #255	; 0xff
10005ea2:	3013      	adds	r0, #19
10005ea4:	f7fe fd72 	bl	1000498c <__wrap_memset>
10005ea8:	f000 fd9a 	bl	100069e0 <usbd_control_reset>
10005eac:	7923      	ldrb	r3, [r4, #4]
10005eae:	70ab      	strb	r3, [r5, #2]
10005eb0:	e6d0      	b.n	10005c54 <tud_task+0x20>
10005eb2:	4652      	mov	r2, sl
10005eb4:	6812      	ldr	r2, [r2, #0]
10005eb6:	007b      	lsls	r3, r7, #1
10005eb8:	4694      	mov	ip, r2
10005eba:	19db      	adds	r3, r3, r7
10005ebc:	00db      	lsls	r3, r3, #3
10005ebe:	4463      	add	r3, ip
10005ec0:	685b      	ldr	r3, [r3, #4]
10005ec2:	e7d8      	b.n	10005e76 <tud_task+0x242>
10005ec4:	4652      	mov	r2, sl
10005ec6:	6812      	ldr	r2, [r2, #0]
10005ec8:	007b      	lsls	r3, r7, #1
10005eca:	4694      	mov	ip, r2
10005ecc:	19db      	adds	r3, r3, r7
10005ece:	00db      	lsls	r3, r3, #3
10005ed0:	4463      	add	r3, ip
10005ed2:	685b      	ldr	r3, [r3, #4]
10005ed4:	e79a      	b.n	10005e0c <tud_task+0x1d8>
10005ed6:	b00b      	add	sp, #44	; 0x2c
10005ed8:	bcf0      	pop	{r4, r5, r6, r7}
10005eda:	46bb      	mov	fp, r7
10005edc:	46b2      	mov	sl, r6
10005ede:	46a9      	mov	r9, r5
10005ee0:	46a0      	mov	r8, r4
10005ee2:	bdf0      	pop	{r4, r5, r6, r7, pc}
10005ee4:	7962      	ldrb	r2, [r4, #5]
10005ee6:	7820      	ldrb	r0, [r4, #0]
10005ee8:	68a3      	ldr	r3, [r4, #8]
10005eea:	f000 fd97 	bl	10006a1c <usbd_control_xfer_cb>
10005eee:	e6b1      	b.n	10005c54 <tud_task+0x20>
10005ef0:	4640      	mov	r0, r8
10005ef2:	f000 ff0d 	bl	10006d10 <cdcd_reset>
10005ef6:	782b      	ldrb	r3, [r5, #0]
10005ef8:	2b00      	cmp	r3, #0
10005efa:	d0c4      	beq.n	10005e86 <tud_task+0x252>
10005efc:	2300      	movs	r3, #0
10005efe:	685b      	ldr	r3, [r3, #4]
10005f00:	deff      	udf	#255	; 0xff
10005f02:	4640      	mov	r0, r8
10005f04:	f000 ff04 	bl	10006d10 <cdcd_reset>
10005f08:	782b      	ldrb	r3, [r5, #0]
10005f0a:	2b00      	cmp	r3, #0
10005f0c:	d100      	bne.n	10005f10 <tud_task+0x2dc>
10005f0e:	e785      	b.n	10005e1c <tud_task+0x1e8>
10005f10:	e7f4      	b.n	10005efc <tud_task+0x2c8>
10005f12:	2b00      	cmp	r3, #0
10005f14:	d100      	bne.n	10005f18 <tud_task+0x2e4>
10005f16:	e69d      	b.n	10005c54 <tud_task+0x20>
10005f18:	2300      	movs	r3, #0
10005f1a:	695b      	ldr	r3, [r3, #20]
10005f1c:	deff      	udf	#255	; 0xff
10005f1e:	4819      	ldr	r0, [pc, #100]	; (10005f84 <tud_task+0x350>)
10005f20:	2800      	cmp	r0, #0
10005f22:	d100      	bne.n	10005f26 <tud_task+0x2f2>
10005f24:	e713      	b.n	10005d4e <tud_task+0x11a>
10005f26:	f000 fd65 	bl	100069f4 <usbd_control_set_complete_callback>
10005f2a:	2100      	movs	r1, #0
10005f2c:	4650      	mov	r0, sl
10005f2e:	aa08      	add	r2, sp, #32
10005f30:	e000      	b.n	10005f34 <tud_task+0x300>
10005f32:	bf00      	nop
10005f34:	2800      	cmp	r0, #0
10005f36:	d000      	beq.n	10005f3a <tud_task+0x306>
10005f38:	e68c      	b.n	10005c54 <tud_task+0x20>
10005f3a:	e708      	b.n	10005d4e <tud_task+0x11a>
10005f3c:	2a20      	cmp	r2, #32
10005f3e:	d100      	bne.n	10005f42 <tud_task+0x30e>
10005f40:	e09f      	b.n	10006082 <tud_task+0x44e>
10005f42:	2a00      	cmp	r2, #0
10005f44:	d000      	beq.n	10005f48 <tud_task+0x314>
10005f46:	e702      	b.n	10005d4e <tud_task+0x11a>
10005f48:	7963      	ldrb	r3, [r4, #5]
10005f4a:	2b09      	cmp	r3, #9
10005f4c:	d900      	bls.n	10005f50 <tud_task+0x31c>
10005f4e:	e6fe      	b.n	10005d4e <tud_task+0x11a>
10005f50:	4a0d      	ldr	r2, [pc, #52]	; (10005f88 <tud_task+0x354>)
10005f52:	009b      	lsls	r3, r3, #2
10005f54:	58d3      	ldr	r3, [r2, r3]
10005f56:	469f      	mov	pc, r3
10005f58:	1000b704 	.word	0x1000b704
10005f5c:	2000155c 	.word	0x2000155c
10005f60:	20001504 	.word	0x20001504
10005f64:	10004e6d 	.word	0x10004e6d
10005f68:	20001c42 	.word	0x20001c42
10005f6c:	10006f05 	.word	0x10006f05
	...
10005f78:	200011cc 	.word	0x200011cc
10005f7c:	10006d11 	.word	0x10006d11
	...
10005f88:	1000b728 	.word	0x1000b728
10005f8c:	2370      	movs	r3, #112	; 0x70
10005f8e:	7a21      	ldrb	r1, [r4, #8]
10005f90:	420b      	tst	r3, r1
10005f92:	d000      	beq.n	10005f96 <tud_task+0x362>
10005f94:	e6db      	b.n	10005d4e <tud_task+0x11a>
10005f96:	330f      	adds	r3, #15
10005f98:	400b      	ands	r3, r1
10005f9a:	005b      	lsls	r3, r3, #1
10005f9c:	18f8      	adds	r0, r7, r3
10005f9e:	09cd      	lsrs	r5, r1, #7
10005fa0:	9300      	str	r3, [sp, #0]
10005fa2:	4bc1      	ldr	r3, [pc, #772]	; (100062a8 <tud_task+0x674>)
10005fa4:	1940      	adds	r0, r0, r5
10005fa6:	7cc0      	ldrb	r0, [r0, #19]
10005fa8:	2b00      	cmp	r3, #0
10005faa:	d006      	beq.n	10005fba <tud_task+0x386>
10005fac:	4bbf      	ldr	r3, [pc, #764]	; (100062ac <tud_task+0x678>)
10005fae:	781b      	ldrb	r3, [r3, #0]
10005fb0:	4298      	cmp	r0, r3
10005fb2:	d200      	bcs.n	10005fb6 <tud_task+0x382>
10005fb4:	e088      	b.n	100060c8 <tud_task+0x494>
10005fb6:	1ac0      	subs	r0, r0, r3
10005fb8:	b2c0      	uxtb	r0, r0
10005fba:	2800      	cmp	r0, #0
10005fbc:	d17e      	bne.n	100060bc <tud_task+0x488>
10005fbe:	2a00      	cmp	r2, #0
10005fc0:	d000      	beq.n	10005fc4 <tud_task+0x390>
10005fc2:	e115      	b.n	100061f0 <tud_task+0x5bc>
10005fc4:	4bba      	ldr	r3, [pc, #744]	; (100062b0 <tud_task+0x67c>)
10005fc6:	9301      	str	r3, [sp, #4]
10005fc8:	7963      	ldrb	r3, [r4, #5]
10005fca:	4698      	mov	r8, r3
10005fcc:	2302      	movs	r3, #2
10005fce:	4642      	mov	r2, r8
10005fd0:	4699      	mov	r9, r3
10005fd2:	439a      	bics	r2, r3
10005fd4:	2a01      	cmp	r2, #1
10005fd6:	d100      	bne.n	10005fda <tud_task+0x3a6>
10005fd8:	e10e      	b.n	100061f8 <tud_task+0x5c4>
10005fda:	4643      	mov	r3, r8
10005fdc:	2b00      	cmp	r3, #0
10005fde:	d000      	beq.n	10005fe2 <tud_task+0x3ae>
10005fe0:	e6b5      	b.n	10005d4e <tud_task+0x11a>
10005fe2:	9b00      	ldr	r3, [sp, #0]
10005fe4:	aa06      	add	r2, sp, #24
10005fe6:	18fb      	adds	r3, r7, r3
10005fe8:	195d      	adds	r5, r3, r5
10005fea:	3530      	adds	r5, #48	; 0x30
10005fec:	78eb      	ldrb	r3, [r5, #3]
10005fee:	3202      	adds	r2, #2
10005ff0:	079b      	lsls	r3, r3, #30
10005ff2:	0fdb      	lsrs	r3, r3, #31
10005ff4:	8013      	strh	r3, [r2, #0]
10005ff6:	4650      	mov	r0, sl
10005ff8:	2302      	movs	r3, #2
10005ffa:	a908      	add	r1, sp, #32
10005ffc:	f000 fc92 	bl	10006924 <tud_control_xfer>
10006000:	e628      	b.n	10005c54 <tud_task+0x20>
10006002:	005a      	lsls	r2, r3, #1
10006004:	18d3      	adds	r3, r2, r3
10006006:	4aab      	ldr	r2, [pc, #684]	; (100062b4 <tud_task+0x680>)
10006008:	00db      	lsls	r3, r3, #3
1000600a:	6812      	ldr	r2, [r2, #0]
1000600c:	18d3      	adds	r3, r2, r3
1000600e:	2b00      	cmp	r3, #0
10006010:	d100      	bne.n	10006014 <tud_task+0x3e0>
10006012:	e760      	b.n	10005ed6 <tud_task+0x2a2>
10006014:	691d      	ldr	r5, [r3, #16]
10006016:	e668      	b.n	10005cea <tud_task+0xb6>
10006018:	7a23      	ldrb	r3, [r4, #8]
1000601a:	2b0f      	cmp	r3, #15
1000601c:	d900      	bls.n	10006020 <tud_task+0x3ec>
1000601e:	e696      	b.n	10005d4e <tud_task+0x11a>
10006020:	4aa1      	ldr	r2, [pc, #644]	; (100062a8 <tud_task+0x674>)
10006022:	18fb      	adds	r3, r7, r3
10006024:	78db      	ldrb	r3, [r3, #3]
10006026:	2a00      	cmp	r2, #0
10006028:	d005      	beq.n	10006036 <tud_task+0x402>
1000602a:	4aa0      	ldr	r2, [pc, #640]	; (100062ac <tud_task+0x678>)
1000602c:	7812      	ldrb	r2, [r2, #0]
1000602e:	4293      	cmp	r3, r2
10006030:	d364      	bcc.n	100060fc <tud_task+0x4c8>
10006032:	1a9b      	subs	r3, r3, r2
10006034:	b2db      	uxtb	r3, r3
10006036:	2b00      	cmp	r3, #0
10006038:	d000      	beq.n	1000603c <tud_task+0x408>
1000603a:	e688      	b.n	10005d4e <tud_task+0x11a>
1000603c:	489e      	ldr	r0, [pc, #632]	; (100062b8 <tud_task+0x684>)
1000603e:	4d9c      	ldr	r5, [pc, #624]	; (100062b0 <tud_task+0x67c>)
10006040:	f000 fcd8 	bl	100069f4 <usbd_control_set_complete_callback>
10006044:	2100      	movs	r1, #0
10006046:	4650      	mov	r0, sl
10006048:	68eb      	ldr	r3, [r5, #12]
1000604a:	aa08      	add	r2, sp, #32
1000604c:	4798      	blx	r3
1000604e:	2800      	cmp	r0, #0
10006050:	d000      	beq.n	10006054 <tud_task+0x420>
10006052:	e5ff      	b.n	10005c54 <tud_task+0x20>
10006054:	2260      	movs	r2, #96	; 0x60
10006056:	0015      	movs	r5, r2
10006058:	7923      	ldrb	r3, [r4, #4]
1000605a:	401d      	ands	r5, r3
1000605c:	421a      	tst	r2, r3
1000605e:	d000      	beq.n	10006062 <tud_task+0x42e>
10006060:	e675      	b.n	10005d4e <tud_task+0x11a>
10006062:	7963      	ldrb	r3, [r4, #5]
10006064:	3b0a      	subs	r3, #10
10006066:	2b01      	cmp	r3, #1
10006068:	d900      	bls.n	1000606c <tud_task+0x438>
1000606a:	e670      	b.n	10005d4e <tud_task+0x11a>
1000606c:	f000 fcc2 	bl	100069f4 <usbd_control_set_complete_callback>
10006070:	7963      	ldrb	r3, [r4, #5]
10006072:	2b0a      	cmp	r3, #10
10006074:	d100      	bne.n	10006078 <tud_task+0x444>
10006076:	e0ee      	b.n	10006256 <tud_task+0x622>
10006078:	4650      	mov	r0, sl
1000607a:	a908      	add	r1, sp, #32
1000607c:	f000 fc3a 	bl	100068f4 <tud_control_status>
10006080:	e5e8      	b.n	10005c54 <tud_task+0x20>
10006082:	7a23      	ldrb	r3, [r4, #8]
10006084:	2b0f      	cmp	r3, #15
10006086:	d900      	bls.n	1000608a <tud_task+0x456>
10006088:	e661      	b.n	10005d4e <tud_task+0x11a>
1000608a:	4a87      	ldr	r2, [pc, #540]	; (100062a8 <tud_task+0x674>)
1000608c:	18fb      	adds	r3, r7, r3
1000608e:	78db      	ldrb	r3, [r3, #3]
10006090:	2a00      	cmp	r2, #0
10006092:	d006      	beq.n	100060a2 <tud_task+0x46e>
10006094:	4a85      	ldr	r2, [pc, #532]	; (100062ac <tud_task+0x678>)
10006096:	7812      	ldrb	r2, [r2, #0]
10006098:	4293      	cmp	r3, r2
1000609a:	d200      	bcs.n	1000609e <tud_task+0x46a>
1000609c:	e0d0      	b.n	10006240 <tud_task+0x60c>
1000609e:	1a9b      	subs	r3, r3, r2
100060a0:	b2db      	uxtb	r3, r3
100060a2:	2b00      	cmp	r3, #0
100060a4:	d000      	beq.n	100060a8 <tud_task+0x474>
100060a6:	e652      	b.n	10005d4e <tud_task+0x11a>
100060a8:	4883      	ldr	r0, [pc, #524]	; (100062b8 <tud_task+0x684>)
100060aa:	4d81      	ldr	r5, [pc, #516]	; (100062b0 <tud_task+0x67c>)
100060ac:	f000 fca2 	bl	100069f4 <usbd_control_set_complete_callback>
100060b0:	2100      	movs	r1, #0
100060b2:	4650      	mov	r0, sl
100060b4:	68eb      	ldr	r3, [r5, #12]
100060b6:	aa08      	add	r2, sp, #32
100060b8:	4798      	blx	r3
100060ba:	e73b      	b.n	10005f34 <tud_task+0x300>
100060bc:	2a00      	cmp	r2, #0
100060be:	d000      	beq.n	100060c2 <tud_task+0x48e>
100060c0:	e645      	b.n	10005d4e <tud_task+0x11a>
100060c2:	2300      	movs	r3, #0
100060c4:	9301      	str	r3, [sp, #4]
100060c6:	e77f      	b.n	10005fc8 <tud_task+0x394>
100060c8:	0043      	lsls	r3, r0, #1
100060ca:	469c      	mov	ip, r3
100060cc:	4b79      	ldr	r3, [pc, #484]	; (100062b4 <tud_task+0x680>)
100060ce:	4460      	add	r0, ip
100060d0:	681b      	ldr	r3, [r3, #0]
100060d2:	00c0      	lsls	r0, r0, #3
100060d4:	469c      	mov	ip, r3
100060d6:	0003      	movs	r3, r0
100060d8:	4463      	add	r3, ip
100060da:	9301      	str	r3, [sp, #4]
100060dc:	2a00      	cmp	r2, #0
100060de:	d100      	bne.n	100060e2 <tud_task+0x4ae>
100060e0:	e772      	b.n	10005fc8 <tud_task+0x394>
100060e2:	2b00      	cmp	r3, #0
100060e4:	d100      	bne.n	100060e8 <tud_task+0x4b4>
100060e6:	e632      	b.n	10005d4e <tud_task+0x11a>
100060e8:	68d8      	ldr	r0, [r3, #12]
100060ea:	f000 fc83 	bl	100069f4 <usbd_control_set_complete_callback>
100060ee:	9b01      	ldr	r3, [sp, #4]
100060f0:	2100      	movs	r1, #0
100060f2:	4650      	mov	r0, sl
100060f4:	68db      	ldr	r3, [r3, #12]
100060f6:	aa08      	add	r2, sp, #32
100060f8:	4798      	blx	r3
100060fa:	e71b      	b.n	10005f34 <tud_task+0x300>
100060fc:	4a6d      	ldr	r2, [pc, #436]	; (100062b4 <tud_task+0x680>)
100060fe:	005d      	lsls	r5, r3, #1
10006100:	18eb      	adds	r3, r5, r3
10006102:	6815      	ldr	r5, [r2, #0]
10006104:	00db      	lsls	r3, r3, #3
10006106:	18ed      	adds	r5, r5, r3
10006108:	2d00      	cmp	r5, #0
1000610a:	d100      	bne.n	1000610e <tud_task+0x4da>
1000610c:	e61f      	b.n	10005d4e <tud_task+0x11a>
1000610e:	68e8      	ldr	r0, [r5, #12]
10006110:	e796      	b.n	10006040 <tud_task+0x40c>
10006112:	88e3      	ldrh	r3, [r4, #6]
10006114:	2b01      	cmp	r3, #1
10006116:	d000      	beq.n	1000611a <tud_task+0x4e6>
10006118:	e619      	b.n	10005d4e <tud_task+0x11a>
1000611a:	2208      	movs	r2, #8
1000611c:	783b      	ldrb	r3, [r7, #0]
1000611e:	4650      	mov	r0, sl
10006120:	4393      	bics	r3, r2
10006122:	a908      	add	r1, sp, #32
10006124:	703b      	strb	r3, [r7, #0]
10006126:	f000 fbe5 	bl	100068f4 <tud_control_status>
1000612a:	e593      	b.n	10005c54 <tud_task+0x20>
1000612c:	2002      	movs	r0, #2
1000612e:	7839      	ldrb	r1, [r7, #0]
10006130:	ab06      	add	r3, sp, #24
10006132:	1c9a      	adds	r2, r3, #2
10006134:	068b      	lsls	r3, r1, #26
10006136:	0889      	lsrs	r1, r1, #2
10006138:	0fdb      	lsrs	r3, r3, #31
1000613a:	4001      	ands	r1, r0
1000613c:	430b      	orrs	r3, r1
1000613e:	e759      	b.n	10005ff4 <tud_task+0x3c0>
10006140:	79a3      	ldrb	r3, [r4, #6]
10006142:	9301      	str	r3, [sp, #4]
10006144:	001a      	movs	r2, r3
10006146:	787b      	ldrb	r3, [r7, #1]
10006148:	429a      	cmp	r2, r3
1000614a:	d007      	beq.n	1000615c <tud_task+0x528>
1000614c:	787b      	ldrb	r3, [r7, #1]
1000614e:	2b00      	cmp	r3, #0
10006150:	d000      	beq.n	10006154 <tud_task+0x520>
10006152:	e11e      	b.n	10006392 <tud_task+0x75e>
10006154:	9b01      	ldr	r3, [sp, #4]
10006156:	2b00      	cmp	r3, #0
10006158:	d000      	beq.n	1000615c <tud_task+0x528>
1000615a:	e0b3      	b.n	100062c4 <tud_task+0x690>
1000615c:	9b01      	ldr	r3, [sp, #4]
1000615e:	4650      	mov	r0, sl
10006160:	a908      	add	r1, sp, #32
10006162:	707b      	strb	r3, [r7, #1]
10006164:	f000 fbc6 	bl	100068f4 <tud_control_status>
10006168:	e574      	b.n	10005c54 <tud_task+0x20>
1000616a:	787b      	ldrb	r3, [r7, #1]
1000616c:	aa06      	add	r2, sp, #24
1000616e:	3202      	adds	r2, #2
10006170:	7013      	strb	r3, [r2, #0]
10006172:	4650      	mov	r0, sl
10006174:	2301      	movs	r3, #1
10006176:	a908      	add	r1, sp, #32
10006178:	f000 fbd4 	bl	10006924 <tud_control_xfer>
1000617c:	e56a      	b.n	10005c54 <tud_task+0x20>
1000617e:	88e0      	ldrh	r0, [r4, #6]
10006180:	0a03      	lsrs	r3, r0, #8
10006182:	b2c0      	uxtb	r0, r0
10006184:	2b0f      	cmp	r3, #15
10006186:	d900      	bls.n	1000618a <tud_task+0x556>
10006188:	e5e1      	b.n	10005d4e <tud_task+0x11a>
1000618a:	494c      	ldr	r1, [pc, #304]	; (100062bc <tud_task+0x688>)
1000618c:	009a      	lsls	r2, r3, #2
1000618e:	588a      	ldr	r2, [r1, r2]
10006190:	4697      	mov	pc, r2
10006192:	a808      	add	r0, sp, #32
10006194:	f000 fc34 	bl	10006a00 <usbd_control_set_request>
10006198:	4650      	mov	r0, sl
1000619a:	79a1      	ldrb	r1, [r4, #6]
1000619c:	f7ff f900 	bl	100053a0 <dcd_set_address>
100061a0:	2202      	movs	r2, #2
100061a2:	783b      	ldrb	r3, [r7, #0]
100061a4:	4313      	orrs	r3, r2
100061a6:	703b      	strb	r3, [r7, #0]
100061a8:	e554      	b.n	10005c54 <tud_task+0x20>
100061aa:	88e3      	ldrh	r3, [r4, #6]
100061ac:	2b01      	cmp	r3, #1
100061ae:	d000      	beq.n	100061b2 <tud_task+0x57e>
100061b0:	e5cd      	b.n	10005d4e <tud_task+0x11a>
100061b2:	2208      	movs	r2, #8
100061b4:	783b      	ldrb	r3, [r7, #0]
100061b6:	4650      	mov	r0, sl
100061b8:	4313      	orrs	r3, r2
100061ba:	a908      	add	r1, sp, #32
100061bc:	703b      	strb	r3, [r7, #0]
100061be:	f000 fb99 	bl	100068f4 <tud_control_status>
100061c2:	e547      	b.n	10005c54 <tud_task+0x20>
100061c4:	2b02      	cmp	r3, #2
100061c6:	d100      	bne.n	100061ca <tud_task+0x596>
100061c8:	e194      	b.n	100064f4 <tud_task+0x8c0>
100061ca:	4b3d      	ldr	r3, [pc, #244]	; (100062c0 <tud_task+0x68c>)
100061cc:	2b00      	cmp	r3, #0
100061ce:	d100      	bne.n	100061d2 <tud_task+0x59e>
100061d0:	e5bd      	b.n	10005d4e <tud_task+0x11a>
100061d2:	e000      	b.n	100061d6 <tud_task+0x5a2>
100061d4:	bf00      	nop
100061d6:	0002      	movs	r2, r0
100061d8:	2a00      	cmp	r2, #0
100061da:	d100      	bne.n	100061de <tud_task+0x5aa>
100061dc:	e5b7      	b.n	10005d4e <tud_task+0x11a>
100061de:	78d3      	ldrb	r3, [r2, #3]
100061e0:	7891      	ldrb	r1, [r2, #2]
100061e2:	021b      	lsls	r3, r3, #8
100061e4:	430b      	orrs	r3, r1
100061e6:	4650      	mov	r0, sl
100061e8:	a908      	add	r1, sp, #32
100061ea:	f000 fb9b 	bl	10006924 <tud_control_xfer>
100061ee:	e6a1      	b.n	10005f34 <tud_task+0x300>
100061f0:	4b2f      	ldr	r3, [pc, #188]	; (100062b0 <tud_task+0x67c>)
100061f2:	4831      	ldr	r0, [pc, #196]	; (100062b8 <tud_task+0x684>)
100061f4:	9301      	str	r3, [sp, #4]
100061f6:	e778      	b.n	100060ea <tud_task+0x4b6>
100061f8:	88e2      	ldrh	r2, [r4, #6]
100061fa:	2a00      	cmp	r2, #0
100061fc:	d109      	bne.n	10006212 <tud_task+0x5de>
100061fe:	4643      	mov	r3, r8
10006200:	2b01      	cmp	r3, #1
10006202:	d03d      	beq.n	10006280 <tud_task+0x64c>
10006204:	9b00      	ldr	r3, [sp, #0]
10006206:	18fb      	adds	r3, r7, r3
10006208:	195d      	adds	r5, r3, r5
1000620a:	3530      	adds	r5, #48	; 0x30
1000620c:	78eb      	ldrb	r3, [r5, #3]
1000620e:	079b      	lsls	r3, r3, #30
10006210:	d52a      	bpl.n	10006268 <tud_task+0x634>
10006212:	9d01      	ldr	r5, [sp, #4]
10006214:	2d00      	cmp	r5, #0
10006216:	d100      	bne.n	1000621a <tud_task+0x5e6>
10006218:	e51c      	b.n	10005c54 <tud_task+0x20>
1000621a:	68eb      	ldr	r3, [r5, #12]
1000621c:	0018      	movs	r0, r3
1000621e:	9300      	str	r3, [sp, #0]
10006220:	f000 fbe8 	bl	100069f4 <usbd_control_set_complete_callback>
10006224:	68eb      	ldr	r3, [r5, #12]
10006226:	2100      	movs	r1, #0
10006228:	aa08      	add	r2, sp, #32
1000622a:	4650      	mov	r0, sl
1000622c:	4798      	blx	r3
1000622e:	2000      	movs	r0, #0
10006230:	f000 fbe0 	bl	100069f4 <usbd_control_set_complete_callback>
10006234:	2334      	movs	r3, #52	; 0x34
10006236:	5cfb      	ldrb	r3, [r7, r3]
10006238:	07db      	lsls	r3, r3, #31
1000623a:	d500      	bpl.n	1000623e <tud_task+0x60a>
1000623c:	e50a      	b.n	10005c54 <tud_task+0x20>
1000623e:	e71b      	b.n	10006078 <tud_task+0x444>
10006240:	4a1c      	ldr	r2, [pc, #112]	; (100062b4 <tud_task+0x680>)
10006242:	005d      	lsls	r5, r3, #1
10006244:	18eb      	adds	r3, r5, r3
10006246:	6815      	ldr	r5, [r2, #0]
10006248:	00db      	lsls	r3, r3, #3
1000624a:	18ed      	adds	r5, r5, r3
1000624c:	2d00      	cmp	r5, #0
1000624e:	d100      	bne.n	10006252 <tud_task+0x61e>
10006250:	e57d      	b.n	10005d4e <tud_task+0x11a>
10006252:	68e8      	ldr	r0, [r5, #12]
10006254:	e72a      	b.n	100060ac <tud_task+0x478>
10006256:	ab06      	add	r3, sp, #24
10006258:	1c9a      	adds	r2, r3, #2
1000625a:	4650      	mov	r0, sl
1000625c:	2301      	movs	r3, #1
1000625e:	a908      	add	r1, sp, #32
10006260:	7015      	strb	r5, [r2, #0]
10006262:	f000 fb5f 	bl	10006924 <tud_control_xfer>
10006266:	e4f5      	b.n	10005c54 <tud_task+0x20>
10006268:	4650      	mov	r0, sl
1000626a:	f7ff fa43 	bl	100056f4 <dcd_edpt_stall>
1000626e:	2202      	movs	r2, #2
10006270:	78eb      	ldrb	r3, [r5, #3]
10006272:	4313      	orrs	r3, r2
10006274:	2201      	movs	r2, #1
10006276:	70eb      	strb	r3, [r5, #3]
10006278:	78eb      	ldrb	r3, [r5, #3]
1000627a:	4313      	orrs	r3, r2
1000627c:	70eb      	strb	r3, [r5, #3]
1000627e:	e7c8      	b.n	10006212 <tud_task+0x5de>
10006280:	9b00      	ldr	r3, [sp, #0]
10006282:	18fb      	adds	r3, r7, r3
10006284:	195d      	adds	r5, r3, r5
10006286:	3530      	adds	r5, #48	; 0x30
10006288:	78eb      	ldrb	r3, [r5, #3]
1000628a:	079b      	lsls	r3, r3, #30
1000628c:	d5c1      	bpl.n	10006212 <tud_task+0x5de>
1000628e:	4650      	mov	r0, sl
10006290:	f7ff fa4c 	bl	1000572c <dcd_edpt_clear_stall>
10006294:	464a      	mov	r2, r9
10006296:	78eb      	ldrb	r3, [r5, #3]
10006298:	4393      	bics	r3, r2
1000629a:	4642      	mov	r2, r8
1000629c:	70eb      	strb	r3, [r5, #3]
1000629e:	78eb      	ldrb	r3, [r5, #3]
100062a0:	4393      	bics	r3, r2
100062a2:	70eb      	strb	r3, [r5, #3]
100062a4:	e7b5      	b.n	10006212 <tud_task+0x5de>
100062a6:	46c0      	nop			; (mov r8, r8)
100062a8:	10004e6d 	.word	0x10004e6d
100062ac:	20001c42 	.word	0x20001c42
100062b0:	1000b790 	.word	0x1000b790
100062b4:	200011cc 	.word	0x200011cc
100062b8:	10006e21 	.word	0x10006e21
100062bc:	1000b750 	.word	0x1000b750
100062c0:	00000000 	.word	0x00000000
100062c4:	1e58      	subs	r0, r3, #1
100062c6:	b2c0      	uxtb	r0, r0
100062c8:	f7fe ff18 	bl	100050fc <tud_descriptor_configuration_cb>
100062cc:	2800      	cmp	r0, #0
100062ce:	d100      	bne.n	100062d2 <tud_task+0x69e>
100062d0:	e53d      	b.n	10005d4e <tud_task+0x11a>
100062d2:	7843      	ldrb	r3, [r0, #1]
100062d4:	9304      	str	r3, [sp, #16]
100062d6:	2b02      	cmp	r3, #2
100062d8:	d000      	beq.n	100062dc <tud_task+0x6a8>
100062da:	e538      	b.n	10005d4e <tud_task+0x11a>
100062dc:	2101      	movs	r1, #1
100062de:	79c3      	ldrb	r3, [r0, #7]
100062e0:	119a      	asrs	r2, r3, #6
100062e2:	115b      	asrs	r3, r3, #5
100062e4:	400a      	ands	r2, r1
100062e6:	400b      	ands	r3, r1
100062e8:	0152      	lsls	r2, r2, #5
100062ea:	011b      	lsls	r3, r3, #4
100062ec:	4313      	orrs	r3, r2
100062ee:	783a      	ldrb	r2, [r7, #0]
100062f0:	312f      	adds	r1, #47	; 0x2f
100062f2:	438a      	bics	r2, r1
100062f4:	4313      	orrs	r3, r2
100062f6:	703b      	strb	r3, [r7, #0]
100062f8:	2309      	movs	r3, #9
100062fa:	4699      	mov	r9, r3
100062fc:	78c3      	ldrb	r3, [r0, #3]
100062fe:	7882      	ldrb	r2, [r0, #2]
10006300:	021b      	lsls	r3, r3, #8
10006302:	4313      	orrs	r3, r2
10006304:	18c3      	adds	r3, r0, r3
10006306:	4481      	add	r9, r0
10006308:	9303      	str	r3, [sp, #12]
1000630a:	9b03      	ldr	r3, [sp, #12]
1000630c:	454b      	cmp	r3, r9
1000630e:	d800      	bhi.n	10006312 <tud_task+0x6de>
10006310:	e0e9      	b.n	100064e6 <tud_task+0x8b2>
10006312:	464b      	mov	r3, r9
10006314:	2201      	movs	r2, #1
10006316:	785b      	ldrb	r3, [r3, #1]
10006318:	9200      	str	r2, [sp, #0]
1000631a:	2b0b      	cmp	r3, #11
1000631c:	d107      	bne.n	1000632e <tud_task+0x6fa>
1000631e:	464b      	mov	r3, r9
10006320:	78db      	ldrb	r3, [r3, #3]
10006322:	9300      	str	r3, [sp, #0]
10006324:	464b      	mov	r3, r9
10006326:	781b      	ldrb	r3, [r3, #0]
10006328:	4499      	add	r9, r3
1000632a:	464b      	mov	r3, r9
1000632c:	785b      	ldrb	r3, [r3, #1]
1000632e:	2b04      	cmp	r3, #4
10006330:	d000      	beq.n	10006334 <tud_task+0x700>
10006332:	e50c      	b.n	10005d4e <tud_task+0x11a>
10006334:	464a      	mov	r2, r9
10006336:	9b03      	ldr	r3, [sp, #12]
10006338:	2500      	movs	r5, #0
1000633a:	1a9b      	subs	r3, r3, r2
1000633c:	b29b      	uxth	r3, r3
1000633e:	9302      	str	r3, [sp, #8]
10006340:	4a6e      	ldr	r2, [pc, #440]	; (100064fc <tud_task+0x8c8>)
10006342:	4b6f      	ldr	r3, [pc, #444]	; (10006500 <tud_task+0x8cc>)
10006344:	781b      	ldrb	r3, [r3, #0]
10006346:	2a00      	cmp	r2, #0
10006348:	d116      	bne.n	10006378 <tud_task+0x744>
1000634a:	e062      	b.n	10006412 <tud_task+0x7de>
1000634c:	42ab      	cmp	r3, r5
1000634e:	d171      	bne.n	10006434 <tud_task+0x800>
10006350:	4a6c      	ldr	r2, [pc, #432]	; (10006504 <tud_task+0x8d0>)
10006352:	4b6d      	ldr	r3, [pc, #436]	; (10006508 <tud_task+0x8d4>)
10006354:	4690      	mov	r8, r2
10006356:	4649      	mov	r1, r9
10006358:	4650      	mov	r0, sl
1000635a:	9a02      	ldr	r2, [sp, #8]
1000635c:	4798      	blx	r3
1000635e:	4684      	mov	ip, r0
10006360:	2808      	cmp	r0, #8
10006362:	d902      	bls.n	1000636a <tud_task+0x736>
10006364:	9a02      	ldr	r2, [sp, #8]
10006366:	4282      	cmp	r2, r0
10006368:	d269      	bcs.n	1000643e <tud_task+0x80a>
1000636a:	4b65      	ldr	r3, [pc, #404]	; (10006500 <tud_task+0x8cc>)
1000636c:	3501      	adds	r5, #1
1000636e:	781b      	ldrb	r3, [r3, #0]
10006370:	b2ed      	uxtb	r5, r5
10006372:	42ab      	cmp	r3, r5
10006374:	d200      	bcs.n	10006378 <tud_task+0x744>
10006376:	e4ea      	b.n	10005d4e <tud_task+0x11a>
10006378:	42ab      	cmp	r3, r5
1000637a:	d9e7      	bls.n	1000634c <tud_task+0x718>
1000637c:	4a63      	ldr	r2, [pc, #396]	; (1000650c <tud_task+0x8d8>)
1000637e:	006b      	lsls	r3, r5, #1
10006380:	6812      	ldr	r2, [r2, #0]
10006382:	195b      	adds	r3, r3, r5
10006384:	4690      	mov	r8, r2
10006386:	00db      	lsls	r3, r3, #3
10006388:	4498      	add	r8, r3
1000638a:	4643      	mov	r3, r8
1000638c:	9205      	str	r2, [sp, #20]
1000638e:	689b      	ldr	r3, [r3, #8]
10006390:	e7e1      	b.n	10006356 <tud_task+0x722>
10006392:	4650      	mov	r0, sl
10006394:	f7ff f93e 	bl	10005614 <dcd_edpt_close_all>
10006398:	78bb      	ldrb	r3, [r7, #2]
1000639a:	4d59      	ldr	r5, [pc, #356]	; (10006500 <tud_task+0x8cc>)
1000639c:	4a57      	ldr	r2, [pc, #348]	; (100064fc <tud_task+0x8c8>)
1000639e:	9300      	str	r3, [sp, #0]
100063a0:	2100      	movs	r1, #0
100063a2:	782b      	ldrb	r3, [r5, #0]
100063a4:	2a00      	cmp	r2, #0
100063a6:	d02d      	beq.n	10006404 <tud_task+0x7d0>
100063a8:	4a58      	ldr	r2, [pc, #352]	; (1000650c <tud_task+0x8d8>)
100063aa:	4690      	mov	r8, r2
100063ac:	002a      	movs	r2, r5
100063ae:	000d      	movs	r5, r1
100063b0:	4691      	mov	r9, r2
100063b2:	429d      	cmp	r5, r3
100063b4:	d31d      	bcc.n	100063f2 <tud_task+0x7be>
100063b6:	d000      	beq.n	100063ba <tud_task+0x786>
100063b8:	e5a0      	b.n	10005efc <tud_task+0x2c8>
100063ba:	4b55      	ldr	r3, [pc, #340]	; (10006510 <tud_task+0x8dc>)
100063bc:	4650      	mov	r0, sl
100063be:	4798      	blx	r3
100063c0:	464b      	mov	r3, r9
100063c2:	3501      	adds	r5, #1
100063c4:	781b      	ldrb	r3, [r3, #0]
100063c6:	b2ed      	uxtb	r5, r5
100063c8:	42ab      	cmp	r3, r5
100063ca:	d2f2      	bcs.n	100063b2 <tud_task+0x77e>
100063cc:	2253      	movs	r2, #83	; 0x53
100063ce:	2100      	movs	r1, #0
100063d0:	0038      	movs	r0, r7
100063d2:	f7fe fadb 	bl	1000498c <__wrap_memset>
100063d6:	2210      	movs	r2, #16
100063d8:	21ff      	movs	r1, #255	; 0xff
100063da:	1cf8      	adds	r0, r7, #3
100063dc:	f7fe fad6 	bl	1000498c <__wrap_memset>
100063e0:	0038      	movs	r0, r7
100063e2:	2220      	movs	r2, #32
100063e4:	21ff      	movs	r1, #255	; 0xff
100063e6:	3013      	adds	r0, #19
100063e8:	f7fe fad0 	bl	1000498c <__wrap_memset>
100063ec:	9b00      	ldr	r3, [sp, #0]
100063ee:	70bb      	strb	r3, [r7, #2]
100063f0:	e6b0      	b.n	10006154 <tud_task+0x520>
100063f2:	4642      	mov	r2, r8
100063f4:	6812      	ldr	r2, [r2, #0]
100063f6:	006b      	lsls	r3, r5, #1
100063f8:	4694      	mov	ip, r2
100063fa:	195b      	adds	r3, r3, r5
100063fc:	00db      	lsls	r3, r3, #3
100063fe:	4463      	add	r3, ip
10006400:	685b      	ldr	r3, [r3, #4]
10006402:	e7db      	b.n	100063bc <tud_task+0x788>
10006404:	4650      	mov	r0, sl
10006406:	f000 fc83 	bl	10006d10 <cdcd_reset>
1000640a:	782b      	ldrb	r3, [r5, #0]
1000640c:	2b00      	cmp	r3, #0
1000640e:	d0dd      	beq.n	100063cc <tud_task+0x798>
10006410:	e574      	b.n	10005efc <tud_task+0x2c8>
10006412:	9b02      	ldr	r3, [sp, #8]
10006414:	4649      	mov	r1, r9
10006416:	001a      	movs	r2, r3
10006418:	4650      	mov	r0, sl
1000641a:	4698      	mov	r8, r3
1000641c:	f000 fc8e 	bl	10006d3c <cdcd_open>
10006420:	4684      	mov	ip, r0
10006422:	2808      	cmp	r0, #8
10006424:	d901      	bls.n	1000642a <tud_task+0x7f6>
10006426:	4540      	cmp	r0, r8
10006428:	d907      	bls.n	1000643a <tud_task+0x806>
1000642a:	4b35      	ldr	r3, [pc, #212]	; (10006500 <tud_task+0x8cc>)
1000642c:	781b      	ldrb	r3, [r3, #0]
1000642e:	2b00      	cmp	r3, #0
10006430:	d100      	bne.n	10006434 <tud_task+0x800>
10006432:	e48c      	b.n	10005d4e <tud_task+0x11a>
10006434:	2300      	movs	r3, #0
10006436:	689b      	ldr	r3, [r3, #8]
10006438:	deff      	udf	#255	; 0xff
1000643a:	4b32      	ldr	r3, [pc, #200]	; (10006504 <tud_task+0x8d0>)
1000643c:	4698      	mov	r8, r3
1000643e:	9b00      	ldr	r3, [sp, #0]
10006440:	2b01      	cmp	r3, #1
10006442:	d048      	beq.n	100064d6 <tud_task+0x8a2>
10006444:	9b00      	ldr	r3, [sp, #0]
10006446:	2b00      	cmp	r3, #0
10006448:	d010      	beq.n	1000646c <tud_task+0x838>
1000644a:	464b      	mov	r3, r9
1000644c:	7899      	ldrb	r1, [r3, #2]
1000644e:	2300      	movs	r3, #0
10006450:	e005      	b.n	1000645e <tud_task+0x82a>
10006452:	70d5      	strb	r5, [r2, #3]
10006454:	3301      	adds	r3, #1
10006456:	9a00      	ldr	r2, [sp, #0]
10006458:	b2db      	uxtb	r3, r3
1000645a:	4293      	cmp	r3, r2
1000645c:	d206      	bcs.n	1000646c <tud_task+0x838>
1000645e:	18ca      	adds	r2, r1, r3
10006460:	b2d2      	uxtb	r2, r2
10006462:	18ba      	adds	r2, r7, r2
10006464:	78d0      	ldrb	r0, [r2, #3]
10006466:	28ff      	cmp	r0, #255	; 0xff
10006468:	d0f3      	beq.n	10006452 <tud_task+0x81e>
1000646a:	e470      	b.n	10005d4e <tud_task+0x11a>
1000646c:	0038      	movs	r0, r7
1000646e:	46e0      	mov	r8, ip
10006470:	002b      	movs	r3, r5
10006472:	4649      	mov	r1, r9
10006474:	4662      	mov	r2, ip
10006476:	3013      	adds	r0, #19
10006478:	f000 fe2e 	bl	100070d8 <tu_edpt_bind_driver>
1000647c:	4b20      	ldr	r3, [pc, #128]	; (10006500 <tud_task+0x8cc>)
1000647e:	44c1      	add	r9, r8
10006480:	781b      	ldrb	r3, [r3, #0]
10006482:	42ab      	cmp	r3, r5
10006484:	d300      	bcc.n	10006488 <tud_task+0x854>
10006486:	e740      	b.n	1000630a <tud_task+0x6d6>
10006488:	e461      	b.n	10005d4e <tud_task+0x11a>
1000648a:	4b22      	ldr	r3, [pc, #136]	; (10006514 <tud_task+0x8e0>)
1000648c:	2b00      	cmp	r3, #0
1000648e:	d100      	bne.n	10006492 <tud_task+0x85e>
10006490:	e45d      	b.n	10005d4e <tud_task+0x11a>
10006492:	e000      	b.n	10006496 <tud_task+0x862>
10006494:	bf00      	nop
10006496:	0002      	movs	r2, r0
10006498:	e6a1      	b.n	100061de <tud_task+0x5aa>
1000649a:	f7fe fe2b 	bl	100050f4 <tud_descriptor_device_cb>
1000649e:	2312      	movs	r3, #18
100064a0:	0002      	movs	r2, r0
100064a2:	a908      	add	r1, sp, #32
100064a4:	4650      	mov	r0, sl
100064a6:	f000 fa3d 	bl	10006924 <tud_control_xfer>
100064aa:	e543      	b.n	10005f34 <tud_task+0x300>
100064ac:	4b1a      	ldr	r3, [pc, #104]	; (10006518 <tud_task+0x8e4>)
100064ae:	2b00      	cmp	r3, #0
100064b0:	d100      	bne.n	100064b4 <tud_task+0x880>
100064b2:	e44c      	b.n	10005d4e <tud_task+0x11a>
100064b4:	e000      	b.n	100064b8 <tud_task+0x884>
100064b6:	bf00      	nop
100064b8:	1e02      	subs	r2, r0, #0
100064ba:	d100      	bne.n	100064be <tud_task+0x88a>
100064bc:	e447      	b.n	10005d4e <tud_task+0x11a>
100064be:	4650      	mov	r0, sl
100064c0:	7813      	ldrb	r3, [r2, #0]
100064c2:	a908      	add	r1, sp, #32
100064c4:	f000 fa2e 	bl	10006924 <tud_control_xfer>
100064c8:	e534      	b.n	10005f34 <tud_task+0x300>
100064ca:	8921      	ldrh	r1, [r4, #8]
100064cc:	f7fe fe1a 	bl	10005104 <tud_descriptor_string_cb>
100064d0:	1e02      	subs	r2, r0, #0
100064d2:	d1f4      	bne.n	100064be <tud_task+0x88a>
100064d4:	e43b      	b.n	10005d4e <tud_task+0x11a>
100064d6:	4642      	mov	r2, r8
100064d8:	4b0b      	ldr	r3, [pc, #44]	; (10006508 <tud_task+0x8d4>)
100064da:	6892      	ldr	r2, [r2, #8]
100064dc:	429a      	cmp	r2, r3
100064de:	d1b4      	bne.n	1000644a <tud_task+0x816>
100064e0:	9b04      	ldr	r3, [sp, #16]
100064e2:	9300      	str	r3, [sp, #0]
100064e4:	e7b1      	b.n	1000644a <tud_task+0x816>
100064e6:	4b0d      	ldr	r3, [pc, #52]	; (1000651c <tud_task+0x8e8>)
100064e8:	2b00      	cmp	r3, #0
100064ea:	d100      	bne.n	100064ee <tud_task+0x8ba>
100064ec:	e636      	b.n	1000615c <tud_task+0x528>
100064ee:	e000      	b.n	100064f2 <tud_task+0x8be>
100064f0:	bf00      	nop
100064f2:	e633      	b.n	1000615c <tud_task+0x528>
100064f4:	f7fe fe02 	bl	100050fc <tud_descriptor_configuration_cb>
100064f8:	0002      	movs	r2, r0
100064fa:	e66d      	b.n	100061d8 <tud_task+0x5a4>
100064fc:	10004e6d 	.word	0x10004e6d
10006500:	20001c42 	.word	0x20001c42
10006504:	1000b790 	.word	0x1000b790
10006508:	10006d3d 	.word	0x10006d3d
1000650c:	200011cc 	.word	0x200011cc
10006510:	10006d11 	.word	0x10006d11
	...

10006520 <dcd_event_bus_signal>:
10006520:	b530      	push	{r4, r5, lr}
10006522:	b087      	sub	sp, #28
10006524:	0005      	movs	r5, r0
10006526:	000c      	movs	r4, r1
10006528:	220c      	movs	r2, #12
1000652a:	2100      	movs	r1, #0
1000652c:	4668      	mov	r0, sp
1000652e:	f7fe fa2d 	bl	1000498c <__wrap_memset>
10006532:	466b      	mov	r3, sp
10006534:	701d      	strb	r5, [r3, #0]
10006536:	705c      	strb	r4, [r3, #1]
10006538:	2c04      	cmp	r4, #4
1000653a:	d04f      	beq.n	100065dc <dcd_event_bus_signal+0xbc>
1000653c:	d809      	bhi.n	10006552 <dcd_event_bus_signal+0x32>
1000653e:	2c02      	cmp	r4, #2
10006540:	d034      	beq.n	100065ac <dcd_event_bus_signal+0x8c>
10006542:	2c03      	cmp	r4, #3
10006544:	d119      	bne.n	1000657a <dcd_event_bus_signal+0x5a>
10006546:	4b3c      	ldr	r3, [pc, #240]	; (10006638 <dcd_event_bus_signal+0x118>)
10006548:	781a      	ldrb	r2, [r3, #0]
1000654a:	0752      	lsls	r2, r2, #29
1000654c:	d458      	bmi.n	10006600 <dcd_event_bus_signal+0xe0>
1000654e:	b007      	add	sp, #28
10006550:	bd30      	pop	{r4, r5, pc}
10006552:	2c05      	cmp	r4, #5
10006554:	d111      	bne.n	1000657a <dcd_event_bus_signal+0x5a>
10006556:	4b38      	ldr	r3, [pc, #224]	; (10006638 <dcd_event_bus_signal+0x118>)
10006558:	781a      	ldrb	r2, [r3, #0]
1000655a:	07d2      	lsls	r2, r2, #31
1000655c:	d5f7      	bpl.n	1000654e <dcd_event_bus_signal+0x2e>
1000655e:	2104      	movs	r1, #4
10006560:	781a      	ldrb	r2, [r3, #0]
10006562:	438a      	bics	r2, r1
10006564:	701a      	strb	r2, [r3, #0]
10006566:	4b35      	ldr	r3, [pc, #212]	; (1000663c <dcd_event_bus_signal+0x11c>)
10006568:	681c      	ldr	r4, [r3, #0]
1000656a:	69e2      	ldr	r2, [r4, #28]
1000656c:	f3ef 8110 	mrs	r1, PRIMASK
10006570:	b672      	cpsid	i
10006572:	6813      	ldr	r3, [r2, #0]
10006574:	2b00      	cmp	r3, #0
10006576:	d109      	bne.n	1000658c <dcd_event_bus_signal+0x6c>
10006578:	e7fb      	b.n	10006572 <dcd_event_bus_signal+0x52>
1000657a:	4b30      	ldr	r3, [pc, #192]	; (1000663c <dcd_event_bus_signal+0x11c>)
1000657c:	681c      	ldr	r4, [r3, #0]
1000657e:	69e2      	ldr	r2, [r4, #28]
10006580:	f3ef 8110 	mrs	r1, PRIMASK
10006584:	b672      	cpsid	i
10006586:	6813      	ldr	r3, [r2, #0]
10006588:	2b00      	cmp	r3, #0
1000658a:	d0fc      	beq.n	10006586 <dcd_event_bus_signal+0x66>
1000658c:	f3bf 8f5f 	dmb	sy
10006590:	6221      	str	r1, [r4, #32]
10006592:	4669      	mov	r1, sp
10006594:	0020      	movs	r0, r4
10006596:	f000 fee5 	bl	10007364 <tu_fifo_write>
1000659a:	69e2      	ldr	r2, [r4, #28]
1000659c:	6a23      	ldr	r3, [r4, #32]
1000659e:	f3bf 8f5f 	dmb	sy
100065a2:	2100      	movs	r1, #0
100065a4:	6011      	str	r1, [r2, #0]
100065a6:	f383 8810 	msr	PRIMASK, r3
100065aa:	e7d0      	b.n	1000654e <dcd_event_bus_signal+0x2e>
100065ac:	2101      	movs	r1, #1
100065ae:	4b22      	ldr	r3, [pc, #136]	; (10006638 <dcd_event_bus_signal+0x118>)
100065b0:	781a      	ldrb	r2, [r3, #0]
100065b2:	438a      	bics	r2, r1
100065b4:	701a      	strb	r2, [r3, #0]
100065b6:	781a      	ldrb	r2, [r3, #0]
100065b8:	3103      	adds	r1, #3
100065ba:	43a2      	bics	r2, r4
100065bc:	701a      	strb	r2, [r3, #0]
100065be:	2200      	movs	r2, #0
100065c0:	705a      	strb	r2, [r3, #1]
100065c2:	781a      	ldrb	r2, [r3, #0]
100065c4:	438a      	bics	r2, r1
100065c6:	701a      	strb	r2, [r3, #0]
100065c8:	4b1c      	ldr	r3, [pc, #112]	; (1000663c <dcd_event_bus_signal+0x11c>)
100065ca:	681c      	ldr	r4, [r3, #0]
100065cc:	69e2      	ldr	r2, [r4, #28]
100065ce:	f3ef 8110 	mrs	r1, PRIMASK
100065d2:	b672      	cpsid	i
100065d4:	6813      	ldr	r3, [r2, #0]
100065d6:	2b00      	cmp	r3, #0
100065d8:	d1d8      	bne.n	1000658c <dcd_event_bus_signal+0x6c>
100065da:	e7fb      	b.n	100065d4 <dcd_event_bus_signal+0xb4>
100065dc:	4b16      	ldr	r3, [pc, #88]	; (10006638 <dcd_event_bus_signal+0x118>)
100065de:	781a      	ldrb	r2, [r3, #0]
100065e0:	07d2      	lsls	r2, r2, #31
100065e2:	d5b4      	bpl.n	1000654e <dcd_event_bus_signal+0x2e>
100065e4:	2104      	movs	r1, #4
100065e6:	781a      	ldrb	r2, [r3, #0]
100065e8:	430a      	orrs	r2, r1
100065ea:	701a      	strb	r2, [r3, #0]
100065ec:	4b13      	ldr	r3, [pc, #76]	; (1000663c <dcd_event_bus_signal+0x11c>)
100065ee:	681c      	ldr	r4, [r3, #0]
100065f0:	69e2      	ldr	r2, [r4, #28]
100065f2:	f3ef 8110 	mrs	r1, PRIMASK
100065f6:	b672      	cpsid	i
100065f8:	6813      	ldr	r3, [r2, #0]
100065fa:	2b00      	cmp	r3, #0
100065fc:	d1c6      	bne.n	1000658c <dcd_event_bus_signal+0x6c>
100065fe:	e7fb      	b.n	100065f8 <dcd_event_bus_signal+0xd8>
10006600:	2104      	movs	r1, #4
10006602:	781a      	ldrb	r2, [r3, #0]
10006604:	a803      	add	r0, sp, #12
10006606:	438a      	bics	r2, r1
10006608:	701a      	strb	r2, [r3, #0]
1000660a:	2100      	movs	r1, #0
1000660c:	220c      	movs	r2, #12
1000660e:	f7fe f9bd 	bl	1000498c <__wrap_memset>
10006612:	466b      	mov	r3, sp
10006614:	466a      	mov	r2, sp
10006616:	731d      	strb	r5, [r3, #12]
10006618:	2305      	movs	r3, #5
1000661a:	7353      	strb	r3, [r2, #13]
1000661c:	4b07      	ldr	r3, [pc, #28]	; (1000663c <dcd_event_bus_signal+0x11c>)
1000661e:	681c      	ldr	r4, [r3, #0]
10006620:	69e2      	ldr	r2, [r4, #28]
10006622:	f3ef 8110 	mrs	r1, PRIMASK
10006626:	b672      	cpsid	i
10006628:	6813      	ldr	r3, [r2, #0]
1000662a:	2b00      	cmp	r3, #0
1000662c:	d0fc      	beq.n	10006628 <dcd_event_bus_signal+0x108>
1000662e:	f3bf 8f5f 	dmb	sy
10006632:	6221      	str	r1, [r4, #32]
10006634:	a903      	add	r1, sp, #12
10006636:	e7ad      	b.n	10006594 <dcd_event_bus_signal+0x74>
10006638:	20001504 	.word	0x20001504
1000663c:	2000155c 	.word	0x2000155c

10006640 <dcd_event_bus_reset>:
10006640:	b570      	push	{r4, r5, r6, lr}
10006642:	b084      	sub	sp, #16
10006644:	ac01      	add	r4, sp, #4
10006646:	0006      	movs	r6, r0
10006648:	000d      	movs	r5, r1
1000664a:	220c      	movs	r2, #12
1000664c:	2100      	movs	r1, #0
1000664e:	0020      	movs	r0, r4
10006650:	f7fe f99c 	bl	1000498c <__wrap_memset>
10006654:	2301      	movs	r3, #1
10006656:	7063      	strb	r3, [r4, #1]
10006658:	4b0d      	ldr	r3, [pc, #52]	; (10006690 <dcd_event_bus_reset+0x50>)
1000665a:	7125      	strb	r5, [r4, #4]
1000665c:	681d      	ldr	r5, [r3, #0]
1000665e:	7026      	strb	r6, [r4, #0]
10006660:	69ea      	ldr	r2, [r5, #28]
10006662:	f3ef 8310 	mrs	r3, PRIMASK
10006666:	b672      	cpsid	i
10006668:	6811      	ldr	r1, [r2, #0]
1000666a:	2900      	cmp	r1, #0
1000666c:	d0fc      	beq.n	10006668 <dcd_event_bus_reset+0x28>
1000666e:	f3bf 8f5f 	dmb	sy
10006672:	622b      	str	r3, [r5, #32]
10006674:	0021      	movs	r1, r4
10006676:	0028      	movs	r0, r5
10006678:	f000 fe74 	bl	10007364 <tu_fifo_write>
1000667c:	69ea      	ldr	r2, [r5, #28]
1000667e:	6a2b      	ldr	r3, [r5, #32]
10006680:	f3bf 8f5f 	dmb	sy
10006684:	2100      	movs	r1, #0
10006686:	6011      	str	r1, [r2, #0]
10006688:	f383 8810 	msr	PRIMASK, r3
1000668c:	b004      	add	sp, #16
1000668e:	bd70      	pop	{r4, r5, r6, pc}
10006690:	2000155c 	.word	0x2000155c

10006694 <dcd_event_setup_received>:
10006694:	2300      	movs	r3, #0
10006696:	b530      	push	{r4, r5, lr}
10006698:	b085      	sub	sp, #20
1000669a:	ad01      	add	r5, sp, #4
1000669c:	806b      	strh	r3, [r5, #2]
1000669e:	7028      	strb	r0, [r5, #0]
100066a0:	3306      	adds	r3, #6
100066a2:	2208      	movs	r2, #8
100066a4:	a802      	add	r0, sp, #8
100066a6:	706b      	strb	r3, [r5, #1]
100066a8:	f7fe f976 	bl	10004998 <__wrap___aeabi_memcpy>
100066ac:	4b0c      	ldr	r3, [pc, #48]	; (100066e0 <dcd_event_setup_received+0x4c>)
100066ae:	681c      	ldr	r4, [r3, #0]
100066b0:	69e2      	ldr	r2, [r4, #28]
100066b2:	f3ef 8310 	mrs	r3, PRIMASK
100066b6:	b672      	cpsid	i
100066b8:	6811      	ldr	r1, [r2, #0]
100066ba:	2900      	cmp	r1, #0
100066bc:	d0fc      	beq.n	100066b8 <dcd_event_setup_received+0x24>
100066be:	f3bf 8f5f 	dmb	sy
100066c2:	6223      	str	r3, [r4, #32]
100066c4:	0029      	movs	r1, r5
100066c6:	0020      	movs	r0, r4
100066c8:	f000 fe4c 	bl	10007364 <tu_fifo_write>
100066cc:	69e2      	ldr	r2, [r4, #28]
100066ce:	6a23      	ldr	r3, [r4, #32]
100066d0:	f3bf 8f5f 	dmb	sy
100066d4:	2100      	movs	r1, #0
100066d6:	6011      	str	r1, [r2, #0]
100066d8:	f383 8810 	msr	PRIMASK, r3
100066dc:	b005      	add	sp, #20
100066de:	bd30      	pop	{r4, r5, pc}
100066e0:	2000155c 	.word	0x2000155c

100066e4 <dcd_event_xfer_complete>:
100066e4:	b5f0      	push	{r4, r5, r6, r7, lr}
100066e6:	46c6      	mov	lr, r8
100066e8:	4680      	mov	r8, r0
100066ea:	b500      	push	{lr}
100066ec:	b084      	sub	sp, #16
100066ee:	ac01      	add	r4, sp, #4
100066f0:	000f      	movs	r7, r1
100066f2:	0016      	movs	r6, r2
100066f4:	2100      	movs	r1, #0
100066f6:	2208      	movs	r2, #8
100066f8:	0020      	movs	r0, r4
100066fa:	001d      	movs	r5, r3
100066fc:	f7fe f946 	bl	1000498c <__wrap_memset>
10006700:	4643      	mov	r3, r8
10006702:	7023      	strb	r3, [r4, #0]
10006704:	2307      	movs	r3, #7
10006706:	7063      	strb	r3, [r4, #1]
10006708:	4b0f      	ldr	r3, [pc, #60]	; (10006748 <dcd_event_xfer_complete+0x64>)
1000670a:	7165      	strb	r5, [r4, #5]
1000670c:	681d      	ldr	r5, [r3, #0]
1000670e:	7127      	strb	r7, [r4, #4]
10006710:	60a6      	str	r6, [r4, #8]
10006712:	69ea      	ldr	r2, [r5, #28]
10006714:	f3ef 8310 	mrs	r3, PRIMASK
10006718:	b672      	cpsid	i
1000671a:	6811      	ldr	r1, [r2, #0]
1000671c:	2900      	cmp	r1, #0
1000671e:	d0fc      	beq.n	1000671a <dcd_event_xfer_complete+0x36>
10006720:	f3bf 8f5f 	dmb	sy
10006724:	622b      	str	r3, [r5, #32]
10006726:	0021      	movs	r1, r4
10006728:	0028      	movs	r0, r5
1000672a:	f000 fe1b 	bl	10007364 <tu_fifo_write>
1000672e:	69ea      	ldr	r2, [r5, #28]
10006730:	6a2b      	ldr	r3, [r5, #32]
10006732:	f3bf 8f5f 	dmb	sy
10006736:	2100      	movs	r1, #0
10006738:	6011      	str	r1, [r2, #0]
1000673a:	f383 8810 	msr	PRIMASK, r3
1000673e:	b004      	add	sp, #16
10006740:	bc80      	pop	{r7}
10006742:	46b8      	mov	r8, r7
10006744:	bdf0      	pop	{r4, r5, r6, r7, pc}
10006746:	46c0      	nop			; (mov r8, r8)
10006748:	2000155c 	.word	0x2000155c

1000674c <usbd_open_edpt_pair>:
1000674c:	b5f0      	push	{r4, r5, r6, r7, lr}
1000674e:	4646      	mov	r6, r8
10006750:	46d6      	mov	lr, sl
10006752:	464f      	mov	r7, r9
10006754:	4680      	mov	r8, r0
10006756:	b5c0      	push	{r6, r7, lr}
10006758:	000c      	movs	r4, r1
1000675a:	0015      	movs	r5, r2
1000675c:	001e      	movs	r6, r3
1000675e:	2a00      	cmp	r2, #0
10006760:	d02e      	beq.n	100067c0 <usbd_open_edpt_pair+0x74>
10006762:	2370      	movs	r3, #112	; 0x70
10006764:	4699      	mov	r9, r3
10006766:	4b18      	ldr	r3, [pc, #96]	; (100067c8 <usbd_open_edpt_pair+0x7c>)
10006768:	2700      	movs	r7, #0
1000676a:	469a      	mov	sl, r3
1000676c:	7863      	ldrb	r3, [r4, #1]
1000676e:	2b05      	cmp	r3, #5
10006770:	d10f      	bne.n	10006792 <usbd_open_edpt_pair+0x46>
10006772:	78e1      	ldrb	r1, [r4, #3]
10006774:	0789      	lsls	r1, r1, #30
10006776:	0f89      	lsrs	r1, r1, #30
10006778:	42b1      	cmp	r1, r6
1000677a:	d10a      	bne.n	10006792 <usbd_open_edpt_pair+0x46>
1000677c:	464a      	mov	r2, r9
1000677e:	78a3      	ldrb	r3, [r4, #2]
10006780:	421a      	tst	r2, r3
10006782:	d106      	bne.n	10006792 <usbd_open_edpt_pair+0x46>
10006784:	4653      	mov	r3, sl
10006786:	0020      	movs	r0, r4
10006788:	7899      	ldrb	r1, [r3, #2]
1000678a:	f000 fc69 	bl	10007060 <tu_edpt_validate>
1000678e:	2800      	cmp	r0, #0
10006790:	d105      	bne.n	1000679e <usbd_open_edpt_pair+0x52>
10006792:	2000      	movs	r0, #0
10006794:	bce0      	pop	{r5, r6, r7}
10006796:	46ba      	mov	sl, r7
10006798:	46b1      	mov	r9, r6
1000679a:	46a8      	mov	r8, r5
1000679c:	bdf0      	pop	{r4, r5, r6, r7, pc}
1000679e:	0021      	movs	r1, r4
100067a0:	4640      	mov	r0, r8
100067a2:	f7fe febf 	bl	10005524 <dcd_edpt_open>
100067a6:	2800      	cmp	r0, #0
100067a8:	d0f3      	beq.n	10006792 <usbd_open_edpt_pair+0x46>
100067aa:	78a3      	ldrb	r3, [r4, #2]
100067ac:	09da      	lsrs	r2, r3, #7
100067ae:	2a01      	cmp	r2, #1
100067b0:	d008      	beq.n	100067c4 <usbd_open_edpt_pair+0x78>
100067b2:	9a08      	ldr	r2, [sp, #32]
100067b4:	7013      	strb	r3, [r2, #0]
100067b6:	7823      	ldrb	r3, [r4, #0]
100067b8:	3701      	adds	r7, #1
100067ba:	18e4      	adds	r4, r4, r3
100067bc:	42af      	cmp	r7, r5
100067be:	dbd5      	blt.n	1000676c <usbd_open_edpt_pair+0x20>
100067c0:	2001      	movs	r0, #1
100067c2:	e7e7      	b.n	10006794 <usbd_open_edpt_pair+0x48>
100067c4:	9a09      	ldr	r2, [sp, #36]	; 0x24
100067c6:	e7f5      	b.n	100067b4 <usbd_open_edpt_pair+0x68>
100067c8:	20001504 	.word	0x20001504

100067cc <usbd_edpt_open>:
100067cc:	2270      	movs	r2, #112	; 0x70
100067ce:	b570      	push	{r4, r5, r6, lr}
100067d0:	788b      	ldrb	r3, [r1, #2]
100067d2:	0005      	movs	r5, r0
100067d4:	000c      	movs	r4, r1
100067d6:	421a      	tst	r2, r3
100067d8:	d001      	beq.n	100067de <usbd_edpt_open+0x12>
100067da:	2000      	movs	r0, #0
100067dc:	bd70      	pop	{r4, r5, r6, pc}
100067de:	4b06      	ldr	r3, [pc, #24]	; (100067f8 <usbd_edpt_open+0x2c>)
100067e0:	0020      	movs	r0, r4
100067e2:	7899      	ldrb	r1, [r3, #2]
100067e4:	f000 fc3c 	bl	10007060 <tu_edpt_validate>
100067e8:	2800      	cmp	r0, #0
100067ea:	d0f6      	beq.n	100067da <usbd_edpt_open+0xe>
100067ec:	0021      	movs	r1, r4
100067ee:	0028      	movs	r0, r5
100067f0:	f7fe fe98 	bl	10005524 <dcd_edpt_open>
100067f4:	e7f2      	b.n	100067dc <usbd_edpt_open+0x10>
100067f6:	46c0      	nop			; (mov r8, r8)
100067f8:	20001504 	.word	0x20001504

100067fc <usbd_edpt_claim>:
100067fc:	b570      	push	{r4, r5, r6, lr}
100067fe:	247f      	movs	r4, #127	; 0x7f
10006800:	400c      	ands	r4, r1
10006802:	0063      	lsls	r3, r4, #1
10006804:	4c14      	ldr	r4, [pc, #80]	; (10006858 <usbd_edpt_claim+0x5c>)
10006806:	09c9      	lsrs	r1, r1, #7
10006808:	18e4      	adds	r4, r4, r3
1000680a:	1864      	adds	r4, r4, r1
1000680c:	3430      	adds	r4, #48	; 0x30
1000680e:	78e3      	ldrb	r3, [r4, #3]
10006810:	07db      	lsls	r3, r3, #31
10006812:	0fdd      	lsrs	r5, r3, #31
10006814:	2b00      	cmp	r3, #0
10006816:	d118      	bne.n	1000684a <usbd_edpt_claim+0x4e>
10006818:	78e3      	ldrb	r3, [r4, #3]
1000681a:	075b      	lsls	r3, r3, #29
1000681c:	d501      	bpl.n	10006822 <usbd_edpt_claim+0x26>
1000681e:	0028      	movs	r0, r5
10006820:	bd70      	pop	{r4, r5, r6, pc}
10006822:	2101      	movs	r1, #1
10006824:	4e0d      	ldr	r6, [pc, #52]	; (1000685c <usbd_edpt_claim+0x60>)
10006826:	4249      	negs	r1, r1
10006828:	6830      	ldr	r0, [r6, #0]
1000682a:	f004 fcad 	bl	1000b188 <__mutex_enter_timeout_ms_veneer>
1000682e:	78e3      	ldrb	r3, [r4, #3]
10006830:	07db      	lsls	r3, r3, #31
10006832:	0fdd      	lsrs	r5, r3, #31
10006834:	2b00      	cmp	r3, #0
10006836:	d10a      	bne.n	1000684e <usbd_edpt_claim+0x52>
10006838:	78e3      	ldrb	r3, [r4, #3]
1000683a:	075b      	lsls	r3, r3, #29
1000683c:	d408      	bmi.n	10006850 <usbd_edpt_claim+0x54>
1000683e:	2204      	movs	r2, #4
10006840:	78e3      	ldrb	r3, [r4, #3]
10006842:	2501      	movs	r5, #1
10006844:	4313      	orrs	r3, r2
10006846:	70e3      	strb	r3, [r4, #3]
10006848:	e002      	b.n	10006850 <usbd_edpt_claim+0x54>
1000684a:	2500      	movs	r5, #0
1000684c:	e7e7      	b.n	1000681e <usbd_edpt_claim+0x22>
1000684e:	2500      	movs	r5, #0
10006850:	6830      	ldr	r0, [r6, #0]
10006852:	f004 fc79 	bl	1000b148 <__mutex_exit_veneer>
10006856:	e7e2      	b.n	1000681e <usbd_edpt_claim+0x22>
10006858:	20001504 	.word	0x20001504
1000685c:	20001558 	.word	0x20001558

10006860 <usbd_edpt_release>:
10006860:	b570      	push	{r4, r5, r6, lr}
10006862:	000c      	movs	r4, r1
10006864:	2101      	movs	r1, #1
10006866:	4d0f      	ldr	r5, [pc, #60]	; (100068a4 <usbd_edpt_release+0x44>)
10006868:	4249      	negs	r1, r1
1000686a:	6828      	ldr	r0, [r5, #0]
1000686c:	f004 fc8c 	bl	1000b188 <__mutex_enter_timeout_ms_veneer>
10006870:	217f      	movs	r1, #127	; 0x7f
10006872:	4021      	ands	r1, r4
10006874:	004b      	lsls	r3, r1, #1
10006876:	490c      	ldr	r1, [pc, #48]	; (100068a8 <usbd_edpt_release+0x48>)
10006878:	09e4      	lsrs	r4, r4, #7
1000687a:	18c9      	adds	r1, r1, r3
1000687c:	1909      	adds	r1, r1, r4
1000687e:	3130      	adds	r1, #48	; 0x30
10006880:	78cb      	ldrb	r3, [r1, #3]
10006882:	2400      	movs	r4, #0
10006884:	07db      	lsls	r3, r3, #31
10006886:	d408      	bmi.n	1000689a <usbd_edpt_release+0x3a>
10006888:	78cb      	ldrb	r3, [r1, #3]
1000688a:	075b      	lsls	r3, r3, #29
1000688c:	0fdc      	lsrs	r4, r3, #31
1000688e:	2b00      	cmp	r3, #0
10006890:	da03      	bge.n	1000689a <usbd_edpt_release+0x3a>
10006892:	2204      	movs	r2, #4
10006894:	78cb      	ldrb	r3, [r1, #3]
10006896:	4393      	bics	r3, r2
10006898:	70cb      	strb	r3, [r1, #3]
1000689a:	6828      	ldr	r0, [r5, #0]
1000689c:	f004 fc54 	bl	1000b148 <__mutex_exit_veneer>
100068a0:	0020      	movs	r0, r4
100068a2:	bd70      	pop	{r4, r5, r6, pc}
100068a4:	20001558 	.word	0x20001558
100068a8:	20001504 	.word	0x20001504

100068ac <usbd_edpt_xfer>:
100068ac:	b570      	push	{r4, r5, r6, lr}
100068ae:	257f      	movs	r5, #127	; 0x7f
100068b0:	4c0f      	ldr	r4, [pc, #60]	; (100068f0 <usbd_edpt_xfer+0x44>)
100068b2:	400d      	ands	r5, r1
100068b4:	006d      	lsls	r5, r5, #1
100068b6:	1964      	adds	r4, r4, r5
100068b8:	0006      	movs	r6, r0
100068ba:	09c8      	lsrs	r0, r1, #7
100068bc:	1824      	adds	r4, r4, r0
100068be:	3430      	adds	r4, #48	; 0x30
100068c0:	78e5      	ldrb	r5, [r4, #3]
100068c2:	2000      	movs	r0, #0
100068c4:	07ed      	lsls	r5, r5, #31
100068c6:	d500      	bpl.n	100068ca <usbd_edpt_xfer+0x1e>
100068c8:	bd70      	pop	{r4, r5, r6, pc}
100068ca:	2501      	movs	r5, #1
100068cc:	78e0      	ldrb	r0, [r4, #3]
100068ce:	4328      	orrs	r0, r5
100068d0:	70e0      	strb	r0, [r4, #3]
100068d2:	0030      	movs	r0, r6
100068d4:	f7fe fefc 	bl	100056d0 <dcd_edpt_xfer>
100068d8:	2800      	cmp	r0, #0
100068da:	d1f5      	bne.n	100068c8 <usbd_edpt_xfer+0x1c>
100068dc:	2201      	movs	r2, #1
100068de:	78e3      	ldrb	r3, [r4, #3]
100068e0:	4393      	bics	r3, r2
100068e2:	70e3      	strb	r3, [r4, #3]
100068e4:	78e3      	ldrb	r3, [r4, #3]
100068e6:	3203      	adds	r2, #3
100068e8:	4393      	bics	r3, r2
100068ea:	70e3      	strb	r3, [r4, #3]
100068ec:	e7ec      	b.n	100068c8 <usbd_edpt_xfer+0x1c>
100068ee:	46c0      	nop			; (mov r8, r8)
100068f0:	20001504 	.word	0x20001504

100068f4 <tud_control_status>:
100068f4:	b570      	push	{r4, r5, r6, lr}
100068f6:	4e0a      	ldr	r6, [pc, #40]	; (10006920 <tud_control_status+0x2c>)
100068f8:	0005      	movs	r5, r0
100068fa:	0030      	movs	r0, r6
100068fc:	2208      	movs	r2, #8
100068fe:	000c      	movs	r4, r1
10006900:	f7fe f84a 	bl	10004998 <__wrap___aeabi_memcpy>
10006904:	2300      	movs	r3, #0
10006906:	217f      	movs	r1, #127	; 0x7f
10006908:	60f3      	str	r3, [r6, #12]
1000690a:	7822      	ldrb	r2, [r4, #0]
1000690c:	60b3      	str	r3, [r6, #8]
1000690e:	4291      	cmp	r1, r2
10006910:	415b      	adcs	r3, r3
10006912:	0028      	movs	r0, r5
10006914:	01d9      	lsls	r1, r3, #7
10006916:	2200      	movs	r2, #0
10006918:	2300      	movs	r3, #0
1000691a:	f7ff ffc7 	bl	100068ac <usbd_edpt_xfer>
1000691e:	bd70      	pop	{r4, r5, r6, pc}
10006920:	200014a8 	.word	0x200014a8

10006924 <tud_control_xfer>:
10006924:	b5f8      	push	{r3, r4, r5, r6, r7, lr}
10006926:	46ce      	mov	lr, r9
10006928:	4647      	mov	r7, r8
1000692a:	4691      	mov	r9, r2
1000692c:	4e2a      	ldr	r6, [pc, #168]	; (100069d8 <tud_control_xfer+0xb4>)
1000692e:	b580      	push	{r7, lr}
10006930:	2208      	movs	r2, #8
10006932:	0007      	movs	r7, r0
10006934:	0030      	movs	r0, r6
10006936:	000d      	movs	r5, r1
10006938:	4698      	mov	r8, r3
1000693a:	f7fe f82d 	bl	10004998 <__wrap___aeabi_memcpy>
1000693e:	464b      	mov	r3, r9
10006940:	60b3      	str	r3, [r6, #8]
10006942:	2300      	movs	r3, #0
10006944:	81f3      	strh	r3, [r6, #14]
10006946:	79ec      	ldrb	r4, [r5, #7]
10006948:	79a9      	ldrb	r1, [r5, #6]
1000694a:	0224      	lsls	r4, r4, #8
1000694c:	430c      	orrs	r4, r1
1000694e:	1c23      	adds	r3, r4, #0
10006950:	4544      	cmp	r4, r8
10006952:	d900      	bls.n	10006956 <tud_control_xfer+0x32>
10006954:	4643      	mov	r3, r8
10006956:	b29a      	uxth	r2, r3
10006958:	4690      	mov	r8, r2
1000695a:	81b3      	strh	r3, [r6, #12]
1000695c:	2c00      	cmp	r4, #0
1000695e:	d013      	beq.n	10006988 <tud_control_xfer+0x64>
10006960:	2a00      	cmp	r2, #0
10006962:	d01f      	beq.n	100069a4 <tud_control_xfer+0x80>
10006964:	464b      	mov	r3, r9
10006966:	2b00      	cmp	r3, #0
10006968:	d034      	beq.n	100069d4 <tud_control_xfer+0xb0>
1000696a:	1c13      	adds	r3, r2, #0
1000696c:	2a40      	cmp	r2, #64	; 0x40
1000696e:	d81f      	bhi.n	100069b0 <tud_control_xfer+0x8c>
10006970:	b29b      	uxth	r3, r3
10006972:	4698      	mov	r8, r3
10006974:	7833      	ldrb	r3, [r6, #0]
10006976:	2b7f      	cmp	r3, #127	; 0x7f
10006978:	d820      	bhi.n	100069bc <tud_control_xfer+0x98>
1000697a:	2100      	movs	r1, #0
1000697c:	4a17      	ldr	r2, [pc, #92]	; (100069dc <tud_control_xfer+0xb8>)
1000697e:	4643      	mov	r3, r8
10006980:	0038      	movs	r0, r7
10006982:	f7ff ff93 	bl	100068ac <usbd_edpt_xfer>
10006986:	e009      	b.n	1000699c <tud_control_xfer+0x78>
10006988:	227f      	movs	r2, #127	; 0x7f
1000698a:	782b      	ldrb	r3, [r5, #0]
1000698c:	0038      	movs	r0, r7
1000698e:	429a      	cmp	r2, r3
10006990:	4164      	adcs	r4, r4
10006992:	2300      	movs	r3, #0
10006994:	2200      	movs	r2, #0
10006996:	01e1      	lsls	r1, r4, #7
10006998:	f7ff ff88 	bl	100068ac <usbd_edpt_xfer>
1000699c:	bcc0      	pop	{r6, r7}
1000699e:	46b9      	mov	r9, r7
100069a0:	46b0      	mov	r8, r6
100069a2:	bdf8      	pop	{r3, r4, r5, r6, r7, pc}
100069a4:	7833      	ldrb	r3, [r6, #0]
100069a6:	2b7f      	cmp	r3, #127	; 0x7f
100069a8:	d911      	bls.n	100069ce <tud_control_xfer+0xaa>
100069aa:	2180      	movs	r1, #128	; 0x80
100069ac:	2200      	movs	r2, #0
100069ae:	e7e6      	b.n	1000697e <tud_control_xfer+0x5a>
100069b0:	2340      	movs	r3, #64	; 0x40
100069b2:	b29b      	uxth	r3, r3
100069b4:	4698      	mov	r8, r3
100069b6:	7833      	ldrb	r3, [r6, #0]
100069b8:	2b7f      	cmp	r3, #127	; 0x7f
100069ba:	d9de      	bls.n	1000697a <tud_control_xfer+0x56>
100069bc:	4c07      	ldr	r4, [pc, #28]	; (100069dc <tud_control_xfer+0xb8>)
100069be:	4642      	mov	r2, r8
100069c0:	4649      	mov	r1, r9
100069c2:	0020      	movs	r0, r4
100069c4:	f7fd ffe8 	bl	10004998 <__wrap___aeabi_memcpy>
100069c8:	2180      	movs	r1, #128	; 0x80
100069ca:	0022      	movs	r2, r4
100069cc:	e7d7      	b.n	1000697e <tud_control_xfer+0x5a>
100069ce:	2100      	movs	r1, #0
100069d0:	2200      	movs	r2, #0
100069d2:	e7d4      	b.n	1000697e <tud_control_xfer+0x5a>
100069d4:	2000      	movs	r0, #0
100069d6:	e7e1      	b.n	1000699c <tud_control_xfer+0x78>
100069d8:	200014a8 	.word	0x200014a8
100069dc:	200014c4 	.word	0x200014c4

100069e0 <usbd_control_reset>:
100069e0:	b510      	push	{r4, lr}
100069e2:	2214      	movs	r2, #20
100069e4:	2100      	movs	r1, #0
100069e6:	4802      	ldr	r0, [pc, #8]	; (100069f0 <usbd_control_reset+0x10>)
100069e8:	f7fd ffd0 	bl	1000498c <__wrap_memset>
100069ec:	bd10      	pop	{r4, pc}
100069ee:	46c0      	nop			; (mov r8, r8)
100069f0:	200014a8 	.word	0x200014a8

100069f4 <usbd_control_set_complete_callback>:
100069f4:	4b01      	ldr	r3, [pc, #4]	; (100069fc <usbd_control_set_complete_callback+0x8>)
100069f6:	6118      	str	r0, [r3, #16]
100069f8:	4770      	bx	lr
100069fa:	46c0      	nop			; (mov r8, r8)
100069fc:	200014a8 	.word	0x200014a8

10006a00 <usbd_control_set_request>:
10006a00:	b510      	push	{r4, lr}
10006a02:	4c05      	ldr	r4, [pc, #20]	; (10006a18 <usbd_control_set_request+0x18>)
10006a04:	0001      	movs	r1, r0
10006a06:	2208      	movs	r2, #8
10006a08:	0020      	movs	r0, r4
10006a0a:	f7fd ffc5 	bl	10004998 <__wrap___aeabi_memcpy>
10006a0e:	2300      	movs	r3, #0
10006a10:	60a3      	str	r3, [r4, #8]
10006a12:	60e3      	str	r3, [r4, #12]
10006a14:	bd10      	pop	{r4, pc}
10006a16:	46c0      	nop			; (mov r8, r8)
10006a18:	200014a8 	.word	0x200014a8

10006a1c <usbd_control_xfer_cb>:
10006a1c:	b5f8      	push	{r3, r4, r5, r6, r7, lr}
10006a1e:	4c3b      	ldr	r4, [pc, #236]	; (10006b0c <usbd_control_xfer_cb+0xf0>)
10006a20:	001d      	movs	r5, r3
10006a22:	7823      	ldrb	r3, [r4, #0]
10006a24:	0006      	movs	r6, r0
10006a26:	09da      	lsrs	r2, r3, #7
10006a28:	09c9      	lsrs	r1, r1, #7
10006a2a:	428a      	cmp	r2, r1
10006a2c:	d013      	beq.n	10006a56 <usbd_control_xfer_cb+0x3a>
10006a2e:	2000      	movs	r0, #0
10006a30:	2d00      	cmp	r5, #0
10006a32:	d000      	beq.n	10006a36 <usbd_control_xfer_cb+0x1a>
10006a34:	bdf8      	pop	{r3, r4, r5, r6, r7, pc}
10006a36:	4b36      	ldr	r3, [pc, #216]	; (10006b10 <usbd_control_xfer_cb+0xf4>)
10006a38:	2b00      	cmp	r3, #0
10006a3a:	d003      	beq.n	10006a44 <usbd_control_xfer_cb+0x28>
10006a3c:	0021      	movs	r1, r4
10006a3e:	0030      	movs	r0, r6
10006a40:	f7fe fd62 	bl	10005508 <dcd_edpt0_status_complete>
10006a44:	6923      	ldr	r3, [r4, #16]
10006a46:	2b00      	cmp	r3, #0
10006a48:	d044      	beq.n	10006ad4 <usbd_control_xfer_cb+0xb8>
10006a4a:	0022      	movs	r2, r4
10006a4c:	2102      	movs	r1, #2
10006a4e:	0030      	movs	r0, r6
10006a50:	4798      	blx	r3
10006a52:	2001      	movs	r0, #1
10006a54:	e7ee      	b.n	10006a34 <usbd_control_xfer_cb+0x18>
10006a56:	2b7f      	cmp	r3, #127	; 0x7f
10006a58:	d806      	bhi.n	10006a68 <usbd_control_xfer_cb+0x4c>
10006a5a:	68a0      	ldr	r0, [r4, #8]
10006a5c:	2800      	cmp	r0, #0
10006a5e:	d037      	beq.n	10006ad0 <usbd_control_xfer_cb+0xb4>
10006a60:	002a      	movs	r2, r5
10006a62:	492c      	ldr	r1, [pc, #176]	; (10006b14 <usbd_control_xfer_cb+0xf8>)
10006a64:	f7fd ff98 	bl	10004998 <__wrap___aeabi_memcpy>
10006a68:	68a3      	ldr	r3, [r4, #8]
10006a6a:	89e2      	ldrh	r2, [r4, #14]
10006a6c:	1959      	adds	r1, r3, r5
10006a6e:	1952      	adds	r2, r2, r5
10006a70:	88e3      	ldrh	r3, [r4, #6]
10006a72:	b292      	uxth	r2, r2
10006a74:	81e2      	strh	r2, [r4, #14]
10006a76:	60a1      	str	r1, [r4, #8]
10006a78:	4293      	cmp	r3, r2
10006a7a:	d014      	beq.n	10006aa6 <usbd_control_xfer_cb+0x8a>
10006a7c:	2d3f      	cmp	r5, #63	; 0x3f
10006a7e:	d912      	bls.n	10006aa6 <usbd_control_xfer_cb+0x8a>
10006a80:	89a5      	ldrh	r5, [r4, #12]
10006a82:	1aa8      	subs	r0, r5, r2
10006a84:	1c07      	adds	r7, r0, #0
10006a86:	b280      	uxth	r0, r0
10006a88:	2840      	cmp	r0, #64	; 0x40
10006a8a:	d82f      	bhi.n	10006aec <usbd_control_xfer_cb+0xd0>
10006a8c:	7823      	ldrb	r3, [r4, #0]
10006a8e:	b2bf      	uxth	r7, r7
10006a90:	2b7f      	cmp	r3, #127	; 0x7f
10006a92:	d82d      	bhi.n	10006af0 <usbd_control_xfer_cb+0xd4>
10006a94:	2100      	movs	r1, #0
10006a96:	42aa      	cmp	r2, r5
10006a98:	d035      	beq.n	10006b06 <usbd_control_xfer_cb+0xea>
10006a9a:	4a1e      	ldr	r2, [pc, #120]	; (10006b14 <usbd_control_xfer_cb+0xf8>)
10006a9c:	003b      	movs	r3, r7
10006a9e:	0030      	movs	r0, r6
10006aa0:	f7ff ff04 	bl	100068ac <usbd_edpt_xfer>
10006aa4:	e7c6      	b.n	10006a34 <usbd_control_xfer_cb+0x18>
10006aa6:	6923      	ldr	r3, [r4, #16]
10006aa8:	2b00      	cmp	r3, #0
10006aaa:	d005      	beq.n	10006ab8 <usbd_control_xfer_cb+0x9c>
10006aac:	0022      	movs	r2, r4
10006aae:	2101      	movs	r1, #1
10006ab0:	0030      	movs	r0, r6
10006ab2:	4798      	blx	r3
10006ab4:	2800      	cmp	r0, #0
10006ab6:	d00f      	beq.n	10006ad8 <usbd_control_xfer_cb+0xbc>
10006ab8:	227f      	movs	r2, #127	; 0x7f
10006aba:	2100      	movs	r1, #0
10006abc:	7823      	ldrb	r3, [r4, #0]
10006abe:	0030      	movs	r0, r6
10006ac0:	429a      	cmp	r2, r3
10006ac2:	4149      	adcs	r1, r1
10006ac4:	2300      	movs	r3, #0
10006ac6:	2200      	movs	r2, #0
10006ac8:	01c9      	lsls	r1, r1, #7
10006aca:	f7ff feef 	bl	100068ac <usbd_edpt_xfer>
10006ace:	e7b1      	b.n	10006a34 <usbd_control_xfer_cb+0x18>
10006ad0:	2000      	movs	r0, #0
10006ad2:	e7af      	b.n	10006a34 <usbd_control_xfer_cb+0x18>
10006ad4:	2001      	movs	r0, #1
10006ad6:	e7ad      	b.n	10006a34 <usbd_control_xfer_cb+0x18>
10006ad8:	2100      	movs	r1, #0
10006ada:	0030      	movs	r0, r6
10006adc:	f7fe fe0a 	bl	100056f4 <dcd_edpt_stall>
10006ae0:	0030      	movs	r0, r6
10006ae2:	2180      	movs	r1, #128	; 0x80
10006ae4:	f7fe fe06 	bl	100056f4 <dcd_edpt_stall>
10006ae8:	2001      	movs	r0, #1
10006aea:	e7a3      	b.n	10006a34 <usbd_control_xfer_cb+0x18>
10006aec:	2740      	movs	r7, #64	; 0x40
10006aee:	e7cd      	b.n	10006a8c <usbd_control_xfer_cb+0x70>
10006af0:	42aa      	cmp	r2, r5
10006af2:	d007      	beq.n	10006b04 <usbd_control_xfer_cb+0xe8>
10006af4:	4c07      	ldr	r4, [pc, #28]	; (10006b14 <usbd_control_xfer_cb+0xf8>)
10006af6:	003a      	movs	r2, r7
10006af8:	0020      	movs	r0, r4
10006afa:	f7fd ff4d 	bl	10004998 <__wrap___aeabi_memcpy>
10006afe:	2180      	movs	r1, #128	; 0x80
10006b00:	0022      	movs	r2, r4
10006b02:	e7cb      	b.n	10006a9c <usbd_control_xfer_cb+0x80>
10006b04:	2180      	movs	r1, #128	; 0x80
10006b06:	2200      	movs	r2, #0
10006b08:	e7c8      	b.n	10006a9c <usbd_control_xfer_cb+0x80>
10006b0a:	46c0      	nop			; (mov r8, r8)
10006b0c:	200014a8 	.word	0x200014a8
10006b10:	10005509 	.word	0x10005509
10006b14:	200014c4 	.word	0x200014c4

10006b18 <tud_cdc_n_connected>:
10006b18:	b510      	push	{r4, lr}
10006b1a:	0004      	movs	r4, r0
10006b1c:	f7ff f808 	bl	10005b30 <tud_mounted>
10006b20:	2800      	cmp	r0, #0
10006b22:	d101      	bne.n	10006b28 <tud_cdc_n_connected+0x10>
10006b24:	2000      	movs	r0, #0
10006b26:	bd10      	pop	{r4, pc}
10006b28:	f7ff f80a 	bl	10005b40 <tud_suspended>
10006b2c:	2800      	cmp	r0, #0
10006b2e:	d1f9      	bne.n	10006b24 <tud_cdc_n_connected+0xc>
10006b30:	20b6      	movs	r0, #182	; 0xb6
10006b32:	0080      	lsls	r0, r0, #2
10006b34:	4344      	muls	r4, r0
10006b36:	4803      	ldr	r0, [pc, #12]	; (10006b44 <tud_cdc_n_connected+0x2c>)
10006b38:	1900      	adds	r0, r0, r4
10006b3a:	7903      	ldrb	r3, [r0, #4]
10006b3c:	2001      	movs	r0, #1
10006b3e:	4018      	ands	r0, r3
10006b40:	e7f1      	b.n	10006b26 <tud_cdc_n_connected+0xe>
10006b42:	46c0      	nop			; (mov r8, r8)
10006b44:	200011d0 	.word	0x200011d0

10006b48 <tud_cdc_n_available>:
10006b48:	23b6      	movs	r3, #182	; 0xb6
10006b4a:	009b      	lsls	r3, r3, #2
10006b4c:	4358      	muls	r0, r3
10006b4e:	b510      	push	{r4, lr}
10006b50:	4b02      	ldr	r3, [pc, #8]	; (10006b5c <tud_cdc_n_available+0x14>)
10006b52:	3010      	adds	r0, #16
10006b54:	18c0      	adds	r0, r0, r3
10006b56:	f000 fb11 	bl	1000717c <tu_fifo_count>
10006b5a:	bd10      	pop	{r4, pc}
10006b5c:	200011d0 	.word	0x200011d0

10006b60 <tud_cdc_n_read>:
10006b60:	b5f0      	push	{r4, r5, r6, r7, lr}
10006b62:	25b6      	movs	r5, #182	; 0xb6
10006b64:	00ad      	lsls	r5, r5, #2
10006b66:	4345      	muls	r5, r0
10006b68:	002c      	movs	r4, r5
10006b6a:	46c6      	mov	lr, r8
10006b6c:	4f17      	ldr	r7, [pc, #92]	; (10006bcc <tud_cdc_n_read+0x6c>)
10006b6e:	3410      	adds	r4, #16
10006b70:	19e4      	adds	r4, r4, r7
10006b72:	b500      	push	{lr}
10006b74:	0020      	movs	r0, r4
10006b76:	b292      	uxth	r2, r2
10006b78:	f000 fb74 	bl	10007264 <tu_fifo_read_n>
10006b7c:	0006      	movs	r6, r0
10006b7e:	0020      	movs	r0, r4
10006b80:	f000 fb14 	bl	100071ac <tu_fifo_remaining>
10006b84:	283f      	cmp	r0, #63	; 0x3f
10006b86:	d803      	bhi.n	10006b90 <tud_cdc_n_read+0x30>
10006b88:	0030      	movs	r0, r6
10006b8a:	bc80      	pop	{r7}
10006b8c:	46b8      	mov	r8, r7
10006b8e:	bdf0      	pop	{r4, r5, r6, r7, pc}
10006b90:	197b      	adds	r3, r7, r5
10006b92:	2000      	movs	r0, #0
10006b94:	78d9      	ldrb	r1, [r3, #3]
10006b96:	4698      	mov	r8, r3
10006b98:	f7ff fe30 	bl	100067fc <usbd_edpt_claim>
10006b9c:	2800      	cmp	r0, #0
10006b9e:	d0f3      	beq.n	10006b88 <tud_cdc_n_read+0x28>
10006ba0:	0020      	movs	r0, r4
10006ba2:	f000 fb03 	bl	100071ac <tu_fifo_remaining>
10006ba6:	283f      	cmp	r0, #63	; 0x3f
10006ba8:	d90a      	bls.n	10006bc0 <tud_cdc_n_read+0x60>
10006baa:	2396      	movs	r3, #150	; 0x96
10006bac:	009b      	lsls	r3, r3, #2
10006bae:	18ea      	adds	r2, r5, r3
10006bb0:	4643      	mov	r3, r8
10006bb2:	19d2      	adds	r2, r2, r7
10006bb4:	78d9      	ldrb	r1, [r3, #3]
10006bb6:	2000      	movs	r0, #0
10006bb8:	2340      	movs	r3, #64	; 0x40
10006bba:	f7ff fe77 	bl	100068ac <usbd_edpt_xfer>
10006bbe:	e7e3      	b.n	10006b88 <tud_cdc_n_read+0x28>
10006bc0:	4643      	mov	r3, r8
10006bc2:	2000      	movs	r0, #0
10006bc4:	78d9      	ldrb	r1, [r3, #3]
10006bc6:	f7ff fe4b 	bl	10006860 <usbd_edpt_release>
10006bca:	e7dd      	b.n	10006b88 <tud_cdc_n_read+0x28>
10006bcc:	200011d0 	.word	0x200011d0

10006bd0 <tud_cdc_n_write_flush>:
10006bd0:	b5f8      	push	{r3, r4, r5, r6, r7, lr}
10006bd2:	0004      	movs	r4, r0
10006bd4:	f7fe ffac 	bl	10005b30 <tud_mounted>
10006bd8:	2800      	cmp	r0, #0
10006bda:	d101      	bne.n	10006be0 <tud_cdc_n_write_flush+0x10>
10006bdc:	2000      	movs	r0, #0
10006bde:	bdf8      	pop	{r3, r4, r5, r6, r7, pc}
10006be0:	f7fe ffae 	bl	10005b40 <tud_suspended>
10006be4:	2800      	cmp	r0, #0
10006be6:	d1f9      	bne.n	10006bdc <tud_cdc_n_write_flush+0xc>
10006be8:	20b6      	movs	r0, #182	; 0xb6
10006bea:	0080      	lsls	r0, r0, #2
10006bec:	4344      	muls	r4, r0
10006bee:	0025      	movs	r5, r4
10006bf0:	4e14      	ldr	r6, [pc, #80]	; (10006c44 <tud_cdc_n_write_flush+0x74>)
10006bf2:	352c      	adds	r5, #44	; 0x2c
10006bf4:	19ad      	adds	r5, r5, r6
10006bf6:	0028      	movs	r0, r5
10006bf8:	f000 fac0 	bl	1000717c <tu_fifo_count>
10006bfc:	2800      	cmp	r0, #0
10006bfe:	d0ed      	beq.n	10006bdc <tud_cdc_n_write_flush+0xc>
10006c00:	1937      	adds	r7, r6, r4
10006c02:	2000      	movs	r0, #0
10006c04:	78b9      	ldrb	r1, [r7, #2]
10006c06:	f7ff fdf9 	bl	100067fc <usbd_edpt_claim>
10006c0a:	2800      	cmp	r0, #0
10006c0c:	d0e6      	beq.n	10006bdc <tud_cdc_n_write_flush+0xc>
10006c0e:	23a6      	movs	r3, #166	; 0xa6
10006c10:	009b      	lsls	r3, r3, #2
10006c12:	469c      	mov	ip, r3
10006c14:	4464      	add	r4, ip
10006c16:	19a4      	adds	r4, r4, r6
10006c18:	0021      	movs	r1, r4
10006c1a:	0028      	movs	r0, r5
10006c1c:	2240      	movs	r2, #64	; 0x40
10006c1e:	f000 fb21 	bl	10007264 <tu_fifo_read_n>
10006c22:	78b9      	ldrb	r1, [r7, #2]
10006c24:	1e05      	subs	r5, r0, #0
10006c26:	d008      	beq.n	10006c3a <tud_cdc_n_write_flush+0x6a>
10006c28:	0003      	movs	r3, r0
10006c2a:	0022      	movs	r2, r4
10006c2c:	2000      	movs	r0, #0
10006c2e:	f7ff fe3d 	bl	100068ac <usbd_edpt_xfer>
10006c32:	2800      	cmp	r0, #0
10006c34:	d0d2      	beq.n	10006bdc <tud_cdc_n_write_flush+0xc>
10006c36:	0028      	movs	r0, r5
10006c38:	e7d1      	b.n	10006bde <tud_cdc_n_write_flush+0xe>
10006c3a:	2000      	movs	r0, #0
10006c3c:	f7ff fe10 	bl	10006860 <usbd_edpt_release>
10006c40:	e7cc      	b.n	10006bdc <tud_cdc_n_write_flush+0xc>
10006c42:	46c0      	nop			; (mov r8, r8)
10006c44:	200011d0 	.word	0x200011d0

10006c48 <tud_cdc_n_write>:
10006c48:	b570      	push	{r4, r5, r6, lr}
10006c4a:	24b6      	movs	r4, #182	; 0xb6
10006c4c:	00a4      	lsls	r4, r4, #2
10006c4e:	4344      	muls	r4, r0
10006c50:	4b09      	ldr	r3, [pc, #36]	; (10006c78 <tud_cdc_n_write+0x30>)
10006c52:	342c      	adds	r4, #44	; 0x2c
10006c54:	18e4      	adds	r4, r4, r3
10006c56:	0005      	movs	r5, r0
10006c58:	b292      	uxth	r2, r2
10006c5a:	0020      	movs	r0, r4
10006c5c:	f000 fbc0 	bl	100073e0 <tu_fifo_write_n>
10006c60:	0006      	movs	r6, r0
10006c62:	0020      	movs	r0, r4
10006c64:	f000 fa8a 	bl	1000717c <tu_fifo_count>
10006c68:	283f      	cmp	r0, #63	; 0x3f
10006c6a:	d801      	bhi.n	10006c70 <tud_cdc_n_write+0x28>
10006c6c:	0030      	movs	r0, r6
10006c6e:	bd70      	pop	{r4, r5, r6, pc}
10006c70:	0028      	movs	r0, r5
10006c72:	f7ff ffad 	bl	10006bd0 <tud_cdc_n_write_flush>
10006c76:	e7f9      	b.n	10006c6c <tud_cdc_n_write+0x24>
10006c78:	200011d0 	.word	0x200011d0

10006c7c <tud_cdc_n_write_available>:
10006c7c:	23b6      	movs	r3, #182	; 0xb6
10006c7e:	009b      	lsls	r3, r3, #2
10006c80:	4358      	muls	r0, r3
10006c82:	b510      	push	{r4, lr}
10006c84:	4b02      	ldr	r3, [pc, #8]	; (10006c90 <tud_cdc_n_write_available+0x14>)
10006c86:	302c      	adds	r0, #44	; 0x2c
10006c88:	18c0      	adds	r0, r0, r3
10006c8a:	f000 fa8f 	bl	100071ac <tu_fifo_remaining>
10006c8e:	bd10      	pop	{r4, pc}
10006c90:	200011d0 	.word	0x200011d0

10006c94 <cdcd_init>:
10006c94:	22b6      	movs	r2, #182	; 0xb6
10006c96:	b5f0      	push	{r4, r5, r6, r7, lr}
10006c98:	4c1b      	ldr	r4, [pc, #108]	; (10006d08 <cdcd_init+0x74>)
10006c9a:	b083      	sub	sp, #12
10006c9c:	2100      	movs	r1, #0
10006c9e:	0020      	movs	r0, r4
10006ca0:	0092      	lsls	r2, r2, #2
10006ca2:	f7fd fe73 	bl	1000498c <__wrap_memset>
10006ca6:	23ff      	movs	r3, #255	; 0xff
10006ca8:	7163      	strb	r3, [r4, #5]
10006caa:	4b18      	ldr	r3, [pc, #96]	; (10006d0c <cdcd_init+0x78>)
10006cac:	2680      	movs	r6, #128	; 0x80
10006cae:	2500      	movs	r5, #0
10006cb0:	80e3      	strh	r3, [r4, #6]
10006cb2:	2701      	movs	r7, #1
10006cb4:	2308      	movs	r3, #8
10006cb6:	0021      	movs	r1, r4
10006cb8:	0020      	movs	r0, r4
10006cba:	0076      	lsls	r6, r6, #1
10006cbc:	7323      	strb	r3, [r4, #12]
10006cbe:	0032      	movs	r2, r6
10006cc0:	8127      	strh	r7, [r4, #8]
10006cc2:	3148      	adds	r1, #72	; 0x48
10006cc4:	9500      	str	r5, [sp, #0]
10006cc6:	3b07      	subs	r3, #7
10006cc8:	3010      	adds	r0, #16
10006cca:	f000 fa1b 	bl	10007104 <tu_fifo_config>
10006cce:	0021      	movs	r1, r4
10006cd0:	0020      	movs	r0, r4
10006cd2:	3149      	adds	r1, #73	; 0x49
10006cd4:	0032      	movs	r2, r6
10006cd6:	31ff      	adds	r1, #255	; 0xff
10006cd8:	2301      	movs	r3, #1
10006cda:	9700      	str	r7, [sp, #0]
10006cdc:	302c      	adds	r0, #44	; 0x2c
10006cde:	f000 fa11 	bl	10007104 <tu_fifo_config>
10006ce2:	2392      	movs	r3, #146	; 0x92
10006ce4:	009b      	lsls	r3, r3, #2
10006ce6:	18e6      	adds	r6, r4, r3
10006ce8:	0030      	movs	r0, r6
10006cea:	f7fb f877 	bl	10001ddc <mutex_init>
10006cee:	2394      	movs	r3, #148	; 0x94
10006cf0:	009b      	lsls	r3, r3, #2
10006cf2:	62a6      	str	r6, [r4, #40]	; 0x28
10006cf4:	18e6      	adds	r6, r4, r3
10006cf6:	0030      	movs	r0, r6
10006cf8:	6265      	str	r5, [r4, #36]	; 0x24
10006cfa:	f7fb f86f 	bl	10001ddc <mutex_init>
10006cfe:	6426      	str	r6, [r4, #64]	; 0x40
10006d00:	6465      	str	r5, [r4, #68]	; 0x44
10006d02:	b003      	add	sp, #12
10006d04:	bdf0      	pop	{r4, r5, r6, r7, pc}
10006d06:	46c0      	nop			; (mov r8, r8)
10006d08:	200011d0 	.word	0x200011d0
10006d0c:	ffffc200 	.word	0xffffc200

10006d10 <cdcd_reset>:
10006d10:	b510      	push	{r4, lr}
10006d12:	4c09      	ldr	r4, [pc, #36]	; (10006d38 <cdcd_reset+0x28>)
10006d14:	2205      	movs	r2, #5
10006d16:	2100      	movs	r1, #0
10006d18:	0020      	movs	r0, r4
10006d1a:	f7fd fe37 	bl	1000498c <__wrap_memset>
10006d1e:	0020      	movs	r0, r4
10006d20:	342c      	adds	r4, #44	; 0x2c
10006d22:	3010      	adds	r0, #16
10006d24:	f000 fbdc 	bl	100074e0 <tu_fifo_clear>
10006d28:	0020      	movs	r0, r4
10006d2a:	f000 fbd9 	bl	100074e0 <tu_fifo_clear>
10006d2e:	2101      	movs	r1, #1
10006d30:	0020      	movs	r0, r4
10006d32:	f000 fbfb 	bl	1000752c <tu_fifo_set_overwritable>
10006d36:	bd10      	pop	{r4, pc}
10006d38:	200011d0 	.word	0x200011d0

10006d3c <cdcd_open>:
10006d3c:	b5f0      	push	{r4, r5, r6, r7, lr}
10006d3e:	794b      	ldrb	r3, [r1, #5]
10006d40:	0006      	movs	r6, r0
10006d42:	b083      	sub	sp, #12
10006d44:	2b02      	cmp	r3, #2
10006d46:	d102      	bne.n	10006d4e <cdcd_open+0x12>
10006d48:	798b      	ldrb	r3, [r1, #6]
10006d4a:	2b02      	cmp	r3, #2
10006d4c:	d003      	beq.n	10006d56 <cdcd_open+0x1a>
10006d4e:	2500      	movs	r5, #0
10006d50:	0028      	movs	r0, r5
10006d52:	b003      	add	sp, #12
10006d54:	bdf0      	pop	{r4, r5, r6, r7, pc}
10006d56:	4f2f      	ldr	r7, [pc, #188]	; (10006e14 <cdcd_open+0xd8>)
10006d58:	78bb      	ldrb	r3, [r7, #2]
10006d5a:	2b00      	cmp	r3, #0
10006d5c:	d1f7      	bne.n	10006d4e <cdcd_open+0x12>
10006d5e:	788b      	ldrb	r3, [r1, #2]
10006d60:	2509      	movs	r5, #9
10006d62:	703b      	strb	r3, [r7, #0]
10006d64:	780c      	ldrb	r4, [r1, #0]
10006d66:	190c      	adds	r4, r1, r4
10006d68:	7863      	ldrb	r3, [r4, #1]
10006d6a:	2b24      	cmp	r3, #36	; 0x24
10006d6c:	d10b      	bne.n	10006d86 <cdcd_open+0x4a>
10006d6e:	2a08      	cmp	r2, #8
10006d70:	d802      	bhi.n	10006d78 <cdcd_open+0x3c>
10006d72:	e00f      	b.n	10006d94 <cdcd_open+0x58>
10006d74:	42aa      	cmp	r2, r5
10006d76:	d30d      	bcc.n	10006d94 <cdcd_open+0x58>
10006d78:	7823      	ldrb	r3, [r4, #0]
10006d7a:	18e4      	adds	r4, r4, r3
10006d7c:	18ed      	adds	r5, r5, r3
10006d7e:	7863      	ldrb	r3, [r4, #1]
10006d80:	b2ad      	uxth	r5, r5
10006d82:	2b24      	cmp	r3, #36	; 0x24
10006d84:	d0f6      	beq.n	10006d74 <cdcd_open+0x38>
10006d86:	2b05      	cmp	r3, #5
10006d88:	d020      	beq.n	10006dcc <cdcd_open+0x90>
10006d8a:	2b04      	cmp	r3, #4
10006d8c:	d102      	bne.n	10006d94 <cdcd_open+0x58>
10006d8e:	7963      	ldrb	r3, [r4, #5]
10006d90:	2b0a      	cmp	r3, #10
10006d92:	d02e      	beq.n	10006df2 <cdcd_open+0xb6>
10006d94:	4c20      	ldr	r4, [pc, #128]	; (10006e18 <cdcd_open+0xdc>)
10006d96:	0020      	movs	r0, r4
10006d98:	f000 fa08 	bl	100071ac <tu_fifo_remaining>
10006d9c:	283f      	cmp	r0, #63	; 0x3f
10006d9e:	d9d7      	bls.n	10006d50 <cdcd_open+0x14>
10006da0:	0026      	movs	r6, r4
10006da2:	3e10      	subs	r6, #16
10006da4:	2000      	movs	r0, #0
10006da6:	78f1      	ldrb	r1, [r6, #3]
10006da8:	f7ff fd28 	bl	100067fc <usbd_edpt_claim>
10006dac:	2800      	cmp	r0, #0
10006dae:	d0cf      	beq.n	10006d50 <cdcd_open+0x14>
10006db0:	0020      	movs	r0, r4
10006db2:	f000 f9fb 	bl	100071ac <tu_fifo_remaining>
10006db6:	283f      	cmp	r0, #63	; 0x3f
10006db8:	d916      	bls.n	10006de8 <cdcd_open+0xac>
10006dba:	2392      	movs	r3, #146	; 0x92
10006dbc:	009b      	lsls	r3, r3, #2
10006dbe:	18e2      	adds	r2, r4, r3
10006dc0:	78f1      	ldrb	r1, [r6, #3]
10006dc2:	2340      	movs	r3, #64	; 0x40
10006dc4:	2000      	movs	r0, #0
10006dc6:	f7ff fd71 	bl	100068ac <usbd_edpt_xfer>
10006dca:	e7c1      	b.n	10006d50 <cdcd_open+0x14>
10006dcc:	0021      	movs	r1, r4
10006dce:	0030      	movs	r0, r6
10006dd0:	f7ff fcfc 	bl	100067cc <usbd_edpt_open>
10006dd4:	2800      	cmp	r0, #0
10006dd6:	d0ba      	beq.n	10006d4e <cdcd_open+0x12>
10006dd8:	78a3      	ldrb	r3, [r4, #2]
10006dda:	707b      	strb	r3, [r7, #1]
10006ddc:	7823      	ldrb	r3, [r4, #0]
10006dde:	18ed      	adds	r5, r5, r3
10006de0:	18e4      	adds	r4, r4, r3
10006de2:	7863      	ldrb	r3, [r4, #1]
10006de4:	b2ad      	uxth	r5, r5
10006de6:	e7d0      	b.n	10006d8a <cdcd_open+0x4e>
10006de8:	78f1      	ldrb	r1, [r6, #3]
10006dea:	2000      	movs	r0, #0
10006dec:	f7ff fd38 	bl	10006860 <usbd_edpt_release>
10006df0:	e7ae      	b.n	10006d50 <cdcd_open+0x14>
10006df2:	4b0a      	ldr	r3, [pc, #40]	; (10006e1c <cdcd_open+0xe0>)
10006df4:	7827      	ldrb	r7, [r4, #0]
10006df6:	9301      	str	r3, [sp, #4]
10006df8:	3301      	adds	r3, #1
10006dfa:	9300      	str	r3, [sp, #0]
10006dfc:	2202      	movs	r2, #2
10006dfe:	2302      	movs	r3, #2
10006e00:	0030      	movs	r0, r6
10006e02:	19e1      	adds	r1, r4, r7
10006e04:	f7ff fca2 	bl	1000674c <usbd_open_edpt_pair>
10006e08:	2800      	cmp	r0, #0
10006e0a:	d0a0      	beq.n	10006d4e <cdcd_open+0x12>
10006e0c:	350e      	adds	r5, #14
10006e0e:	19ed      	adds	r5, r5, r7
10006e10:	b2ad      	uxth	r5, r5
10006e12:	e7bf      	b.n	10006d94 <cdcd_open+0x58>
10006e14:	200011d0 	.word	0x200011d0
10006e18:	200011e0 	.word	0x200011e0
10006e1c:	200011d2 	.word	0x200011d2

10006e20 <cdcd_control_xfer_cb>:
10006e20:	b5f8      	push	{r3, r4, r5, r6, r7, lr}
10006e22:	2360      	movs	r3, #96	; 0x60
10006e24:	0014      	movs	r4, r2
10006e26:	7812      	ldrb	r2, [r2, #0]
10006e28:	0005      	movs	r5, r0
10006e2a:	4013      	ands	r3, r2
10006e2c:	2000      	movs	r0, #0
10006e2e:	2b20      	cmp	r3, #32
10006e30:	d112      	bne.n	10006e58 <cdcd_control_xfer_cb+0x38>
10006e32:	4a2f      	ldr	r2, [pc, #188]	; (10006ef0 <cdcd_control_xfer_cb+0xd0>)
10006e34:	7963      	ldrb	r3, [r4, #5]
10006e36:	7927      	ldrb	r7, [r4, #4]
10006e38:	7816      	ldrb	r6, [r2, #0]
10006e3a:	021b      	lsls	r3, r3, #8
10006e3c:	433b      	orrs	r3, r7
10006e3e:	429e      	cmp	r6, r3
10006e40:	d10a      	bne.n	10006e58 <cdcd_control_xfer_cb+0x38>
10006e42:	7863      	ldrb	r3, [r4, #1]
10006e44:	2b22      	cmp	r3, #34	; 0x22
10006e46:	d027      	beq.n	10006e98 <cdcd_control_xfer_cb+0x78>
10006e48:	d807      	bhi.n	10006e5a <cdcd_control_xfer_cb+0x3a>
10006e4a:	2b20      	cmp	r3, #32
10006e4c:	d017      	beq.n	10006e7e <cdcd_control_xfer_cb+0x5e>
10006e4e:	2b21      	cmp	r3, #33	; 0x21
10006e50:	d102      	bne.n	10006e58 <cdcd_control_xfer_cb+0x38>
10006e52:	2900      	cmp	r1, #0
10006e54:	d03d      	beq.n	10006ed2 <cdcd_control_xfer_cb+0xb2>
10006e56:	2001      	movs	r0, #1
10006e58:	bdf8      	pop	{r3, r4, r5, r6, r7, pc}
10006e5a:	2b23      	cmp	r3, #35	; 0x23
10006e5c:	d1fc      	bne.n	10006e58 <cdcd_control_xfer_cb+0x38>
10006e5e:	2900      	cmp	r1, #0
10006e60:	d03f      	beq.n	10006ee2 <cdcd_control_xfer_cb+0xc2>
10006e62:	2902      	cmp	r1, #2
10006e64:	d1f7      	bne.n	10006e56 <cdcd_control_xfer_cb+0x36>
10006e66:	4b23      	ldr	r3, [pc, #140]	; (10006ef4 <cdcd_control_xfer_cb+0xd4>)
10006e68:	2b00      	cmp	r3, #0
10006e6a:	d0f4      	beq.n	10006e56 <cdcd_control_xfer_cb+0x36>
10006e6c:	78e1      	ldrb	r1, [r4, #3]
10006e6e:	78a3      	ldrb	r3, [r4, #2]
10006e70:	0209      	lsls	r1, r1, #8
10006e72:	2000      	movs	r0, #0
10006e74:	4319      	orrs	r1, r3
10006e76:	e000      	b.n	10006e7a <cdcd_control_xfer_cb+0x5a>
10006e78:	bf00      	nop
10006e7a:	2001      	movs	r0, #1
10006e7c:	e7ec      	b.n	10006e58 <cdcd_control_xfer_cb+0x38>
10006e7e:	2900      	cmp	r1, #0
10006e80:	d027      	beq.n	10006ed2 <cdcd_control_xfer_cb+0xb2>
10006e82:	2902      	cmp	r1, #2
10006e84:	d1e7      	bne.n	10006e56 <cdcd_control_xfer_cb+0x36>
10006e86:	4b1c      	ldr	r3, [pc, #112]	; (10006ef8 <cdcd_control_xfer_cb+0xd8>)
10006e88:	2b00      	cmp	r3, #0
10006e8a:	d0e4      	beq.n	10006e56 <cdcd_control_xfer_cb+0x36>
10006e8c:	2000      	movs	r0, #0
10006e8e:	1d91      	adds	r1, r2, #6
10006e90:	f7fd fff2 	bl	10004e78 <tud_cdc_line_coding_cb>
10006e94:	2001      	movs	r0, #1
10006e96:	e7df      	b.n	10006e58 <cdcd_control_xfer_cb+0x38>
10006e98:	2900      	cmp	r1, #0
10006e9a:	d022      	beq.n	10006ee2 <cdcd_control_xfer_cb+0xc2>
10006e9c:	2902      	cmp	r1, #2
10006e9e:	d1da      	bne.n	10006e56 <cdcd_control_xfer_cb+0x36>
10006ea0:	2501      	movs	r5, #1
10006ea2:	002e      	movs	r6, r5
10006ea4:	78a3      	ldrb	r3, [r4, #2]
10006ea6:	78e4      	ldrb	r4, [r4, #3]
10006ea8:	3901      	subs	r1, #1
10006eaa:	0224      	lsls	r4, r4, #8
10006eac:	431c      	orrs	r4, r3
10006eae:	7114      	strb	r4, [r2, #4]
10006eb0:	4026      	ands	r6, r4
10006eb2:	322c      	adds	r2, #44	; 0x2c
10006eb4:	0010      	movs	r0, r2
10006eb6:	4071      	eors	r1, r6
10006eb8:	f000 fb38 	bl	1000752c <tu_fifo_set_overwritable>
10006ebc:	4b0f      	ldr	r3, [pc, #60]	; (10006efc <cdcd_control_xfer_cb+0xdc>)
10006ebe:	2b00      	cmp	r3, #0
10006ec0:	d0c9      	beq.n	10006e56 <cdcd_control_xfer_cb+0x36>
10006ec2:	0862      	lsrs	r2, r4, #1
10006ec4:	2000      	movs	r0, #0
10006ec6:	0031      	movs	r1, r6
10006ec8:	402a      	ands	r2, r5
10006eca:	e000      	b.n	10006ece <cdcd_control_xfer_cb+0xae>
10006ecc:	bf00      	nop
10006ece:	2001      	movs	r0, #1
10006ed0:	e7c2      	b.n	10006e58 <cdcd_control_xfer_cb+0x38>
10006ed2:	2307      	movs	r3, #7
10006ed4:	0021      	movs	r1, r4
10006ed6:	0028      	movs	r0, r5
10006ed8:	4a09      	ldr	r2, [pc, #36]	; (10006f00 <cdcd_control_xfer_cb+0xe0>)
10006eda:	f7ff fd23 	bl	10006924 <tud_control_xfer>
10006ede:	2001      	movs	r0, #1
10006ee0:	e7ba      	b.n	10006e58 <cdcd_control_xfer_cb+0x38>
10006ee2:	0021      	movs	r1, r4
10006ee4:	0028      	movs	r0, r5
10006ee6:	f7ff fd05 	bl	100068f4 <tud_control_status>
10006eea:	2001      	movs	r0, #1
10006eec:	e7b4      	b.n	10006e58 <cdcd_control_xfer_cb+0x38>
10006eee:	46c0      	nop			; (mov r8, r8)
10006ef0:	200011d0 	.word	0x200011d0
10006ef4:	00000000 	.word	0x00000000
10006ef8:	10004e79 	.word	0x10004e79
10006efc:	00000000 	.word	0x00000000
10006f00:	200011d6 	.word	0x200011d6

10006f04 <cdcd_xfer_cb>:
10006f04:	b5f8      	push	{r3, r4, r5, r6, r7, lr}
10006f06:	4657      	mov	r7, sl
10006f08:	464e      	mov	r6, r9
10006f0a:	4645      	mov	r5, r8
10006f0c:	46de      	mov	lr, fp
10006f0e:	b5e0      	push	{r5, r6, r7, lr}
10006f10:	4f49      	ldr	r7, [pc, #292]	; (10007038 <cdcd_xfer_cb+0x134>)
10006f12:	4680      	mov	r8, r0
10006f14:	78fa      	ldrb	r2, [r7, #3]
10006f16:	000c      	movs	r4, r1
10006f18:	001e      	movs	r6, r3
10006f1a:	428a      	cmp	r2, r1
10006f1c:	d164      	bne.n	10006fe8 <cdcd_xfer_cb+0xe4>
10006f1e:	b29a      	uxth	r2, r3
10006f20:	2396      	movs	r3, #150	; 0x96
10006f22:	009b      	lsls	r3, r3, #2
10006f24:	18fd      	adds	r5, r7, r3
10006f26:	2310      	movs	r3, #16
10006f28:	469b      	mov	fp, r3
10006f2a:	44bb      	add	fp, r7
10006f2c:	0029      	movs	r1, r5
10006f2e:	4658      	mov	r0, fp
10006f30:	f000 fa56 	bl	100073e0 <tu_fifo_write_n>
10006f34:	4b41      	ldr	r3, [pc, #260]	; (1000703c <cdcd_xfer_cb+0x138>)
10006f36:	46d9      	mov	r9, fp
10006f38:	2b00      	cmp	r3, #0
10006f3a:	d018      	beq.n	10006f6e <cdcd_xfer_cb+0x6a>
10006f3c:	797b      	ldrb	r3, [r7, #5]
10006f3e:	46d9      	mov	r9, fp
10006f40:	2bff      	cmp	r3, #255	; 0xff
10006f42:	d014      	beq.n	10006f6e <cdcd_xfer_cb+0x6a>
10006f44:	2e00      	cmp	r6, #0
10006f46:	d012      	beq.n	10006f6e <cdcd_xfer_cb+0x6a>
10006f48:	19aa      	adds	r2, r5, r6
10006f4a:	4692      	mov	sl, r2
10006f4c:	e003      	b.n	10006f56 <cdcd_xfer_cb+0x52>
10006f4e:	3501      	adds	r5, #1
10006f50:	4555      	cmp	r5, sl
10006f52:	d00c      	beq.n	10006f6e <cdcd_xfer_cb+0x6a>
10006f54:	797b      	ldrb	r3, [r7, #5]
10006f56:	782a      	ldrb	r2, [r5, #0]
10006f58:	429a      	cmp	r2, r3
10006f5a:	d1f8      	bne.n	10006f4e <cdcd_xfer_cb+0x4a>
10006f5c:	4648      	mov	r0, r9
10006f5e:	f000 f91d 	bl	1000719c <tu_fifo_empty>
10006f62:	2800      	cmp	r0, #0
10006f64:	d1f3      	bne.n	10006f4e <cdcd_xfer_cb+0x4a>
10006f66:	7979      	ldrb	r1, [r7, #5]
10006f68:	e000      	b.n	10006f6c <cdcd_xfer_cb+0x68>
10006f6a:	bf00      	nop
10006f6c:	e7ef      	b.n	10006f4e <cdcd_xfer_cb+0x4a>
10006f6e:	4b34      	ldr	r3, [pc, #208]	; (10007040 <cdcd_xfer_cb+0x13c>)
10006f70:	2b00      	cmp	r3, #0
10006f72:	d004      	beq.n	10006f7e <cdcd_xfer_cb+0x7a>
10006f74:	4648      	mov	r0, r9
10006f76:	f000 f911 	bl	1000719c <tu_fifo_empty>
10006f7a:	2800      	cmp	r0, #0
10006f7c:	d052      	beq.n	10007024 <cdcd_xfer_cb+0x120>
10006f7e:	4648      	mov	r0, r9
10006f80:	f000 f914 	bl	100071ac <tu_fifo_remaining>
10006f84:	283f      	cmp	r0, #63	; 0x3f
10006f86:	d834      	bhi.n	10006ff2 <cdcd_xfer_cb+0xee>
10006f88:	464a      	mov	r2, r9
10006f8a:	3a10      	subs	r2, #16
10006f8c:	7893      	ldrb	r3, [r2, #2]
10006f8e:	42a3      	cmp	r3, r4
10006f90:	d007      	beq.n	10006fa2 <cdcd_xfer_cb+0x9e>
10006f92:	2401      	movs	r4, #1
10006f94:	0020      	movs	r0, r4
10006f96:	bcf0      	pop	{r4, r5, r6, r7}
10006f98:	46bb      	mov	fp, r7
10006f9a:	46b2      	mov	sl, r6
10006f9c:	46a9      	mov	r9, r5
10006f9e:	46a0      	mov	r8, r4
10006fa0:	bdf8      	pop	{r3, r4, r5, r6, r7, pc}
10006fa2:	4b28      	ldr	r3, [pc, #160]	; (10007044 <cdcd_xfer_cb+0x140>)
10006fa4:	2b00      	cmp	r3, #0
10006fa6:	d002      	beq.n	10006fae <cdcd_xfer_cb+0xaa>
10006fa8:	2000      	movs	r0, #0
10006faa:	e000      	b.n	10006fae <cdcd_xfer_cb+0xaa>
10006fac:	bf00      	nop
10006fae:	2000      	movs	r0, #0
10006fb0:	f7ff fe0e 	bl	10006bd0 <tud_cdc_n_write_flush>
10006fb4:	2800      	cmp	r0, #0
10006fb6:	d1ec      	bne.n	10006f92 <cdcd_xfer_cb+0x8e>
10006fb8:	4d23      	ldr	r5, [pc, #140]	; (10007048 <cdcd_xfer_cb+0x144>)
10006fba:	0028      	movs	r0, r5
10006fbc:	f000 f8de 	bl	1000717c <tu_fifo_count>
10006fc0:	2800      	cmp	r0, #0
10006fc2:	d1e6      	bne.n	10006f92 <cdcd_xfer_cb+0x8e>
10006fc4:	2e00      	cmp	r6, #0
10006fc6:	d0e4      	beq.n	10006f92 <cdcd_xfer_cb+0x8e>
10006fc8:	06b3      	lsls	r3, r6, #26
10006fca:	d1e2      	bne.n	10006f92 <cdcd_xfer_cb+0x8e>
10006fcc:	3d2c      	subs	r5, #44	; 0x2c
10006fce:	4640      	mov	r0, r8
10006fd0:	78a9      	ldrb	r1, [r5, #2]
10006fd2:	f7ff fc13 	bl	100067fc <usbd_edpt_claim>
10006fd6:	1e04      	subs	r4, r0, #0
10006fd8:	d0db      	beq.n	10006f92 <cdcd_xfer_cb+0x8e>
10006fda:	2300      	movs	r3, #0
10006fdc:	2200      	movs	r2, #0
10006fde:	4640      	mov	r0, r8
10006fe0:	78a9      	ldrb	r1, [r5, #2]
10006fe2:	f7ff fc63 	bl	100068ac <usbd_edpt_xfer>
10006fe6:	e7d5      	b.n	10006f94 <cdcd_xfer_cb+0x90>
10006fe8:	78bb      	ldrb	r3, [r7, #2]
10006fea:	428b      	cmp	r3, r1
10006fec:	d0d9      	beq.n	10006fa2 <cdcd_xfer_cb+0x9e>
10006fee:	2400      	movs	r4, #0
10006ff0:	e7d0      	b.n	10006f94 <cdcd_xfer_cb+0x90>
10006ff2:	464d      	mov	r5, r9
10006ff4:	3d10      	subs	r5, #16
10006ff6:	2000      	movs	r0, #0
10006ff8:	78e9      	ldrb	r1, [r5, #3]
10006ffa:	f7ff fbff 	bl	100067fc <usbd_edpt_claim>
10006ffe:	2800      	cmp	r0, #0
10007000:	d101      	bne.n	10007006 <cdcd_xfer_cb+0x102>
10007002:	78ab      	ldrb	r3, [r5, #2]
10007004:	e7c3      	b.n	10006f8e <cdcd_xfer_cb+0x8a>
10007006:	4648      	mov	r0, r9
10007008:	f000 f8d0 	bl	100071ac <tu_fifo_remaining>
1000700c:	283f      	cmp	r0, #63	; 0x3f
1000700e:	d90c      	bls.n	1000702a <cdcd_xfer_cb+0x126>
10007010:	2292      	movs	r2, #146	; 0x92
10007012:	0092      	lsls	r2, r2, #2
10007014:	2340      	movs	r3, #64	; 0x40
10007016:	2000      	movs	r0, #0
10007018:	78e9      	ldrb	r1, [r5, #3]
1000701a:	444a      	add	r2, r9
1000701c:	f7ff fc46 	bl	100068ac <usbd_edpt_xfer>
10007020:	78ab      	ldrb	r3, [r5, #2]
10007022:	e7b4      	b.n	10006f8e <cdcd_xfer_cb+0x8a>
10007024:	e000      	b.n	10007028 <cdcd_xfer_cb+0x124>
10007026:	bf00      	nop
10007028:	e7a9      	b.n	10006f7e <cdcd_xfer_cb+0x7a>
1000702a:	2000      	movs	r0, #0
1000702c:	78e9      	ldrb	r1, [r5, #3]
1000702e:	f7ff fc17 	bl	10006860 <usbd_edpt_release>
10007032:	78ab      	ldrb	r3, [r5, #2]
10007034:	e7ab      	b.n	10006f8e <cdcd_xfer_cb+0x8a>
10007036:	46c0      	nop			; (mov r8, r8)
10007038:	200011d0 	.word	0x200011d0
	...
10007048:	200011fc 	.word	0x200011fc

1000704c <tusb_init>:
1000704c:	b510      	push	{r4, lr}
1000704e:	2000      	movs	r0, #0
10007050:	f7fe fd84 	bl	10005b5c <tud_init>
10007054:	bd10      	pop	{r4, pc}
10007056:	46c0      	nop			; (mov r8, r8)

10007058 <tusb_inited>:
10007058:	b510      	push	{r4, lr}
1000705a:	f7fe fd79 	bl	10005b50 <tud_inited>
1000705e:	bd10      	pop	{r4, pc}

10007060 <tu_edpt_validate>:
10007060:	2207      	movs	r2, #7
10007062:	b510      	push	{r4, lr}
10007064:	7944      	ldrb	r4, [r0, #5]
10007066:	7903      	ldrb	r3, [r0, #4]
10007068:	4022      	ands	r2, r4
1000706a:	0212      	lsls	r2, r2, #8
1000706c:	431a      	orrs	r2, r3
1000706e:	78c3      	ldrb	r3, [r0, #3]
10007070:	079b      	lsls	r3, r3, #30
10007072:	0f9b      	lsrs	r3, r3, #30
10007074:	2b02      	cmp	r3, #2
10007076:	d005      	beq.n	10007084 <tu_edpt_validate+0x24>
10007078:	2b03      	cmp	r3, #3
1000707a:	d015      	beq.n	100070a8 <tu_edpt_validate+0x48>
1000707c:	2000      	movs	r0, #0
1000707e:	2b01      	cmp	r3, #1
10007080:	d008      	beq.n	10007094 <tu_edpt_validate+0x34>
10007082:	bd10      	pop	{r4, pc}
10007084:	2902      	cmp	r1, #2
10007086:	d01c      	beq.n	100070c2 <tu_edpt_validate+0x62>
10007088:	2000      	movs	r0, #0
1000708a:	2340      	movs	r3, #64	; 0x40
1000708c:	4293      	cmp	r3, r2
1000708e:	4140      	adcs	r0, r0
10007090:	b2c0      	uxtb	r0, r0
10007092:	e7f6      	b.n	10007082 <tu_edpt_validate+0x22>
10007094:	3902      	subs	r1, #2
10007096:	424b      	negs	r3, r1
10007098:	4159      	adcs	r1, r3
1000709a:	4b0d      	ldr	r3, [pc, #52]	; (100070d0 <tu_edpt_validate+0x70>)
1000709c:	469c      	mov	ip, r3
1000709e:	4461      	add	r1, ip
100070a0:	4291      	cmp	r1, r2
100070a2:	4140      	adcs	r0, r0
100070a4:	b2c0      	uxtb	r0, r0
100070a6:	e7ec      	b.n	10007082 <tu_edpt_validate+0x22>
100070a8:	3902      	subs	r1, #2
100070aa:	424b      	negs	r3, r1
100070ac:	4159      	adcs	r1, r3
100070ae:	23f0      	movs	r3, #240	; 0xf0
100070b0:	2000      	movs	r0, #0
100070b2:	4249      	negs	r1, r1
100070b4:	009b      	lsls	r3, r3, #2
100070b6:	4019      	ands	r1, r3
100070b8:	3140      	adds	r1, #64	; 0x40
100070ba:	4291      	cmp	r1, r2
100070bc:	4140      	adcs	r0, r0
100070be:	b2c0      	uxtb	r0, r0
100070c0:	e7df      	b.n	10007082 <tu_edpt_validate+0x22>
100070c2:	4b04      	ldr	r3, [pc, #16]	; (100070d4 <tu_edpt_validate+0x74>)
100070c4:	469c      	mov	ip, r3
100070c6:	4462      	add	r2, ip
100070c8:	4253      	negs	r3, r2
100070ca:	415a      	adcs	r2, r3
100070cc:	b2d0      	uxtb	r0, r2
100070ce:	e7d8      	b.n	10007082 <tu_edpt_validate+0x22>
100070d0:	000003ff 	.word	0x000003ff
100070d4:	fffffe00 	.word	0xfffffe00

100070d8 <tu_edpt_bind_driver>:
100070d8:	b5f0      	push	{r4, r5, r6, r7, lr}
100070da:	2a00      	cmp	r2, #0
100070dc:	d011      	beq.n	10007102 <tu_edpt_bind_driver+0x2a>
100070de:	2400      	movs	r4, #0
100070e0:	277f      	movs	r7, #127	; 0x7f
100070e2:	784d      	ldrb	r5, [r1, #1]
100070e4:	2d05      	cmp	r5, #5
100070e6:	d106      	bne.n	100070f6 <tu_edpt_bind_driver+0x1e>
100070e8:	003d      	movs	r5, r7
100070ea:	788e      	ldrb	r6, [r1, #2]
100070ec:	4035      	ands	r5, r6
100070ee:	006d      	lsls	r5, r5, #1
100070f0:	09f6      	lsrs	r6, r6, #7
100070f2:	1945      	adds	r5, r0, r5
100070f4:	55ab      	strb	r3, [r5, r6]
100070f6:	780d      	ldrb	r5, [r1, #0]
100070f8:	1964      	adds	r4, r4, r5
100070fa:	b2a4      	uxth	r4, r4
100070fc:	1949      	adds	r1, r1, r5
100070fe:	42a2      	cmp	r2, r4
10007100:	d8ef      	bhi.n	100070e2 <tu_edpt_bind_driver+0xa>
10007102:	bdf0      	pop	{r4, r5, r6, r7, pc}

10007104 <tu_fifo_config>:
10007104:	b5f0      	push	{r4, r5, r6, r7, lr}
10007106:	46c6      	mov	lr, r8
10007108:	b500      	push	{lr}
1000710a:	0015      	movs	r5, r2
1000710c:	aa06      	add	r2, sp, #24
1000710e:	001e      	movs	r6, r3
10007110:	7813      	ldrb	r3, [r2, #0]
10007112:	2280      	movs	r2, #128	; 0x80
10007114:	0004      	movs	r4, r0
10007116:	000f      	movs	r7, r1
10007118:	4698      	mov	r8, r3
1000711a:	0212      	lsls	r2, r2, #8
1000711c:	4295      	cmp	r5, r2
1000711e:	d82a      	bhi.n	10007176 <tu_fifo_config+0x72>
10007120:	6940      	ldr	r0, [r0, #20]
10007122:	2800      	cmp	r0, #0
10007124:	d003      	beq.n	1000712e <tu_fifo_config+0x2a>
10007126:	2101      	movs	r1, #1
10007128:	4249      	negs	r1, r1
1000712a:	f004 f82d 	bl	1000b188 <__mutex_enter_timeout_ms_veneer>
1000712e:	69a0      	ldr	r0, [r4, #24]
10007130:	2800      	cmp	r0, #0
10007132:	d003      	beq.n	1000713c <tu_fifo_config+0x38>
10007134:	2101      	movs	r1, #1
10007136:	4249      	negs	r1, r1
10007138:	f004 f826 	bl	1000b188 <__mutex_enter_timeout_ms_veneer>
1000713c:	4643      	mov	r3, r8
1000713e:	80a5      	strh	r5, [r4, #4]
10007140:	006d      	lsls	r5, r5, #1
10007142:	b2ad      	uxth	r5, r5
10007144:	7223      	strb	r3, [r4, #8]
10007146:	1e6b      	subs	r3, r5, #1
10007148:	81a3      	strh	r3, [r4, #12]
1000714a:	2300      	movs	r3, #0
1000714c:	6960      	ldr	r0, [r4, #20]
1000714e:	426d      	negs	r5, r5
10007150:	81e3      	strh	r3, [r4, #14]
10007152:	6027      	str	r7, [r4, #0]
10007154:	80e6      	strh	r6, [r4, #6]
10007156:	8165      	strh	r5, [r4, #10]
10007158:	8223      	strh	r3, [r4, #16]
1000715a:	2800      	cmp	r0, #0
1000715c:	d001      	beq.n	10007162 <tu_fifo_config+0x5e>
1000715e:	f003 fff3 	bl	1000b148 <__mutex_exit_veneer>
10007162:	69a0      	ldr	r0, [r4, #24]
10007164:	2401      	movs	r4, #1
10007166:	2800      	cmp	r0, #0
10007168:	d001      	beq.n	1000716e <tu_fifo_config+0x6a>
1000716a:	f003 ffed 	bl	1000b148 <__mutex_exit_veneer>
1000716e:	0020      	movs	r0, r4
10007170:	bc80      	pop	{r7}
10007172:	46b8      	mov	r8, r7
10007174:	bdf0      	pop	{r4, r5, r6, r7, pc}
10007176:	2400      	movs	r4, #0
10007178:	e7f9      	b.n	1000716e <tu_fifo_config+0x6a>
1000717a:	46c0      	nop			; (mov r8, r8)

1000717c <tu_fifo_count>:
1000717c:	89c1      	ldrh	r1, [r0, #14]
1000717e:	8a02      	ldrh	r2, [r0, #16]
10007180:	1a8b      	subs	r3, r1, r2
10007182:	b29b      	uxth	r3, r3
10007184:	4291      	cmp	r1, r2
10007186:	d202      	bcs.n	1000718e <tu_fifo_count+0x12>
10007188:	8942      	ldrh	r2, [r0, #10]
1000718a:	1a9b      	subs	r3, r3, r2
1000718c:	b29b      	uxth	r3, r3
1000718e:	8882      	ldrh	r2, [r0, #4]
10007190:	1c10      	adds	r0, r2, #0
10007192:	429a      	cmp	r2, r3
10007194:	d900      	bls.n	10007198 <tu_fifo_count+0x1c>
10007196:	1c18      	adds	r0, r3, #0
10007198:	b280      	uxth	r0, r0
1000719a:	4770      	bx	lr

1000719c <tu_fifo_empty>:
1000719c:	0003      	movs	r3, r0
1000719e:	89c0      	ldrh	r0, [r0, #14]
100071a0:	8a1b      	ldrh	r3, [r3, #16]
100071a2:	1ac0      	subs	r0, r0, r3
100071a4:	4243      	negs	r3, r0
100071a6:	4158      	adcs	r0, r3
100071a8:	b2c0      	uxtb	r0, r0
100071aa:	4770      	bx	lr

100071ac <tu_fifo_remaining>:
100071ac:	b510      	push	{r4, lr}
100071ae:	89c4      	ldrh	r4, [r0, #14]
100071b0:	8a01      	ldrh	r1, [r0, #16]
100071b2:	8883      	ldrh	r3, [r0, #4]
100071b4:	1a62      	subs	r2, r4, r1
100071b6:	b292      	uxth	r2, r2
100071b8:	428c      	cmp	r4, r1
100071ba:	d202      	bcs.n	100071c2 <tu_fifo_remaining+0x16>
100071bc:	8940      	ldrh	r0, [r0, #10]
100071be:	1a12      	subs	r2, r2, r0
100071c0:	b292      	uxth	r2, r2
100071c2:	1a98      	subs	r0, r3, r2
100071c4:	b280      	uxth	r0, r0
100071c6:	bd10      	pop	{r4, pc}

100071c8 <tu_fifo_read>:
100071c8:	b570      	push	{r4, r5, r6, lr}
100071ca:	0004      	movs	r4, r0
100071cc:	6980      	ldr	r0, [r0, #24]
100071ce:	000e      	movs	r6, r1
100071d0:	2800      	cmp	r0, #0
100071d2:	d003      	beq.n	100071dc <tu_fifo_read+0x14>
100071d4:	2101      	movs	r1, #1
100071d6:	4249      	negs	r1, r1
100071d8:	f003 ffd6 	bl	1000b188 <__mutex_enter_timeout_ms_veneer>
100071dc:	89e1      	ldrh	r1, [r4, #14]
100071de:	8a22      	ldrh	r2, [r4, #16]
100071e0:	b288      	uxth	r0, r1
100071e2:	1a8d      	subs	r5, r1, r2
100071e4:	b293      	uxth	r3, r2
100071e6:	b2ad      	uxth	r5, r5
100071e8:	4291      	cmp	r1, r2
100071ea:	d202      	bcs.n	100071f2 <tu_fifo_read+0x2a>
100071ec:	8962      	ldrh	r2, [r4, #10]
100071ee:	1aad      	subs	r5, r5, r2
100071f0:	b2ad      	uxth	r5, r5
100071f2:	88a2      	ldrh	r2, [r4, #4]
100071f4:	42aa      	cmp	r2, r5
100071f6:	d207      	bcs.n	10007208 <tu_fifo_read+0x40>
100071f8:	4290      	cmp	r0, r2
100071fa:	d225      	bcs.n	10007248 <tu_fifo_read+0x80>
100071fc:	8961      	ldrh	r1, [r4, #10]
100071fe:	1851      	adds	r1, r2, r1
10007200:	1a41      	subs	r1, r0, r1
10007202:	b289      	uxth	r1, r1
10007204:	0015      	movs	r5, r2
10007206:	8221      	strh	r1, [r4, #16]
10007208:	2d00      	cmp	r5, #0
1000720a:	d102      	bne.n	10007212 <tu_fifo_read+0x4a>
1000720c:	e022      	b.n	10007254 <tu_fifo_read+0x8c>
1000720e:	1a9b      	subs	r3, r3, r2
10007210:	b29b      	uxth	r3, r3
10007212:	429a      	cmp	r2, r3
10007214:	d9fb      	bls.n	1000720e <tu_fifo_read+0x46>
10007216:	88e2      	ldrh	r2, [r4, #6]
10007218:	6821      	ldr	r1, [r4, #0]
1000721a:	4353      	muls	r3, r2
1000721c:	0030      	movs	r0, r6
1000721e:	18c9      	adds	r1, r1, r3
10007220:	f7fd fbba 	bl	10004998 <__wrap___aeabi_memcpy>
10007224:	8a22      	ldrh	r2, [r4, #16]
10007226:	2501      	movs	r5, #1
10007228:	1c53      	adds	r3, r2, #1
1000722a:	b29b      	uxth	r3, r3
1000722c:	429a      	cmp	r2, r3
1000722e:	d914      	bls.n	1000725a <tu_fifo_read+0x92>
10007230:	2300      	movs	r3, #0
10007232:	8962      	ldrh	r2, [r4, #10]
10007234:	189b      	adds	r3, r3, r2
10007236:	b29b      	uxth	r3, r3
10007238:	69a0      	ldr	r0, [r4, #24]
1000723a:	8223      	strh	r3, [r4, #16]
1000723c:	2800      	cmp	r0, #0
1000723e:	d001      	beq.n	10007244 <tu_fifo_read+0x7c>
10007240:	f003 ff82 	bl	1000b148 <__mutex_exit_veneer>
10007244:	0028      	movs	r0, r5
10007246:	bd70      	pop	{r4, r5, r6, pc}
10007248:	1a81      	subs	r1, r0, r2
1000724a:	89a5      	ldrh	r5, [r4, #12]
1000724c:	b289      	uxth	r1, r1
1000724e:	428d      	cmp	r5, r1
10007250:	d2d8      	bcs.n	10007204 <tu_fifo_read+0x3c>
10007252:	e7d3      	b.n	100071fc <tu_fifo_read+0x34>
10007254:	2500      	movs	r5, #0
10007256:	8a23      	ldrh	r3, [r4, #16]
10007258:	b29b      	uxth	r3, r3
1000725a:	89a2      	ldrh	r2, [r4, #12]
1000725c:	429a      	cmp	r2, r3
1000725e:	d2eb      	bcs.n	10007238 <tu_fifo_read+0x70>
10007260:	e7e7      	b.n	10007232 <tu_fifo_read+0x6a>
10007262:	46c0      	nop			; (mov r8, r8)

10007264 <tu_fifo_read_n>:
10007264:	b5f0      	push	{r4, r5, r6, r7, lr}
10007266:	464f      	mov	r7, r9
10007268:	4646      	mov	r6, r8
1000726a:	46d6      	mov	lr, sl
1000726c:	0005      	movs	r5, r0
1000726e:	6980      	ldr	r0, [r0, #24]
10007270:	4688      	mov	r8, r1
10007272:	4691      	mov	r9, r2
10007274:	b5c0      	push	{r6, r7, lr}
10007276:	2800      	cmp	r0, #0
10007278:	d003      	beq.n	10007282 <tu_fifo_read_n+0x1e>
1000727a:	2101      	movs	r1, #1
1000727c:	4249      	negs	r1, r1
1000727e:	f003 ff83 	bl	1000b188 <__mutex_enter_timeout_ms_veneer>
10007282:	89ea      	ldrh	r2, [r5, #14]
10007284:	8a2b      	ldrh	r3, [r5, #16]
10007286:	b291      	uxth	r1, r2
10007288:	1ad6      	subs	r6, r2, r3
1000728a:	b29c      	uxth	r4, r3
1000728c:	b2b6      	uxth	r6, r6
1000728e:	429a      	cmp	r2, r3
10007290:	d202      	bcs.n	10007298 <tu_fifo_read_n+0x34>
10007292:	896b      	ldrh	r3, [r5, #10]
10007294:	1af6      	subs	r6, r6, r3
10007296:	b2b6      	uxth	r6, r6
10007298:	88af      	ldrh	r7, [r5, #4]
1000729a:	42b7      	cmp	r7, r6
1000729c:	d209      	bcs.n	100072b2 <tu_fifo_read_n+0x4e>
1000729e:	42b9      	cmp	r1, r7
100072a0:	d254      	bcs.n	1000734c <tu_fifo_read_n+0xe8>
100072a2:	896b      	ldrh	r3, [r5, #10]
100072a4:	18fb      	adds	r3, r7, r3
100072a6:	1acb      	subs	r3, r1, r3
100072a8:	b29b      	uxth	r3, r3
100072aa:	003e      	movs	r6, r7
100072ac:	822b      	strh	r3, [r5, #16]
100072ae:	8a2c      	ldrh	r4, [r5, #16]
100072b0:	b2a4      	uxth	r4, r4
100072b2:	2e00      	cmp	r6, #0
100072b4:	d050      	beq.n	10007358 <tu_fifo_read_n+0xf4>
100072b6:	464b      	mov	r3, r9
100072b8:	45b1      	cmp	r9, r6
100072ba:	d845      	bhi.n	10007348 <tu_fifo_read_n+0xe4>
100072bc:	b29e      	uxth	r6, r3
100072be:	42a7      	cmp	r7, r4
100072c0:	d803      	bhi.n	100072ca <tu_fifo_read_n+0x66>
100072c2:	1be4      	subs	r4, r4, r7
100072c4:	b2a4      	uxth	r4, r4
100072c6:	42a7      	cmp	r7, r4
100072c8:	d9fb      	bls.n	100072c2 <tu_fifo_read_n+0x5e>
100072ca:	88eb      	ldrh	r3, [r5, #6]
100072cc:	1b38      	subs	r0, r7, r4
100072ce:	0019      	movs	r1, r3
100072d0:	4699      	mov	r9, r3
100072d2:	682b      	ldr	r3, [r5, #0]
100072d4:	4361      	muls	r1, r4
100072d6:	469c      	mov	ip, r3
100072d8:	b280      	uxth	r0, r0
100072da:	4461      	add	r1, ip
100072dc:	4286      	cmp	r6, r0
100072de:	d925      	bls.n	1000732c <tu_fifo_read_n+0xc8>
100072e0:	464b      	mov	r3, r9
100072e2:	4358      	muls	r0, r3
100072e4:	b283      	uxth	r3, r0
100072e6:	001a      	movs	r2, r3
100072e8:	4640      	mov	r0, r8
100072ea:	469a      	mov	sl, r3
100072ec:	f7fd fb54 	bl	10004998 <__wrap___aeabi_memcpy>
100072f0:	464b      	mov	r3, r9
100072f2:	4640      	mov	r0, r8
100072f4:	1bf7      	subs	r7, r6, r7
100072f6:	19e4      	adds	r4, r4, r7
100072f8:	435c      	muls	r4, r3
100072fa:	6829      	ldr	r1, [r5, #0]
100072fc:	b2a2      	uxth	r2, r4
100072fe:	4450      	add	r0, sl
10007300:	f7fd fb4a 	bl	10004998 <__wrap___aeabi_memcpy>
10007304:	8a2a      	ldrh	r2, [r5, #16]
10007306:	1993      	adds	r3, r2, r6
10007308:	b29b      	uxth	r3, r3
1000730a:	429a      	cmp	r2, r3
1000730c:	d918      	bls.n	10007340 <tu_fifo_read_n+0xdc>
1000730e:	896a      	ldrh	r2, [r5, #10]
10007310:	189b      	adds	r3, r3, r2
10007312:	b29b      	uxth	r3, r3
10007314:	69a8      	ldr	r0, [r5, #24]
10007316:	822b      	strh	r3, [r5, #16]
10007318:	2800      	cmp	r0, #0
1000731a:	d001      	beq.n	10007320 <tu_fifo_read_n+0xbc>
1000731c:	f003 ff14 	bl	1000b148 <__mutex_exit_veneer>
10007320:	0030      	movs	r0, r6
10007322:	bce0      	pop	{r5, r6, r7}
10007324:	46ba      	mov	sl, r7
10007326:	46b1      	mov	r9, r6
10007328:	46a8      	mov	r8, r5
1000732a:	bdf0      	pop	{r4, r5, r6, r7, pc}
1000732c:	464a      	mov	r2, r9
1000732e:	4640      	mov	r0, r8
10007330:	4372      	muls	r2, r6
10007332:	f7fd fb31 	bl	10004998 <__wrap___aeabi_memcpy>
10007336:	8a2a      	ldrh	r2, [r5, #16]
10007338:	1993      	adds	r3, r2, r6
1000733a:	b29b      	uxth	r3, r3
1000733c:	429a      	cmp	r2, r3
1000733e:	d8e6      	bhi.n	1000730e <tu_fifo_read_n+0xaa>
10007340:	89aa      	ldrh	r2, [r5, #12]
10007342:	429a      	cmp	r2, r3
10007344:	d2e6      	bcs.n	10007314 <tu_fifo_read_n+0xb0>
10007346:	e7e2      	b.n	1000730e <tu_fifo_read_n+0xaa>
10007348:	1c33      	adds	r3, r6, #0
1000734a:	e7b7      	b.n	100072bc <tu_fifo_read_n+0x58>
1000734c:	1bcb      	subs	r3, r1, r7
1000734e:	89aa      	ldrh	r2, [r5, #12]
10007350:	b29b      	uxth	r3, r3
10007352:	429a      	cmp	r2, r3
10007354:	d2a9      	bcs.n	100072aa <tu_fifo_read_n+0x46>
10007356:	e7a4      	b.n	100072a2 <tu_fifo_read_n+0x3e>
10007358:	8a2b      	ldrh	r3, [r5, #16]
1000735a:	89aa      	ldrh	r2, [r5, #12]
1000735c:	b29b      	uxth	r3, r3
1000735e:	429a      	cmp	r2, r3
10007360:	d2d8      	bcs.n	10007314 <tu_fifo_read_n+0xb0>
10007362:	e7d4      	b.n	1000730e <tu_fifo_read_n+0xaa>

10007364 <tu_fifo_write>:
10007364:	b5f8      	push	{r3, r4, r5, r6, r7, lr}
10007366:	0004      	movs	r4, r0
10007368:	6940      	ldr	r0, [r0, #20]
1000736a:	000e      	movs	r6, r1
1000736c:	2800      	cmp	r0, #0
1000736e:	d003      	beq.n	10007378 <tu_fifo_write+0x14>
10007370:	2101      	movs	r1, #1
10007372:	4249      	negs	r1, r1
10007374:	f003 ff08 	bl	1000b188 <__mutex_enter_timeout_ms_veneer>
10007378:	89e2      	ldrh	r2, [r4, #14]
1000737a:	8a21      	ldrh	r1, [r4, #16]
1000737c:	b295      	uxth	r5, r2
1000737e:	1a53      	subs	r3, r2, r1
10007380:	b29b      	uxth	r3, r3
10007382:	4291      	cmp	r1, r2
10007384:	d902      	bls.n	1000738c <tu_fifo_write+0x28>
10007386:	8962      	ldrh	r2, [r4, #10]
10007388:	1a9b      	subs	r3, r3, r2
1000738a:	b29b      	uxth	r3, r3
1000738c:	88a2      	ldrh	r2, [r4, #4]
1000738e:	429a      	cmp	r2, r3
10007390:	d021      	beq.n	100073d6 <tu_fifo_write+0x72>
10007392:	002b      	movs	r3, r5
10007394:	4295      	cmp	r5, r2
10007396:	d303      	bcc.n	100073a0 <tu_fifo_write+0x3c>
10007398:	1a9b      	subs	r3, r3, r2
1000739a:	b29b      	uxth	r3, r3
1000739c:	429a      	cmp	r2, r3
1000739e:	d9fb      	bls.n	10007398 <tu_fifo_write+0x34>
100073a0:	88e2      	ldrh	r2, [r4, #6]
100073a2:	6821      	ldr	r1, [r4, #0]
100073a4:	4353      	muls	r3, r2
100073a6:	18c8      	adds	r0, r1, r3
100073a8:	0031      	movs	r1, r6
100073aa:	f7fd faf5 	bl	10004998 <__wrap___aeabi_memcpy>
100073ae:	1c6b      	adds	r3, r5, #1
100073b0:	b29b      	uxth	r3, r3
100073b2:	429d      	cmp	r5, r3
100073b4:	d90b      	bls.n	100073ce <tu_fifo_write+0x6a>
100073b6:	8962      	ldrh	r2, [r4, #10]
100073b8:	189b      	adds	r3, r3, r2
100073ba:	b29b      	uxth	r3, r3
100073bc:	6960      	ldr	r0, [r4, #20]
100073be:	2701      	movs	r7, #1
100073c0:	81e3      	strh	r3, [r4, #14]
100073c2:	2800      	cmp	r0, #0
100073c4:	d001      	beq.n	100073ca <tu_fifo_write+0x66>
100073c6:	f003 febf 	bl	1000b148 <__mutex_exit_veneer>
100073ca:	0038      	movs	r0, r7
100073cc:	bdf8      	pop	{r3, r4, r5, r6, r7, pc}
100073ce:	89a2      	ldrh	r2, [r4, #12]
100073d0:	429a      	cmp	r2, r3
100073d2:	d2f3      	bcs.n	100073bc <tu_fifo_write+0x58>
100073d4:	e7ef      	b.n	100073b6 <tu_fifo_write+0x52>
100073d6:	7a27      	ldrb	r7, [r4, #8]
100073d8:	2f00      	cmp	r7, #0
100073da:	d1da      	bne.n	10007392 <tu_fifo_write+0x2e>
100073dc:	e7f5      	b.n	100073ca <tu_fifo_write+0x66>
100073de:	46c0      	nop			; (mov r8, r8)

100073e0 <tu_fifo_write_n>:
100073e0:	b5f8      	push	{r3, r4, r5, r6, r7, lr}
100073e2:	4645      	mov	r5, r8
100073e4:	464e      	mov	r6, r9
100073e6:	46de      	mov	lr, fp
100073e8:	4657      	mov	r7, sl
100073ea:	4688      	mov	r8, r1
100073ec:	b5e0      	push	{r5, r6, r7, lr}
100073ee:	0005      	movs	r5, r0
100073f0:	1e16      	subs	r6, r2, #0
100073f2:	d05a      	beq.n	100074aa <tu_fifo_write_n+0xca>
100073f4:	6940      	ldr	r0, [r0, #20]
100073f6:	2800      	cmp	r0, #0
100073f8:	d003      	beq.n	10007402 <tu_fifo_write_n+0x22>
100073fa:	2101      	movs	r1, #1
100073fc:	4249      	negs	r1, r1
100073fe:	f003 fec3 	bl	1000b188 <__mutex_enter_timeout_ms_veneer>
10007402:	89ef      	ldrh	r7, [r5, #14]
10007404:	7a2b      	ldrb	r3, [r5, #8]
10007406:	8a29      	ldrh	r1, [r5, #16]
10007408:	b2bf      	uxth	r7, r7
1000740a:	b289      	uxth	r1, r1
1000740c:	2b00      	cmp	r3, #0
1000740e:	d13b      	bne.n	10007488 <tu_fifo_write_n+0xa8>
10007410:	1a7a      	subs	r2, r7, r1
10007412:	88ab      	ldrh	r3, [r5, #4]
10007414:	b292      	uxth	r2, r2
10007416:	428f      	cmp	r7, r1
10007418:	d202      	bcs.n	10007420 <tu_fifo_write_n+0x40>
1000741a:	8969      	ldrh	r1, [r5, #10]
1000741c:	1a52      	subs	r2, r2, r1
1000741e:	b292      	uxth	r2, r2
10007420:	1a9a      	subs	r2, r3, r2
10007422:	1c11      	adds	r1, r2, #0
10007424:	b292      	uxth	r2, r2
10007426:	42b2      	cmp	r2, r6
10007428:	d853      	bhi.n	100074d2 <tu_fifo_write_n+0xf2>
1000742a:	88ea      	ldrh	r2, [r5, #6]
1000742c:	b28e      	uxth	r6, r1
1000742e:	4692      	mov	sl, r2
10007430:	1af2      	subs	r2, r6, r3
10007432:	b292      	uxth	r2, r2
10007434:	4691      	mov	r9, r2
10007436:	003c      	movs	r4, r7
10007438:	429f      	cmp	r7, r3
1000743a:	d303      	bcc.n	10007444 <tu_fifo_write_n+0x64>
1000743c:	1ae4      	subs	r4, r4, r3
1000743e:	b2a4      	uxth	r4, r4
10007440:	429c      	cmp	r4, r3
10007442:	d2fb      	bcs.n	1000743c <tu_fifo_write_n+0x5c>
10007444:	4650      	mov	r0, sl
10007446:	682a      	ldr	r2, [r5, #0]
10007448:	4360      	muls	r0, r4
1000744a:	4694      	mov	ip, r2
1000744c:	1b1b      	subs	r3, r3, r4
1000744e:	b29b      	uxth	r3, r3
10007450:	4652      	mov	r2, sl
10007452:	4460      	add	r0, ip
10007454:	429e      	cmp	r6, r3
10007456:	d82a      	bhi.n	100074ae <tu_fifo_write_n+0xce>
10007458:	4641      	mov	r1, r8
1000745a:	4372      	muls	r2, r6
1000745c:	f7fd fa9c 	bl	10004998 <__wrap___aeabi_memcpy>
10007460:	19f3      	adds	r3, r6, r7
10007462:	b29b      	uxth	r3, r3
10007464:	429f      	cmp	r7, r3
10007466:	d81c      	bhi.n	100074a2 <tu_fifo_write_n+0xc2>
10007468:	89aa      	ldrh	r2, [r5, #12]
1000746a:	429a      	cmp	r2, r3
1000746c:	d319      	bcc.n	100074a2 <tu_fifo_write_n+0xc2>
1000746e:	6968      	ldr	r0, [r5, #20]
10007470:	81eb      	strh	r3, [r5, #14]
10007472:	2800      	cmp	r0, #0
10007474:	d001      	beq.n	1000747a <tu_fifo_write_n+0x9a>
10007476:	f003 fe67 	bl	1000b148 <__mutex_exit_veneer>
1000747a:	0030      	movs	r0, r6
1000747c:	bcf0      	pop	{r4, r5, r6, r7}
1000747e:	46bb      	mov	fp, r7
10007480:	46b2      	mov	sl, r6
10007482:	46a9      	mov	r9, r5
10007484:	46a0      	mov	r8, r4
10007486:	bdf8      	pop	{r3, r4, r5, r6, r7, pc}
10007488:	88ea      	ldrh	r2, [r5, #6]
1000748a:	88ab      	ldrh	r3, [r5, #4]
1000748c:	4692      	mov	sl, r2
1000748e:	429e      	cmp	r6, r3
10007490:	d321      	bcc.n	100074d6 <tu_fifo_write_n+0xf6>
10007492:	1af6      	subs	r6, r6, r3
10007494:	4356      	muls	r6, r2
10007496:	2200      	movs	r2, #0
10007498:	44b0      	add	r8, r6
1000749a:	000f      	movs	r7, r1
1000749c:	001e      	movs	r6, r3
1000749e:	4691      	mov	r9, r2
100074a0:	e7c9      	b.n	10007436 <tu_fifo_write_n+0x56>
100074a2:	896a      	ldrh	r2, [r5, #10]
100074a4:	189b      	adds	r3, r3, r2
100074a6:	b29b      	uxth	r3, r3
100074a8:	e7e1      	b.n	1000746e <tu_fifo_write_n+0x8e>
100074aa:	2600      	movs	r6, #0
100074ac:	e7e5      	b.n	1000747a <tu_fifo_write_n+0x9a>
100074ae:	4353      	muls	r3, r2
100074b0:	b29b      	uxth	r3, r3
100074b2:	001a      	movs	r2, r3
100074b4:	4641      	mov	r1, r8
100074b6:	469b      	mov	fp, r3
100074b8:	f7fd fa6e 	bl	10004998 <__wrap___aeabi_memcpy>
100074bc:	0022      	movs	r2, r4
100074be:	4653      	mov	r3, sl
100074c0:	4641      	mov	r1, r8
100074c2:	444a      	add	r2, r9
100074c4:	435a      	muls	r2, r3
100074c6:	6828      	ldr	r0, [r5, #0]
100074c8:	b292      	uxth	r2, r2
100074ca:	4459      	add	r1, fp
100074cc:	f7fd fa64 	bl	10004998 <__wrap___aeabi_memcpy>
100074d0:	e7c6      	b.n	10007460 <tu_fifo_write_n+0x80>
100074d2:	1c31      	adds	r1, r6, #0
100074d4:	e7a9      	b.n	1000742a <tu_fifo_write_n+0x4a>
100074d6:	1af2      	subs	r2, r6, r3
100074d8:	b292      	uxth	r2, r2
100074da:	4691      	mov	r9, r2
100074dc:	e7ab      	b.n	10007436 <tu_fifo_write_n+0x56>
100074de:	46c0      	nop			; (mov r8, r8)

100074e0 <tu_fifo_clear>:
100074e0:	b510      	push	{r4, lr}
100074e2:	0004      	movs	r4, r0
100074e4:	6940      	ldr	r0, [r0, #20]
100074e6:	2800      	cmp	r0, #0
100074e8:	d003      	beq.n	100074f2 <tu_fifo_clear+0x12>
100074ea:	2101      	movs	r1, #1
100074ec:	4249      	negs	r1, r1
100074ee:	f003 fe4b 	bl	1000b188 <__mutex_enter_timeout_ms_veneer>
100074f2:	69a0      	ldr	r0, [r4, #24]
100074f4:	2800      	cmp	r0, #0
100074f6:	d003      	beq.n	10007500 <tu_fifo_clear+0x20>
100074f8:	2101      	movs	r1, #1
100074fa:	4249      	negs	r1, r1
100074fc:	f003 fe44 	bl	1000b188 <__mutex_enter_timeout_ms_veneer>
10007500:	2300      	movs	r3, #0
10007502:	81e3      	strh	r3, [r4, #14]
10007504:	8223      	strh	r3, [r4, #16]
10007506:	88a3      	ldrh	r3, [r4, #4]
10007508:	6960      	ldr	r0, [r4, #20]
1000750a:	005b      	lsls	r3, r3, #1
1000750c:	b29b      	uxth	r3, r3
1000750e:	1e5a      	subs	r2, r3, #1
10007510:	425b      	negs	r3, r3
10007512:	81a2      	strh	r2, [r4, #12]
10007514:	8163      	strh	r3, [r4, #10]
10007516:	2800      	cmp	r0, #0
10007518:	d001      	beq.n	1000751e <tu_fifo_clear+0x3e>
1000751a:	f003 fe15 	bl	1000b148 <__mutex_exit_veneer>
1000751e:	69a0      	ldr	r0, [r4, #24]
10007520:	2800      	cmp	r0, #0
10007522:	d001      	beq.n	10007528 <tu_fifo_clear+0x48>
10007524:	f003 fe10 	bl	1000b148 <__mutex_exit_veneer>
10007528:	2001      	movs	r0, #1
1000752a:	bd10      	pop	{r4, pc}

1000752c <tu_fifo_set_overwritable>:
1000752c:	b570      	push	{r4, r5, r6, lr}
1000752e:	0004      	movs	r4, r0
10007530:	6940      	ldr	r0, [r0, #20]
10007532:	000d      	movs	r5, r1
10007534:	2800      	cmp	r0, #0
10007536:	d003      	beq.n	10007540 <tu_fifo_set_overwritable+0x14>
10007538:	2101      	movs	r1, #1
1000753a:	4249      	negs	r1, r1
1000753c:	f003 fe24 	bl	1000b188 <__mutex_enter_timeout_ms_veneer>
10007540:	69a0      	ldr	r0, [r4, #24]
10007542:	2800      	cmp	r0, #0
10007544:	d003      	beq.n	1000754e <tu_fifo_set_overwritable+0x22>
10007546:	2101      	movs	r1, #1
10007548:	4249      	negs	r1, r1
1000754a:	f003 fe1d 	bl	1000b188 <__mutex_enter_timeout_ms_veneer>
1000754e:	6960      	ldr	r0, [r4, #20]
10007550:	7225      	strb	r5, [r4, #8]
10007552:	2800      	cmp	r0, #0
10007554:	d001      	beq.n	1000755a <tu_fifo_set_overwritable+0x2e>
10007556:	f003 fdf7 	bl	1000b148 <__mutex_exit_veneer>
1000755a:	69a0      	ldr	r0, [r4, #24]
1000755c:	2800      	cmp	r0, #0
1000755e:	d001      	beq.n	10007564 <tu_fifo_set_overwritable+0x38>
10007560:	f003 fdf2 	bl	1000b148 <__mutex_exit_veneer>
10007564:	2001      	movs	r0, #1
10007566:	bd70      	pop	{r4, r5, r6, pc}

10007568 <_retrieve_unique_id_on_boot>:
10007568:	b510      	push	{r4, lr}
1000756a:	4802      	ldr	r0, [pc, #8]	; (10007574 <_retrieve_unique_id_on_boot+0xc>)
1000756c:	f000 f8d8 	bl	10007720 <flash_get_unique_id>
10007570:	bd10      	pop	{r4, pc}
10007572:	46c0      	nop			; (mov r8, r8)
10007574:	20001bfc 	.word	0x20001bfc

10007578 <pico_get_unique_board_id_string>:
10007578:	b530      	push	{r4, r5, lr}
1000757a:	1e4b      	subs	r3, r1, #1
1000757c:	2901      	cmp	r1, #1
1000757e:	d100      	bne.n	10007582 <pico_get_unique_board_id_string+0xa>
10007580:	e0a7      	b.n	100076d2 <pico_get_unique_board_id_string+0x15a>
10007582:	4a66      	ldr	r2, [pc, #408]	; (1000771c <pico_get_unique_board_id_string+0x1a4>)
10007584:	7811      	ldrb	r1, [r2, #0]
10007586:	110d      	asrs	r5, r1, #4
10007588:	002c      	movs	r4, r5
1000758a:	3430      	adds	r4, #48	; 0x30
1000758c:	299f      	cmp	r1, #159	; 0x9f
1000758e:	d900      	bls.n	10007592 <pico_get_unique_board_id_string+0x1a>
10007590:	e0a2      	b.n	100076d8 <pico_get_unique_board_id_string+0x160>
10007592:	7004      	strb	r4, [r0, #0]
10007594:	2b01      	cmp	r3, #1
10007596:	d100      	bne.n	1000759a <pico_get_unique_board_id_string+0x22>
10007598:	e0be      	b.n	10007718 <pico_get_unique_board_id_string+0x1a0>
1000759a:	210f      	movs	r1, #15
1000759c:	7814      	ldrb	r4, [r2, #0]
1000759e:	4021      	ands	r1, r4
100075a0:	000c      	movs	r4, r1
100075a2:	3430      	adds	r4, #48	; 0x30
100075a4:	2909      	cmp	r1, #9
100075a6:	dd00      	ble.n	100075aa <pico_get_unique_board_id_string+0x32>
100075a8:	e098      	b.n	100076dc <pico_get_unique_board_id_string+0x164>
100075aa:	7044      	strb	r4, [r0, #1]
100075ac:	2b02      	cmp	r3, #2
100075ae:	d100      	bne.n	100075b2 <pico_get_unique_board_id_string+0x3a>
100075b0:	e0b2      	b.n	10007718 <pico_get_unique_board_id_string+0x1a0>
100075b2:	7854      	ldrb	r4, [r2, #1]
100075b4:	1125      	asrs	r5, r4, #4
100075b6:	0029      	movs	r1, r5
100075b8:	3130      	adds	r1, #48	; 0x30
100075ba:	2c9f      	cmp	r4, #159	; 0x9f
100075bc:	d900      	bls.n	100075c0 <pico_get_unique_board_id_string+0x48>
100075be:	e090      	b.n	100076e2 <pico_get_unique_board_id_string+0x16a>
100075c0:	7081      	strb	r1, [r0, #2]
100075c2:	2b03      	cmp	r3, #3
100075c4:	d100      	bne.n	100075c8 <pico_get_unique_board_id_string+0x50>
100075c6:	e0a7      	b.n	10007718 <pico_get_unique_board_id_string+0x1a0>
100075c8:	210f      	movs	r1, #15
100075ca:	4021      	ands	r1, r4
100075cc:	000c      	movs	r4, r1
100075ce:	3430      	adds	r4, #48	; 0x30
100075d0:	2909      	cmp	r1, #9
100075d2:	dd00      	ble.n	100075d6 <pico_get_unique_board_id_string+0x5e>
100075d4:	e087      	b.n	100076e6 <pico_get_unique_board_id_string+0x16e>
100075d6:	70c4      	strb	r4, [r0, #3]
100075d8:	2b04      	cmp	r3, #4
100075da:	d100      	bne.n	100075de <pico_get_unique_board_id_string+0x66>
100075dc:	e09c      	b.n	10007718 <pico_get_unique_board_id_string+0x1a0>
100075de:	7894      	ldrb	r4, [r2, #2]
100075e0:	1125      	asrs	r5, r4, #4
100075e2:	0029      	movs	r1, r5
100075e4:	3130      	adds	r1, #48	; 0x30
100075e6:	2c9f      	cmp	r4, #159	; 0x9f
100075e8:	d900      	bls.n	100075ec <pico_get_unique_board_id_string+0x74>
100075ea:	e07f      	b.n	100076ec <pico_get_unique_board_id_string+0x174>
100075ec:	7101      	strb	r1, [r0, #4]
100075ee:	2b05      	cmp	r3, #5
100075f0:	d100      	bne.n	100075f4 <pico_get_unique_board_id_string+0x7c>
100075f2:	e091      	b.n	10007718 <pico_get_unique_board_id_string+0x1a0>
100075f4:	210f      	movs	r1, #15
100075f6:	4021      	ands	r1, r4
100075f8:	000c      	movs	r4, r1
100075fa:	3430      	adds	r4, #48	; 0x30
100075fc:	2909      	cmp	r1, #9
100075fe:	dd00      	ble.n	10007602 <pico_get_unique_board_id_string+0x8a>
10007600:	e076      	b.n	100076f0 <pico_get_unique_board_id_string+0x178>
10007602:	7144      	strb	r4, [r0, #5]
10007604:	2b06      	cmp	r3, #6
10007606:	d100      	bne.n	1000760a <pico_get_unique_board_id_string+0x92>
10007608:	e086      	b.n	10007718 <pico_get_unique_board_id_string+0x1a0>
1000760a:	78d4      	ldrb	r4, [r2, #3]
1000760c:	1125      	asrs	r5, r4, #4
1000760e:	0029      	movs	r1, r5
10007610:	3130      	adds	r1, #48	; 0x30
10007612:	2c9f      	cmp	r4, #159	; 0x9f
10007614:	d900      	bls.n	10007618 <pico_get_unique_board_id_string+0xa0>
10007616:	e06e      	b.n	100076f6 <pico_get_unique_board_id_string+0x17e>
10007618:	7181      	strb	r1, [r0, #6]
1000761a:	2b07      	cmp	r3, #7
1000761c:	d100      	bne.n	10007620 <pico_get_unique_board_id_string+0xa8>
1000761e:	e07b      	b.n	10007718 <pico_get_unique_board_id_string+0x1a0>
10007620:	210f      	movs	r1, #15
10007622:	4021      	ands	r1, r4
10007624:	000c      	movs	r4, r1
10007626:	3430      	adds	r4, #48	; 0x30
10007628:	2909      	cmp	r1, #9
1000762a:	dc66      	bgt.n	100076fa <pico_get_unique_board_id_string+0x182>
1000762c:	71c4      	strb	r4, [r0, #7]
1000762e:	2b08      	cmp	r3, #8
10007630:	d100      	bne.n	10007634 <pico_get_unique_board_id_string+0xbc>
10007632:	e071      	b.n	10007718 <pico_get_unique_board_id_string+0x1a0>
10007634:	7914      	ldrb	r4, [r2, #4]
10007636:	1125      	asrs	r5, r4, #4
10007638:	0029      	movs	r1, r5
1000763a:	3130      	adds	r1, #48	; 0x30
1000763c:	2c9f      	cmp	r4, #159	; 0x9f
1000763e:	d85f      	bhi.n	10007700 <pico_get_unique_board_id_string+0x188>
10007640:	7201      	strb	r1, [r0, #8]
10007642:	2b09      	cmp	r3, #9
10007644:	d068      	beq.n	10007718 <pico_get_unique_board_id_string+0x1a0>
10007646:	210f      	movs	r1, #15
10007648:	4021      	ands	r1, r4
1000764a:	000c      	movs	r4, r1
1000764c:	3430      	adds	r4, #48	; 0x30
1000764e:	2909      	cmp	r1, #9
10007650:	dc58      	bgt.n	10007704 <pico_get_unique_board_id_string+0x18c>
10007652:	7244      	strb	r4, [r0, #9]
10007654:	2b0a      	cmp	r3, #10
10007656:	d05f      	beq.n	10007718 <pico_get_unique_board_id_string+0x1a0>
10007658:	7954      	ldrb	r4, [r2, #5]
1000765a:	1125      	asrs	r5, r4, #4
1000765c:	0029      	movs	r1, r5
1000765e:	3130      	adds	r1, #48	; 0x30
10007660:	2c9f      	cmp	r4, #159	; 0x9f
10007662:	d852      	bhi.n	1000770a <pico_get_unique_board_id_string+0x192>
10007664:	7281      	strb	r1, [r0, #10]
10007666:	2b0b      	cmp	r3, #11
10007668:	d056      	beq.n	10007718 <pico_get_unique_board_id_string+0x1a0>
1000766a:	210f      	movs	r1, #15
1000766c:	4021      	ands	r1, r4
1000766e:	000c      	movs	r4, r1
10007670:	3430      	adds	r4, #48	; 0x30
10007672:	2909      	cmp	r1, #9
10007674:	dc4b      	bgt.n	1000770e <pico_get_unique_board_id_string+0x196>
10007676:	72c4      	strb	r4, [r0, #11]
10007678:	2b0c      	cmp	r3, #12
1000767a:	d04d      	beq.n	10007718 <pico_get_unique_board_id_string+0x1a0>
1000767c:	7994      	ldrb	r4, [r2, #6]
1000767e:	1125      	asrs	r5, r4, #4
10007680:	0029      	movs	r1, r5
10007682:	3130      	adds	r1, #48	; 0x30
10007684:	2c9f      	cmp	r4, #159	; 0x9f
10007686:	d900      	bls.n	1000768a <pico_get_unique_board_id_string+0x112>
10007688:	3107      	adds	r1, #7
1000768a:	7301      	strb	r1, [r0, #12]
1000768c:	2b0d      	cmp	r3, #13
1000768e:	d043      	beq.n	10007718 <pico_get_unique_board_id_string+0x1a0>
10007690:	210f      	movs	r1, #15
10007692:	4021      	ands	r1, r4
10007694:	000c      	movs	r4, r1
10007696:	3430      	adds	r4, #48	; 0x30
10007698:	2909      	cmp	r1, #9
1000769a:	dd01      	ble.n	100076a0 <pico_get_unique_board_id_string+0x128>
1000769c:	3137      	adds	r1, #55	; 0x37
1000769e:	000c      	movs	r4, r1
100076a0:	7344      	strb	r4, [r0, #13]
100076a2:	2b0e      	cmp	r3, #14
100076a4:	d038      	beq.n	10007718 <pico_get_unique_board_id_string+0x1a0>
100076a6:	79d1      	ldrb	r1, [r2, #7]
100076a8:	110c      	asrs	r4, r1, #4
100076aa:	0022      	movs	r2, r4
100076ac:	3230      	adds	r2, #48	; 0x30
100076ae:	299f      	cmp	r1, #159	; 0x9f
100076b0:	d900      	bls.n	100076b4 <pico_get_unique_board_id_string+0x13c>
100076b2:	3207      	adds	r2, #7
100076b4:	7382      	strb	r2, [r0, #14]
100076b6:	2b0f      	cmp	r3, #15
100076b8:	d02e      	beq.n	10007718 <pico_get_unique_board_id_string+0x1a0>
100076ba:	220f      	movs	r2, #15
100076bc:	400a      	ands	r2, r1
100076be:	0011      	movs	r1, r2
100076c0:	3137      	adds	r1, #55	; 0x37
100076c2:	2a09      	cmp	r2, #9
100076c4:	dc01      	bgt.n	100076ca <pico_get_unique_board_id_string+0x152>
100076c6:	3230      	adds	r2, #48	; 0x30
100076c8:	0011      	movs	r1, r2
100076ca:	73c1      	strb	r1, [r0, #15]
100076cc:	2b10      	cmp	r3, #16
100076ce:	d023      	beq.n	10007718 <pico_get_unique_board_id_string+0x1a0>
100076d0:	3010      	adds	r0, #16
100076d2:	2300      	movs	r3, #0
100076d4:	7003      	strb	r3, [r0, #0]
100076d6:	bd30      	pop	{r4, r5, pc}
100076d8:	3407      	adds	r4, #7
100076da:	e75a      	b.n	10007592 <pico_get_unique_board_id_string+0x1a>
100076dc:	3137      	adds	r1, #55	; 0x37
100076de:	000c      	movs	r4, r1
100076e0:	e763      	b.n	100075aa <pico_get_unique_board_id_string+0x32>
100076e2:	3107      	adds	r1, #7
100076e4:	e76c      	b.n	100075c0 <pico_get_unique_board_id_string+0x48>
100076e6:	3137      	adds	r1, #55	; 0x37
100076e8:	000c      	movs	r4, r1
100076ea:	e774      	b.n	100075d6 <pico_get_unique_board_id_string+0x5e>
100076ec:	3107      	adds	r1, #7
100076ee:	e77d      	b.n	100075ec <pico_get_unique_board_id_string+0x74>
100076f0:	3137      	adds	r1, #55	; 0x37
100076f2:	000c      	movs	r4, r1
100076f4:	e785      	b.n	10007602 <pico_get_unique_board_id_string+0x8a>
100076f6:	3107      	adds	r1, #7
100076f8:	e78e      	b.n	10007618 <pico_get_unique_board_id_string+0xa0>
100076fa:	3137      	adds	r1, #55	; 0x37
100076fc:	000c      	movs	r4, r1
100076fe:	e795      	b.n	1000762c <pico_get_unique_board_id_string+0xb4>
10007700:	3107      	adds	r1, #7
10007702:	e79d      	b.n	10007640 <pico_get_unique_board_id_string+0xc8>
10007704:	3137      	adds	r1, #55	; 0x37
10007706:	000c      	movs	r4, r1
10007708:	e7a3      	b.n	10007652 <pico_get_unique_board_id_string+0xda>
1000770a:	3107      	adds	r1, #7
1000770c:	e7aa      	b.n	10007664 <pico_get_unique_board_id_string+0xec>
1000770e:	3137      	adds	r1, #55	; 0x37
10007710:	000c      	movs	r4, r1
10007712:	72c4      	strb	r4, [r0, #11]
10007714:	2b0c      	cmp	r3, #12
10007716:	d1b1      	bne.n	1000767c <pico_get_unique_board_id_string+0x104>
10007718:	18c0      	adds	r0, r0, r3
1000771a:	e7da      	b.n	100076d2 <pico_get_unique_board_id_string+0x15a>
1000771c:	20001bfc 	.word	0x20001bfc

10007720 <flash_get_unique_id>:
10007720:	b530      	push	{r4, r5, lr}
10007722:	2500      	movs	r5, #0
10007724:	b089      	sub	sp, #36	; 0x24
10007726:	0004      	movs	r4, r0
10007728:	2209      	movs	r2, #9
1000772a:	2100      	movs	r1, #0
1000772c:	a801      	add	r0, sp, #4
1000772e:	9500      	str	r5, [sp, #0]
10007730:	f7fd f92c 	bl	1000498c <__wrap_memset>
10007734:	2209      	movs	r2, #9
10007736:	2100      	movs	r1, #0
10007738:	a805      	add	r0, sp, #20
1000773a:	9504      	str	r5, [sp, #16]
1000773c:	f7fd f926 	bl	1000498c <__wrap_memset>
10007740:	234b      	movs	r3, #75	; 0x4b
10007742:	466a      	mov	r2, sp
10007744:	4668      	mov	r0, sp
10007746:	7013      	strb	r3, [r2, #0]
10007748:	a904      	add	r1, sp, #16
1000774a:	220d      	movs	r2, #13
1000774c:	f003 fcf4 	bl	1000b138 <__flash_do_cmd_veneer>
10007750:	2115      	movs	r1, #21
10007752:	2208      	movs	r2, #8
10007754:	0020      	movs	r0, r4
10007756:	4469      	add	r1, sp
10007758:	f7fd f91e 	bl	10004998 <__wrap___aeabi_memcpy>
1000775c:	b009      	add	sp, #36	; 0x24
1000775e:	bd30      	pop	{r4, r5, pc}

10007760 <i2c_set_baudrate>:
10007760:	b5f8      	push	{r3, r4, r5, r6, r7, lr}
10007762:	46de      	mov	lr, fp
10007764:	4657      	mov	r7, sl
10007766:	464e      	mov	r6, r9
10007768:	4645      	mov	r5, r8
1000776a:	4683      	mov	fp, r0
1000776c:	b5e0      	push	{r5, r6, r7, lr}
1000776e:	2005      	movs	r0, #5
10007770:	000c      	movs	r4, r1
10007772:	f7fa fd6f 	bl	10002254 <clock_get_hz>
10007776:	0006      	movs	r6, r0
10007778:	0860      	lsrs	r0, r4, #1
1000777a:	0021      	movs	r1, r4
1000777c:	1980      	adds	r0, r0, r6
1000777e:	f7fc f973 	bl	10003a68 <__wrap___aeabi_uidiv>
10007782:	0043      	lsls	r3, r0, #1
10007784:	4698      	mov	r8, r3
10007786:	4480      	add	r8, r0
10007788:	0007      	movs	r7, r0
1000778a:	2105      	movs	r1, #5
1000778c:	4640      	mov	r0, r8
1000778e:	f7fc f96b 	bl	10003a68 <__wrap___aeabi_uidiv>
10007792:	1a3b      	subs	r3, r7, r0
10007794:	469a      	mov	sl, r3
10007796:	4b20      	ldr	r3, [pc, #128]	; (10007818 <i2c_set_baudrate+0xb8>)
10007798:	4681      	mov	r9, r0
1000779a:	0070      	lsls	r0, r6, #1
1000779c:	1980      	adds	r0, r0, r6
1000779e:	429c      	cmp	r4, r3
100077a0:	d834      	bhi.n	1000780c <i2c_set_baudrate+0xac>
100077a2:	491e      	ldr	r1, [pc, #120]	; (1000781c <i2c_set_baudrate+0xbc>)
100077a4:	f7fc f960 	bl	10003a68 <__wrap___aeabi_uidiv>
100077a8:	1c45      	adds	r5, r0, #1
100077aa:	465b      	mov	r3, fp
100077ac:	681c      	ldr	r4, [r3, #0]
100077ae:	2300      	movs	r3, #0
100077b0:	66e3      	str	r3, [r4, #108]	; 0x6c
100077b2:	6822      	ldr	r2, [r4, #0]
100077b4:	3304      	adds	r3, #4
100077b6:	4053      	eors	r3, r2
100077b8:	2206      	movs	r2, #6
100077ba:	401a      	ands	r2, r3
100077bc:	2380      	movs	r3, #128	; 0x80
100077be:	015b      	lsls	r3, r3, #5
100077c0:	4323      	orrs	r3, r4
100077c2:	601a      	str	r2, [r3, #0]
100077c4:	4653      	mov	r3, sl
100077c6:	61e3      	str	r3, [r4, #28]
100077c8:	464b      	mov	r3, r9
100077ca:	6223      	str	r3, [r4, #32]
100077cc:	4643      	mov	r3, r8
100077ce:	2001      	movs	r0, #1
100077d0:	2b4f      	cmp	r3, #79	; 0x4f
100077d2:	d903      	bls.n	100077dc <i2c_set_baudrate+0x7c>
100077d4:	2150      	movs	r1, #80	; 0x50
100077d6:	4640      	mov	r0, r8
100077d8:	f7fc f946 	bl	10003a68 <__wrap___aeabi_uidiv>
100077dc:	23a0      	movs	r3, #160	; 0xa0
100077de:	0022      	movs	r2, r4
100077e0:	50e0      	str	r0, [r4, r3]
100077e2:	2380      	movs	r3, #128	; 0x80
100077e4:	6fe0      	ldr	r0, [r4, #124]	; 0x7c
100077e6:	327c      	adds	r2, #124	; 0x7c
100077e8:	4045      	eors	r5, r0
100077ea:	042d      	lsls	r5, r5, #16
100077ec:	015b      	lsls	r3, r3, #5
100077ee:	4313      	orrs	r3, r2
100077f0:	0c2d      	lsrs	r5, r5, #16
100077f2:	601d      	str	r5, [r3, #0]
100077f4:	2301      	movs	r3, #1
100077f6:	0039      	movs	r1, r7
100077f8:	0030      	movs	r0, r6
100077fa:	66e3      	str	r3, [r4, #108]	; 0x6c
100077fc:	f7fc f934 	bl	10003a68 <__wrap___aeabi_uidiv>
10007800:	bcf0      	pop	{r4, r5, r6, r7}
10007802:	46bb      	mov	fp, r7
10007804:	46b2      	mov	sl, r6
10007806:	46a9      	mov	r9, r5
10007808:	46a0      	mov	r8, r4
1000780a:	bdf8      	pop	{r3, r4, r5, r6, r7, pc}
1000780c:	4904      	ldr	r1, [pc, #16]	; (10007820 <i2c_set_baudrate+0xc0>)
1000780e:	f7fc f92b 	bl	10003a68 <__wrap___aeabi_uidiv>
10007812:	1c45      	adds	r5, r0, #1
10007814:	e7c9      	b.n	100077aa <i2c_set_baudrate+0x4a>
10007816:	46c0      	nop			; (mov r8, r8)
10007818:	000f423f 	.word	0x000f423f
1000781c:	00989680 	.word	0x00989680
10007820:	017d7840 	.word	0x017d7840

10007824 <i2c_init>:
10007824:	4a10      	ldr	r2, [pc, #64]	; (10007868 <i2c_init+0x44>)
10007826:	b570      	push	{r4, r5, r6, lr}
10007828:	1a82      	subs	r2, r0, r2
1000782a:	4253      	negs	r3, r2
1000782c:	415a      	adcs	r2, r3
1000782e:	2307      	movs	r3, #7
10007830:	4252      	negs	r2, r2
10007832:	439a      	bics	r2, r3
10007834:	4b0d      	ldr	r3, [pc, #52]	; (1000786c <i2c_init+0x48>)
10007836:	3210      	adds	r2, #16
10007838:	601a      	str	r2, [r3, #0]
1000783a:	4b0d      	ldr	r3, [pc, #52]	; (10007870 <i2c_init+0x4c>)
1000783c:	4c0d      	ldr	r4, [pc, #52]	; (10007874 <i2c_init+0x50>)
1000783e:	601a      	str	r2, [r3, #0]
10007840:	0015      	movs	r5, r2
10007842:	68a3      	ldr	r3, [r4, #8]
10007844:	439d      	bics	r5, r3
10007846:	1e2b      	subs	r3, r5, #0
10007848:	d1fa      	bne.n	10007840 <i2c_init+0x1c>
1000784a:	2466      	movs	r4, #102	; 0x66
1000784c:	6802      	ldr	r2, [r0, #0]
1000784e:	34ff      	adds	r4, #255	; 0xff
10007850:	7105      	strb	r5, [r0, #4]
10007852:	66d5      	str	r5, [r2, #108]	; 0x6c
10007854:	6014      	str	r4, [r2, #0]
10007856:	3c63      	subs	r4, #99	; 0x63
10007858:	3388      	adds	r3, #136	; 0x88
1000785a:	3cff      	subs	r4, #255	; 0xff
1000785c:	63d5      	str	r5, [r2, #60]	; 0x3c
1000785e:	6395      	str	r5, [r2, #56]	; 0x38
10007860:	50d4      	str	r4, [r2, r3]
10007862:	f7ff ff7d 	bl	10007760 <i2c_set_baudrate>
10007866:	bd70      	pop	{r4, r5, r6, pc}
10007868:	20000470 	.word	0x20000470
1000786c:	4000e000 	.word	0x4000e000
10007870:	4000f000 	.word	0x4000f000
10007874:	4000c000 	.word	0x4000c000

10007878 <i2c_write_blocking>:
10007878:	b5f0      	push	{r4, r5, r6, r7, lr}
1000787a:	4657      	mov	r7, sl
1000787c:	464e      	mov	r6, r9
1000787e:	4645      	mov	r5, r8
10007880:	46de      	mov	lr, fp
10007882:	4690      	mov	r8, r2
10007884:	2200      	movs	r2, #0
10007886:	b5e0      	push	{r5, r6, r7, lr}
10007888:	b083      	sub	sp, #12
1000788a:	001e      	movs	r6, r3
1000788c:	ab0c      	add	r3, sp, #48	; 0x30
1000788e:	781b      	ldrb	r3, [r3, #0]
10007890:	4684      	mov	ip, r0
10007892:	469a      	mov	sl, r3
10007894:	6803      	ldr	r3, [r0, #0]
10007896:	66da      	str	r2, [r3, #108]	; 0x6c
10007898:	3201      	adds	r2, #1
1000789a:	6059      	str	r1, [r3, #4]
1000789c:	66da      	str	r2, [r3, #108]	; 0x6c
1000789e:	2e00      	cmp	r6, #0
100078a0:	dd4f      	ble.n	10007942 <i2c_write_blocking+0xca>
100078a2:	4651      	mov	r1, sl
100078a4:	404a      	eors	r2, r1
100078a6:	0252      	lsls	r2, r2, #9
100078a8:	9201      	str	r2, [sp, #4]
100078aa:	2280      	movs	r2, #128	; 0x80
100078ac:	4691      	mov	r9, r2
100078ae:	0032      	movs	r2, r6
100078b0:	2580      	movs	r5, #128	; 0x80
100078b2:	1e77      	subs	r7, r6, #1
100078b4:	2000      	movs	r0, #0
100078b6:	4646      	mov	r6, r8
100078b8:	2110      	movs	r1, #16
100078ba:	4690      	mov	r8, r2
100078bc:	00ad      	lsls	r5, r5, #2
100078be:	2400      	movs	r4, #0
100078c0:	2800      	cmp	r0, #0
100078c2:	d104      	bne.n	100078ce <i2c_write_blocking+0x56>
100078c4:	4662      	mov	r2, ip
100078c6:	7914      	ldrb	r4, [r2, #4]
100078c8:	1e62      	subs	r2, r4, #1
100078ca:	4194      	sbcs	r4, r2
100078cc:	02a4      	lsls	r4, r4, #10
100078ce:	2200      	movs	r2, #0
100078d0:	4693      	mov	fp, r2
100078d2:	42b8      	cmp	r0, r7
100078d4:	d01a      	beq.n	1000790c <i2c_write_blocking+0x94>
100078d6:	5c32      	ldrb	r2, [r6, r0]
100078d8:	4322      	orrs	r2, r4
100078da:	465c      	mov	r4, fp
100078dc:	4322      	orrs	r2, r4
100078de:	611a      	str	r2, [r3, #16]
100078e0:	6b5a      	ldr	r2, [r3, #52]	; 0x34
100078e2:	4211      	tst	r1, r2
100078e4:	d0fc      	beq.n	100078e0 <i2c_write_blocking+0x68>
100078e6:	464a      	mov	r2, r9
100078e8:	589c      	ldr	r4, [r3, r2]
100078ea:	2c00      	cmp	r4, #0
100078ec:	d111      	bne.n	10007912 <i2c_write_blocking+0x9a>
100078ee:	42b8      	cmp	r0, r7
100078f0:	d022      	beq.n	10007938 <i2c_write_blocking+0xc0>
100078f2:	3001      	adds	r0, #1
100078f4:	4580      	cmp	r8, r0
100078f6:	d1e2      	bne.n	100078be <i2c_write_blocking+0x46>
100078f8:	4663      	mov	r3, ip
100078fa:	4652      	mov	r2, sl
100078fc:	711a      	strb	r2, [r3, #4]
100078fe:	b003      	add	sp, #12
10007900:	bcf0      	pop	{r4, r5, r6, r7}
10007902:	46bb      	mov	fp, r7
10007904:	46b2      	mov	sl, r6
10007906:	46a9      	mov	r9, r5
10007908:	46a0      	mov	r8, r4
1000790a:	bdf0      	pop	{r4, r5, r6, r7, pc}
1000790c:	9a01      	ldr	r2, [sp, #4]
1000790e:	4693      	mov	fp, r2
10007910:	e7e1      	b.n	100078d6 <i2c_write_blocking+0x5e>
10007912:	6d5a      	ldr	r2, [r3, #84]	; 0x54
10007914:	2201      	movs	r2, #1
10007916:	4693      	mov	fp, r2
10007918:	6b5a      	ldr	r2, [r3, #52]	; 0x34
1000791a:	422a      	tst	r2, r5
1000791c:	d0fc      	beq.n	10007918 <i2c_write_blocking+0xa0>
1000791e:	6e1a      	ldr	r2, [r3, #96]	; 0x60
10007920:	465a      	mov	r2, fp
10007922:	2a00      	cmp	r2, #0
10007924:	d0e5      	beq.n	100078f2 <i2c_write_blocking+0x7a>
10007926:	2c00      	cmp	r4, #0
10007928:	d003      	beq.n	10007932 <i2c_write_blocking+0xba>
1000792a:	07e3      	lsls	r3, r4, #31
1000792c:	d401      	bmi.n	10007932 <i2c_write_blocking+0xba>
1000792e:	0723      	lsls	r3, r4, #28
10007930:	d4e2      	bmi.n	100078f8 <i2c_write_blocking+0x80>
10007932:	2002      	movs	r0, #2
10007934:	4240      	negs	r0, r0
10007936:	e7df      	b.n	100078f8 <i2c_write_blocking+0x80>
10007938:	4652      	mov	r2, sl
1000793a:	2a00      	cmp	r2, #0
1000793c:	d1d9      	bne.n	100078f2 <i2c_write_blocking+0x7a>
1000793e:	46d3      	mov	fp, sl
10007940:	e7ea      	b.n	10007918 <i2c_write_blocking+0xa0>
10007942:	2000      	movs	r0, #0
10007944:	e7d8      	b.n	100078f8 <i2c_write_blocking+0x80>
10007946:	46c0      	nop			; (mov r8, r8)

10007948 <i2c_read_blocking>:
10007948:	b5f0      	push	{r4, r5, r6, r7, lr}
1000794a:	4645      	mov	r5, r8
1000794c:	46de      	mov	lr, fp
1000794e:	4657      	mov	r7, sl
10007950:	464e      	mov	r6, r9
10007952:	4693      	mov	fp, r2
10007954:	2200      	movs	r2, #0
10007956:	b5e0      	push	{r5, r6, r7, lr}
10007958:	001d      	movs	r5, r3
1000795a:	ab09      	add	r3, sp, #36	; 0x24
1000795c:	781b      	ldrb	r3, [r3, #0]
1000795e:	0004      	movs	r4, r0
10007960:	4698      	mov	r8, r3
10007962:	6803      	ldr	r3, [r0, #0]
10007964:	66da      	str	r2, [r3, #108]	; 0x6c
10007966:	3201      	adds	r2, #1
10007968:	6059      	str	r1, [r3, #4]
1000796a:	66da      	str	r2, [r3, #108]	; 0x6c
1000796c:	2d00      	cmp	r5, #0
1000796e:	dd3e      	ble.n	100079ee <i2c_read_blocking+0xa6>
10007970:	4641      	mov	r1, r8
10007972:	404a      	eors	r2, r1
10007974:	0252      	lsls	r2, r2, #9
10007976:	4694      	mov	ip, r2
10007978:	2280      	movs	r2, #128	; 0x80
1000797a:	2000      	movs	r0, #0
1000797c:	0052      	lsls	r2, r2, #1
1000797e:	4691      	mov	r9, r2
10007980:	1e6f      	subs	r7, r5, #1
10007982:	3a80      	subs	r2, #128	; 0x80
10007984:	6f59      	ldr	r1, [r3, #116]	; 0x74
10007986:	2910      	cmp	r1, #16
10007988:	d0fc      	beq.n	10007984 <i2c_read_blocking+0x3c>
1000798a:	2800      	cmp	r0, #0
1000798c:	d026      	beq.n	100079dc <i2c_read_blocking+0x94>
1000798e:	2600      	movs	r6, #0
10007990:	2180      	movs	r1, #128	; 0x80
10007992:	46b2      	mov	sl, r6
10007994:	0049      	lsls	r1, r1, #1
10007996:	42b8      	cmp	r0, r7
10007998:	d012      	beq.n	100079c0 <i2c_read_blocking+0x78>
1000799a:	6119      	str	r1, [r3, #16]
1000799c:	e002      	b.n	100079a4 <i2c_read_blocking+0x5c>
1000799e:	6f99      	ldr	r1, [r3, #120]	; 0x78
100079a0:	2900      	cmp	r1, #0
100079a2:	d113      	bne.n	100079cc <i2c_read_blocking+0x84>
100079a4:	5899      	ldr	r1, [r3, r2]
100079a6:	6d59      	ldr	r1, [r3, #84]	; 0x54
100079a8:	2900      	cmp	r1, #0
100079aa:	d0f8      	beq.n	1000799e <i2c_read_blocking+0x56>
100079ac:	2002      	movs	r0, #2
100079ae:	4240      	negs	r0, r0
100079b0:	4643      	mov	r3, r8
100079b2:	7123      	strb	r3, [r4, #4]
100079b4:	bcf0      	pop	{r4, r5, r6, r7}
100079b6:	46bb      	mov	fp, r7
100079b8:	46b2      	mov	sl, r6
100079ba:	46a9      	mov	r9, r5
100079bc:	46a0      	mov	r8, r4
100079be:	bdf0      	pop	{r4, r5, r6, r7, pc}
100079c0:	4666      	mov	r6, ip
100079c2:	4651      	mov	r1, sl
100079c4:	4331      	orrs	r1, r6
100079c6:	464e      	mov	r6, r9
100079c8:	4331      	orrs	r1, r6
100079ca:	e7e6      	b.n	1000799a <i2c_read_blocking+0x52>
100079cc:	4659      	mov	r1, fp
100079ce:	691b      	ldr	r3, [r3, #16]
100079d0:	540b      	strb	r3, [r1, r0]
100079d2:	3001      	adds	r0, #1
100079d4:	4285      	cmp	r5, r0
100079d6:	d0eb      	beq.n	100079b0 <i2c_read_blocking+0x68>
100079d8:	6823      	ldr	r3, [r4, #0]
100079da:	e7d3      	b.n	10007984 <i2c_read_blocking+0x3c>
100079dc:	7921      	ldrb	r1, [r4, #4]
100079de:	2900      	cmp	r1, #0
100079e0:	d0d5      	beq.n	1000798e <i2c_read_blocking+0x46>
100079e2:	2680      	movs	r6, #128	; 0x80
100079e4:	21a0      	movs	r1, #160	; 0xa0
100079e6:	00f6      	lsls	r6, r6, #3
100079e8:	46b2      	mov	sl, r6
100079ea:	00c9      	lsls	r1, r1, #3
100079ec:	e7d3      	b.n	10007996 <i2c_read_blocking+0x4e>
100079ee:	2000      	movs	r0, #0
100079f0:	e7de      	b.n	100079b0 <i2c_read_blocking+0x68>
100079f2:	46c0      	nop			; (mov r8, r8)

100079f4 <prvIdleTask>:
100079f4:	b570      	push	{r4, r5, r6, lr}
100079f6:	4c10      	ldr	r4, [pc, #64]	; (10007a38 <prvIdleTask+0x44>)
100079f8:	e014      	b.n	10007a24 <prvIdleTask+0x30>
100079fa:	f001 fd8b 	bl	10009514 <vPortEnterCritical>
100079fe:	6923      	ldr	r3, [r4, #16]
10007a00:	68dd      	ldr	r5, [r3, #12]
10007a02:	1d28      	adds	r0, r5, #4
10007a04:	f001 fe42 	bl	1000968c <uxListRemove>
10007a08:	69a3      	ldr	r3, [r4, #24]
10007a0a:	3b01      	subs	r3, #1
10007a0c:	61a3      	str	r3, [r4, #24]
10007a0e:	6823      	ldr	r3, [r4, #0]
10007a10:	3b01      	subs	r3, #1
10007a12:	6023      	str	r3, [r4, #0]
10007a14:	f001 fd8a 	bl	1000952c <vPortExitCritical>
10007a18:	6b28      	ldr	r0, [r5, #48]	; 0x30
10007a1a:	f001 fd29 	bl	10009470 <vPortFree>
10007a1e:	0028      	movs	r0, r5
10007a20:	f001 fd26 	bl	10009470 <vPortFree>
10007a24:	6823      	ldr	r3, [r4, #0]
10007a26:	2b00      	cmp	r3, #0
10007a28:	d1e7      	bne.n	100079fa <prvIdleTask+0x6>
10007a2a:	69e3      	ldr	r3, [r4, #28]
10007a2c:	2b01      	cmp	r3, #1
10007a2e:	d9f9      	bls.n	10007a24 <prvIdleTask+0x30>
10007a30:	f001 fd64 	bl	100094fc <vPortYield>
10007a34:	e7f6      	b.n	10007a24 <prvIdleTask+0x30>
10007a36:	46c0      	nop			; (mov r8, r8)
10007a38:	20001054 	.word	0x20001054

10007a3c <prvAddCurrentTaskToDelayedList>:
10007a3c:	b5f8      	push	{r3, r4, r5, r6, r7, lr}
10007a3e:	0004      	movs	r4, r0
10007a40:	4d1a      	ldr	r5, [pc, #104]	; (10007aac <prvAddCurrentTaskToDelayedList+0x70>)
10007a42:	000e      	movs	r6, r1
10007a44:	682f      	ldr	r7, [r5, #0]
10007a46:	6868      	ldr	r0, [r5, #4]
10007a48:	3004      	adds	r0, #4
10007a4a:	f001 fe1f 	bl	1000968c <uxListRemove>
10007a4e:	1c63      	adds	r3, r4, #1
10007a50:	d014      	beq.n	10007a7c <prvAddCurrentTaskToDelayedList+0x40>
10007a52:	686b      	ldr	r3, [r5, #4]
10007a54:	193c      	adds	r4, r7, r4
10007a56:	605c      	str	r4, [r3, #4]
10007a58:	42a7      	cmp	r7, r4
10007a5a:	d809      	bhi.n	10007a70 <prvAddCurrentTaskToDelayedList+0x34>
10007a5c:	6a28      	ldr	r0, [r5, #32]
10007a5e:	6869      	ldr	r1, [r5, #4]
10007a60:	3104      	adds	r1, #4
10007a62:	f001 fdfb 	bl	1000965c <vListInsert>
10007a66:	6a6b      	ldr	r3, [r5, #36]	; 0x24
10007a68:	42a3      	cmp	r3, r4
10007a6a:	d900      	bls.n	10007a6e <prvAddCurrentTaskToDelayedList+0x32>
10007a6c:	626c      	str	r4, [r5, #36]	; 0x24
10007a6e:	bdf8      	pop	{r3, r4, r5, r6, r7, pc}
10007a70:	69e8      	ldr	r0, [r5, #28]
10007a72:	6869      	ldr	r1, [r5, #4]
10007a74:	3104      	adds	r1, #4
10007a76:	f001 fdf1 	bl	1000965c <vListInsert>
10007a7a:	e7f8      	b.n	10007a6e <prvAddCurrentTaskToDelayedList+0x32>
10007a7c:	2e00      	cmp	r6, #0
10007a7e:	d0e8      	beq.n	10007a52 <prvAddCurrentTaskToDelayedList+0x16>
10007a80:	686a      	ldr	r2, [r5, #4]
10007a82:	68eb      	ldr	r3, [r5, #12]
10007a84:	6899      	ldr	r1, [r3, #8]
10007a86:	6093      	str	r3, [r2, #8]
10007a88:	686a      	ldr	r2, [r5, #4]
10007a8a:	60d1      	str	r1, [r2, #12]
10007a8c:	686a      	ldr	r2, [r5, #4]
10007a8e:	6899      	ldr	r1, [r3, #8]
10007a90:	3204      	adds	r2, #4
10007a92:	604a      	str	r2, [r1, #4]
10007a94:	686a      	ldr	r2, [r5, #4]
10007a96:	3204      	adds	r2, #4
10007a98:	609a      	str	r2, [r3, #8]
10007a9a:	002a      	movs	r2, r5
10007a9c:	686b      	ldr	r3, [r5, #4]
10007a9e:	3208      	adds	r2, #8
10007aa0:	615a      	str	r2, [r3, #20]
10007aa2:	68ab      	ldr	r3, [r5, #8]
10007aa4:	3301      	adds	r3, #1
10007aa6:	60ab      	str	r3, [r5, #8]
10007aa8:	e7e1      	b.n	10007a6e <prvAddCurrentTaskToDelayedList+0x32>
10007aaa:	46c0      	nop			; (mov r8, r8)
10007aac:	200010d4 	.word	0x200010d4

10007ab0 <xTaskIncrementTick.part.0>:
10007ab0:	b5f0      	push	{r4, r5, r6, r7, lr}
10007ab2:	46de      	mov	lr, fp
10007ab4:	4645      	mov	r5, r8
10007ab6:	4657      	mov	r7, sl
10007ab8:	464e      	mov	r6, r9
10007aba:	4943      	ldr	r1, [pc, #268]	; (10007bc8 <xTaskIncrementTick.part.0+0x118>)
10007abc:	b5e0      	push	{r5, r6, r7, lr}
10007abe:	680d      	ldr	r5, [r1, #0]
10007ac0:	1c6b      	adds	r3, r5, #1
10007ac2:	469b      	mov	fp, r3
10007ac4:	600b      	str	r3, [r1, #0]
10007ac6:	2b00      	cmp	r3, #0
10007ac8:	d10c      	bne.n	10007ae4 <xTaskIncrementTick.part.0+0x34>
10007aca:	6a0b      	ldr	r3, [r1, #32]
10007acc:	69ca      	ldr	r2, [r1, #28]
10007ace:	620a      	str	r2, [r1, #32]
10007ad0:	61cb      	str	r3, [r1, #28]
10007ad2:	6a8b      	ldr	r3, [r1, #40]	; 0x28
10007ad4:	3301      	adds	r3, #1
10007ad6:	628b      	str	r3, [r1, #40]	; 0x28
10007ad8:	6a0b      	ldr	r3, [r1, #32]
10007ada:	681b      	ldr	r3, [r3, #0]
10007adc:	2b00      	cmp	r3, #0
10007ade:	d169      	bne.n	10007bb4 <xTaskIncrementTick.part.0+0x104>
10007ae0:	3b01      	subs	r3, #1
10007ae2:	624b      	str	r3, [r1, #36]	; 0x24
10007ae4:	2200      	movs	r2, #0
10007ae6:	6a4b      	ldr	r3, [r1, #36]	; 0x24
10007ae8:	4694      	mov	ip, r2
10007aea:	459b      	cmp	fp, r3
10007aec:	d356      	bcc.n	10007b9c <xTaskIncrementTick.part.0+0xec>
10007aee:	6a0b      	ldr	r3, [r1, #32]
10007af0:	681b      	ldr	r3, [r3, #0]
10007af2:	2b00      	cmp	r3, #0
10007af4:	d04f      	beq.n	10007b96 <xTaskIncrementTick.part.0+0xe6>
10007af6:	2300      	movs	r3, #0
10007af8:	469a      	mov	sl, r3
10007afa:	4b34      	ldr	r3, [pc, #208]	; (10007bcc <xTaskIncrementTick.part.0+0x11c>)
10007afc:	4699      	mov	r9, r3
10007afe:	231c      	movs	r3, #28
10007b00:	444b      	add	r3, r9
10007b02:	4698      	mov	r8, r3
10007b04:	e036      	b.n	10007b74 <xTaskIncrementTick.part.0+0xc4>
10007b06:	4650      	mov	r0, sl
10007b08:	6814      	ldr	r4, [r2, #0]
10007b0a:	6158      	str	r0, [r3, #20]
10007b0c:	3c01      	subs	r4, #1
10007b0e:	6014      	str	r4, [r2, #0]
10007b10:	6a9a      	ldr	r2, [r3, #40]	; 0x28
10007b12:	2a00      	cmp	r2, #0
10007b14:	d00e      	beq.n	10007b34 <xTaskIncrementTick.part.0+0x84>
10007b16:	69dc      	ldr	r4, [r3, #28]
10007b18:	6a18      	ldr	r0, [r3, #32]
10007b1a:	6855      	ldr	r5, [r2, #4]
10007b1c:	60a0      	str	r0, [r4, #8]
10007b1e:	6a18      	ldr	r0, [r3, #32]
10007b20:	6044      	str	r4, [r0, #4]
10007b22:	001c      	movs	r4, r3
10007b24:	3418      	adds	r4, #24
10007b26:	42a5      	cmp	r5, r4
10007b28:	d049      	beq.n	10007bbe <xTaskIncrementTick.part.0+0x10e>
10007b2a:	4650      	mov	r0, sl
10007b2c:	6814      	ldr	r4, [r2, #0]
10007b2e:	6298      	str	r0, [r3, #40]	; 0x28
10007b30:	3c01      	subs	r4, #1
10007b32:	6014      	str	r4, [r2, #0]
10007b34:	6adc      	ldr	r4, [r3, #44]	; 0x2c
10007b36:	6aca      	ldr	r2, [r1, #44]	; 0x2c
10007b38:	4294      	cmp	r4, r2
10007b3a:	d900      	bls.n	10007b3e <xTaskIncrementTick.part.0+0x8e>
10007b3c:	62cc      	str	r4, [r1, #44]	; 0x2c
10007b3e:	4648      	mov	r0, r9
10007b40:	00a2      	lsls	r2, r4, #2
10007b42:	1912      	adds	r2, r2, r4
10007b44:	0092      	lsls	r2, r2, #2
10007b46:	1880      	adds	r0, r0, r2
10007b48:	6a07      	ldr	r7, [r0, #32]
10007b4a:	4442      	add	r2, r8
10007b4c:	68bd      	ldr	r5, [r7, #8]
10007b4e:	609f      	str	r7, [r3, #8]
10007b50:	60dd      	str	r5, [r3, #12]
10007b52:	68bd      	ldr	r5, [r7, #8]
10007b54:	606e      	str	r6, [r5, #4]
10007b56:	60be      	str	r6, [r7, #8]
10007b58:	615a      	str	r2, [r3, #20]
10007b5a:	69c3      	ldr	r3, [r0, #28]
10007b5c:	3301      	adds	r3, #1
10007b5e:	61c3      	str	r3, [r0, #28]
10007b60:	684b      	ldr	r3, [r1, #4]
10007b62:	6adb      	ldr	r3, [r3, #44]	; 0x2c
10007b64:	429c      	cmp	r4, r3
10007b66:	d301      	bcc.n	10007b6c <xTaskIncrementTick.part.0+0xbc>
10007b68:	2301      	movs	r3, #1
10007b6a:	469c      	mov	ip, r3
10007b6c:	6a0b      	ldr	r3, [r1, #32]
10007b6e:	681b      	ldr	r3, [r3, #0]
10007b70:	2b00      	cmp	r3, #0
10007b72:	d010      	beq.n	10007b96 <xTaskIncrementTick.part.0+0xe6>
10007b74:	6a0b      	ldr	r3, [r1, #32]
10007b76:	68db      	ldr	r3, [r3, #12]
10007b78:	68db      	ldr	r3, [r3, #12]
10007b7a:	685a      	ldr	r2, [r3, #4]
10007b7c:	4593      	cmp	fp, r2
10007b7e:	d320      	bcc.n	10007bc2 <xTaskIncrementTick.part.0+0x112>
10007b80:	695a      	ldr	r2, [r3, #20]
10007b82:	6898      	ldr	r0, [r3, #8]
10007b84:	68dc      	ldr	r4, [r3, #12]
10007b86:	1d1e      	adds	r6, r3, #4
10007b88:	6084      	str	r4, [r0, #8]
10007b8a:	6060      	str	r0, [r4, #4]
10007b8c:	6850      	ldr	r0, [r2, #4]
10007b8e:	42b0      	cmp	r0, r6
10007b90:	d1b9      	bne.n	10007b06 <xTaskIncrementTick.part.0+0x56>
10007b92:	6054      	str	r4, [r2, #4]
10007b94:	e7b7      	b.n	10007b06 <xTaskIncrementTick.part.0+0x56>
10007b96:	2301      	movs	r3, #1
10007b98:	425b      	negs	r3, r3
10007b9a:	624b      	str	r3, [r1, #36]	; 0x24
10007b9c:	6b0b      	ldr	r3, [r1, #48]	; 0x30
10007b9e:	2b00      	cmp	r3, #0
10007ba0:	d001      	beq.n	10007ba6 <xTaskIncrementTick.part.0+0xf6>
10007ba2:	2301      	movs	r3, #1
10007ba4:	469c      	mov	ip, r3
10007ba6:	4660      	mov	r0, ip
10007ba8:	bcf0      	pop	{r4, r5, r6, r7}
10007baa:	46bb      	mov	fp, r7
10007bac:	46b2      	mov	sl, r6
10007bae:	46a9      	mov	r9, r5
10007bb0:	46a0      	mov	r8, r4
10007bb2:	bdf0      	pop	{r4, r5, r6, r7, pc}
10007bb4:	6a0b      	ldr	r3, [r1, #32]
10007bb6:	68db      	ldr	r3, [r3, #12]
10007bb8:	681b      	ldr	r3, [r3, #0]
10007bba:	624b      	str	r3, [r1, #36]	; 0x24
10007bbc:	e792      	b.n	10007ae4 <xTaskIncrementTick.part.0+0x34>
10007bbe:	6050      	str	r0, [r2, #4]
10007bc0:	e7b3      	b.n	10007b2a <xTaskIncrementTick.part.0+0x7a>
10007bc2:	624a      	str	r2, [r1, #36]	; 0x24
10007bc4:	e7ea      	b.n	10007b9c <xTaskIncrementTick.part.0+0xec>
10007bc6:	46c0      	nop			; (mov r8, r8)
10007bc8:	200010d4 	.word	0x200010d4
10007bcc:	20001054 	.word	0x20001054

10007bd0 <xTaskCreate>:
10007bd0:	b5f8      	push	{r3, r4, r5, r6, r7, lr}
10007bd2:	46ce      	mov	lr, r9
10007bd4:	4647      	mov	r7, r8
10007bd6:	4698      	mov	r8, r3
10007bd8:	0093      	lsls	r3, r2, #2
10007bda:	b580      	push	{r7, lr}
10007bdc:	0007      	movs	r7, r0
10007bde:	0018      	movs	r0, r3
10007be0:	000d      	movs	r5, r1
10007be2:	4699      	mov	r9, r3
10007be4:	f001 fc38 	bl	10009458 <pvPortMalloc>
10007be8:	1e06      	subs	r6, r0, #0
10007bea:	d100      	bne.n	10007bee <xTaskCreate+0x1e>
10007bec:	e0c2      	b.n	10007d74 <xTaskCreate+0x1a4>
10007bee:	2068      	movs	r0, #104	; 0x68
10007bf0:	f001 fc32 	bl	10009458 <pvPortMalloc>
10007bf4:	1e04      	subs	r4, r0, #0
10007bf6:	d100      	bne.n	10007bfa <xTaskCreate+0x2a>
10007bf8:	e0c3      	b.n	10007d82 <xTaskCreate+0x1b2>
10007bfa:	2268      	movs	r2, #104	; 0x68
10007bfc:	2100      	movs	r1, #0
10007bfe:	f7fc fec5 	bl	1000498c <__wrap_memset>
10007c02:	4648      	mov	r0, r9
10007c04:	2307      	movs	r3, #7
10007c06:	3804      	subs	r0, #4
10007c08:	6326      	str	r6, [r4, #48]	; 0x30
10007c0a:	1836      	adds	r6, r6, r0
10007c0c:	439e      	bics	r6, r3
10007c0e:	2d00      	cmp	r5, #0
10007c10:	d05f      	beq.n	10007cd2 <xTaskCreate+0x102>
10007c12:	2334      	movs	r3, #52	; 0x34
10007c14:	782a      	ldrb	r2, [r5, #0]
10007c16:	54e2      	strb	r2, [r4, r3]
10007c18:	782b      	ldrb	r3, [r5, #0]
10007c1a:	2b00      	cmp	r3, #0
10007c1c:	d056      	beq.n	10007ccc <xTaskCreate+0xfc>
10007c1e:	2335      	movs	r3, #53	; 0x35
10007c20:	786a      	ldrb	r2, [r5, #1]
10007c22:	54e2      	strb	r2, [r4, r3]
10007c24:	786b      	ldrb	r3, [r5, #1]
10007c26:	2b00      	cmp	r3, #0
10007c28:	d050      	beq.n	10007ccc <xTaskCreate+0xfc>
10007c2a:	2336      	movs	r3, #54	; 0x36
10007c2c:	78aa      	ldrb	r2, [r5, #2]
10007c2e:	54e2      	strb	r2, [r4, r3]
10007c30:	78ab      	ldrb	r3, [r5, #2]
10007c32:	2b00      	cmp	r3, #0
10007c34:	d04a      	beq.n	10007ccc <xTaskCreate+0xfc>
10007c36:	2337      	movs	r3, #55	; 0x37
10007c38:	78ea      	ldrb	r2, [r5, #3]
10007c3a:	54e2      	strb	r2, [r4, r3]
10007c3c:	78eb      	ldrb	r3, [r5, #3]
10007c3e:	2b00      	cmp	r3, #0
10007c40:	d044      	beq.n	10007ccc <xTaskCreate+0xfc>
10007c42:	2338      	movs	r3, #56	; 0x38
10007c44:	792a      	ldrb	r2, [r5, #4]
10007c46:	54e2      	strb	r2, [r4, r3]
10007c48:	792b      	ldrb	r3, [r5, #4]
10007c4a:	2b00      	cmp	r3, #0
10007c4c:	d03e      	beq.n	10007ccc <xTaskCreate+0xfc>
10007c4e:	2339      	movs	r3, #57	; 0x39
10007c50:	796a      	ldrb	r2, [r5, #5]
10007c52:	54e2      	strb	r2, [r4, r3]
10007c54:	796b      	ldrb	r3, [r5, #5]
10007c56:	2b00      	cmp	r3, #0
10007c58:	d038      	beq.n	10007ccc <xTaskCreate+0xfc>
10007c5a:	233a      	movs	r3, #58	; 0x3a
10007c5c:	79aa      	ldrb	r2, [r5, #6]
10007c5e:	54e2      	strb	r2, [r4, r3]
10007c60:	79ab      	ldrb	r3, [r5, #6]
10007c62:	2b00      	cmp	r3, #0
10007c64:	d032      	beq.n	10007ccc <xTaskCreate+0xfc>
10007c66:	233b      	movs	r3, #59	; 0x3b
10007c68:	79ea      	ldrb	r2, [r5, #7]
10007c6a:	54e2      	strb	r2, [r4, r3]
10007c6c:	79eb      	ldrb	r3, [r5, #7]
10007c6e:	2b00      	cmp	r3, #0
10007c70:	d02c      	beq.n	10007ccc <xTaskCreate+0xfc>
10007c72:	233c      	movs	r3, #60	; 0x3c
10007c74:	7a2a      	ldrb	r2, [r5, #8]
10007c76:	54e2      	strb	r2, [r4, r3]
10007c78:	7a2b      	ldrb	r3, [r5, #8]
10007c7a:	2b00      	cmp	r3, #0
10007c7c:	d026      	beq.n	10007ccc <xTaskCreate+0xfc>
10007c7e:	233d      	movs	r3, #61	; 0x3d
10007c80:	7a6a      	ldrb	r2, [r5, #9]
10007c82:	54e2      	strb	r2, [r4, r3]
10007c84:	7a6b      	ldrb	r3, [r5, #9]
10007c86:	2b00      	cmp	r3, #0
10007c88:	d020      	beq.n	10007ccc <xTaskCreate+0xfc>
10007c8a:	233e      	movs	r3, #62	; 0x3e
10007c8c:	7aaa      	ldrb	r2, [r5, #10]
10007c8e:	54e2      	strb	r2, [r4, r3]
10007c90:	7aab      	ldrb	r3, [r5, #10]
10007c92:	2b00      	cmp	r3, #0
10007c94:	d01a      	beq.n	10007ccc <xTaskCreate+0xfc>
10007c96:	233f      	movs	r3, #63	; 0x3f
10007c98:	7aea      	ldrb	r2, [r5, #11]
10007c9a:	54e2      	strb	r2, [r4, r3]
10007c9c:	7aeb      	ldrb	r3, [r5, #11]
10007c9e:	2b00      	cmp	r3, #0
10007ca0:	d014      	beq.n	10007ccc <xTaskCreate+0xfc>
10007ca2:	2340      	movs	r3, #64	; 0x40
10007ca4:	7b2a      	ldrb	r2, [r5, #12]
10007ca6:	54e2      	strb	r2, [r4, r3]
10007ca8:	7b2b      	ldrb	r3, [r5, #12]
10007caa:	2b00      	cmp	r3, #0
10007cac:	d00e      	beq.n	10007ccc <xTaskCreate+0xfc>
10007cae:	2341      	movs	r3, #65	; 0x41
10007cb0:	7b6a      	ldrb	r2, [r5, #13]
10007cb2:	54e2      	strb	r2, [r4, r3]
10007cb4:	7b6b      	ldrb	r3, [r5, #13]
10007cb6:	2b00      	cmp	r3, #0
10007cb8:	d008      	beq.n	10007ccc <xTaskCreate+0xfc>
10007cba:	2342      	movs	r3, #66	; 0x42
10007cbc:	7baa      	ldrb	r2, [r5, #14]
10007cbe:	54e2      	strb	r2, [r4, r3]
10007cc0:	7bab      	ldrb	r3, [r5, #14]
10007cc2:	2b00      	cmp	r3, #0
10007cc4:	d002      	beq.n	10007ccc <xTaskCreate+0xfc>
10007cc6:	2343      	movs	r3, #67	; 0x43
10007cc8:	7bea      	ldrb	r2, [r5, #15]
10007cca:	54e2      	strb	r2, [r4, r3]
10007ccc:	2343      	movs	r3, #67	; 0x43
10007cce:	2200      	movs	r2, #0
10007cd0:	54e2      	strb	r2, [r4, r3]
10007cd2:	9d08      	ldr	r5, [sp, #32]
10007cd4:	2d04      	cmp	r5, #4
10007cd6:	d85a      	bhi.n	10007d8e <xTaskCreate+0x1be>
10007cd8:	1d23      	adds	r3, r4, #4
10007cda:	0018      	movs	r0, r3
10007cdc:	62e5      	str	r5, [r4, #44]	; 0x2c
10007cde:	4699      	mov	r9, r3
10007ce0:	f001 fcac 	bl	1000963c <vListInitialiseItem>
10007ce4:	0020      	movs	r0, r4
10007ce6:	3018      	adds	r0, #24
10007ce8:	f001 fca8 	bl	1000963c <vListInitialiseItem>
10007cec:	2305      	movs	r3, #5
10007cee:	1b5d      	subs	r5, r3, r5
10007cf0:	4642      	mov	r2, r8
10007cf2:	0039      	movs	r1, r7
10007cf4:	0030      	movs	r0, r6
10007cf6:	6124      	str	r4, [r4, #16]
10007cf8:	61a5      	str	r5, [r4, #24]
10007cfa:	6264      	str	r4, [r4, #36]	; 0x24
10007cfc:	f001 fbea 	bl	100094d4 <pxPortInitialiseStack>
10007d00:	9b09      	ldr	r3, [sp, #36]	; 0x24
10007d02:	6020      	str	r0, [r4, #0]
10007d04:	2b00      	cmp	r3, #0
10007d06:	d000      	beq.n	10007d0a <xTaskCreate+0x13a>
10007d08:	601c      	str	r4, [r3, #0]
10007d0a:	f001 fc03 	bl	10009514 <vPortEnterCritical>
10007d0e:	4d39      	ldr	r5, [pc, #228]	; (10007df4 <xTaskCreate+0x224>)
10007d10:	4e39      	ldr	r6, [pc, #228]	; (10007df8 <xTaskCreate+0x228>)
10007d12:	69ab      	ldr	r3, [r5, #24]
10007d14:	3301      	adds	r3, #1
10007d16:	61ab      	str	r3, [r5, #24]
10007d18:	6873      	ldr	r3, [r6, #4]
10007d1a:	2b00      	cmp	r3, #0
10007d1c:	d040      	beq.n	10007da0 <xTaskCreate+0x1d0>
10007d1e:	6f33      	ldr	r3, [r6, #112]	; 0x70
10007d20:	2b00      	cmp	r3, #0
10007d22:	d036      	beq.n	10007d92 <xTaskCreate+0x1c2>
10007d24:	6ae2      	ldr	r2, [r4, #44]	; 0x2c
10007d26:	6f73      	ldr	r3, [r6, #116]	; 0x74
10007d28:	3301      	adds	r3, #1
10007d2a:	6773      	str	r3, [r6, #116]	; 0x74
10007d2c:	6af3      	ldr	r3, [r6, #44]	; 0x2c
10007d2e:	4293      	cmp	r3, r2
10007d30:	d200      	bcs.n	10007d34 <xTaskCreate+0x164>
10007d32:	62f2      	str	r2, [r6, #44]	; 0x2c
10007d34:	464f      	mov	r7, r9
10007d36:	0093      	lsls	r3, r2, #2
10007d38:	189b      	adds	r3, r3, r2
10007d3a:	009b      	lsls	r3, r3, #2
10007d3c:	18e9      	adds	r1, r5, r3
10007d3e:	6a0a      	ldr	r2, [r1, #32]
10007d40:	351c      	adds	r5, #28
10007d42:	6890      	ldr	r0, [r2, #8]
10007d44:	18ed      	adds	r5, r5, r3
10007d46:	60e0      	str	r0, [r4, #12]
10007d48:	69cb      	ldr	r3, [r1, #28]
10007d4a:	6890      	ldr	r0, [r2, #8]
10007d4c:	3301      	adds	r3, #1
10007d4e:	60a2      	str	r2, [r4, #8]
10007d50:	6047      	str	r7, [r0, #4]
10007d52:	6097      	str	r7, [r2, #8]
10007d54:	6165      	str	r5, [r4, #20]
10007d56:	61cb      	str	r3, [r1, #28]
10007d58:	f001 fbe8 	bl	1000952c <vPortExitCritical>
10007d5c:	6f33      	ldr	r3, [r6, #112]	; 0x70
10007d5e:	2501      	movs	r5, #1
10007d60:	2b00      	cmp	r3, #0
10007d62:	d009      	beq.n	10007d78 <xTaskCreate+0x1a8>
10007d64:	6873      	ldr	r3, [r6, #4]
10007d66:	6ada      	ldr	r2, [r3, #44]	; 0x2c
10007d68:	6ae3      	ldr	r3, [r4, #44]	; 0x2c
10007d6a:	429a      	cmp	r2, r3
10007d6c:	d204      	bcs.n	10007d78 <xTaskCreate+0x1a8>
10007d6e:	f001 fbc5 	bl	100094fc <vPortYield>
10007d72:	e001      	b.n	10007d78 <xTaskCreate+0x1a8>
10007d74:	2501      	movs	r5, #1
10007d76:	426d      	negs	r5, r5
10007d78:	0028      	movs	r0, r5
10007d7a:	bcc0      	pop	{r6, r7}
10007d7c:	46b9      	mov	r9, r7
10007d7e:	46b0      	mov	r8, r6
10007d80:	bdf8      	pop	{r3, r4, r5, r6, r7, pc}
10007d82:	2501      	movs	r5, #1
10007d84:	0030      	movs	r0, r6
10007d86:	f001 fb73 	bl	10009470 <vPortFree>
10007d8a:	426d      	negs	r5, r5
10007d8c:	e7f4      	b.n	10007d78 <xTaskCreate+0x1a8>
10007d8e:	2504      	movs	r5, #4
10007d90:	e7a2      	b.n	10007cd8 <xTaskCreate+0x108>
10007d92:	6873      	ldr	r3, [r6, #4]
10007d94:	6ae2      	ldr	r2, [r4, #44]	; 0x2c
10007d96:	6adb      	ldr	r3, [r3, #44]	; 0x2c
10007d98:	4293      	cmp	r3, r2
10007d9a:	d8c4      	bhi.n	10007d26 <xTaskCreate+0x156>
10007d9c:	6074      	str	r4, [r6, #4]
10007d9e:	e7c2      	b.n	10007d26 <xTaskCreate+0x156>
10007da0:	6074      	str	r4, [r6, #4]
10007da2:	69ab      	ldr	r3, [r5, #24]
10007da4:	2b01      	cmp	r3, #1
10007da6:	d1bd      	bne.n	10007d24 <xTaskCreate+0x154>
10007da8:	2380      	movs	r3, #128	; 0x80
10007daa:	002f      	movs	r7, r5
10007dac:	4698      	mov	r8, r3
10007dae:	371c      	adds	r7, #28
10007db0:	44a8      	add	r8, r5
10007db2:	0038      	movs	r0, r7
10007db4:	3714      	adds	r7, #20
10007db6:	f001 fc35 	bl	10009624 <vListInitialise>
10007dba:	45b8      	cmp	r8, r7
10007dbc:	d1f9      	bne.n	10007db2 <xTaskCreate+0x1e2>
10007dbe:	2334      	movs	r3, #52	; 0x34
10007dc0:	4698      	mov	r8, r3
10007dc2:	0037      	movs	r7, r6
10007dc4:	44b0      	add	r8, r6
10007dc6:	4640      	mov	r0, r8
10007dc8:	3748      	adds	r7, #72	; 0x48
10007dca:	f001 fc2b 	bl	10009624 <vListInitialise>
10007dce:	0038      	movs	r0, r7
10007dd0:	f001 fc28 	bl	10009624 <vListInitialise>
10007dd4:	0030      	movs	r0, r6
10007dd6:	305c      	adds	r0, #92	; 0x5c
10007dd8:	f001 fc24 	bl	10009624 <vListInitialise>
10007ddc:	1d28      	adds	r0, r5, #4
10007dde:	f001 fc21 	bl	10009624 <vListInitialise>
10007de2:	0030      	movs	r0, r6
10007de4:	3008      	adds	r0, #8
10007de6:	f001 fc1d 	bl	10009624 <vListInitialise>
10007dea:	4643      	mov	r3, r8
10007dec:	6233      	str	r3, [r6, #32]
10007dee:	61f7      	str	r7, [r6, #28]
10007df0:	e798      	b.n	10007d24 <xTaskCreate+0x154>
10007df2:	46c0      	nop			; (mov r8, r8)
10007df4:	20001054 	.word	0x20001054
10007df8:	200010d4 	.word	0x200010d4

10007dfc <vTaskDelete>:
10007dfc:	b5f8      	push	{r3, r4, r5, r6, r7, lr}
10007dfe:	0004      	movs	r4, r0
10007e00:	f001 fb88 	bl	10009514 <vPortEnterCritical>
10007e04:	4d21      	ldr	r5, [pc, #132]	; (10007e8c <vTaskDelete+0x90>)
10007e06:	2c00      	cmp	r4, #0
10007e08:	d031      	beq.n	10007e6e <vTaskDelete+0x72>
10007e0a:	1d26      	adds	r6, r4, #4
10007e0c:	0030      	movs	r0, r6
10007e0e:	f001 fc3d 	bl	1000968c <uxListRemove>
10007e12:	6aa3      	ldr	r3, [r4, #40]	; 0x28
10007e14:	2b00      	cmp	r3, #0
10007e16:	d003      	beq.n	10007e20 <vTaskDelete+0x24>
10007e18:	0020      	movs	r0, r4
10007e1a:	3018      	adds	r0, #24
10007e1c:	f001 fc36 	bl	1000968c <uxListRemove>
10007e20:	6f6b      	ldr	r3, [r5, #116]	; 0x74
10007e22:	3301      	adds	r3, #1
10007e24:	676b      	str	r3, [r5, #116]	; 0x74
10007e26:	686b      	ldr	r3, [r5, #4]
10007e28:	42a3      	cmp	r3, r4
10007e2a:	d022      	beq.n	10007e72 <vTaskDelete+0x76>
10007e2c:	4a18      	ldr	r2, [pc, #96]	; (10007e90 <vTaskDelete+0x94>)
10007e2e:	6993      	ldr	r3, [r2, #24]
10007e30:	3b01      	subs	r3, #1
10007e32:	6193      	str	r3, [r2, #24]
10007e34:	6a2b      	ldr	r3, [r5, #32]
10007e36:	681b      	ldr	r3, [r3, #0]
10007e38:	2b00      	cmp	r3, #0
10007e3a:	d015      	beq.n	10007e68 <vTaskDelete+0x6c>
10007e3c:	6a2b      	ldr	r3, [r5, #32]
10007e3e:	68db      	ldr	r3, [r3, #12]
10007e40:	681b      	ldr	r3, [r3, #0]
10007e42:	626b      	str	r3, [r5, #36]	; 0x24
10007e44:	f001 fb72 	bl	1000952c <vPortExitCritical>
10007e48:	686b      	ldr	r3, [r5, #4]
10007e4a:	42a3      	cmp	r3, r4
10007e4c:	d005      	beq.n	10007e5a <vTaskDelete+0x5e>
10007e4e:	6b20      	ldr	r0, [r4, #48]	; 0x30
10007e50:	f001 fb0e 	bl	10009470 <vPortFree>
10007e54:	0020      	movs	r0, r4
10007e56:	f001 fb0b 	bl	10009470 <vPortFree>
10007e5a:	6f2b      	ldr	r3, [r5, #112]	; 0x70
10007e5c:	2b00      	cmp	r3, #0
10007e5e:	d002      	beq.n	10007e66 <vTaskDelete+0x6a>
10007e60:	686b      	ldr	r3, [r5, #4]
10007e62:	42a3      	cmp	r3, r4
10007e64:	d00e      	beq.n	10007e84 <vTaskDelete+0x88>
10007e66:	bdf8      	pop	{r3, r4, r5, r6, r7, pc}
10007e68:	3b01      	subs	r3, #1
10007e6a:	626b      	str	r3, [r5, #36]	; 0x24
10007e6c:	e7ea      	b.n	10007e44 <vTaskDelete+0x48>
10007e6e:	686c      	ldr	r4, [r5, #4]
10007e70:	e7cb      	b.n	10007e0a <vTaskDelete+0xe>
10007e72:	4f07      	ldr	r7, [pc, #28]	; (10007e90 <vTaskDelete+0x94>)
10007e74:	0031      	movs	r1, r6
10007e76:	1d38      	adds	r0, r7, #4
10007e78:	f001 fbe4 	bl	10009644 <vListInsertEnd>
10007e7c:	683b      	ldr	r3, [r7, #0]
10007e7e:	3301      	adds	r3, #1
10007e80:	603b      	str	r3, [r7, #0]
10007e82:	e7df      	b.n	10007e44 <vTaskDelete+0x48>
10007e84:	f001 fb3a 	bl	100094fc <vPortYield>
10007e88:	e7ed      	b.n	10007e66 <vTaskDelete+0x6a>
10007e8a:	46c0      	nop			; (mov r8, r8)
10007e8c:	200010d4 	.word	0x200010d4
10007e90:	20001054 	.word	0x20001054

10007e94 <uxTaskPriorityGet>:
10007e94:	b510      	push	{r4, lr}
10007e96:	0004      	movs	r4, r0
10007e98:	f001 fb3c 	bl	10009514 <vPortEnterCritical>
10007e9c:	2c00      	cmp	r4, #0
10007e9e:	d004      	beq.n	10007eaa <uxTaskPriorityGet+0x16>
10007ea0:	6ae4      	ldr	r4, [r4, #44]	; 0x2c
10007ea2:	f001 fb43 	bl	1000952c <vPortExitCritical>
10007ea6:	0020      	movs	r0, r4
10007ea8:	bd10      	pop	{r4, pc}
10007eaa:	4b01      	ldr	r3, [pc, #4]	; (10007eb0 <uxTaskPriorityGet+0x1c>)
10007eac:	685c      	ldr	r4, [r3, #4]
10007eae:	e7f7      	b.n	10007ea0 <uxTaskPriorityGet+0xc>
10007eb0:	200010d4 	.word	0x200010d4

10007eb4 <uxTaskPriorityGetFromISR>:
10007eb4:	b510      	push	{r4, lr}
10007eb6:	0004      	movs	r4, r0
10007eb8:	f001 fb42 	bl	10009540 <ulSetInterruptMaskFromISR>
10007ebc:	2c00      	cmp	r4, #0
10007ebe:	d004      	beq.n	10007eca <uxTaskPriorityGetFromISR+0x16>
10007ec0:	6ae4      	ldr	r4, [r4, #44]	; 0x2c
10007ec2:	f001 fb41 	bl	10009548 <vClearInterruptMaskFromISR>
10007ec6:	0020      	movs	r0, r4
10007ec8:	bd10      	pop	{r4, pc}
10007eca:	4b01      	ldr	r3, [pc, #4]	; (10007ed0 <uxTaskPriorityGetFromISR+0x1c>)
10007ecc:	685c      	ldr	r4, [r3, #4]
10007ece:	e7f7      	b.n	10007ec0 <uxTaskPriorityGetFromISR+0xc>
10007ed0:	200010d4 	.word	0x200010d4

10007ed4 <vTaskPrioritySet>:
10007ed4:	b5f0      	push	{r4, r5, r6, r7, lr}
10007ed6:	46c6      	mov	lr, r8
10007ed8:	0004      	movs	r4, r0
10007eda:	000d      	movs	r5, r1
10007edc:	b500      	push	{lr}
10007ede:	2904      	cmp	r1, #4
10007ee0:	d900      	bls.n	10007ee4 <vTaskPrioritySet+0x10>
10007ee2:	2504      	movs	r5, #4
10007ee4:	f001 fb16 	bl	10009514 <vPortEnterCritical>
10007ee8:	2c00      	cmp	r4, #0
10007eea:	d02b      	beq.n	10007f44 <vTaskPrioritySet+0x70>
10007eec:	6ae3      	ldr	r3, [r4, #44]	; 0x2c
10007eee:	429d      	cmp	r5, r3
10007ef0:	d01a      	beq.n	10007f28 <vTaskPrioritySet+0x54>
10007ef2:	4f25      	ldr	r7, [pc, #148]	; (10007f88 <vTaskPrioritySet+0xb4>)
10007ef4:	d81d      	bhi.n	10007f32 <vTaskPrioritySet+0x5e>
10007ef6:	687e      	ldr	r6, [r7, #4]
10007ef8:	1b36      	subs	r6, r6, r4
10007efa:	4272      	negs	r2, r6
10007efc:	4156      	adcs	r6, r2
10007efe:	69a2      	ldr	r2, [r4, #24]
10007f00:	62e5      	str	r5, [r4, #44]	; 0x2c
10007f02:	2a00      	cmp	r2, #0
10007f04:	db02      	blt.n	10007f0c <vTaskPrioritySet+0x38>
10007f06:	2105      	movs	r1, #5
10007f08:	1b4d      	subs	r5, r1, r5
10007f0a:	61a5      	str	r5, [r4, #24]
10007f0c:	4d1f      	ldr	r5, [pc, #124]	; (10007f8c <vTaskPrioritySet+0xb8>)
10007f0e:	009a      	lsls	r2, r3, #2
10007f10:	0029      	movs	r1, r5
10007f12:	18d3      	adds	r3, r2, r3
10007f14:	311c      	adds	r1, #28
10007f16:	009b      	lsls	r3, r3, #2
10007f18:	6962      	ldr	r2, [r4, #20]
10007f1a:	18cb      	adds	r3, r1, r3
10007f1c:	429a      	cmp	r2, r3
10007f1e:	d014      	beq.n	10007f4a <vTaskPrioritySet+0x76>
10007f20:	2e00      	cmp	r6, #0
10007f22:	d001      	beq.n	10007f28 <vTaskPrioritySet+0x54>
10007f24:	f001 faea 	bl	100094fc <vPortYield>
10007f28:	f001 fb00 	bl	1000952c <vPortExitCritical>
10007f2c:	bc80      	pop	{r7}
10007f2e:	46b8      	mov	r8, r7
10007f30:	bdf0      	pop	{r4, r5, r6, r7, pc}
10007f32:	687a      	ldr	r2, [r7, #4]
10007f34:	42a2      	cmp	r2, r4
10007f36:	d025      	beq.n	10007f84 <vTaskPrioritySet+0xb0>
10007f38:	2600      	movs	r6, #0
10007f3a:	687a      	ldr	r2, [r7, #4]
10007f3c:	6ad2      	ldr	r2, [r2, #44]	; 0x2c
10007f3e:	4295      	cmp	r5, r2
10007f40:	4176      	adcs	r6, r6
10007f42:	e7dc      	b.n	10007efe <vTaskPrioritySet+0x2a>
10007f44:	4b10      	ldr	r3, [pc, #64]	; (10007f88 <vTaskPrioritySet+0xb4>)
10007f46:	685c      	ldr	r4, [r3, #4]
10007f48:	e7d0      	b.n	10007eec <vTaskPrioritySet+0x18>
10007f4a:	1d23      	adds	r3, r4, #4
10007f4c:	0018      	movs	r0, r3
10007f4e:	4698      	mov	r8, r3
10007f50:	f001 fb9c 	bl	1000968c <uxListRemove>
10007f54:	6ae2      	ldr	r2, [r4, #44]	; 0x2c
10007f56:	6afb      	ldr	r3, [r7, #44]	; 0x2c
10007f58:	429a      	cmp	r2, r3
10007f5a:	d900      	bls.n	10007f5e <vTaskPrioritySet+0x8a>
10007f5c:	62fa      	str	r2, [r7, #44]	; 0x2c
10007f5e:	4647      	mov	r7, r8
10007f60:	0093      	lsls	r3, r2, #2
10007f62:	189b      	adds	r3, r3, r2
10007f64:	009b      	lsls	r3, r3, #2
10007f66:	18e9      	adds	r1, r5, r3
10007f68:	6a0a      	ldr	r2, [r1, #32]
10007f6a:	351c      	adds	r5, #28
10007f6c:	6890      	ldr	r0, [r2, #8]
10007f6e:	18ed      	adds	r5, r5, r3
10007f70:	60e0      	str	r0, [r4, #12]
10007f72:	69cb      	ldr	r3, [r1, #28]
10007f74:	6890      	ldr	r0, [r2, #8]
10007f76:	3301      	adds	r3, #1
10007f78:	60a2      	str	r2, [r4, #8]
10007f7a:	6047      	str	r7, [r0, #4]
10007f7c:	6097      	str	r7, [r2, #8]
10007f7e:	6165      	str	r5, [r4, #20]
10007f80:	61cb      	str	r3, [r1, #28]
10007f82:	e7cd      	b.n	10007f20 <vTaskPrioritySet+0x4c>
10007f84:	2600      	movs	r6, #0
10007f86:	e7ba      	b.n	10007efe <vTaskPrioritySet+0x2a>
10007f88:	200010d4 	.word	0x200010d4
10007f8c:	20001054 	.word	0x20001054

10007f90 <vTaskSuspend>:
10007f90:	b570      	push	{r4, r5, r6, lr}
10007f92:	0004      	movs	r4, r0
10007f94:	f001 fabe 	bl	10009514 <vPortEnterCritical>
10007f98:	4d4b      	ldr	r5, [pc, #300]	; (100080c8 <vTaskSuspend+0x138>)
10007f9a:	2c00      	cmp	r4, #0
10007f9c:	d047      	beq.n	1000802e <vTaskSuspend+0x9e>
10007f9e:	1d26      	adds	r6, r4, #4
10007fa0:	0030      	movs	r0, r6
10007fa2:	f001 fb73 	bl	1000968c <uxListRemove>
10007fa6:	6aa3      	ldr	r3, [r4, #40]	; 0x28
10007fa8:	2b00      	cmp	r3, #0
10007faa:	d003      	beq.n	10007fb4 <vTaskSuspend+0x24>
10007fac:	0020      	movs	r0, r4
10007fae:	3018      	adds	r0, #24
10007fb0:	f001 fb6c 	bl	1000968c <uxListRemove>
10007fb4:	0028      	movs	r0, r5
10007fb6:	0031      	movs	r1, r6
10007fb8:	3008      	adds	r0, #8
10007fba:	f001 fb43 	bl	10009644 <vListInsertEnd>
10007fbe:	2364      	movs	r3, #100	; 0x64
10007fc0:	5ce2      	ldrb	r2, [r4, r3]
10007fc2:	2a01      	cmp	r2, #1
10007fc4:	d101      	bne.n	10007fca <vTaskSuspend+0x3a>
10007fc6:	2200      	movs	r2, #0
10007fc8:	54e2      	strb	r2, [r4, r3]
10007fca:	2365      	movs	r3, #101	; 0x65
10007fcc:	5ce2      	ldrb	r2, [r4, r3]
10007fce:	2a01      	cmp	r2, #1
10007fd0:	d101      	bne.n	10007fd6 <vTaskSuspend+0x46>
10007fd2:	2200      	movs	r2, #0
10007fd4:	54e2      	strb	r2, [r4, r3]
10007fd6:	2366      	movs	r3, #102	; 0x66
10007fd8:	5ce2      	ldrb	r2, [r4, r3]
10007fda:	2a01      	cmp	r2, #1
10007fdc:	d101      	bne.n	10007fe2 <vTaskSuspend+0x52>
10007fde:	2200      	movs	r2, #0
10007fe0:	54e2      	strb	r2, [r4, r3]
10007fe2:	f001 faa3 	bl	1000952c <vPortExitCritical>
10007fe6:	6f2b      	ldr	r3, [r5, #112]	; 0x70
10007fe8:	2b00      	cmp	r3, #0
10007fea:	d103      	bne.n	10007ff4 <vTaskSuspend+0x64>
10007fec:	686b      	ldr	r3, [r5, #4]
10007fee:	42a3      	cmp	r3, r4
10007ff0:	d00f      	beq.n	10008012 <vTaskSuspend+0x82>
10007ff2:	bd70      	pop	{r4, r5, r6, pc}
10007ff4:	f001 fa8e 	bl	10009514 <vPortEnterCritical>
10007ff8:	6a2b      	ldr	r3, [r5, #32]
10007ffa:	681b      	ldr	r3, [r3, #0]
10007ffc:	2b00      	cmp	r3, #0
10007ffe:	d018      	beq.n	10008032 <vTaskSuspend+0xa2>
10008000:	6a2b      	ldr	r3, [r5, #32]
10008002:	68db      	ldr	r3, [r3, #12]
10008004:	681b      	ldr	r3, [r3, #0]
10008006:	626b      	str	r3, [r5, #36]	; 0x24
10008008:	f001 fa90 	bl	1000952c <vPortExitCritical>
1000800c:	686b      	ldr	r3, [r5, #4]
1000800e:	42a3      	cmp	r3, r4
10008010:	d1ef      	bne.n	10007ff2 <vTaskSuspend+0x62>
10008012:	6f2a      	ldr	r2, [r5, #112]	; 0x70
10008014:	2a00      	cmp	r2, #0
10008016:	d111      	bne.n	1000803c <vTaskSuspend+0xac>
10008018:	4b2c      	ldr	r3, [pc, #176]	; (100080cc <vTaskSuspend+0x13c>)
1000801a:	68a8      	ldr	r0, [r5, #8]
1000801c:	6999      	ldr	r1, [r3, #24]
1000801e:	4288      	cmp	r0, r1
10008020:	d00a      	beq.n	10008038 <vTaskSuspend+0xa8>
10008022:	6faa      	ldr	r2, [r5, #120]	; 0x78
10008024:	2a00      	cmp	r2, #0
10008026:	d00c      	beq.n	10008042 <vTaskSuspend+0xb2>
10008028:	2301      	movs	r3, #1
1000802a:	632b      	str	r3, [r5, #48]	; 0x30
1000802c:	e7e1      	b.n	10007ff2 <vTaskSuspend+0x62>
1000802e:	686c      	ldr	r4, [r5, #4]
10008030:	e7b5      	b.n	10007f9e <vTaskSuspend+0xe>
10008032:	3b01      	subs	r3, #1
10008034:	626b      	str	r3, [r5, #36]	; 0x24
10008036:	e7e7      	b.n	10008008 <vTaskSuspend+0x78>
10008038:	606a      	str	r2, [r5, #4]
1000803a:	e7da      	b.n	10007ff2 <vTaskSuspend+0x62>
1000803c:	f001 fa5e 	bl	100094fc <vPortYield>
10008040:	e7d7      	b.n	10007ff2 <vTaskSuspend+0x62>
10008042:	632a      	str	r2, [r5, #48]	; 0x30
10008044:	6ae9      	ldr	r1, [r5, #44]	; 0x2c
10008046:	008a      	lsls	r2, r1, #2
10008048:	1850      	adds	r0, r2, r1
1000804a:	0080      	lsls	r0, r0, #2
1000804c:	1818      	adds	r0, r3, r0
1000804e:	69c0      	ldr	r0, [r0, #28]
10008050:	2800      	cmp	r0, #0
10008052:	d125      	bne.n	100080a0 <vTaskSuspend+0x110>
10008054:	1e4c      	subs	r4, r1, #1
10008056:	00a2      	lsls	r2, r4, #2
10008058:	1910      	adds	r0, r2, r4
1000805a:	0080      	lsls	r0, r0, #2
1000805c:	1818      	adds	r0, r3, r0
1000805e:	69c0      	ldr	r0, [r0, #28]
10008060:	2800      	cmp	r0, #0
10008062:	d12e      	bne.n	100080c2 <vTaskSuspend+0x132>
10008064:	1e8c      	subs	r4, r1, #2
10008066:	00a2      	lsls	r2, r4, #2
10008068:	1910      	adds	r0, r2, r4
1000806a:	0080      	lsls	r0, r0, #2
1000806c:	1818      	adds	r0, r3, r0
1000806e:	69c0      	ldr	r0, [r0, #28]
10008070:	2800      	cmp	r0, #0
10008072:	d126      	bne.n	100080c2 <vTaskSuspend+0x132>
10008074:	1ecc      	subs	r4, r1, #3
10008076:	00a2      	lsls	r2, r4, #2
10008078:	1910      	adds	r0, r2, r4
1000807a:	0080      	lsls	r0, r0, #2
1000807c:	1818      	adds	r0, r3, r0
1000807e:	69c0      	ldr	r0, [r0, #28]
10008080:	2800      	cmp	r0, #0
10008082:	d11e      	bne.n	100080c2 <vTaskSuspend+0x132>
10008084:	1f0c      	subs	r4, r1, #4
10008086:	00a2      	lsls	r2, r4, #2
10008088:	1910      	adds	r0, r2, r4
1000808a:	0080      	lsls	r0, r0, #2
1000808c:	1818      	adds	r0, r3, r0
1000808e:	69c0      	ldr	r0, [r0, #28]
10008090:	2800      	cmp	r0, #0
10008092:	d116      	bne.n	100080c2 <vTaskSuspend+0x132>
10008094:	3905      	subs	r1, #5
10008096:	008a      	lsls	r2, r1, #2
10008098:	1850      	adds	r0, r2, r1
1000809a:	0080      	lsls	r0, r0, #2
1000809c:	1818      	adds	r0, r3, r0
1000809e:	69c0      	ldr	r0, [r0, #28]
100080a0:	1852      	adds	r2, r2, r1
100080a2:	0092      	lsls	r2, r2, #2
100080a4:	189c      	adds	r4, r3, r2
100080a6:	0023      	movs	r3, r4
100080a8:	6a20      	ldr	r0, [r4, #32]
100080aa:	3324      	adds	r3, #36	; 0x24
100080ac:	6840      	ldr	r0, [r0, #4]
100080ae:	6220      	str	r0, [r4, #32]
100080b0:	4298      	cmp	r0, r3
100080b2:	d003      	beq.n	100080bc <vTaskSuspend+0x12c>
100080b4:	68c3      	ldr	r3, [r0, #12]
100080b6:	606b      	str	r3, [r5, #4]
100080b8:	62e9      	str	r1, [r5, #44]	; 0x2c
100080ba:	e79a      	b.n	10007ff2 <vTaskSuspend+0x62>
100080bc:	6840      	ldr	r0, [r0, #4]
100080be:	6220      	str	r0, [r4, #32]
100080c0:	e7f8      	b.n	100080b4 <vTaskSuspend+0x124>
100080c2:	0021      	movs	r1, r4
100080c4:	e7ec      	b.n	100080a0 <vTaskSuspend+0x110>
100080c6:	46c0      	nop			; (mov r8, r8)
100080c8:	200010d4 	.word	0x200010d4
100080cc:	20001054 	.word	0x20001054

100080d0 <vTaskResume>:
100080d0:	b5f8      	push	{r3, r4, r5, r6, r7, lr}
100080d2:	4d1e      	ldr	r5, [pc, #120]	; (1000814c <vTaskResume+0x7c>)
100080d4:	0004      	movs	r4, r0
100080d6:	686b      	ldr	r3, [r5, #4]
100080d8:	4283      	cmp	r3, r0
100080da:	d00a      	beq.n	100080f2 <vTaskResume+0x22>
100080dc:	2800      	cmp	r0, #0
100080de:	d008      	beq.n	100080f2 <vTaskResume+0x22>
100080e0:	f001 fa18 	bl	10009514 <vPortEnterCritical>
100080e4:	002b      	movs	r3, r5
100080e6:	6962      	ldr	r2, [r4, #20]
100080e8:	3308      	adds	r3, #8
100080ea:	429a      	cmp	r2, r3
100080ec:	d002      	beq.n	100080f4 <vTaskResume+0x24>
100080ee:	f001 fa1d 	bl	1000952c <vPortExitCritical>
100080f2:	bdf8      	pop	{r3, r4, r5, r6, r7, pc}
100080f4:	002a      	movs	r2, r5
100080f6:	6aa3      	ldr	r3, [r4, #40]	; 0x28
100080f8:	325c      	adds	r2, #92	; 0x5c
100080fa:	4293      	cmp	r3, r2
100080fc:	d0f7      	beq.n	100080ee <vTaskResume+0x1e>
100080fe:	2b00      	cmp	r3, #0
10008100:	d1f5      	bne.n	100080ee <vTaskResume+0x1e>
10008102:	1d26      	adds	r6, r4, #4
10008104:	0030      	movs	r0, r6
10008106:	f001 fac1 	bl	1000968c <uxListRemove>
1000810a:	6ae1      	ldr	r1, [r4, #44]	; 0x2c
1000810c:	6aeb      	ldr	r3, [r5, #44]	; 0x2c
1000810e:	4299      	cmp	r1, r3
10008110:	d900      	bls.n	10008114 <vTaskResume+0x44>
10008112:	62e9      	str	r1, [r5, #44]	; 0x2c
10008114:	4b0e      	ldr	r3, [pc, #56]	; (10008150 <vTaskResume+0x80>)
10008116:	008a      	lsls	r2, r1, #2
10008118:	469c      	mov	ip, r3
1000811a:	1852      	adds	r2, r2, r1
1000811c:	0092      	lsls	r2, r2, #2
1000811e:	189f      	adds	r7, r3, r2
10008120:	6a38      	ldr	r0, [r7, #32]
10008122:	6883      	ldr	r3, [r0, #8]
10008124:	60a0      	str	r0, [r4, #8]
10008126:	60e3      	str	r3, [r4, #12]
10008128:	6883      	ldr	r3, [r0, #8]
1000812a:	605e      	str	r6, [r3, #4]
1000812c:	4663      	mov	r3, ip
1000812e:	331c      	adds	r3, #28
10008130:	189b      	adds	r3, r3, r2
10008132:	6086      	str	r6, [r0, #8]
10008134:	6163      	str	r3, [r4, #20]
10008136:	69fb      	ldr	r3, [r7, #28]
10008138:	3301      	adds	r3, #1
1000813a:	61fb      	str	r3, [r7, #28]
1000813c:	686b      	ldr	r3, [r5, #4]
1000813e:	6adb      	ldr	r3, [r3, #44]	; 0x2c
10008140:	4299      	cmp	r1, r3
10008142:	d3d4      	bcc.n	100080ee <vTaskResume+0x1e>
10008144:	f001 f9da 	bl	100094fc <vPortYield>
10008148:	e7d1      	b.n	100080ee <vTaskResume+0x1e>
1000814a:	46c0      	nop			; (mov r8, r8)
1000814c:	200010d4 	.word	0x200010d4
10008150:	20001054 	.word	0x20001054

10008154 <xTaskResumeFromISR>:
10008154:	b5f0      	push	{r4, r5, r6, r7, lr}
10008156:	46c6      	mov	lr, r8
10008158:	b500      	push	{lr}
1000815a:	0004      	movs	r4, r0
1000815c:	f001 f9f0 	bl	10009540 <ulSetInterruptMaskFromISR>
10008160:	4e22      	ldr	r6, [pc, #136]	; (100081ec <xTaskResumeFromISR+0x98>)
10008162:	6962      	ldr	r2, [r4, #20]
10008164:	0033      	movs	r3, r6
10008166:	3308      	adds	r3, #8
10008168:	0005      	movs	r5, r0
1000816a:	2700      	movs	r7, #0
1000816c:	429a      	cmp	r2, r3
1000816e:	d006      	beq.n	1000817e <xTaskResumeFromISR+0x2a>
10008170:	0028      	movs	r0, r5
10008172:	f001 f9e9 	bl	10009548 <vClearInterruptMaskFromISR>
10008176:	0038      	movs	r0, r7
10008178:	bc80      	pop	{r7}
1000817a:	46b8      	mov	r8, r7
1000817c:	bdf0      	pop	{r4, r5, r6, r7, pc}
1000817e:	0030      	movs	r0, r6
10008180:	6aa3      	ldr	r3, [r4, #40]	; 0x28
10008182:	305c      	adds	r0, #92	; 0x5c
10008184:	4283      	cmp	r3, r0
10008186:	d0f3      	beq.n	10008170 <xTaskResumeFromISR+0x1c>
10008188:	2b00      	cmp	r3, #0
1000818a:	d1f1      	bne.n	10008170 <xTaskResumeFromISR+0x1c>
1000818c:	6fb3      	ldr	r3, [r6, #120]	; 0x78
1000818e:	2b00      	cmp	r3, #0
10008190:	d127      	bne.n	100081e2 <xTaskResumeFromISR+0x8e>
10008192:	6873      	ldr	r3, [r6, #4]
10008194:	6ae2      	ldr	r2, [r4, #44]	; 0x2c
10008196:	6adb      	ldr	r3, [r3, #44]	; 0x2c
10008198:	429a      	cmp	r2, r3
1000819a:	d302      	bcc.n	100081a2 <xTaskResumeFromISR+0x4e>
1000819c:	2301      	movs	r3, #1
1000819e:	3701      	adds	r7, #1
100081a0:	6333      	str	r3, [r6, #48]	; 0x30
100081a2:	1d23      	adds	r3, r4, #4
100081a4:	0018      	movs	r0, r3
100081a6:	4698      	mov	r8, r3
100081a8:	f001 fa70 	bl	1000968c <uxListRemove>
100081ac:	6ae1      	ldr	r1, [r4, #44]	; 0x2c
100081ae:	6af3      	ldr	r3, [r6, #44]	; 0x2c
100081b0:	4299      	cmp	r1, r3
100081b2:	d900      	bls.n	100081b6 <xTaskResumeFromISR+0x62>
100081b4:	62f1      	str	r1, [r6, #44]	; 0x2c
100081b6:	008a      	lsls	r2, r1, #2
100081b8:	4b0d      	ldr	r3, [pc, #52]	; (100081f0 <xTaskResumeFromISR+0x9c>)
100081ba:	1852      	adds	r2, r2, r1
100081bc:	0092      	lsls	r2, r2, #2
100081be:	189e      	adds	r6, r3, r2
100081c0:	469c      	mov	ip, r3
100081c2:	4643      	mov	r3, r8
100081c4:	6a31      	ldr	r1, [r6, #32]
100081c6:	6888      	ldr	r0, [r1, #8]
100081c8:	60a1      	str	r1, [r4, #8]
100081ca:	60e0      	str	r0, [r4, #12]
100081cc:	6888      	ldr	r0, [r1, #8]
100081ce:	6043      	str	r3, [r0, #4]
100081d0:	608b      	str	r3, [r1, #8]
100081d2:	4663      	mov	r3, ip
100081d4:	331c      	adds	r3, #28
100081d6:	189b      	adds	r3, r3, r2
100081d8:	6163      	str	r3, [r4, #20]
100081da:	69f3      	ldr	r3, [r6, #28]
100081dc:	3301      	adds	r3, #1
100081de:	61f3      	str	r3, [r6, #28]
100081e0:	e7c6      	b.n	10008170 <xTaskResumeFromISR+0x1c>
100081e2:	0021      	movs	r1, r4
100081e4:	3118      	adds	r1, #24
100081e6:	f001 fa2d 	bl	10009644 <vListInsertEnd>
100081ea:	e7c1      	b.n	10008170 <xTaskResumeFromISR+0x1c>
100081ec:	200010d4 	.word	0x200010d4
100081f0:	20001054 	.word	0x20001054

100081f4 <vTaskStartScheduler>:
100081f4:	b5f8      	push	{r3, r4, r5, r6, r7, lr}
100081f6:	2080      	movs	r0, #128	; 0x80
100081f8:	46ce      	mov	lr, r9
100081fa:	4647      	mov	r7, r8
100081fc:	0080      	lsls	r0, r0, #2
100081fe:	b580      	push	{r7, lr}
10008200:	f001 f92a 	bl	10009458 <pvPortMalloc>
10008204:	1e05      	subs	r5, r0, #0
10008206:	d05f      	beq.n	100082c8 <vTaskStartScheduler+0xd4>
10008208:	2068      	movs	r0, #104	; 0x68
1000820a:	f001 f925 	bl	10009458 <pvPortMalloc>
1000820e:	1e04      	subs	r4, r0, #0
10008210:	d060      	beq.n	100082d4 <vTaskStartScheduler+0xe0>
10008212:	2268      	movs	r2, #104	; 0x68
10008214:	2100      	movs	r1, #0
10008216:	f7fc fbb9 	bl	1000498c <__wrap_memset>
1000821a:	2307      	movs	r3, #7
1000821c:	6325      	str	r5, [r4, #48]	; 0x30
1000821e:	35fd      	adds	r5, #253	; 0xfd
10008220:	35ff      	adds	r5, #255	; 0xff
10008222:	439d      	bics	r5, r3
10008224:	4b49      	ldr	r3, [pc, #292]	; (1000834c <vTaskStartScheduler+0x158>)
10008226:	1d27      	adds	r7, r4, #4
10008228:	6363      	str	r3, [r4, #52]	; 0x34
1000822a:	0038      	movs	r0, r7
1000822c:	f001 fa06 	bl	1000963c <vListInitialiseItem>
10008230:	0020      	movs	r0, r4
10008232:	3018      	adds	r0, #24
10008234:	f001 fa02 	bl	1000963c <vListInitialiseItem>
10008238:	2305      	movs	r3, #5
1000823a:	2200      	movs	r2, #0
1000823c:	61a3      	str	r3, [r4, #24]
1000823e:	0028      	movs	r0, r5
10008240:	4943      	ldr	r1, [pc, #268]	; (10008350 <vTaskStartScheduler+0x15c>)
10008242:	6124      	str	r4, [r4, #16]
10008244:	6264      	str	r4, [r4, #36]	; 0x24
10008246:	f001 f945 	bl	100094d4 <pxPortInitialiseStack>
1000824a:	4d42      	ldr	r5, [pc, #264]	; (10008354 <vTaskStartScheduler+0x160>)
1000824c:	6020      	str	r0, [r4, #0]
1000824e:	67ec      	str	r4, [r5, #124]	; 0x7c
10008250:	f001 f960 	bl	10009514 <vPortEnterCritical>
10008254:	4e40      	ldr	r6, [pc, #256]	; (10008358 <vTaskStartScheduler+0x164>)
10008256:	69b3      	ldr	r3, [r6, #24]
10008258:	3301      	adds	r3, #1
1000825a:	61b3      	str	r3, [r6, #24]
1000825c:	686b      	ldr	r3, [r5, #4]
1000825e:	2b00      	cmp	r3, #0
10008260:	d043      	beq.n	100082ea <vTaskStartScheduler+0xf6>
10008262:	6f2b      	ldr	r3, [r5, #112]	; 0x70
10008264:	2b00      	cmp	r3, #0
10008266:	d039      	beq.n	100082dc <vTaskStartScheduler+0xe8>
10008268:	6ae2      	ldr	r2, [r4, #44]	; 0x2c
1000826a:	6f6b      	ldr	r3, [r5, #116]	; 0x74
1000826c:	3301      	adds	r3, #1
1000826e:	676b      	str	r3, [r5, #116]	; 0x74
10008270:	6aeb      	ldr	r3, [r5, #44]	; 0x2c
10008272:	4293      	cmp	r3, r2
10008274:	d200      	bcs.n	10008278 <vTaskStartScheduler+0x84>
10008276:	62ea      	str	r2, [r5, #44]	; 0x2c
10008278:	0093      	lsls	r3, r2, #2
1000827a:	189b      	adds	r3, r3, r2
1000827c:	009b      	lsls	r3, r3, #2
1000827e:	18f1      	adds	r1, r6, r3
10008280:	6a0a      	ldr	r2, [r1, #32]
10008282:	361c      	adds	r6, #28
10008284:	6890      	ldr	r0, [r2, #8]
10008286:	18f6      	adds	r6, r6, r3
10008288:	60e0      	str	r0, [r4, #12]
1000828a:	69cb      	ldr	r3, [r1, #28]
1000828c:	6890      	ldr	r0, [r2, #8]
1000828e:	3301      	adds	r3, #1
10008290:	60a2      	str	r2, [r4, #8]
10008292:	6047      	str	r7, [r0, #4]
10008294:	6097      	str	r7, [r2, #8]
10008296:	6166      	str	r6, [r4, #20]
10008298:	61cb      	str	r3, [r1, #28]
1000829a:	f001 f947 	bl	1000952c <vPortExitCritical>
1000829e:	6f2b      	ldr	r3, [r5, #112]	; 0x70
100082a0:	2b00      	cmp	r3, #0
100082a2:	d004      	beq.n	100082ae <vTaskStartScheduler+0xba>
100082a4:	686b      	ldr	r3, [r5, #4]
100082a6:	6ada      	ldr	r2, [r3, #44]	; 0x2c
100082a8:	6ae3      	ldr	r3, [r4, #44]	; 0x2c
100082aa:	429a      	cmp	r2, r3
100082ac:	d34b      	bcc.n	10008346 <vTaskStartScheduler+0x152>
100082ae:	f000 ffc5 	bl	1000923c <xTimerCreateTimerTask>
100082b2:	2801      	cmp	r0, #1
100082b4:	d108      	bne.n	100082c8 <vTaskStartScheduler+0xd4>
100082b6:	b672      	cpsid	i
100082b8:	2301      	movs	r3, #1
100082ba:	425b      	negs	r3, r3
100082bc:	626b      	str	r3, [r5, #36]	; 0x24
100082be:	2300      	movs	r3, #0
100082c0:	6728      	str	r0, [r5, #112]	; 0x70
100082c2:	602b      	str	r3, [r5, #0]
100082c4:	f001 f98c 	bl	100095e0 <xPortStartScheduler>
100082c8:	4b24      	ldr	r3, [pc, #144]	; (1000835c <vTaskStartScheduler+0x168>)
100082ca:	681b      	ldr	r3, [r3, #0]
100082cc:	bcc0      	pop	{r6, r7}
100082ce:	46b9      	mov	r9, r7
100082d0:	46b0      	mov	r8, r6
100082d2:	bdf8      	pop	{r3, r4, r5, r6, r7, pc}
100082d4:	0028      	movs	r0, r5
100082d6:	f001 f8cb 	bl	10009470 <vPortFree>
100082da:	e7f5      	b.n	100082c8 <vTaskStartScheduler+0xd4>
100082dc:	686b      	ldr	r3, [r5, #4]
100082de:	6ae2      	ldr	r2, [r4, #44]	; 0x2c
100082e0:	6adb      	ldr	r3, [r3, #44]	; 0x2c
100082e2:	4293      	cmp	r3, r2
100082e4:	d8c1      	bhi.n	1000826a <vTaskStartScheduler+0x76>
100082e6:	606c      	str	r4, [r5, #4]
100082e8:	e7bf      	b.n	1000826a <vTaskStartScheduler+0x76>
100082ea:	606c      	str	r4, [r5, #4]
100082ec:	69b3      	ldr	r3, [r6, #24]
100082ee:	2b01      	cmp	r3, #1
100082f0:	d1ba      	bne.n	10008268 <vTaskStartScheduler+0x74>
100082f2:	231c      	movs	r3, #28
100082f4:	4698      	mov	r8, r3
100082f6:	3364      	adds	r3, #100	; 0x64
100082f8:	4699      	mov	r9, r3
100082fa:	44b0      	add	r8, r6
100082fc:	44b1      	add	r9, r6
100082fe:	4640      	mov	r0, r8
10008300:	f001 f990 	bl	10009624 <vListInitialise>
10008304:	2314      	movs	r3, #20
10008306:	469c      	mov	ip, r3
10008308:	44e0      	add	r8, ip
1000830a:	45c8      	cmp	r8, r9
1000830c:	d1f7      	bne.n	100082fe <vTaskStartScheduler+0x10a>
1000830e:	3320      	adds	r3, #32
10008310:	4699      	mov	r9, r3
10008312:	44a9      	add	r9, r5
10008314:	4648      	mov	r0, r9
10008316:	f001 f985 	bl	10009624 <vListInitialise>
1000831a:	2348      	movs	r3, #72	; 0x48
1000831c:	4698      	mov	r8, r3
1000831e:	44a8      	add	r8, r5
10008320:	4640      	mov	r0, r8
10008322:	f001 f97f 	bl	10009624 <vListInitialise>
10008326:	0028      	movs	r0, r5
10008328:	305c      	adds	r0, #92	; 0x5c
1000832a:	f001 f97b 	bl	10009624 <vListInitialise>
1000832e:	1d30      	adds	r0, r6, #4
10008330:	f001 f978 	bl	10009624 <vListInitialise>
10008334:	0028      	movs	r0, r5
10008336:	3008      	adds	r0, #8
10008338:	f001 f974 	bl	10009624 <vListInitialise>
1000833c:	464b      	mov	r3, r9
1000833e:	622b      	str	r3, [r5, #32]
10008340:	4643      	mov	r3, r8
10008342:	61eb      	str	r3, [r5, #28]
10008344:	e790      	b.n	10008268 <vTaskStartScheduler+0x74>
10008346:	f001 f8d9 	bl	100094fc <vPortYield>
1000834a:	e7b0      	b.n	100082ae <vTaskStartScheduler+0xba>
1000834c:	454c4449 	.word	0x454c4449
10008350:	100079f5 	.word	0x100079f5
10008354:	200010d4 	.word	0x200010d4
10008358:	20001054 	.word	0x20001054
1000835c:	20000478 	.word	0x20000478

10008360 <vTaskEndScheduler>:
10008360:	b510      	push	{r4, lr}
10008362:	b672      	cpsid	i
10008364:	2200      	movs	r2, #0
10008366:	4b02      	ldr	r3, [pc, #8]	; (10008370 <vTaskEndScheduler+0x10>)
10008368:	671a      	str	r2, [r3, #112]	; 0x70
1000836a:	f001 f8c5 	bl	100094f8 <vPortEndScheduler>
1000836e:	bd10      	pop	{r4, pc}
10008370:	200010d4 	.word	0x200010d4

10008374 <vTaskSuspendAll>:
10008374:	4a02      	ldr	r2, [pc, #8]	; (10008380 <vTaskSuspendAll+0xc>)
10008376:	6f93      	ldr	r3, [r2, #120]	; 0x78
10008378:	3301      	adds	r3, #1
1000837a:	6793      	str	r3, [r2, #120]	; 0x78
1000837c:	4770      	bx	lr
1000837e:	46c0      	nop			; (mov r8, r8)
10008380:	200010d4 	.word	0x200010d4

10008384 <xTaskResumeAll>:
10008384:	b5f0      	push	{r4, r5, r6, r7, lr}
10008386:	46d6      	mov	lr, sl
10008388:	464f      	mov	r7, r9
1000838a:	4646      	mov	r6, r8
1000838c:	b5c0      	push	{r6, r7, lr}
1000838e:	f001 f8c1 	bl	10009514 <vPortEnterCritical>
10008392:	4c46      	ldr	r4, [pc, #280]	; (100084ac <xTaskResumeAll+0x128>)
10008394:	6fa3      	ldr	r3, [r4, #120]	; 0x78
10008396:	3b01      	subs	r3, #1
10008398:	67a3      	str	r3, [r4, #120]	; 0x78
1000839a:	6fa3      	ldr	r3, [r4, #120]	; 0x78
1000839c:	2b00      	cmp	r3, #0
1000839e:	d16b      	bne.n	10008478 <xTaskResumeAll+0xf4>
100083a0:	4b43      	ldr	r3, [pc, #268]	; (100084b0 <xTaskResumeAll+0x12c>)
100083a2:	469a      	mov	sl, r3
100083a4:	699b      	ldr	r3, [r3, #24]
100083a6:	2b00      	cmp	r3, #0
100083a8:	d066      	beq.n	10008478 <xTaskResumeAll+0xf4>
100083aa:	6de3      	ldr	r3, [r4, #92]	; 0x5c
100083ac:	2b00      	cmp	r3, #0
100083ae:	d048      	beq.n	10008442 <xTaskResumeAll+0xbe>
100083b0:	2300      	movs	r3, #0
100083b2:	4699      	mov	r9, r3
100083b4:	331c      	adds	r3, #28
100083b6:	4698      	mov	r8, r3
100083b8:	3b1b      	subs	r3, #27
100083ba:	469c      	mov	ip, r3
100083bc:	44d0      	add	r8, sl
100083be:	6ea3      	ldr	r3, [r4, #104]	; 0x68
100083c0:	68db      	ldr	r3, [r3, #12]
100083c2:	69d8      	ldr	r0, [r3, #28]
100083c4:	6a19      	ldr	r1, [r3, #32]
100083c6:	6a9a      	ldr	r2, [r3, #40]	; 0x28
100083c8:	6081      	str	r1, [r0, #8]
100083ca:	6048      	str	r0, [r1, #4]
100083cc:	0018      	movs	r0, r3
100083ce:	6856      	ldr	r6, [r2, #4]
100083d0:	3018      	adds	r0, #24
100083d2:	4286      	cmp	r6, r0
100083d4:	d05f      	beq.n	10008496 <xTaskResumeAll+0x112>
100083d6:	4649      	mov	r1, r9
100083d8:	6299      	str	r1, [r3, #40]	; 0x28
100083da:	6811      	ldr	r1, [r2, #0]
100083dc:	3901      	subs	r1, #1
100083de:	6011      	str	r1, [r2, #0]
100083e0:	695a      	ldr	r2, [r3, #20]
100083e2:	6898      	ldr	r0, [r3, #8]
100083e4:	68d9      	ldr	r1, [r3, #12]
100083e6:	1d1f      	adds	r7, r3, #4
100083e8:	6081      	str	r1, [r0, #8]
100083ea:	6048      	str	r0, [r1, #4]
100083ec:	6850      	ldr	r0, [r2, #4]
100083ee:	42b8      	cmp	r0, r7
100083f0:	d04f      	beq.n	10008492 <xTaskResumeAll+0x10e>
100083f2:	6811      	ldr	r1, [r2, #0]
100083f4:	3901      	subs	r1, #1
100083f6:	6011      	str	r1, [r2, #0]
100083f8:	6ae2      	ldr	r2, [r4, #44]	; 0x2c
100083fa:	6ad9      	ldr	r1, [r3, #44]	; 0x2c
100083fc:	4291      	cmp	r1, r2
100083fe:	d900      	bls.n	10008402 <xTaskResumeAll+0x7e>
10008400:	62e1      	str	r1, [r4, #44]	; 0x2c
10008402:	4650      	mov	r0, sl
10008404:	008a      	lsls	r2, r1, #2
10008406:	1852      	adds	r2, r2, r1
10008408:	0092      	lsls	r2, r2, #2
1000840a:	1886      	adds	r6, r0, r2
1000840c:	6a30      	ldr	r0, [r6, #32]
1000840e:	4442      	add	r2, r8
10008410:	6885      	ldr	r5, [r0, #8]
10008412:	6098      	str	r0, [r3, #8]
10008414:	60dd      	str	r5, [r3, #12]
10008416:	6885      	ldr	r5, [r0, #8]
10008418:	606f      	str	r7, [r5, #4]
1000841a:	6087      	str	r7, [r0, #8]
1000841c:	615a      	str	r2, [r3, #20]
1000841e:	69f3      	ldr	r3, [r6, #28]
10008420:	3301      	adds	r3, #1
10008422:	61f3      	str	r3, [r6, #28]
10008424:	6863      	ldr	r3, [r4, #4]
10008426:	6adb      	ldr	r3, [r3, #44]	; 0x2c
10008428:	4299      	cmp	r1, r3
1000842a:	d32e      	bcc.n	1000848a <xTaskResumeAll+0x106>
1000842c:	4663      	mov	r3, ip
1000842e:	6323      	str	r3, [r4, #48]	; 0x30
10008430:	6de3      	ldr	r3, [r4, #92]	; 0x5c
10008432:	2b00      	cmp	r3, #0
10008434:	d1c3      	bne.n	100083be <xTaskResumeAll+0x3a>
10008436:	6a23      	ldr	r3, [r4, #32]
10008438:	681b      	ldr	r3, [r3, #0]
1000843a:	2b00      	cmp	r3, #0
1000843c:	d12d      	bne.n	1000849a <xTaskResumeAll+0x116>
1000843e:	3b01      	subs	r3, #1
10008440:	6263      	str	r3, [r4, #36]	; 0x24
10008442:	4e1c      	ldr	r6, [pc, #112]	; (100084b4 <xTaskResumeAll+0x130>)
10008444:	6835      	ldr	r5, [r6, #0]
10008446:	2d00      	cmp	r5, #0
10008448:	d013      	beq.n	10008472 <xTaskResumeAll+0xee>
1000844a:	2701      	movs	r7, #1
1000844c:	e007      	b.n	1000845e <xTaskResumeAll+0xda>
1000844e:	f7ff fb2f 	bl	10007ab0 <xTaskIncrementTick.part.0>
10008452:	2800      	cmp	r0, #0
10008454:	d000      	beq.n	10008458 <xTaskResumeAll+0xd4>
10008456:	6327      	str	r7, [r4, #48]	; 0x30
10008458:	3d01      	subs	r5, #1
1000845a:	2d00      	cmp	r5, #0
1000845c:	d008      	beq.n	10008470 <xTaskResumeAll+0xec>
1000845e:	6fa3      	ldr	r3, [r4, #120]	; 0x78
10008460:	2b00      	cmp	r3, #0
10008462:	d0f4      	beq.n	1000844e <xTaskResumeAll+0xca>
10008464:	6833      	ldr	r3, [r6, #0]
10008466:	3d01      	subs	r5, #1
10008468:	3301      	adds	r3, #1
1000846a:	6033      	str	r3, [r6, #0]
1000846c:	2d00      	cmp	r5, #0
1000846e:	d1f6      	bne.n	1000845e <xTaskResumeAll+0xda>
10008470:	6035      	str	r5, [r6, #0]
10008472:	6b23      	ldr	r3, [r4, #48]	; 0x30
10008474:	2b00      	cmp	r3, #0
10008476:	d115      	bne.n	100084a4 <xTaskResumeAll+0x120>
10008478:	2400      	movs	r4, #0
1000847a:	f001 f857 	bl	1000952c <vPortExitCritical>
1000847e:	0020      	movs	r0, r4
10008480:	bce0      	pop	{r5, r6, r7}
10008482:	46ba      	mov	sl, r7
10008484:	46b1      	mov	r9, r6
10008486:	46a8      	mov	r8, r5
10008488:	bdf0      	pop	{r4, r5, r6, r7, pc}
1000848a:	6de3      	ldr	r3, [r4, #92]	; 0x5c
1000848c:	2b00      	cmp	r3, #0
1000848e:	d196      	bne.n	100083be <xTaskResumeAll+0x3a>
10008490:	e7d1      	b.n	10008436 <xTaskResumeAll+0xb2>
10008492:	6051      	str	r1, [r2, #4]
10008494:	e7ad      	b.n	100083f2 <xTaskResumeAll+0x6e>
10008496:	6051      	str	r1, [r2, #4]
10008498:	e79d      	b.n	100083d6 <xTaskResumeAll+0x52>
1000849a:	6a23      	ldr	r3, [r4, #32]
1000849c:	68db      	ldr	r3, [r3, #12]
1000849e:	681b      	ldr	r3, [r3, #0]
100084a0:	6263      	str	r3, [r4, #36]	; 0x24
100084a2:	e7ce      	b.n	10008442 <xTaskResumeAll+0xbe>
100084a4:	f001 f82a 	bl	100094fc <vPortYield>
100084a8:	2401      	movs	r4, #1
100084aa:	e7e6      	b.n	1000847a <xTaskResumeAll+0xf6>
100084ac:	200010d4 	.word	0x200010d4
100084b0:	20001054 	.word	0x20001054
100084b4:	20001154 	.word	0x20001154

100084b8 <xTaskDelayUntil>:
100084b8:	b5f8      	push	{r3, r4, r5, r6, r7, lr}
100084ba:	4e1d      	ldr	r6, [pc, #116]	; (10008530 <xTaskDelayUntil+0x78>)
100084bc:	6fb3      	ldr	r3, [r6, #120]	; 0x78
100084be:	3301      	adds	r3, #1
100084c0:	67b3      	str	r3, [r6, #120]	; 0x78
100084c2:	6802      	ldr	r2, [r0, #0]
100084c4:	6835      	ldr	r5, [r6, #0]
100084c6:	1854      	adds	r4, r2, r1
100084c8:	6004      	str	r4, [r0, #0]
100084ca:	42aa      	cmp	r2, r5
100084cc:	d908      	bls.n	100084e0 <xTaskDelayUntil+0x28>
100084ce:	42a2      	cmp	r2, r4
100084d0:	d808      	bhi.n	100084e4 <xTaskDelayUntil+0x2c>
100084d2:	2500      	movs	r5, #0
100084d4:	f7ff ff56 	bl	10008384 <xTaskResumeAll>
100084d8:	2800      	cmp	r0, #0
100084da:	d01a      	beq.n	10008512 <xTaskDelayUntil+0x5a>
100084dc:	0028      	movs	r0, r5
100084de:	bdf8      	pop	{r3, r4, r5, r6, r7, pc}
100084e0:	42a2      	cmp	r2, r4
100084e2:	d801      	bhi.n	100084e8 <xTaskDelayUntil+0x30>
100084e4:	42a5      	cmp	r5, r4
100084e6:	d2f4      	bcs.n	100084d2 <xTaskDelayUntil+0x1a>
100084e8:	6837      	ldr	r7, [r6, #0]
100084ea:	6870      	ldr	r0, [r6, #4]
100084ec:	1b7d      	subs	r5, r7, r5
100084ee:	3004      	adds	r0, #4
100084f0:	f001 f8cc 	bl	1000968c <uxListRemove>
100084f4:	6873      	ldr	r3, [r6, #4]
100084f6:	1964      	adds	r4, r4, r5
100084f8:	605c      	str	r4, [r3, #4]
100084fa:	42a7      	cmp	r7, r4
100084fc:	d90c      	bls.n	10008518 <xTaskDelayUntil+0x60>
100084fe:	69f0      	ldr	r0, [r6, #28]
10008500:	6871      	ldr	r1, [r6, #4]
10008502:	2501      	movs	r5, #1
10008504:	3104      	adds	r1, #4
10008506:	f001 f8a9 	bl	1000965c <vListInsert>
1000850a:	f7ff ff3b 	bl	10008384 <xTaskResumeAll>
1000850e:	2800      	cmp	r0, #0
10008510:	d1e4      	bne.n	100084dc <xTaskDelayUntil+0x24>
10008512:	f000 fff3 	bl	100094fc <vPortYield>
10008516:	e7e1      	b.n	100084dc <xTaskDelayUntil+0x24>
10008518:	6a30      	ldr	r0, [r6, #32]
1000851a:	6871      	ldr	r1, [r6, #4]
1000851c:	2501      	movs	r5, #1
1000851e:	3104      	adds	r1, #4
10008520:	f001 f89c 	bl	1000965c <vListInsert>
10008524:	6a73      	ldr	r3, [r6, #36]	; 0x24
10008526:	429c      	cmp	r4, r3
10008528:	d2d4      	bcs.n	100084d4 <xTaskDelayUntil+0x1c>
1000852a:	6274      	str	r4, [r6, #36]	; 0x24
1000852c:	e7d2      	b.n	100084d4 <xTaskDelayUntil+0x1c>
1000852e:	46c0      	nop			; (mov r8, r8)
10008530:	200010d4 	.word	0x200010d4

10008534 <vTaskDelay>:
10008534:	b570      	push	{r4, r5, r6, lr}
10008536:	1e04      	subs	r4, r0, #0
10008538:	d016      	beq.n	10008568 <vTaskDelay+0x34>
1000853a:	4d12      	ldr	r5, [pc, #72]	; (10008584 <vTaskDelay+0x50>)
1000853c:	6fab      	ldr	r3, [r5, #120]	; 0x78
1000853e:	3301      	adds	r3, #1
10008540:	67ab      	str	r3, [r5, #120]	; 0x78
10008542:	682e      	ldr	r6, [r5, #0]
10008544:	6868      	ldr	r0, [r5, #4]
10008546:	19a4      	adds	r4, r4, r6
10008548:	3004      	adds	r0, #4
1000854a:	f001 f89f 	bl	1000968c <uxListRemove>
1000854e:	686b      	ldr	r3, [r5, #4]
10008550:	605c      	str	r4, [r3, #4]
10008552:	42a6      	cmp	r6, r4
10008554:	d90b      	bls.n	1000856e <vTaskDelay+0x3a>
10008556:	69e8      	ldr	r0, [r5, #28]
10008558:	6869      	ldr	r1, [r5, #4]
1000855a:	3104      	adds	r1, #4
1000855c:	f001 f87e 	bl	1000965c <vListInsert>
10008560:	f7ff ff10 	bl	10008384 <xTaskResumeAll>
10008564:	2800      	cmp	r0, #0
10008566:	d101      	bne.n	1000856c <vTaskDelay+0x38>
10008568:	f000 ffc8 	bl	100094fc <vPortYield>
1000856c:	bd70      	pop	{r4, r5, r6, pc}
1000856e:	6a28      	ldr	r0, [r5, #32]
10008570:	6869      	ldr	r1, [r5, #4]
10008572:	3104      	adds	r1, #4
10008574:	f001 f872 	bl	1000965c <vListInsert>
10008578:	6a6b      	ldr	r3, [r5, #36]	; 0x24
1000857a:	429c      	cmp	r4, r3
1000857c:	d2f0      	bcs.n	10008560 <vTaskDelay+0x2c>
1000857e:	626c      	str	r4, [r5, #36]	; 0x24
10008580:	e7ee      	b.n	10008560 <vTaskDelay+0x2c>
10008582:	46c0      	nop			; (mov r8, r8)
10008584:	200010d4 	.word	0x200010d4

10008588 <xTaskGetTickCount>:
10008588:	4b01      	ldr	r3, [pc, #4]	; (10008590 <xTaskGetTickCount+0x8>)
1000858a:	6818      	ldr	r0, [r3, #0]
1000858c:	4770      	bx	lr
1000858e:	46c0      	nop			; (mov r8, r8)
10008590:	200010d4 	.word	0x200010d4

10008594 <xTaskGetTickCountFromISR>:
10008594:	4b01      	ldr	r3, [pc, #4]	; (1000859c <xTaskGetTickCountFromISR+0x8>)
10008596:	6818      	ldr	r0, [r3, #0]
10008598:	4770      	bx	lr
1000859a:	46c0      	nop			; (mov r8, r8)
1000859c:	200010d4 	.word	0x200010d4

100085a0 <uxTaskGetNumberOfTasks>:
100085a0:	4b01      	ldr	r3, [pc, #4]	; (100085a8 <uxTaskGetNumberOfTasks+0x8>)
100085a2:	6998      	ldr	r0, [r3, #24]
100085a4:	4770      	bx	lr
100085a6:	46c0      	nop			; (mov r8, r8)
100085a8:	20001054 	.word	0x20001054

100085ac <pcTaskGetName>:
100085ac:	2800      	cmp	r0, #0
100085ae:	d001      	beq.n	100085b4 <pcTaskGetName+0x8>
100085b0:	3034      	adds	r0, #52	; 0x34
100085b2:	4770      	bx	lr
100085b4:	4b01      	ldr	r3, [pc, #4]	; (100085bc <pcTaskGetName+0x10>)
100085b6:	6858      	ldr	r0, [r3, #4]
100085b8:	e7fa      	b.n	100085b0 <pcTaskGetName+0x4>
100085ba:	46c0      	nop			; (mov r8, r8)
100085bc:	200010d4 	.word	0x200010d4

100085c0 <xTaskCatchUpTicks>:
100085c0:	4a08      	ldr	r2, [pc, #32]	; (100085e4 <xTaskCatchUpTicks+0x24>)
100085c2:	b510      	push	{r4, lr}
100085c4:	6f93      	ldr	r3, [r2, #120]	; 0x78
100085c6:	0004      	movs	r4, r0
100085c8:	3301      	adds	r3, #1
100085ca:	6793      	str	r3, [r2, #120]	; 0x78
100085cc:	f000 ffa2 	bl	10009514 <vPortEnterCritical>
100085d0:	4b05      	ldr	r3, [pc, #20]	; (100085e8 <xTaskCatchUpTicks+0x28>)
100085d2:	6818      	ldr	r0, [r3, #0]
100085d4:	1900      	adds	r0, r0, r4
100085d6:	6018      	str	r0, [r3, #0]
100085d8:	f000 ffa8 	bl	1000952c <vPortExitCritical>
100085dc:	f7ff fed2 	bl	10008384 <xTaskResumeAll>
100085e0:	bd10      	pop	{r4, pc}
100085e2:	46c0      	nop			; (mov r8, r8)
100085e4:	200010d4 	.word	0x200010d4
100085e8:	20001154 	.word	0x20001154

100085ec <xTaskIncrementTick>:
100085ec:	4b06      	ldr	r3, [pc, #24]	; (10008608 <xTaskIncrementTick+0x1c>)
100085ee:	b510      	push	{r4, lr}
100085f0:	6f9b      	ldr	r3, [r3, #120]	; 0x78
100085f2:	2b00      	cmp	r3, #0
100085f4:	d102      	bne.n	100085fc <xTaskIncrementTick+0x10>
100085f6:	f7ff fa5b 	bl	10007ab0 <xTaskIncrementTick.part.0>
100085fa:	bd10      	pop	{r4, pc}
100085fc:	4a03      	ldr	r2, [pc, #12]	; (1000860c <xTaskIncrementTick+0x20>)
100085fe:	2000      	movs	r0, #0
10008600:	6813      	ldr	r3, [r2, #0]
10008602:	3301      	adds	r3, #1
10008604:	6013      	str	r3, [r2, #0]
10008606:	e7f8      	b.n	100085fa <xTaskIncrementTick+0xe>
10008608:	200010d4 	.word	0x200010d4
1000860c:	20001154 	.word	0x20001154

10008610 <vTaskSwitchContext>:
10008610:	4826      	ldr	r0, [pc, #152]	; (100086ac <vTaskSwitchContext+0x9c>)
10008612:	b530      	push	{r4, r5, lr}
10008614:	6f83      	ldr	r3, [r0, #120]	; 0x78
10008616:	2b00      	cmp	r3, #0
10008618:	d002      	beq.n	10008620 <vTaskSwitchContext+0x10>
1000861a:	2301      	movs	r3, #1
1000861c:	6303      	str	r3, [r0, #48]	; 0x30
1000861e:	bd30      	pop	{r4, r5, pc}
10008620:	6303      	str	r3, [r0, #48]	; 0x30
10008622:	6ac1      	ldr	r1, [r0, #44]	; 0x2c
10008624:	4a22      	ldr	r2, [pc, #136]	; (100086b0 <vTaskSwitchContext+0xa0>)
10008626:	008b      	lsls	r3, r1, #2
10008628:	185c      	adds	r4, r3, r1
1000862a:	00a4      	lsls	r4, r4, #2
1000862c:	1914      	adds	r4, r2, r4
1000862e:	69e4      	ldr	r4, [r4, #28]
10008630:	2c00      	cmp	r4, #0
10008632:	d125      	bne.n	10008680 <vTaskSwitchContext+0x70>
10008634:	1e4d      	subs	r5, r1, #1
10008636:	00ab      	lsls	r3, r5, #2
10008638:	195c      	adds	r4, r3, r5
1000863a:	00a4      	lsls	r4, r4, #2
1000863c:	1914      	adds	r4, r2, r4
1000863e:	69e4      	ldr	r4, [r4, #28]
10008640:	2c00      	cmp	r4, #0
10008642:	d12b      	bne.n	1000869c <vTaskSwitchContext+0x8c>
10008644:	1e8d      	subs	r5, r1, #2
10008646:	00ab      	lsls	r3, r5, #2
10008648:	195c      	adds	r4, r3, r5
1000864a:	00a4      	lsls	r4, r4, #2
1000864c:	1914      	adds	r4, r2, r4
1000864e:	69e4      	ldr	r4, [r4, #28]
10008650:	2c00      	cmp	r4, #0
10008652:	d123      	bne.n	1000869c <vTaskSwitchContext+0x8c>
10008654:	1ecd      	subs	r5, r1, #3
10008656:	00ab      	lsls	r3, r5, #2
10008658:	195c      	adds	r4, r3, r5
1000865a:	00a4      	lsls	r4, r4, #2
1000865c:	1914      	adds	r4, r2, r4
1000865e:	69e4      	ldr	r4, [r4, #28]
10008660:	2c00      	cmp	r4, #0
10008662:	d11b      	bne.n	1000869c <vTaskSwitchContext+0x8c>
10008664:	1f0d      	subs	r5, r1, #4
10008666:	00ab      	lsls	r3, r5, #2
10008668:	195c      	adds	r4, r3, r5
1000866a:	00a4      	lsls	r4, r4, #2
1000866c:	1914      	adds	r4, r2, r4
1000866e:	69e4      	ldr	r4, [r4, #28]
10008670:	2c00      	cmp	r4, #0
10008672:	d113      	bne.n	1000869c <vTaskSwitchContext+0x8c>
10008674:	3905      	subs	r1, #5
10008676:	008b      	lsls	r3, r1, #2
10008678:	185c      	adds	r4, r3, r1
1000867a:	00a4      	lsls	r4, r4, #2
1000867c:	1914      	adds	r4, r2, r4
1000867e:	69e4      	ldr	r4, [r4, #28]
10008680:	185b      	adds	r3, r3, r1
10008682:	009b      	lsls	r3, r3, #2
10008684:	18d5      	adds	r5, r2, r3
10008686:	002b      	movs	r3, r5
10008688:	6a2c      	ldr	r4, [r5, #32]
1000868a:	3324      	adds	r3, #36	; 0x24
1000868c:	6864      	ldr	r4, [r4, #4]
1000868e:	622c      	str	r4, [r5, #32]
10008690:	429c      	cmp	r4, r3
10008692:	d005      	beq.n	100086a0 <vTaskSwitchContext+0x90>
10008694:	68e3      	ldr	r3, [r4, #12]
10008696:	6043      	str	r3, [r0, #4]
10008698:	62c1      	str	r1, [r0, #44]	; 0x2c
1000869a:	e7c0      	b.n	1000861e <vTaskSwitchContext+0xe>
1000869c:	0029      	movs	r1, r5
1000869e:	e7ef      	b.n	10008680 <vTaskSwitchContext+0x70>
100086a0:	6864      	ldr	r4, [r4, #4]
100086a2:	68e3      	ldr	r3, [r4, #12]
100086a4:	622c      	str	r4, [r5, #32]
100086a6:	6043      	str	r3, [r0, #4]
100086a8:	62c1      	str	r1, [r0, #44]	; 0x2c
100086aa:	e7b8      	b.n	1000861e <vTaskSwitchContext+0xe>
100086ac:	200010d4 	.word	0x200010d4
100086b0:	20001054 	.word	0x20001054

100086b4 <vTaskPlaceOnEventList>:
100086b4:	b570      	push	{r4, r5, r6, lr}
100086b6:	000d      	movs	r5, r1
100086b8:	4c1a      	ldr	r4, [pc, #104]	; (10008724 <vTaskPlaceOnEventList+0x70>)
100086ba:	6861      	ldr	r1, [r4, #4]
100086bc:	3118      	adds	r1, #24
100086be:	f000 ffcd 	bl	1000965c <vListInsert>
100086c2:	6826      	ldr	r6, [r4, #0]
100086c4:	6860      	ldr	r0, [r4, #4]
100086c6:	3004      	adds	r0, #4
100086c8:	f000 ffe0 	bl	1000968c <uxListRemove>
100086cc:	1c6b      	adds	r3, r5, #1
100086ce:	d014      	beq.n	100086fa <vTaskPlaceOnEventList+0x46>
100086d0:	6863      	ldr	r3, [r4, #4]
100086d2:	19ad      	adds	r5, r5, r6
100086d4:	605d      	str	r5, [r3, #4]
100086d6:	42ae      	cmp	r6, r5
100086d8:	d905      	bls.n	100086e6 <vTaskPlaceOnEventList+0x32>
100086da:	69e0      	ldr	r0, [r4, #28]
100086dc:	6861      	ldr	r1, [r4, #4]
100086de:	3104      	adds	r1, #4
100086e0:	f000 ffbc 	bl	1000965c <vListInsert>
100086e4:	bd70      	pop	{r4, r5, r6, pc}
100086e6:	6a20      	ldr	r0, [r4, #32]
100086e8:	6861      	ldr	r1, [r4, #4]
100086ea:	3104      	adds	r1, #4
100086ec:	f000 ffb6 	bl	1000965c <vListInsert>
100086f0:	6a63      	ldr	r3, [r4, #36]	; 0x24
100086f2:	429d      	cmp	r5, r3
100086f4:	d2f6      	bcs.n	100086e4 <vTaskPlaceOnEventList+0x30>
100086f6:	6265      	str	r5, [r4, #36]	; 0x24
100086f8:	e7f4      	b.n	100086e4 <vTaskPlaceOnEventList+0x30>
100086fa:	6862      	ldr	r2, [r4, #4]
100086fc:	68e3      	ldr	r3, [r4, #12]
100086fe:	6899      	ldr	r1, [r3, #8]
10008700:	6093      	str	r3, [r2, #8]
10008702:	6862      	ldr	r2, [r4, #4]
10008704:	60d1      	str	r1, [r2, #12]
10008706:	6862      	ldr	r2, [r4, #4]
10008708:	6899      	ldr	r1, [r3, #8]
1000870a:	3204      	adds	r2, #4
1000870c:	604a      	str	r2, [r1, #4]
1000870e:	6862      	ldr	r2, [r4, #4]
10008710:	3204      	adds	r2, #4
10008712:	609a      	str	r2, [r3, #8]
10008714:	0022      	movs	r2, r4
10008716:	6863      	ldr	r3, [r4, #4]
10008718:	3208      	adds	r2, #8
1000871a:	615a      	str	r2, [r3, #20]
1000871c:	68a3      	ldr	r3, [r4, #8]
1000871e:	3301      	adds	r3, #1
10008720:	60a3      	str	r3, [r4, #8]
10008722:	e7df      	b.n	100086e4 <vTaskPlaceOnEventList+0x30>
10008724:	200010d4 	.word	0x200010d4

10008728 <vTaskPlaceOnUnorderedEventList>:
10008728:	2380      	movs	r3, #128	; 0x80
1000872a:	b570      	push	{r4, r5, r6, lr}
1000872c:	0015      	movs	r5, r2
1000872e:	4c24      	ldr	r4, [pc, #144]	; (100087c0 <vTaskPlaceOnUnorderedEventList+0x98>)
10008730:	061b      	lsls	r3, r3, #24
10008732:	6862      	ldr	r2, [r4, #4]
10008734:	430b      	orrs	r3, r1
10008736:	6193      	str	r3, [r2, #24]
10008738:	6843      	ldr	r3, [r0, #4]
1000873a:	6862      	ldr	r2, [r4, #4]
1000873c:	6899      	ldr	r1, [r3, #8]
1000873e:	61d3      	str	r3, [r2, #28]
10008740:	6862      	ldr	r2, [r4, #4]
10008742:	6211      	str	r1, [r2, #32]
10008744:	6862      	ldr	r2, [r4, #4]
10008746:	6899      	ldr	r1, [r3, #8]
10008748:	3218      	adds	r2, #24
1000874a:	604a      	str	r2, [r1, #4]
1000874c:	6862      	ldr	r2, [r4, #4]
1000874e:	3218      	adds	r2, #24
10008750:	609a      	str	r2, [r3, #8]
10008752:	6863      	ldr	r3, [r4, #4]
10008754:	6298      	str	r0, [r3, #40]	; 0x28
10008756:	6803      	ldr	r3, [r0, #0]
10008758:	3301      	adds	r3, #1
1000875a:	6003      	str	r3, [r0, #0]
1000875c:	6826      	ldr	r6, [r4, #0]
1000875e:	6860      	ldr	r0, [r4, #4]
10008760:	3004      	adds	r0, #4
10008762:	f000 ff93 	bl	1000968c <uxListRemove>
10008766:	1c6b      	adds	r3, r5, #1
10008768:	d014      	beq.n	10008794 <vTaskPlaceOnUnorderedEventList+0x6c>
1000876a:	6863      	ldr	r3, [r4, #4]
1000876c:	19ad      	adds	r5, r5, r6
1000876e:	605d      	str	r5, [r3, #4]
10008770:	42ae      	cmp	r6, r5
10008772:	d905      	bls.n	10008780 <vTaskPlaceOnUnorderedEventList+0x58>
10008774:	69e0      	ldr	r0, [r4, #28]
10008776:	6861      	ldr	r1, [r4, #4]
10008778:	3104      	adds	r1, #4
1000877a:	f000 ff6f 	bl	1000965c <vListInsert>
1000877e:	bd70      	pop	{r4, r5, r6, pc}
10008780:	6a20      	ldr	r0, [r4, #32]
10008782:	6861      	ldr	r1, [r4, #4]
10008784:	3104      	adds	r1, #4
10008786:	f000 ff69 	bl	1000965c <vListInsert>
1000878a:	6a63      	ldr	r3, [r4, #36]	; 0x24
1000878c:	429d      	cmp	r5, r3
1000878e:	d2f6      	bcs.n	1000877e <vTaskPlaceOnUnorderedEventList+0x56>
10008790:	6265      	str	r5, [r4, #36]	; 0x24
10008792:	e7f4      	b.n	1000877e <vTaskPlaceOnUnorderedEventList+0x56>
10008794:	6862      	ldr	r2, [r4, #4]
10008796:	68e3      	ldr	r3, [r4, #12]
10008798:	6899      	ldr	r1, [r3, #8]
1000879a:	6093      	str	r3, [r2, #8]
1000879c:	6862      	ldr	r2, [r4, #4]
1000879e:	60d1      	str	r1, [r2, #12]
100087a0:	6862      	ldr	r2, [r4, #4]
100087a2:	6899      	ldr	r1, [r3, #8]
100087a4:	3204      	adds	r2, #4
100087a6:	604a      	str	r2, [r1, #4]
100087a8:	6862      	ldr	r2, [r4, #4]
100087aa:	3204      	adds	r2, #4
100087ac:	609a      	str	r2, [r3, #8]
100087ae:	0022      	movs	r2, r4
100087b0:	6863      	ldr	r3, [r4, #4]
100087b2:	3208      	adds	r2, #8
100087b4:	615a      	str	r2, [r3, #20]
100087b6:	68a3      	ldr	r3, [r4, #8]
100087b8:	3301      	adds	r3, #1
100087ba:	60a3      	str	r3, [r4, #8]
100087bc:	e7df      	b.n	1000877e <vTaskPlaceOnUnorderedEventList+0x56>
100087be:	46c0      	nop			; (mov r8, r8)
100087c0:	200010d4 	.word	0x200010d4

100087c4 <vTaskPlaceOnEventListRestricted>:
100087c4:	b570      	push	{r4, r5, r6, lr}
100087c6:	4c25      	ldr	r4, [pc, #148]	; (1000885c <vTaskPlaceOnEventListRestricted+0x98>)
100087c8:	6843      	ldr	r3, [r0, #4]
100087ca:	000d      	movs	r5, r1
100087cc:	6861      	ldr	r1, [r4, #4]
100087ce:	689e      	ldr	r6, [r3, #8]
100087d0:	61cb      	str	r3, [r1, #28]
100087d2:	6861      	ldr	r1, [r4, #4]
100087d4:	620e      	str	r6, [r1, #32]
100087d6:	6861      	ldr	r1, [r4, #4]
100087d8:	689e      	ldr	r6, [r3, #8]
100087da:	3118      	adds	r1, #24
100087dc:	6071      	str	r1, [r6, #4]
100087de:	6861      	ldr	r1, [r4, #4]
100087e0:	3118      	adds	r1, #24
100087e2:	6099      	str	r1, [r3, #8]
100087e4:	6863      	ldr	r3, [r4, #4]
100087e6:	6298      	str	r0, [r3, #40]	; 0x28
100087e8:	6803      	ldr	r3, [r0, #0]
100087ea:	3301      	adds	r3, #1
100087ec:	6003      	str	r3, [r0, #0]
100087ee:	2a00      	cmp	r2, #0
100087f0:	d019      	beq.n	10008826 <vTaskPlaceOnEventListRestricted+0x62>
100087f2:	6823      	ldr	r3, [r4, #0]
100087f4:	6860      	ldr	r0, [r4, #4]
100087f6:	3004      	adds	r0, #4
100087f8:	f000 ff48 	bl	1000968c <uxListRemove>
100087fc:	6862      	ldr	r2, [r4, #4]
100087fe:	68e3      	ldr	r3, [r4, #12]
10008800:	6899      	ldr	r1, [r3, #8]
10008802:	6093      	str	r3, [r2, #8]
10008804:	6862      	ldr	r2, [r4, #4]
10008806:	60d1      	str	r1, [r2, #12]
10008808:	6862      	ldr	r2, [r4, #4]
1000880a:	6899      	ldr	r1, [r3, #8]
1000880c:	3204      	adds	r2, #4
1000880e:	604a      	str	r2, [r1, #4]
10008810:	6862      	ldr	r2, [r4, #4]
10008812:	3204      	adds	r2, #4
10008814:	609a      	str	r2, [r3, #8]
10008816:	0022      	movs	r2, r4
10008818:	6863      	ldr	r3, [r4, #4]
1000881a:	3208      	adds	r2, #8
1000881c:	615a      	str	r2, [r3, #20]
1000881e:	68a3      	ldr	r3, [r4, #8]
10008820:	3301      	adds	r3, #1
10008822:	60a3      	str	r3, [r4, #8]
10008824:	bd70      	pop	{r4, r5, r6, pc}
10008826:	6826      	ldr	r6, [r4, #0]
10008828:	6860      	ldr	r0, [r4, #4]
1000882a:	19ad      	adds	r5, r5, r6
1000882c:	3004      	adds	r0, #4
1000882e:	f000 ff2d 	bl	1000968c <uxListRemove>
10008832:	6863      	ldr	r3, [r4, #4]
10008834:	605d      	str	r5, [r3, #4]
10008836:	42ae      	cmp	r6, r5
10008838:	d809      	bhi.n	1000884e <vTaskPlaceOnEventListRestricted+0x8a>
1000883a:	6a20      	ldr	r0, [r4, #32]
1000883c:	6861      	ldr	r1, [r4, #4]
1000883e:	3104      	adds	r1, #4
10008840:	f000 ff0c 	bl	1000965c <vListInsert>
10008844:	6a63      	ldr	r3, [r4, #36]	; 0x24
10008846:	429d      	cmp	r5, r3
10008848:	d2ec      	bcs.n	10008824 <vTaskPlaceOnEventListRestricted+0x60>
1000884a:	6265      	str	r5, [r4, #36]	; 0x24
1000884c:	e7ea      	b.n	10008824 <vTaskPlaceOnEventListRestricted+0x60>
1000884e:	69e0      	ldr	r0, [r4, #28]
10008850:	6861      	ldr	r1, [r4, #4]
10008852:	3104      	adds	r1, #4
10008854:	f000 ff02 	bl	1000965c <vListInsert>
10008858:	e7e4      	b.n	10008824 <vTaskPlaceOnEventListRestricted+0x60>
1000885a:	46c0      	nop			; (mov r8, r8)
1000885c:	200010d4 	.word	0x200010d4

10008860 <xTaskRemoveFromEventList>:
10008860:	68c3      	ldr	r3, [r0, #12]
10008862:	b5f0      	push	{r4, r5, r6, r7, lr}
10008864:	68db      	ldr	r3, [r3, #12]
10008866:	69d8      	ldr	r0, [r3, #28]
10008868:	6a19      	ldr	r1, [r3, #32]
1000886a:	6a9a      	ldr	r2, [r3, #40]	; 0x28
1000886c:	6081      	str	r1, [r0, #8]
1000886e:	6048      	str	r0, [r1, #4]
10008870:	0018      	movs	r0, r3
10008872:	6854      	ldr	r4, [r2, #4]
10008874:	3018      	adds	r0, #24
10008876:	4284      	cmp	r4, r0
10008878:	d047      	beq.n	1000890a <xTaskRemoveFromEventList+0xaa>
1000887a:	2100      	movs	r1, #0
1000887c:	6299      	str	r1, [r3, #40]	; 0x28
1000887e:	6811      	ldr	r1, [r2, #0]
10008880:	3901      	subs	r1, #1
10008882:	6011      	str	r1, [r2, #0]
10008884:	4a26      	ldr	r2, [pc, #152]	; (10008920 <xTaskRemoveFromEventList+0xc0>)
10008886:	6f91      	ldr	r1, [r2, #120]	; 0x78
10008888:	2900      	cmp	r1, #0
1000888a:	d12d      	bne.n	100088e8 <xTaskRemoveFromEventList+0x88>
1000888c:	6898      	ldr	r0, [r3, #8]
1000888e:	68dc      	ldr	r4, [r3, #12]
10008890:	6959      	ldr	r1, [r3, #20]
10008892:	6084      	str	r4, [r0, #8]
10008894:	68dc      	ldr	r4, [r3, #12]
10008896:	1d1f      	adds	r7, r3, #4
10008898:	6060      	str	r0, [r4, #4]
1000889a:	6848      	ldr	r0, [r1, #4]
1000889c:	42b8      	cmp	r0, r7
1000889e:	d036      	beq.n	1000890e <xTaskRemoveFromEventList+0xae>
100088a0:	6808      	ldr	r0, [r1, #0]
100088a2:	3801      	subs	r0, #1
100088a4:	6008      	str	r0, [r1, #0]
100088a6:	6ad0      	ldr	r0, [r2, #44]	; 0x2c
100088a8:	6ad9      	ldr	r1, [r3, #44]	; 0x2c
100088aa:	4281      	cmp	r1, r0
100088ac:	d82b      	bhi.n	10008906 <xTaskRemoveFromEventList+0xa6>
100088ae:	481d      	ldr	r0, [pc, #116]	; (10008924 <xTaskRemoveFromEventList+0xc4>)
100088b0:	008c      	lsls	r4, r1, #2
100088b2:	4684      	mov	ip, r0
100088b4:	1864      	adds	r4, r4, r1
100088b6:	00a4      	lsls	r4, r4, #2
100088b8:	1906      	adds	r6, r0, r4
100088ba:	6a35      	ldr	r5, [r6, #32]
100088bc:	68a8      	ldr	r0, [r5, #8]
100088be:	609d      	str	r5, [r3, #8]
100088c0:	60d8      	str	r0, [r3, #12]
100088c2:	68a8      	ldr	r0, [r5, #8]
100088c4:	6047      	str	r7, [r0, #4]
100088c6:	4660      	mov	r0, ip
100088c8:	301c      	adds	r0, #28
100088ca:	1900      	adds	r0, r0, r4
100088cc:	60af      	str	r7, [r5, #8]
100088ce:	6158      	str	r0, [r3, #20]
100088d0:	69f3      	ldr	r3, [r6, #28]
100088d2:	3301      	adds	r3, #1
100088d4:	61f3      	str	r3, [r6, #28]
100088d6:	6853      	ldr	r3, [r2, #4]
100088d8:	2000      	movs	r0, #0
100088da:	6adb      	ldr	r3, [r3, #44]	; 0x2c
100088dc:	428b      	cmp	r3, r1
100088de:	d202      	bcs.n	100088e6 <xTaskRemoveFromEventList+0x86>
100088e0:	2301      	movs	r3, #1
100088e2:	3001      	adds	r0, #1
100088e4:	6313      	str	r3, [r2, #48]	; 0x30
100088e6:	bdf0      	pop	{r4, r5, r6, r7, pc}
100088e8:	6e11      	ldr	r1, [r2, #96]	; 0x60
100088ea:	688c      	ldr	r4, [r1, #8]
100088ec:	61d9      	str	r1, [r3, #28]
100088ee:	621c      	str	r4, [r3, #32]
100088f0:	688c      	ldr	r4, [r1, #8]
100088f2:	6060      	str	r0, [r4, #4]
100088f4:	6088      	str	r0, [r1, #8]
100088f6:	0011      	movs	r1, r2
100088f8:	315c      	adds	r1, #92	; 0x5c
100088fa:	6299      	str	r1, [r3, #40]	; 0x28
100088fc:	6dd1      	ldr	r1, [r2, #92]	; 0x5c
100088fe:	3101      	adds	r1, #1
10008900:	65d1      	str	r1, [r2, #92]	; 0x5c
10008902:	6ad9      	ldr	r1, [r3, #44]	; 0x2c
10008904:	e7e7      	b.n	100088d6 <xTaskRemoveFromEventList+0x76>
10008906:	62d1      	str	r1, [r2, #44]	; 0x2c
10008908:	e7d1      	b.n	100088ae <xTaskRemoveFromEventList+0x4e>
1000890a:	6051      	str	r1, [r2, #4]
1000890c:	e7b5      	b.n	1000887a <xTaskRemoveFromEventList+0x1a>
1000890e:	6808      	ldr	r0, [r1, #0]
10008910:	604c      	str	r4, [r1, #4]
10008912:	3801      	subs	r0, #1
10008914:	6008      	str	r0, [r1, #0]
10008916:	6ad0      	ldr	r0, [r2, #44]	; 0x2c
10008918:	6ad9      	ldr	r1, [r3, #44]	; 0x2c
1000891a:	4281      	cmp	r1, r0
1000891c:	d9c7      	bls.n	100088ae <xTaskRemoveFromEventList+0x4e>
1000891e:	e7f2      	b.n	10008906 <xTaskRemoveFromEventList+0xa6>
10008920:	200010d4 	.word	0x200010d4
10008924:	20001054 	.word	0x20001054

10008928 <vTaskRemoveFromUnorderedEventList>:
10008928:	2380      	movs	r3, #128	; 0x80
1000892a:	061b      	lsls	r3, r3, #24
1000892c:	b5f0      	push	{r4, r5, r6, r7, lr}
1000892e:	430b      	orrs	r3, r1
10008930:	6884      	ldr	r4, [r0, #8]
10008932:	6841      	ldr	r1, [r0, #4]
10008934:	6902      	ldr	r2, [r0, #16]
10008936:	6003      	str	r3, [r0, #0]
10008938:	68c3      	ldr	r3, [r0, #12]
1000893a:	608c      	str	r4, [r1, #8]
1000893c:	6884      	ldr	r4, [r0, #8]
1000893e:	6061      	str	r1, [r4, #4]
10008940:	6851      	ldr	r1, [r2, #4]
10008942:	4281      	cmp	r1, r0
10008944:	d032      	beq.n	100089ac <vTaskRemoveFromUnorderedEventList+0x84>
10008946:	2100      	movs	r1, #0
10008948:	6101      	str	r1, [r0, #16]
1000894a:	6811      	ldr	r1, [r2, #0]
1000894c:	68d8      	ldr	r0, [r3, #12]
1000894e:	3901      	subs	r1, #1
10008950:	6011      	str	r1, [r2, #0]
10008952:	6899      	ldr	r1, [r3, #8]
10008954:	695a      	ldr	r2, [r3, #20]
10008956:	6088      	str	r0, [r1, #8]
10008958:	68d8      	ldr	r0, [r3, #12]
1000895a:	1d1f      	adds	r7, r3, #4
1000895c:	6041      	str	r1, [r0, #4]
1000895e:	6851      	ldr	r1, [r2, #4]
10008960:	42b9      	cmp	r1, r7
10008962:	d025      	beq.n	100089b0 <vTaskRemoveFromUnorderedEventList+0x88>
10008964:	6811      	ldr	r1, [r2, #0]
10008966:	4d13      	ldr	r5, [pc, #76]	; (100089b4 <vTaskRemoveFromUnorderedEventList+0x8c>)
10008968:	3901      	subs	r1, #1
1000896a:	6011      	str	r1, [r2, #0]
1000896c:	6ad8      	ldr	r0, [r3, #44]	; 0x2c
1000896e:	6aea      	ldr	r2, [r5, #44]	; 0x2c
10008970:	4290      	cmp	r0, r2
10008972:	d900      	bls.n	10008976 <vTaskRemoveFromUnorderedEventList+0x4e>
10008974:	62e8      	str	r0, [r5, #44]	; 0x2c
10008976:	4a10      	ldr	r2, [pc, #64]	; (100089b8 <vTaskRemoveFromUnorderedEventList+0x90>)
10008978:	0081      	lsls	r1, r0, #2
1000897a:	4694      	mov	ip, r2
1000897c:	1809      	adds	r1, r1, r0
1000897e:	0089      	lsls	r1, r1, #2
10008980:	1856      	adds	r6, r2, r1
10008982:	6a34      	ldr	r4, [r6, #32]
10008984:	68a2      	ldr	r2, [r4, #8]
10008986:	609c      	str	r4, [r3, #8]
10008988:	60da      	str	r2, [r3, #12]
1000898a:	68a2      	ldr	r2, [r4, #8]
1000898c:	6057      	str	r7, [r2, #4]
1000898e:	4662      	mov	r2, ip
10008990:	321c      	adds	r2, #28
10008992:	1852      	adds	r2, r2, r1
10008994:	60a7      	str	r7, [r4, #8]
10008996:	615a      	str	r2, [r3, #20]
10008998:	69f3      	ldr	r3, [r6, #28]
1000899a:	3301      	adds	r3, #1
1000899c:	61f3      	str	r3, [r6, #28]
1000899e:	686b      	ldr	r3, [r5, #4]
100089a0:	6adb      	ldr	r3, [r3, #44]	; 0x2c
100089a2:	4298      	cmp	r0, r3
100089a4:	d901      	bls.n	100089aa <vTaskRemoveFromUnorderedEventList+0x82>
100089a6:	2301      	movs	r3, #1
100089a8:	632b      	str	r3, [r5, #48]	; 0x30
100089aa:	bdf0      	pop	{r4, r5, r6, r7, pc}
100089ac:	6054      	str	r4, [r2, #4]
100089ae:	e7ca      	b.n	10008946 <vTaskRemoveFromUnorderedEventList+0x1e>
100089b0:	6050      	str	r0, [r2, #4]
100089b2:	e7d7      	b.n	10008964 <vTaskRemoveFromUnorderedEventList+0x3c>
100089b4:	200010d4 	.word	0x200010d4
100089b8:	20001054 	.word	0x20001054

100089bc <vTaskSetTimeOutState>:
100089bc:	b510      	push	{r4, lr}
100089be:	0004      	movs	r4, r0
100089c0:	f000 fda8 	bl	10009514 <vPortEnterCritical>
100089c4:	4b03      	ldr	r3, [pc, #12]	; (100089d4 <vTaskSetTimeOutState+0x18>)
100089c6:	6a9a      	ldr	r2, [r3, #40]	; 0x28
100089c8:	681b      	ldr	r3, [r3, #0]
100089ca:	6022      	str	r2, [r4, #0]
100089cc:	6063      	str	r3, [r4, #4]
100089ce:	f000 fdad 	bl	1000952c <vPortExitCritical>
100089d2:	bd10      	pop	{r4, pc}
100089d4:	200010d4 	.word	0x200010d4

100089d8 <vTaskInternalSetTimeOutState>:
100089d8:	4b02      	ldr	r3, [pc, #8]	; (100089e4 <vTaskInternalSetTimeOutState+0xc>)
100089da:	6a9a      	ldr	r2, [r3, #40]	; 0x28
100089dc:	681b      	ldr	r3, [r3, #0]
100089de:	6002      	str	r2, [r0, #0]
100089e0:	6043      	str	r3, [r0, #4]
100089e2:	4770      	bx	lr
100089e4:	200010d4 	.word	0x200010d4

100089e8 <xTaskCheckForTimeOut>:
100089e8:	b5f8      	push	{r3, r4, r5, r6, r7, lr}
100089ea:	000d      	movs	r5, r1
100089ec:	0004      	movs	r4, r0
100089ee:	f000 fd91 	bl	10009514 <vPortEnterCritical>
100089f2:	4a10      	ldr	r2, [pc, #64]	; (10008a34 <xTaskCheckForTimeOut+0x4c>)
100089f4:	682b      	ldr	r3, [r5, #0]
100089f6:	6811      	ldr	r1, [r2, #0]
100089f8:	1c58      	adds	r0, r3, #1
100089fa:	d019      	beq.n	10008a30 <xTaskCheckForTimeOut+0x48>
100089fc:	6a96      	ldr	r6, [r2, #40]	; 0x28
100089fe:	6827      	ldr	r7, [r4, #0]
10008a00:	6860      	ldr	r0, [r4, #4]
10008a02:	42b7      	cmp	r7, r6
10008a04:	d008      	beq.n	10008a18 <xTaskCheckForTimeOut+0x30>
10008a06:	4288      	cmp	r0, r1
10008a08:	d806      	bhi.n	10008a18 <xTaskCheckForTimeOut+0x30>
10008a0a:	2300      	movs	r3, #0
10008a0c:	2401      	movs	r4, #1
10008a0e:	602b      	str	r3, [r5, #0]
10008a10:	f000 fd8c 	bl	1000952c <vPortExitCritical>
10008a14:	0020      	movs	r0, r4
10008a16:	bdf8      	pop	{r3, r4, r5, r6, r7, pc}
10008a18:	1a0e      	subs	r6, r1, r0
10008a1a:	42b3      	cmp	r3, r6
10008a1c:	d9f5      	bls.n	10008a0a <xTaskCheckForTimeOut+0x22>
10008a1e:	1a5b      	subs	r3, r3, r1
10008a20:	181b      	adds	r3, r3, r0
10008a22:	602b      	str	r3, [r5, #0]
10008a24:	6a93      	ldr	r3, [r2, #40]	; 0x28
10008a26:	6023      	str	r3, [r4, #0]
10008a28:	6813      	ldr	r3, [r2, #0]
10008a2a:	6063      	str	r3, [r4, #4]
10008a2c:	2400      	movs	r4, #0
10008a2e:	e7ef      	b.n	10008a10 <xTaskCheckForTimeOut+0x28>
10008a30:	2400      	movs	r4, #0
10008a32:	e7ed      	b.n	10008a10 <xTaskCheckForTimeOut+0x28>
10008a34:	200010d4 	.word	0x200010d4

10008a38 <vTaskMissedYield>:
10008a38:	2201      	movs	r2, #1
10008a3a:	4b01      	ldr	r3, [pc, #4]	; (10008a40 <vTaskMissedYield+0x8>)
10008a3c:	631a      	str	r2, [r3, #48]	; 0x30
10008a3e:	4770      	bx	lr
10008a40:	200010d4 	.word	0x200010d4

10008a44 <vTaskSetThreadLocalStoragePointer>:
10008a44:	2904      	cmp	r1, #4
10008a46:	d805      	bhi.n	10008a54 <vTaskSetThreadLocalStoragePointer+0x10>
10008a48:	2800      	cmp	r0, #0
10008a4a:	d004      	beq.n	10008a56 <vTaskSetThreadLocalStoragePointer+0x12>
10008a4c:	3110      	adds	r1, #16
10008a4e:	0089      	lsls	r1, r1, #2
10008a50:	1841      	adds	r1, r0, r1
10008a52:	604a      	str	r2, [r1, #4]
10008a54:	4770      	bx	lr
10008a56:	4b01      	ldr	r3, [pc, #4]	; (10008a5c <vTaskSetThreadLocalStoragePointer+0x18>)
10008a58:	6858      	ldr	r0, [r3, #4]
10008a5a:	e7f7      	b.n	10008a4c <vTaskSetThreadLocalStoragePointer+0x8>
10008a5c:	200010d4 	.word	0x200010d4

10008a60 <pvTaskGetThreadLocalStoragePointer>:
10008a60:	2904      	cmp	r1, #4
10008a62:	d809      	bhi.n	10008a78 <pvTaskGetThreadLocalStoragePointer+0x18>
10008a64:	2800      	cmp	r0, #0
10008a66:	d004      	beq.n	10008a72 <pvTaskGetThreadLocalStoragePointer+0x12>
10008a68:	3110      	adds	r1, #16
10008a6a:	0089      	lsls	r1, r1, #2
10008a6c:	1841      	adds	r1, r0, r1
10008a6e:	6848      	ldr	r0, [r1, #4]
10008a70:	4770      	bx	lr
10008a72:	4b02      	ldr	r3, [pc, #8]	; (10008a7c <pvTaskGetThreadLocalStoragePointer+0x1c>)
10008a74:	6858      	ldr	r0, [r3, #4]
10008a76:	e7f7      	b.n	10008a68 <pvTaskGetThreadLocalStoragePointer+0x8>
10008a78:	2000      	movs	r0, #0
10008a7a:	e7f9      	b.n	10008a70 <pvTaskGetThreadLocalStoragePointer+0x10>
10008a7c:	200010d4 	.word	0x200010d4

10008a80 <xTaskGetCurrentTaskHandle>:
10008a80:	4b01      	ldr	r3, [pc, #4]	; (10008a88 <xTaskGetCurrentTaskHandle+0x8>)
10008a82:	6858      	ldr	r0, [r3, #4]
10008a84:	4770      	bx	lr
10008a86:	46c0      	nop			; (mov r8, r8)
10008a88:	200010d4 	.word	0x200010d4

10008a8c <xTaskGetSchedulerState>:
10008a8c:	4b04      	ldr	r3, [pc, #16]	; (10008aa0 <xTaskGetSchedulerState+0x14>)
10008a8e:	2001      	movs	r0, #1
10008a90:	6f1a      	ldr	r2, [r3, #112]	; 0x70
10008a92:	2a00      	cmp	r2, #0
10008a94:	d003      	beq.n	10008a9e <xTaskGetSchedulerState+0x12>
10008a96:	6f98      	ldr	r0, [r3, #120]	; 0x78
10008a98:	4243      	negs	r3, r0
10008a9a:	4158      	adcs	r0, r3
10008a9c:	0040      	lsls	r0, r0, #1
10008a9e:	4770      	bx	lr
10008aa0:	200010d4 	.word	0x200010d4

10008aa4 <uxTaskResetEventItemValue>:
10008aa4:	4b04      	ldr	r3, [pc, #16]	; (10008ab8 <uxTaskResetEventItemValue+0x14>)
10008aa6:	685a      	ldr	r2, [r3, #4]
10008aa8:	6859      	ldr	r1, [r3, #4]
10008aaa:	6990      	ldr	r0, [r2, #24]
10008aac:	685a      	ldr	r2, [r3, #4]
10008aae:	2305      	movs	r3, #5
10008ab0:	6ac9      	ldr	r1, [r1, #44]	; 0x2c
10008ab2:	1a5b      	subs	r3, r3, r1
10008ab4:	6193      	str	r3, [r2, #24]
10008ab6:	4770      	bx	lr
10008ab8:	200010d4 	.word	0x200010d4

10008abc <ulTaskGenericNotifyTake>:
10008abc:	b5f0      	push	{r4, r5, r6, r7, lr}
10008abe:	0004      	movs	r4, r0
10008ac0:	46c6      	mov	lr, r8
10008ac2:	0025      	movs	r5, r4
10008ac4:	b500      	push	{lr}
10008ac6:	0017      	movs	r7, r2
10008ac8:	4688      	mov	r8, r1
10008aca:	f000 fd23 	bl	10009514 <vPortEnterCritical>
10008ace:	4e19      	ldr	r6, [pc, #100]	; (10008b34 <ulTaskGenericNotifyTake+0x78>)
10008ad0:	3516      	adds	r5, #22
10008ad2:	6873      	ldr	r3, [r6, #4]
10008ad4:	00aa      	lsls	r2, r5, #2
10008ad6:	58d3      	ldr	r3, [r2, r3]
10008ad8:	2b00      	cmp	r3, #0
10008ada:	d106      	bne.n	10008aea <ulTaskGenericNotifyTake+0x2e>
10008adc:	2201      	movs	r2, #1
10008ade:	6873      	ldr	r3, [r6, #4]
10008ae0:	191b      	adds	r3, r3, r4
10008ae2:	3364      	adds	r3, #100	; 0x64
10008ae4:	701a      	strb	r2, [r3, #0]
10008ae6:	2f00      	cmp	r7, #0
10008ae8:	d11d      	bne.n	10008b26 <ulTaskGenericNotifyTake+0x6a>
10008aea:	f000 fd1f 	bl	1000952c <vPortExitCritical>
10008aee:	f000 fd11 	bl	10009514 <vPortEnterCritical>
10008af2:	6873      	ldr	r3, [r6, #4]
10008af4:	00ad      	lsls	r5, r5, #2
10008af6:	58ef      	ldr	r7, [r5, r3]
10008af8:	2f00      	cmp	r7, #0
10008afa:	d005      	beq.n	10008b08 <ulTaskGenericNotifyTake+0x4c>
10008afc:	4643      	mov	r3, r8
10008afe:	2b00      	cmp	r3, #0
10008b00:	d00d      	beq.n	10008b1e <ulTaskGenericNotifyTake+0x62>
10008b02:	2200      	movs	r2, #0
10008b04:	6873      	ldr	r3, [r6, #4]
10008b06:	50ea      	str	r2, [r5, r3]
10008b08:	2300      	movs	r3, #0
10008b0a:	6870      	ldr	r0, [r6, #4]
10008b0c:	1900      	adds	r0, r0, r4
10008b0e:	3064      	adds	r0, #100	; 0x64
10008b10:	7003      	strb	r3, [r0, #0]
10008b12:	f000 fd0b 	bl	1000952c <vPortExitCritical>
10008b16:	0038      	movs	r0, r7
10008b18:	bc80      	pop	{r7}
10008b1a:	46b8      	mov	r8, r7
10008b1c:	bdf0      	pop	{r4, r5, r6, r7, pc}
10008b1e:	6873      	ldr	r3, [r6, #4]
10008b20:	1e7a      	subs	r2, r7, #1
10008b22:	50ea      	str	r2, [r5, r3]
10008b24:	e7f0      	b.n	10008b08 <ulTaskGenericNotifyTake+0x4c>
10008b26:	2101      	movs	r1, #1
10008b28:	0038      	movs	r0, r7
10008b2a:	f7fe ff87 	bl	10007a3c <prvAddCurrentTaskToDelayedList>
10008b2e:	f000 fce5 	bl	100094fc <vPortYield>
10008b32:	e7da      	b.n	10008aea <ulTaskGenericNotifyTake+0x2e>
10008b34:	200010d4 	.word	0x200010d4

10008b38 <xTaskGenericNotifyWait>:
10008b38:	b5f0      	push	{r4, r5, r6, r7, lr}
10008b3a:	46c6      	mov	lr, r8
10008b3c:	0004      	movs	r4, r0
10008b3e:	b500      	push	{lr}
10008b40:	001f      	movs	r7, r3
10008b42:	4688      	mov	r8, r1
10008b44:	0016      	movs	r6, r2
10008b46:	f000 fce5 	bl	10009514 <vPortEnterCritical>
10008b4a:	4d21      	ldr	r5, [pc, #132]	; (10008bd0 <xTaskGenericNotifyWait+0x98>)
10008b4c:	6868      	ldr	r0, [r5, #4]
10008b4e:	1900      	adds	r0, r0, r4
10008b50:	3064      	adds	r0, #100	; 0x64
10008b52:	7803      	ldrb	r3, [r0, #0]
10008b54:	2b02      	cmp	r3, #2
10008b56:	d00e      	beq.n	10008b76 <xTaskGenericNotifyWait+0x3e>
10008b58:	4641      	mov	r1, r8
10008b5a:	686b      	ldr	r3, [r5, #4]
10008b5c:	00a2      	lsls	r2, r4, #2
10008b5e:	189b      	adds	r3, r3, r2
10008b60:	6d9a      	ldr	r2, [r3, #88]	; 0x58
10008b62:	438a      	bics	r2, r1
10008b64:	659a      	str	r2, [r3, #88]	; 0x58
10008b66:	2201      	movs	r2, #1
10008b68:	686b      	ldr	r3, [r5, #4]
10008b6a:	191b      	adds	r3, r3, r4
10008b6c:	3364      	adds	r3, #100	; 0x64
10008b6e:	701a      	strb	r2, [r3, #0]
10008b70:	9b06      	ldr	r3, [sp, #24]
10008b72:	2b00      	cmp	r3, #0
10008b74:	d124      	bne.n	10008bc0 <xTaskGenericNotifyWait+0x88>
10008b76:	f000 fcd9 	bl	1000952c <vPortExitCritical>
10008b7a:	f000 fccb 	bl	10009514 <vPortEnterCritical>
10008b7e:	2f00      	cmp	r7, #0
10008b80:	d005      	beq.n	10008b8e <xTaskGenericNotifyWait+0x56>
10008b82:	0023      	movs	r3, r4
10008b84:	686a      	ldr	r2, [r5, #4]
10008b86:	3316      	adds	r3, #22
10008b88:	009b      	lsls	r3, r3, #2
10008b8a:	589b      	ldr	r3, [r3, r2]
10008b8c:	603b      	str	r3, [r7, #0]
10008b8e:	686b      	ldr	r3, [r5, #4]
10008b90:	2700      	movs	r7, #0
10008b92:	191b      	adds	r3, r3, r4
10008b94:	3364      	adds	r3, #100	; 0x64
10008b96:	781b      	ldrb	r3, [r3, #0]
10008b98:	2b02      	cmp	r3, #2
10008b9a:	d106      	bne.n	10008baa <xTaskGenericNotifyWait+0x72>
10008b9c:	686b      	ldr	r3, [r5, #4]
10008b9e:	00a2      	lsls	r2, r4, #2
10008ba0:	189b      	adds	r3, r3, r2
10008ba2:	6d9a      	ldr	r2, [r3, #88]	; 0x58
10008ba4:	3701      	adds	r7, #1
10008ba6:	43b2      	bics	r2, r6
10008ba8:	659a      	str	r2, [r3, #88]	; 0x58
10008baa:	2300      	movs	r3, #0
10008bac:	6868      	ldr	r0, [r5, #4]
10008bae:	1904      	adds	r4, r0, r4
10008bb0:	3464      	adds	r4, #100	; 0x64
10008bb2:	7023      	strb	r3, [r4, #0]
10008bb4:	f000 fcba 	bl	1000952c <vPortExitCritical>
10008bb8:	0038      	movs	r0, r7
10008bba:	bc80      	pop	{r7}
10008bbc:	46b8      	mov	r8, r7
10008bbe:	bdf0      	pop	{r4, r5, r6, r7, pc}
10008bc0:	2101      	movs	r1, #1
10008bc2:	0018      	movs	r0, r3
10008bc4:	f7fe ff3a 	bl	10007a3c <prvAddCurrentTaskToDelayedList>
10008bc8:	f000 fc98 	bl	100094fc <vPortYield>
10008bcc:	e7d3      	b.n	10008b76 <xTaskGenericNotifyWait+0x3e>
10008bce:	46c0      	nop			; (mov r8, r8)
10008bd0:	200010d4 	.word	0x200010d4

10008bd4 <xTaskGenericNotify>:
10008bd4:	b5f0      	push	{r4, r5, r6, r7, lr}
10008bd6:	46c6      	mov	lr, r8
10008bd8:	b500      	push	{lr}
10008bda:	9d06      	ldr	r5, [sp, #24]
10008bdc:	0006      	movs	r6, r0
10008bde:	000c      	movs	r4, r1
10008be0:	4690      	mov	r8, r2
10008be2:	001f      	movs	r7, r3
10008be4:	f000 fc96 	bl	10009514 <vPortEnterCritical>
10008be8:	2d00      	cmp	r5, #0
10008bea:	d004      	beq.n	10008bf6 <xTaskGenericNotify+0x22>
10008bec:	0023      	movs	r3, r4
10008bee:	3316      	adds	r3, #22
10008bf0:	009b      	lsls	r3, r3, #2
10008bf2:	599b      	ldr	r3, [r3, r6]
10008bf4:	602b      	str	r3, [r5, #0]
10008bf6:	2302      	movs	r3, #2
10008bf8:	1931      	adds	r1, r6, r4
10008bfa:	3164      	adds	r1, #100	; 0x64
10008bfc:	780d      	ldrb	r5, [r1, #0]
10008bfe:	700b      	strb	r3, [r1, #0]
10008c00:	b2ed      	uxtb	r5, r5
10008c02:	2f03      	cmp	r7, #3
10008c04:	d016      	beq.n	10008c34 <xTaskGenericNotify+0x60>
10008c06:	d811      	bhi.n	10008c2c <xTaskGenericNotify+0x58>
10008c08:	2f01      	cmp	r7, #1
10008c0a:	d046      	beq.n	10008c9a <xTaskGenericNotify+0xc6>
10008c0c:	2f02      	cmp	r7, #2
10008c0e:	d104      	bne.n	10008c1a <xTaskGenericNotify+0x46>
10008c10:	00a4      	lsls	r4, r4, #2
10008c12:	1934      	adds	r4, r6, r4
10008c14:	6da3      	ldr	r3, [r4, #88]	; 0x58
10008c16:	3301      	adds	r3, #1
10008c18:	65a3      	str	r3, [r4, #88]	; 0x58
10008c1a:	2d01      	cmp	r5, #1
10008c1c:	d010      	beq.n	10008c40 <xTaskGenericNotify+0x6c>
10008c1e:	2401      	movs	r4, #1
10008c20:	f000 fc84 	bl	1000952c <vPortExitCritical>
10008c24:	0020      	movs	r0, r4
10008c26:	bc80      	pop	{r7}
10008c28:	46b8      	mov	r8, r7
10008c2a:	bdf0      	pop	{r4, r5, r6, r7, pc}
10008c2c:	2f04      	cmp	r7, #4
10008c2e:	d1f4      	bne.n	10008c1a <xTaskGenericNotify+0x46>
10008c30:	2d02      	cmp	r5, #2
10008c32:	d03b      	beq.n	10008cac <xTaskGenericNotify+0xd8>
10008c34:	4643      	mov	r3, r8
10008c36:	3416      	adds	r4, #22
10008c38:	00a4      	lsls	r4, r4, #2
10008c3a:	51a3      	str	r3, [r4, r6]
10008c3c:	2d01      	cmp	r5, #1
10008c3e:	d1ee      	bne.n	10008c1e <xTaskGenericNotify+0x4a>
10008c40:	6973      	ldr	r3, [r6, #20]
10008c42:	68b1      	ldr	r1, [r6, #8]
10008c44:	68f2      	ldr	r2, [r6, #12]
10008c46:	1d37      	adds	r7, r6, #4
10008c48:	608a      	str	r2, [r1, #8]
10008c4a:	6051      	str	r1, [r2, #4]
10008c4c:	6859      	ldr	r1, [r3, #4]
10008c4e:	42b9      	cmp	r1, r7
10008c50:	d02e      	beq.n	10008cb0 <xTaskGenericNotify+0xdc>
10008c52:	681a      	ldr	r2, [r3, #0]
10008c54:	4d17      	ldr	r5, [pc, #92]	; (10008cb4 <xTaskGenericNotify+0xe0>)
10008c56:	3a01      	subs	r2, #1
10008c58:	601a      	str	r2, [r3, #0]
10008c5a:	6af1      	ldr	r1, [r6, #44]	; 0x2c
10008c5c:	6aeb      	ldr	r3, [r5, #44]	; 0x2c
10008c5e:	4299      	cmp	r1, r3
10008c60:	d900      	bls.n	10008c64 <xTaskGenericNotify+0x90>
10008c62:	62e9      	str	r1, [r5, #44]	; 0x2c
10008c64:	4b14      	ldr	r3, [pc, #80]	; (10008cb8 <xTaskGenericNotify+0xe4>)
10008c66:	008a      	lsls	r2, r1, #2
10008c68:	469c      	mov	ip, r3
10008c6a:	1852      	adds	r2, r2, r1
10008c6c:	0092      	lsls	r2, r2, #2
10008c6e:	189c      	adds	r4, r3, r2
10008c70:	6a20      	ldr	r0, [r4, #32]
10008c72:	6883      	ldr	r3, [r0, #8]
10008c74:	60b0      	str	r0, [r6, #8]
10008c76:	60f3      	str	r3, [r6, #12]
10008c78:	6883      	ldr	r3, [r0, #8]
10008c7a:	605f      	str	r7, [r3, #4]
10008c7c:	4663      	mov	r3, ip
10008c7e:	331c      	adds	r3, #28
10008c80:	189b      	adds	r3, r3, r2
10008c82:	6087      	str	r7, [r0, #8]
10008c84:	6173      	str	r3, [r6, #20]
10008c86:	69e3      	ldr	r3, [r4, #28]
10008c88:	3301      	adds	r3, #1
10008c8a:	61e3      	str	r3, [r4, #28]
10008c8c:	686b      	ldr	r3, [r5, #4]
10008c8e:	6adb      	ldr	r3, [r3, #44]	; 0x2c
10008c90:	4299      	cmp	r1, r3
10008c92:	d9c4      	bls.n	10008c1e <xTaskGenericNotify+0x4a>
10008c94:	f000 fc32 	bl	100094fc <vPortYield>
10008c98:	e7c1      	b.n	10008c1e <xTaskGenericNotify+0x4a>
10008c9a:	4647      	mov	r7, r8
10008c9c:	00a4      	lsls	r4, r4, #2
10008c9e:	1934      	adds	r4, r6, r4
10008ca0:	6da2      	ldr	r2, [r4, #88]	; 0x58
10008ca2:	4317      	orrs	r7, r2
10008ca4:	65a7      	str	r7, [r4, #88]	; 0x58
10008ca6:	2d01      	cmp	r5, #1
10008ca8:	d1b9      	bne.n	10008c1e <xTaskGenericNotify+0x4a>
10008caa:	e7c9      	b.n	10008c40 <xTaskGenericNotify+0x6c>
10008cac:	2400      	movs	r4, #0
10008cae:	e7b7      	b.n	10008c20 <xTaskGenericNotify+0x4c>
10008cb0:	605a      	str	r2, [r3, #4]
10008cb2:	e7ce      	b.n	10008c52 <xTaskGenericNotify+0x7e>
10008cb4:	200010d4 	.word	0x200010d4
10008cb8:	20001054 	.word	0x20001054

10008cbc <xTaskGenericNotifyFromISR>:
10008cbc:	b5f8      	push	{r3, r4, r5, r6, r7, lr}
10008cbe:	4647      	mov	r7, r8
10008cc0:	46ce      	mov	lr, r9
10008cc2:	b580      	push	{r7, lr}
10008cc4:	9f08      	ldr	r7, [sp, #32]
10008cc6:	0006      	movs	r6, r0
10008cc8:	000c      	movs	r4, r1
10008cca:	4690      	mov	r8, r2
10008ccc:	001d      	movs	r5, r3
10008cce:	f000 fc37 	bl	10009540 <ulSetInterruptMaskFromISR>
10008cd2:	2f00      	cmp	r7, #0
10008cd4:	d004      	beq.n	10008ce0 <xTaskGenericNotifyFromISR+0x24>
10008cd6:	0023      	movs	r3, r4
10008cd8:	3316      	adds	r3, #22
10008cda:	009b      	lsls	r3, r3, #2
10008cdc:	599b      	ldr	r3, [r3, r6]
10008cde:	603b      	str	r3, [r7, #0]
10008ce0:	2202      	movs	r2, #2
10008ce2:	1933      	adds	r3, r6, r4
10008ce4:	3364      	adds	r3, #100	; 0x64
10008ce6:	781f      	ldrb	r7, [r3, #0]
10008ce8:	701a      	strb	r2, [r3, #0]
10008cea:	b2ff      	uxtb	r7, r7
10008cec:	2d03      	cmp	r5, #3
10008cee:	d017      	beq.n	10008d20 <xTaskGenericNotifyFromISR+0x64>
10008cf0:	d812      	bhi.n	10008d18 <xTaskGenericNotifyFromISR+0x5c>
10008cf2:	2d01      	cmp	r5, #1
10008cf4:	d03b      	beq.n	10008d6e <xTaskGenericNotifyFromISR+0xb2>
10008cf6:	2d02      	cmp	r5, #2
10008cf8:	d104      	bne.n	10008d04 <xTaskGenericNotifyFromISR+0x48>
10008cfa:	00a4      	lsls	r4, r4, #2
10008cfc:	1934      	adds	r4, r6, r4
10008cfe:	6da3      	ldr	r3, [r4, #88]	; 0x58
10008d00:	3301      	adds	r3, #1
10008d02:	65a3      	str	r3, [r4, #88]	; 0x58
10008d04:	2f01      	cmp	r7, #1
10008d06:	d011      	beq.n	10008d2c <xTaskGenericNotifyFromISR+0x70>
10008d08:	2401      	movs	r4, #1
10008d0a:	f000 fc1d 	bl	10009548 <vClearInterruptMaskFromISR>
10008d0e:	0020      	movs	r0, r4
10008d10:	bcc0      	pop	{r6, r7}
10008d12:	46b9      	mov	r9, r7
10008d14:	46b0      	mov	r8, r6
10008d16:	bdf8      	pop	{r3, r4, r5, r6, r7, pc}
10008d18:	2d04      	cmp	r5, #4
10008d1a:	d1f3      	bne.n	10008d04 <xTaskGenericNotifyFromISR+0x48>
10008d1c:	2f02      	cmp	r7, #2
10008d1e:	d059      	beq.n	10008dd4 <xTaskGenericNotifyFromISR+0x118>
10008d20:	4643      	mov	r3, r8
10008d22:	3416      	adds	r4, #22
10008d24:	00a4      	lsls	r4, r4, #2
10008d26:	51a3      	str	r3, [r4, r6]
10008d28:	2f01      	cmp	r7, #1
10008d2a:	d1ed      	bne.n	10008d08 <xTaskGenericNotifyFromISR+0x4c>
10008d2c:	4b2b      	ldr	r3, [pc, #172]	; (10008ddc <xTaskGenericNotifyFromISR+0x120>)
10008d2e:	6f9a      	ldr	r2, [r3, #120]	; 0x78
10008d30:	2a00      	cmp	r2, #0
10008d32:	d025      	beq.n	10008d80 <xTaskGenericNotifyFromISR+0xc4>
10008d34:	6e1a      	ldr	r2, [r3, #96]	; 0x60
10008d36:	6891      	ldr	r1, [r2, #8]
10008d38:	61f2      	str	r2, [r6, #28]
10008d3a:	6231      	str	r1, [r6, #32]
10008d3c:	0031      	movs	r1, r6
10008d3e:	6894      	ldr	r4, [r2, #8]
10008d40:	3118      	adds	r1, #24
10008d42:	6061      	str	r1, [r4, #4]
10008d44:	6091      	str	r1, [r2, #8]
10008d46:	001a      	movs	r2, r3
10008d48:	325c      	adds	r2, #92	; 0x5c
10008d4a:	62b2      	str	r2, [r6, #40]	; 0x28
10008d4c:	6dda      	ldr	r2, [r3, #92]	; 0x5c
10008d4e:	3201      	adds	r2, #1
10008d50:	65da      	str	r2, [r3, #92]	; 0x5c
10008d52:	6af2      	ldr	r2, [r6, #44]	; 0x2c
10008d54:	6859      	ldr	r1, [r3, #4]
10008d56:	6ac9      	ldr	r1, [r1, #44]	; 0x2c
10008d58:	4291      	cmp	r1, r2
10008d5a:	d2d5      	bcs.n	10008d08 <xTaskGenericNotifyFromISR+0x4c>
10008d5c:	9a09      	ldr	r2, [sp, #36]	; 0x24
10008d5e:	2a00      	cmp	r2, #0
10008d60:	d002      	beq.n	10008d68 <xTaskGenericNotifyFromISR+0xac>
10008d62:	0011      	movs	r1, r2
10008d64:	2201      	movs	r2, #1
10008d66:	600a      	str	r2, [r1, #0]
10008d68:	2201      	movs	r2, #1
10008d6a:	631a      	str	r2, [r3, #48]	; 0x30
10008d6c:	e7cc      	b.n	10008d08 <xTaskGenericNotifyFromISR+0x4c>
10008d6e:	4643      	mov	r3, r8
10008d70:	00a4      	lsls	r4, r4, #2
10008d72:	1934      	adds	r4, r6, r4
10008d74:	6da2      	ldr	r2, [r4, #88]	; 0x58
10008d76:	431a      	orrs	r2, r3
10008d78:	65a2      	str	r2, [r4, #88]	; 0x58
10008d7a:	2f01      	cmp	r7, #1
10008d7c:	d1c4      	bne.n	10008d08 <xTaskGenericNotifyFromISR+0x4c>
10008d7e:	e7d5      	b.n	10008d2c <xTaskGenericNotifyFromISR+0x70>
10008d80:	68b4      	ldr	r4, [r6, #8]
10008d82:	68f1      	ldr	r1, [r6, #12]
10008d84:	6972      	ldr	r2, [r6, #20]
10008d86:	60a1      	str	r1, [r4, #8]
10008d88:	604c      	str	r4, [r1, #4]
10008d8a:	1d34      	adds	r4, r6, #4
10008d8c:	46a0      	mov	r8, r4
10008d8e:	6854      	ldr	r4, [r2, #4]
10008d90:	4544      	cmp	r4, r8
10008d92:	d021      	beq.n	10008dd8 <xTaskGenericNotifyFromISR+0x11c>
10008d94:	6811      	ldr	r1, [r2, #0]
10008d96:	3901      	subs	r1, #1
10008d98:	6011      	str	r1, [r2, #0]
10008d9a:	6ad9      	ldr	r1, [r3, #44]	; 0x2c
10008d9c:	6af2      	ldr	r2, [r6, #44]	; 0x2c
10008d9e:	428a      	cmp	r2, r1
10008da0:	d900      	bls.n	10008da4 <xTaskGenericNotifyFromISR+0xe8>
10008da2:	62da      	str	r2, [r3, #44]	; 0x2c
10008da4:	490e      	ldr	r1, [pc, #56]	; (10008de0 <xTaskGenericNotifyFromISR+0x124>)
10008da6:	0094      	lsls	r4, r2, #2
10008da8:	468c      	mov	ip, r1
10008daa:	18a4      	adds	r4, r4, r2
10008dac:	00a1      	lsls	r1, r4, #2
10008dae:	4689      	mov	r9, r1
10008db0:	4667      	mov	r7, ip
10008db2:	4644      	mov	r4, r8
10008db4:	444f      	add	r7, r9
10008db6:	6a3d      	ldr	r5, [r7, #32]
10008db8:	68a9      	ldr	r1, [r5, #8]
10008dba:	60b5      	str	r5, [r6, #8]
10008dbc:	60f1      	str	r1, [r6, #12]
10008dbe:	68a9      	ldr	r1, [r5, #8]
10008dc0:	604c      	str	r4, [r1, #4]
10008dc2:	4661      	mov	r1, ip
10008dc4:	311c      	adds	r1, #28
10008dc6:	4449      	add	r1, r9
10008dc8:	60ac      	str	r4, [r5, #8]
10008dca:	6171      	str	r1, [r6, #20]
10008dcc:	69f9      	ldr	r1, [r7, #28]
10008dce:	3101      	adds	r1, #1
10008dd0:	61f9      	str	r1, [r7, #28]
10008dd2:	e7bf      	b.n	10008d54 <xTaskGenericNotifyFromISR+0x98>
10008dd4:	2400      	movs	r4, #0
10008dd6:	e798      	b.n	10008d0a <xTaskGenericNotifyFromISR+0x4e>
10008dd8:	6051      	str	r1, [r2, #4]
10008dda:	e7db      	b.n	10008d94 <xTaskGenericNotifyFromISR+0xd8>
10008ddc:	200010d4 	.word	0x200010d4
10008de0:	20001054 	.word	0x20001054

10008de4 <vTaskGenericNotifyGiveFromISR>:
10008de4:	b5f0      	push	{r4, r5, r6, r7, lr}
10008de6:	46d6      	mov	lr, sl
10008de8:	4646      	mov	r6, r8
10008dea:	464f      	mov	r7, r9
10008dec:	000c      	movs	r4, r1
10008dee:	0005      	movs	r5, r0
10008df0:	b5c0      	push	{r6, r7, lr}
10008df2:	0016      	movs	r6, r2
10008df4:	f000 fba4 	bl	10009540 <ulSetInterruptMaskFromISR>
10008df8:	2102      	movs	r1, #2
10008dfa:	192b      	adds	r3, r5, r4
10008dfc:	3364      	adds	r3, #100	; 0x64
10008dfe:	00a4      	lsls	r4, r4, #2
10008e00:	781a      	ldrb	r2, [r3, #0]
10008e02:	192c      	adds	r4, r5, r4
10008e04:	7019      	strb	r1, [r3, #0]
10008e06:	6da3      	ldr	r3, [r4, #88]	; 0x58
10008e08:	3301      	adds	r3, #1
10008e0a:	65a3      	str	r3, [r4, #88]	; 0x58
10008e0c:	2a01      	cmp	r2, #1
10008e0e:	d006      	beq.n	10008e1e <vTaskGenericNotifyGiveFromISR+0x3a>
10008e10:	f000 fb9a 	bl	10009548 <vClearInterruptMaskFromISR>
10008e14:	bce0      	pop	{r5, r6, r7}
10008e16:	46ba      	mov	sl, r7
10008e18:	46b1      	mov	r9, r6
10008e1a:	46a8      	mov	r8, r5
10008e1c:	bdf0      	pop	{r4, r5, r6, r7, pc}
10008e1e:	4b27      	ldr	r3, [pc, #156]	; (10008ebc <vTaskGenericNotifyGiveFromISR+0xd8>)
10008e20:	6f9a      	ldr	r2, [r3, #120]	; 0x78
10008e22:	2a00      	cmp	r2, #0
10008e24:	d01a      	beq.n	10008e5c <vTaskGenericNotifyGiveFromISR+0x78>
10008e26:	6e1a      	ldr	r2, [r3, #96]	; 0x60
10008e28:	6891      	ldr	r1, [r2, #8]
10008e2a:	61ea      	str	r2, [r5, #28]
10008e2c:	6229      	str	r1, [r5, #32]
10008e2e:	0029      	movs	r1, r5
10008e30:	6894      	ldr	r4, [r2, #8]
10008e32:	3118      	adds	r1, #24
10008e34:	6061      	str	r1, [r4, #4]
10008e36:	6091      	str	r1, [r2, #8]
10008e38:	001a      	movs	r2, r3
10008e3a:	325c      	adds	r2, #92	; 0x5c
10008e3c:	62aa      	str	r2, [r5, #40]	; 0x28
10008e3e:	6dda      	ldr	r2, [r3, #92]	; 0x5c
10008e40:	3201      	adds	r2, #1
10008e42:	65da      	str	r2, [r3, #92]	; 0x5c
10008e44:	6aea      	ldr	r2, [r5, #44]	; 0x2c
10008e46:	6859      	ldr	r1, [r3, #4]
10008e48:	6ac9      	ldr	r1, [r1, #44]	; 0x2c
10008e4a:	4291      	cmp	r1, r2
10008e4c:	d2e0      	bcs.n	10008e10 <vTaskGenericNotifyGiveFromISR+0x2c>
10008e4e:	2e00      	cmp	r6, #0
10008e50:	d001      	beq.n	10008e56 <vTaskGenericNotifyGiveFromISR+0x72>
10008e52:	2201      	movs	r2, #1
10008e54:	6032      	str	r2, [r6, #0]
10008e56:	2201      	movs	r2, #1
10008e58:	631a      	str	r2, [r3, #48]	; 0x30
10008e5a:	e7d9      	b.n	10008e10 <vTaskGenericNotifyGiveFromISR+0x2c>
10008e5c:	68ac      	ldr	r4, [r5, #8]
10008e5e:	68e9      	ldr	r1, [r5, #12]
10008e60:	696a      	ldr	r2, [r5, #20]
10008e62:	60a1      	str	r1, [r4, #8]
10008e64:	604c      	str	r4, [r1, #4]
10008e66:	1d2c      	adds	r4, r5, #4
10008e68:	46a4      	mov	ip, r4
10008e6a:	6854      	ldr	r4, [r2, #4]
10008e6c:	4564      	cmp	r4, ip
10008e6e:	d022      	beq.n	10008eb6 <vTaskGenericNotifyGiveFromISR+0xd2>
10008e70:	6811      	ldr	r1, [r2, #0]
10008e72:	3901      	subs	r1, #1
10008e74:	6011      	str	r1, [r2, #0]
10008e76:	6ad9      	ldr	r1, [r3, #44]	; 0x2c
10008e78:	6aea      	ldr	r2, [r5, #44]	; 0x2c
10008e7a:	428a      	cmp	r2, r1
10008e7c:	d900      	bls.n	10008e80 <vTaskGenericNotifyGiveFromISR+0x9c>
10008e7e:	62da      	str	r2, [r3, #44]	; 0x2c
10008e80:	490f      	ldr	r1, [pc, #60]	; (10008ec0 <vTaskGenericNotifyGiveFromISR+0xdc>)
10008e82:	0094      	lsls	r4, r2, #2
10008e84:	4689      	mov	r9, r1
10008e86:	18a4      	adds	r4, r4, r2
10008e88:	00a1      	lsls	r1, r4, #2
10008e8a:	468a      	mov	sl, r1
10008e8c:	4649      	mov	r1, r9
10008e8e:	4664      	mov	r4, ip
10008e90:	4451      	add	r1, sl
10008e92:	6a0f      	ldr	r7, [r1, #32]
10008e94:	4688      	mov	r8, r1
10008e96:	68b9      	ldr	r1, [r7, #8]
10008e98:	60af      	str	r7, [r5, #8]
10008e9a:	60e9      	str	r1, [r5, #12]
10008e9c:	68b9      	ldr	r1, [r7, #8]
10008e9e:	604c      	str	r4, [r1, #4]
10008ea0:	4649      	mov	r1, r9
10008ea2:	311c      	adds	r1, #28
10008ea4:	4451      	add	r1, sl
10008ea6:	60bc      	str	r4, [r7, #8]
10008ea8:	6169      	str	r1, [r5, #20]
10008eaa:	4641      	mov	r1, r8
10008eac:	4644      	mov	r4, r8
10008eae:	69c9      	ldr	r1, [r1, #28]
10008eb0:	3101      	adds	r1, #1
10008eb2:	61e1      	str	r1, [r4, #28]
10008eb4:	e7c7      	b.n	10008e46 <vTaskGenericNotifyGiveFromISR+0x62>
10008eb6:	6051      	str	r1, [r2, #4]
10008eb8:	e7da      	b.n	10008e70 <vTaskGenericNotifyGiveFromISR+0x8c>
10008eba:	46c0      	nop			; (mov r8, r8)
10008ebc:	200010d4 	.word	0x200010d4
10008ec0:	20001054 	.word	0x20001054

10008ec4 <xTaskGenericNotifyStateClear>:
10008ec4:	b570      	push	{r4, r5, r6, lr}
10008ec6:	0004      	movs	r4, r0
10008ec8:	000d      	movs	r5, r1
10008eca:	2800      	cmp	r0, #0
10008ecc:	d00d      	beq.n	10008eea <xTaskGenericNotifyStateClear+0x26>
10008ece:	1964      	adds	r4, r4, r5
10008ed0:	3464      	adds	r4, #100	; 0x64
10008ed2:	f000 fb1f 	bl	10009514 <vPortEnterCritical>
10008ed6:	7823      	ldrb	r3, [r4, #0]
10008ed8:	2500      	movs	r5, #0
10008eda:	2b02      	cmp	r3, #2
10008edc:	d101      	bne.n	10008ee2 <xTaskGenericNotifyStateClear+0x1e>
10008ede:	7025      	strb	r5, [r4, #0]
10008ee0:	3501      	adds	r5, #1
10008ee2:	f000 fb23 	bl	1000952c <vPortExitCritical>
10008ee6:	0028      	movs	r0, r5
10008ee8:	bd70      	pop	{r4, r5, r6, pc}
10008eea:	4b01      	ldr	r3, [pc, #4]	; (10008ef0 <xTaskGenericNotifyStateClear+0x2c>)
10008eec:	685c      	ldr	r4, [r3, #4]
10008eee:	e7ee      	b.n	10008ece <xTaskGenericNotifyStateClear+0xa>
10008ef0:	200010d4 	.word	0x200010d4

10008ef4 <ulTaskGenericNotifyValueClear>:
10008ef4:	b570      	push	{r4, r5, r6, lr}
10008ef6:	0004      	movs	r4, r0
10008ef8:	000d      	movs	r5, r1
10008efa:	0016      	movs	r6, r2
10008efc:	2800      	cmp	r0, #0
10008efe:	d00b      	beq.n	10008f18 <ulTaskGenericNotifyValueClear+0x24>
10008f00:	f000 fb08 	bl	10009514 <vPortEnterCritical>
10008f04:	00a8      	lsls	r0, r5, #2
10008f06:	1820      	adds	r0, r4, r0
10008f08:	6d84      	ldr	r4, [r0, #88]	; 0x58
10008f0a:	6d83      	ldr	r3, [r0, #88]	; 0x58
10008f0c:	43b3      	bics	r3, r6
10008f0e:	6583      	str	r3, [r0, #88]	; 0x58
10008f10:	f000 fb0c 	bl	1000952c <vPortExitCritical>
10008f14:	0020      	movs	r0, r4
10008f16:	bd70      	pop	{r4, r5, r6, pc}
10008f18:	4b01      	ldr	r3, [pc, #4]	; (10008f20 <ulTaskGenericNotifyValueClear+0x2c>)
10008f1a:	685c      	ldr	r4, [r3, #4]
10008f1c:	e7f0      	b.n	10008f00 <ulTaskGenericNotifyValueClear+0xc>
10008f1e:	46c0      	nop			; (mov r8, r8)
10008f20:	200010d4 	.word	0x200010d4

10008f24 <prvTimerTask>:
10008f24:	b5f0      	push	{r4, r5, r6, r7, lr}
10008f26:	4645      	mov	r5, r8
10008f28:	46de      	mov	lr, fp
10008f2a:	4657      	mov	r7, sl
10008f2c:	464e      	mov	r6, r9
10008f2e:	b5e0      	push	{r5, r6, r7, lr}
10008f30:	4dc0      	ldr	r5, [pc, #768]	; (10009234 <prvTimerTask+0x310>)
10008f32:	b087      	sub	sp, #28
10008f34:	682b      	ldr	r3, [r5, #0]
10008f36:	681c      	ldr	r4, [r3, #0]
10008f38:	2c00      	cmp	r4, #0
10008f3a:	d100      	bne.n	10008f3e <prvTimerTask+0x1a>
10008f3c:	e0d6      	b.n	100090ec <prvTimerTask+0x1c8>
10008f3e:	68db      	ldr	r3, [r3, #12]
10008f40:	681c      	ldr	r4, [r3, #0]
10008f42:	f7ff fa17 	bl	10008374 <vTaskSuspendAll>
10008f46:	f7ff fb1f 	bl	10008588 <xTaskGetTickCount>
10008f4a:	686b      	ldr	r3, [r5, #4]
10008f4c:	4681      	mov	r9, r0
10008f4e:	4298      	cmp	r0, r3
10008f50:	d200      	bcs.n	10008f54 <prvTimerTask+0x30>
10008f52:	e0da      	b.n	1000910a <prvTimerTask+0x1e6>
10008f54:	6068      	str	r0, [r5, #4]
10008f56:	4284      	cmp	r4, r0
10008f58:	d800      	bhi.n	10008f5c <prvTimerTask+0x38>
10008f5a:	e12e      	b.n	100091ba <prvTimerTask+0x296>
10008f5c:	2200      	movs	r2, #0
10008f5e:	464b      	mov	r3, r9
10008f60:	68e8      	ldr	r0, [r5, #12]
10008f62:	1ae1      	subs	r1, r4, r3
10008f64:	f001 fc3a 	bl	1000a7dc <vQueueWaitForMessageRestricted>
10008f68:	f7ff fa0c 	bl	10008384 <xTaskResumeAll>
10008f6c:	2800      	cmp	r0, #0
10008f6e:	d100      	bne.n	10008f72 <prvTimerTask+0x4e>
10008f70:	e115      	b.n	1000919e <prvTimerTask+0x27a>
10008f72:	2324      	movs	r3, #36	; 0x24
10008f74:	469a      	mov	sl, r3
10008f76:	2200      	movs	r2, #0
10008f78:	68e8      	ldr	r0, [r5, #12]
10008f7a:	a903      	add	r1, sp, #12
10008f7c:	f000 fe82 	bl	10009c84 <xQueueReceive>
10008f80:	2800      	cmp	r0, #0
10008f82:	d0d7      	beq.n	10008f34 <prvTimerTask+0x10>
10008f84:	9b03      	ldr	r3, [sp, #12]
10008f86:	9301      	str	r3, [sp, #4]
10008f88:	2b00      	cmp	r3, #0
10008f8a:	dbf4      	blt.n	10008f76 <prvTimerTask+0x52>
10008f8c:	9b05      	ldr	r3, [sp, #20]
10008f8e:	4698      	mov	r8, r3
10008f90:	695b      	ldr	r3, [r3, #20]
10008f92:	2b00      	cmp	r3, #0
10008f94:	d003      	beq.n	10008f9e <prvTimerTask+0x7a>
10008f96:	4643      	mov	r3, r8
10008f98:	1d18      	adds	r0, r3, #4
10008f9a:	f000 fb77 	bl	1000968c <uxListRemove>
10008f9e:	f7ff faf3 	bl	10008588 <xTaskGetTickCount>
10008fa2:	686b      	ldr	r3, [r5, #4]
10008fa4:	4683      	mov	fp, r0
10008fa6:	4298      	cmp	r0, r3
10008fa8:	d30f      	bcc.n	10008fca <prvTimerTask+0xa6>
10008faa:	465b      	mov	r3, fp
10008fac:	606b      	str	r3, [r5, #4]
10008fae:	9b03      	ldr	r3, [sp, #12]
10008fb0:	2b09      	cmp	r3, #9
10008fb2:	d8e0      	bhi.n	10008f76 <prvTimerTask+0x52>
10008fb4:	4aa0      	ldr	r2, [pc, #640]	; (10009238 <prvTimerTask+0x314>)
10008fb6:	009b      	lsls	r3, r3, #2
10008fb8:	58d3      	ldr	r3, [r2, r3]
10008fba:	469f      	mov	pc, r3
10008fbc:	2201      	movs	r2, #1
10008fbe:	4393      	bics	r3, r2
10008fc0:	4652      	mov	r2, sl
10008fc2:	54a3      	strb	r3, [r4, r2]
10008fc4:	0020      	movs	r0, r4
10008fc6:	6a23      	ldr	r3, [r4, #32]
10008fc8:	4798      	blx	r3
10008fca:	682b      	ldr	r3, [r5, #0]
10008fcc:	681a      	ldr	r2, [r3, #0]
10008fce:	2a00      	cmp	r2, #0
10008fd0:	d100      	bne.n	10008fd4 <prvTimerTask+0xb0>
10008fd2:	e0e0      	b.n	10009196 <prvTimerTask+0x272>
10008fd4:	68db      	ldr	r3, [r3, #12]
10008fd6:	68dc      	ldr	r4, [r3, #12]
10008fd8:	681e      	ldr	r6, [r3, #0]
10008fda:	1d23      	adds	r3, r4, #4
10008fdc:	0018      	movs	r0, r3
10008fde:	4699      	mov	r9, r3
10008fe0:	f000 fb54 	bl	1000968c <uxListRemove>
10008fe4:	4653      	mov	r3, sl
10008fe6:	2204      	movs	r2, #4
10008fe8:	5ce3      	ldrb	r3, [r4, r3]
10008fea:	421a      	tst	r2, r3
10008fec:	d0e6      	beq.n	10008fbc <prvTimerTask+0x98>
10008fee:	69a3      	ldr	r3, [r4, #24]
10008ff0:	6124      	str	r4, [r4, #16]
10008ff2:	18f7      	adds	r7, r6, r3
10008ff4:	43f6      	mvns	r6, r6
10008ff6:	6067      	str	r7, [r4, #4]
10008ff8:	42b3      	cmp	r3, r6
10008ffa:	d80a      	bhi.n	10009012 <prvTimerTask+0xee>
10008ffc:	003e      	movs	r6, r7
10008ffe:	43f6      	mvns	r6, r6
10009000:	6a23      	ldr	r3, [r4, #32]
10009002:	0020      	movs	r0, r4
10009004:	4798      	blx	r3
10009006:	69a3      	ldr	r3, [r4, #24]
10009008:	6124      	str	r4, [r4, #16]
1000900a:	18ff      	adds	r7, r7, r3
1000900c:	6067      	str	r7, [r4, #4]
1000900e:	42b3      	cmp	r3, r6
10009010:	d9f4      	bls.n	10008ffc <prvTimerTask+0xd8>
10009012:	4649      	mov	r1, r9
10009014:	68a8      	ldr	r0, [r5, #8]
10009016:	f000 fb21 	bl	1000965c <vListInsert>
1000901a:	e7d3      	b.n	10008fc4 <prvTimerTask+0xa0>
1000901c:	4643      	mov	r3, r8
1000901e:	4652      	mov	r2, sl
10009020:	5c98      	ldrb	r0, [r3, r2]
10009022:	2301      	movs	r3, #1
10009024:	4642      	mov	r2, r8
10009026:	4651      	mov	r1, sl
10009028:	4644      	mov	r4, r8
1000902a:	4303      	orrs	r3, r0
1000902c:	5453      	strb	r3, [r2, r1]
1000902e:	6992      	ldr	r2, [r2, #24]
10009030:	9904      	ldr	r1, [sp, #16]
10009032:	6124      	str	r4, [r4, #16]
10009034:	188b      	adds	r3, r1, r2
10009036:	6063      	str	r3, [r4, #4]
10009038:	455b      	cmp	r3, fp
1000903a:	d900      	bls.n	1000903e <prvTimerTask+0x11a>
1000903c:	e0b2      	b.n	100091a4 <prvTimerTask+0x280>
1000903e:	465c      	mov	r4, fp
10009040:	1a61      	subs	r1, r4, r1
10009042:	428a      	cmp	r2, r1
10009044:	d900      	bls.n	10009048 <prvTimerTask+0x124>
10009046:	e0ef      	b.n	10009228 <prvTimerTask+0x304>
10009048:	0741      	lsls	r1, r0, #29
1000904a:	d414      	bmi.n	10009076 <prvTimerTask+0x152>
1000904c:	2301      	movs	r3, #1
1000904e:	4652      	mov	r2, sl
10009050:	4398      	bics	r0, r3
10009052:	4643      	mov	r3, r8
10009054:	5498      	strb	r0, [r3, r2]
10009056:	4643      	mov	r3, r8
10009058:	4640      	mov	r0, r8
1000905a:	6a1b      	ldr	r3, [r3, #32]
1000905c:	4798      	blx	r3
1000905e:	e78a      	b.n	10008f76 <prvTimerTask+0x52>
10009060:	4659      	mov	r1, fp
10009062:	1acb      	subs	r3, r1, r3
10009064:	4293      	cmp	r3, r2
10009066:	d200      	bcs.n	1000906a <prvTimerTask+0x146>
10009068:	e0d8      	b.n	1000921c <prvTimerTask+0x2f8>
1000906a:	4640      	mov	r0, r8
1000906c:	6a03      	ldr	r3, [r0, #32]
1000906e:	4798      	blx	r3
10009070:	4643      	mov	r3, r8
10009072:	699a      	ldr	r2, [r3, #24]
10009074:	0023      	movs	r3, r4
10009076:	4641      	mov	r1, r8
10009078:	189c      	adds	r4, r3, r2
1000907a:	604c      	str	r4, [r1, #4]
1000907c:	6109      	str	r1, [r1, #16]
1000907e:	45a3      	cmp	fp, r4
10009080:	d2ee      	bcs.n	10009060 <prvTimerTask+0x13c>
10009082:	459b      	cmp	fp, r3
10009084:	d201      	bcs.n	1000908a <prvTimerTask+0x166>
10009086:	42a3      	cmp	r3, r4
10009088:	d9ef      	bls.n	1000906a <prvTimerTask+0x146>
1000908a:	4643      	mov	r3, r8
1000908c:	6828      	ldr	r0, [r5, #0]
1000908e:	1d19      	adds	r1, r3, #4
10009090:	f000 fae4 	bl	1000965c <vListInsert>
10009094:	e7df      	b.n	10009056 <prvTimerTask+0x132>
10009096:	4643      	mov	r3, r8
10009098:	4652      	mov	r2, sl
1000909a:	5c9b      	ldrb	r3, [r3, r2]
1000909c:	2201      	movs	r2, #1
1000909e:	4651      	mov	r1, sl
100090a0:	4393      	bics	r3, r2
100090a2:	4642      	mov	r2, r8
100090a4:	5453      	strb	r3, [r2, r1]
100090a6:	e766      	b.n	10008f76 <prvTimerTask+0x52>
100090a8:	4652      	mov	r2, sl
100090aa:	4643      	mov	r3, r8
100090ac:	5c9b      	ldrb	r3, [r3, r2]
100090ae:	2201      	movs	r2, #1
100090b0:	4651      	mov	r1, sl
100090b2:	4313      	orrs	r3, r2
100090b4:	4642      	mov	r2, r8
100090b6:	5453      	strb	r3, [r2, r1]
100090b8:	9b04      	ldr	r3, [sp, #16]
100090ba:	4641      	mov	r1, r8
100090bc:	6193      	str	r3, [r2, #24]
100090be:	465a      	mov	r2, fp
100090c0:	189a      	adds	r2, r3, r2
100090c2:	604a      	str	r2, [r1, #4]
100090c4:	6109      	str	r1, [r1, #16]
100090c6:	455a      	cmp	r2, fp
100090c8:	d871      	bhi.n	100091ae <prvTimerTask+0x28a>
100090ca:	2b00      	cmp	r3, #0
100090cc:	d100      	bne.n	100090d0 <prvTimerTask+0x1ac>
100090ce:	e752      	b.n	10008f76 <prvTimerTask+0x52>
100090d0:	68a8      	ldr	r0, [r5, #8]
100090d2:	3104      	adds	r1, #4
100090d4:	f000 fac2 	bl	1000965c <vListInsert>
100090d8:	e74d      	b.n	10008f76 <prvTimerTask+0x52>
100090da:	4643      	mov	r3, r8
100090dc:	4652      	mov	r2, sl
100090de:	5c9b      	ldrb	r3, [r3, r2]
100090e0:	079a      	lsls	r2, r3, #30
100090e2:	d4db      	bmi.n	1000909c <prvTimerTask+0x178>
100090e4:	4640      	mov	r0, r8
100090e6:	f000 f9c3 	bl	10009470 <vPortFree>
100090ea:	e744      	b.n	10008f76 <prvTimerTask+0x52>
100090ec:	f7ff f942 	bl	10008374 <vTaskSuspendAll>
100090f0:	f7ff fa4a 	bl	10008588 <xTaskGetTickCount>
100090f4:	686b      	ldr	r3, [r5, #4]
100090f6:	4681      	mov	r9, r0
100090f8:	4298      	cmp	r0, r3
100090fa:	d306      	bcc.n	1000910a <prvTimerTask+0x1e6>
100090fc:	464b      	mov	r3, r9
100090fe:	606b      	str	r3, [r5, #4]
10009100:	68ab      	ldr	r3, [r5, #8]
10009102:	681a      	ldr	r2, [r3, #0]
10009104:	4253      	negs	r3, r2
10009106:	415a      	adcs	r2, r3
10009108:	e729      	b.n	10008f5e <prvTimerTask+0x3a>
1000910a:	682b      	ldr	r3, [r5, #0]
1000910c:	681a      	ldr	r2, [r3, #0]
1000910e:	2a00      	cmp	r2, #0
10009110:	d039      	beq.n	10009186 <prvTimerTask+0x262>
10009112:	2224      	movs	r2, #36	; 0x24
10009114:	4692      	mov	sl, r2
10009116:	3a20      	subs	r2, #32
10009118:	4693      	mov	fp, r2
1000911a:	e00a      	b.n	10009132 <prvTimerTask+0x20e>
1000911c:	2201      	movs	r2, #1
1000911e:	4393      	bics	r3, r2
10009120:	4652      	mov	r2, sl
10009122:	54a3      	strb	r3, [r4, r2]
10009124:	6a23      	ldr	r3, [r4, #32]
10009126:	0020      	movs	r0, r4
10009128:	4798      	blx	r3
1000912a:	682b      	ldr	r3, [r5, #0]
1000912c:	681a      	ldr	r2, [r3, #0]
1000912e:	2a00      	cmp	r2, #0
10009130:	d029      	beq.n	10009186 <prvTimerTask+0x262>
10009132:	68db      	ldr	r3, [r3, #12]
10009134:	68dc      	ldr	r4, [r3, #12]
10009136:	681e      	ldr	r6, [r3, #0]
10009138:	1d23      	adds	r3, r4, #4
1000913a:	0018      	movs	r0, r3
1000913c:	4698      	mov	r8, r3
1000913e:	f000 faa5 	bl	1000968c <uxListRemove>
10009142:	4653      	mov	r3, sl
10009144:	465a      	mov	r2, fp
10009146:	5ce3      	ldrb	r3, [r4, r3]
10009148:	421a      	tst	r2, r3
1000914a:	d0e7      	beq.n	1000911c <prvTimerTask+0x1f8>
1000914c:	69a3      	ldr	r3, [r4, #24]
1000914e:	6124      	str	r4, [r4, #16]
10009150:	18f7      	adds	r7, r6, r3
10009152:	43f6      	mvns	r6, r6
10009154:	6067      	str	r7, [r4, #4]
10009156:	42b3      	cmp	r3, r6
10009158:	d80a      	bhi.n	10009170 <prvTimerTask+0x24c>
1000915a:	003e      	movs	r6, r7
1000915c:	43f6      	mvns	r6, r6
1000915e:	6a23      	ldr	r3, [r4, #32]
10009160:	0020      	movs	r0, r4
10009162:	4798      	blx	r3
10009164:	69a3      	ldr	r3, [r4, #24]
10009166:	6124      	str	r4, [r4, #16]
10009168:	18ff      	adds	r7, r7, r3
1000916a:	6067      	str	r7, [r4, #4]
1000916c:	42b3      	cmp	r3, r6
1000916e:	d9f4      	bls.n	1000915a <prvTimerTask+0x236>
10009170:	4641      	mov	r1, r8
10009172:	68a8      	ldr	r0, [r5, #8]
10009174:	f000 fa72 	bl	1000965c <vListInsert>
10009178:	6a23      	ldr	r3, [r4, #32]
1000917a:	0020      	movs	r0, r4
1000917c:	4798      	blx	r3
1000917e:	682b      	ldr	r3, [r5, #0]
10009180:	681a      	ldr	r2, [r3, #0]
10009182:	2a00      	cmp	r2, #0
10009184:	d1d5      	bne.n	10009132 <prvTimerTask+0x20e>
10009186:	68aa      	ldr	r2, [r5, #8]
10009188:	60ab      	str	r3, [r5, #8]
1000918a:	464b      	mov	r3, r9
1000918c:	602a      	str	r2, [r5, #0]
1000918e:	606b      	str	r3, [r5, #4]
10009190:	f7ff f8f8 	bl	10008384 <xTaskResumeAll>
10009194:	e6ed      	b.n	10008f72 <prvTimerTask+0x4e>
10009196:	68aa      	ldr	r2, [r5, #8]
10009198:	60ab      	str	r3, [r5, #8]
1000919a:	602a      	str	r2, [r5, #0]
1000919c:	e705      	b.n	10008faa <prvTimerTask+0x86>
1000919e:	f000 f9ad 	bl	100094fc <vPortYield>
100091a2:	e6e6      	b.n	10008f72 <prvTimerTask+0x4e>
100091a4:	4559      	cmp	r1, fp
100091a6:	d902      	bls.n	100091ae <prvTimerTask+0x28a>
100091a8:	4299      	cmp	r1, r3
100091aa:	d800      	bhi.n	100091ae <prvTimerTask+0x28a>
100091ac:	e74c      	b.n	10009048 <prvTimerTask+0x124>
100091ae:	4641      	mov	r1, r8
100091b0:	6828      	ldr	r0, [r5, #0]
100091b2:	3104      	adds	r1, #4
100091b4:	f000 fa52 	bl	1000965c <vListInsert>
100091b8:	e6dd      	b.n	10008f76 <prvTimerTask+0x52>
100091ba:	f7ff f8e3 	bl	10008384 <xTaskResumeAll>
100091be:	682b      	ldr	r3, [r5, #0]
100091c0:	68db      	ldr	r3, [r3, #12]
100091c2:	68de      	ldr	r6, [r3, #12]
100091c4:	1d33      	adds	r3, r6, #4
100091c6:	0018      	movs	r0, r3
100091c8:	4698      	mov	r8, r3
100091ca:	f000 fa5f 	bl	1000968c <uxListRemove>
100091ce:	2224      	movs	r2, #36	; 0x24
100091d0:	5cb3      	ldrb	r3, [r6, r2]
100091d2:	0759      	lsls	r1, r3, #29
100091d4:	d40e      	bmi.n	100091f4 <prvTimerTask+0x2d0>
100091d6:	2101      	movs	r1, #1
100091d8:	438b      	bics	r3, r1
100091da:	54b3      	strb	r3, [r6, r2]
100091dc:	0030      	movs	r0, r6
100091de:	6a33      	ldr	r3, [r6, #32]
100091e0:	4798      	blx	r3
100091e2:	e6c6      	b.n	10008f72 <prvTimerTask+0x4e>
100091e4:	464a      	mov	r2, r9
100091e6:	1b14      	subs	r4, r2, r4
100091e8:	42a3      	cmp	r3, r4
100091ea:	d812      	bhi.n	10009212 <prvTimerTask+0x2ee>
100091ec:	0030      	movs	r0, r6
100091ee:	6a33      	ldr	r3, [r6, #32]
100091f0:	4798      	blx	r3
100091f2:	003c      	movs	r4, r7
100091f4:	69b3      	ldr	r3, [r6, #24]
100091f6:	6136      	str	r6, [r6, #16]
100091f8:	18e7      	adds	r7, r4, r3
100091fa:	6077      	str	r7, [r6, #4]
100091fc:	45b9      	cmp	r9, r7
100091fe:	d2f1      	bcs.n	100091e4 <prvTimerTask+0x2c0>
10009200:	45a1      	cmp	r9, r4
10009202:	d201      	bcs.n	10009208 <prvTimerTask+0x2e4>
10009204:	42bc      	cmp	r4, r7
10009206:	d9f1      	bls.n	100091ec <prvTimerTask+0x2c8>
10009208:	4641      	mov	r1, r8
1000920a:	6828      	ldr	r0, [r5, #0]
1000920c:	f000 fa26 	bl	1000965c <vListInsert>
10009210:	e7e4      	b.n	100091dc <prvTimerTask+0x2b8>
10009212:	4641      	mov	r1, r8
10009214:	68a8      	ldr	r0, [r5, #8]
10009216:	f000 fa21 	bl	1000965c <vListInsert>
1000921a:	e7df      	b.n	100091dc <prvTimerTask+0x2b8>
1000921c:	4643      	mov	r3, r8
1000921e:	68a8      	ldr	r0, [r5, #8]
10009220:	1d19      	adds	r1, r3, #4
10009222:	f000 fa1b 	bl	1000965c <vListInsert>
10009226:	e716      	b.n	10009056 <prvTimerTask+0x132>
10009228:	4641      	mov	r1, r8
1000922a:	68a8      	ldr	r0, [r5, #8]
1000922c:	3104      	adds	r1, #4
1000922e:	f000 fa15 	bl	1000965c <vListInsert>
10009232:	e6a0      	b.n	10008f76 <prvTimerTask+0x52>
10009234:	20001158 	.word	0x20001158
10009238:	1000b7a8 	.word	0x1000b7a8

1000923c <xTimerCreateTimerTask>:
1000923c:	b570      	push	{r4, r5, r6, lr}
1000923e:	b082      	sub	sp, #8
10009240:	f000 f968 	bl	10009514 <vPortEnterCritical>
10009244:	4c16      	ldr	r4, [pc, #88]	; (100092a0 <xTimerCreateTimerTask+0x64>)
10009246:	68e3      	ldr	r3, [r4, #12]
10009248:	2b00      	cmp	r3, #0
1000924a:	d011      	beq.n	10009270 <xTimerCreateTimerTask+0x34>
1000924c:	f000 f96e 	bl	1000952c <vPortExitCritical>
10009250:	68e3      	ldr	r3, [r4, #12]
10009252:	2000      	movs	r0, #0
10009254:	2b00      	cmp	r3, #0
10009256:	d009      	beq.n	1000926c <xTimerCreateTimerTask+0x30>
10009258:	2303      	movs	r3, #3
1000925a:	3438      	adds	r4, #56	; 0x38
1000925c:	9300      	str	r3, [sp, #0]
1000925e:	2280      	movs	r2, #128	; 0x80
10009260:	2300      	movs	r3, #0
10009262:	4910      	ldr	r1, [pc, #64]	; (100092a4 <xTimerCreateTimerTask+0x68>)
10009264:	4810      	ldr	r0, [pc, #64]	; (100092a8 <xTimerCreateTimerTask+0x6c>)
10009266:	9401      	str	r4, [sp, #4]
10009268:	f7fe fcb2 	bl	10007bd0 <xTaskCreate>
1000926c:	b002      	add	sp, #8
1000926e:	bd70      	pop	{r4, r5, r6, pc}
10009270:	0026      	movs	r6, r4
10009272:	0025      	movs	r5, r4
10009274:	3610      	adds	r6, #16
10009276:	0030      	movs	r0, r6
10009278:	3524      	adds	r5, #36	; 0x24
1000927a:	f000 f9d3 	bl	10009624 <vListInitialise>
1000927e:	0028      	movs	r0, r5
10009280:	f000 f9d0 	bl	10009624 <vListInitialise>
10009284:	2200      	movs	r2, #0
10009286:	210c      	movs	r1, #12
10009288:	200a      	movs	r0, #10
1000928a:	6026      	str	r6, [r4, #0]
1000928c:	60a5      	str	r5, [r4, #8]
1000928e:	f000 fa5f 	bl	10009750 <xQueueGenericCreate>
10009292:	60e0      	str	r0, [r4, #12]
10009294:	2800      	cmp	r0, #0
10009296:	d0d9      	beq.n	1000924c <xTimerCreateTimerTask+0x10>
10009298:	4904      	ldr	r1, [pc, #16]	; (100092ac <xTimerCreateTimerTask+0x70>)
1000929a:	f001 f99d 	bl	1000a5d8 <vQueueAddToRegistry>
1000929e:	e7d5      	b.n	1000924c <xTimerCreateTimerTask+0x10>
100092a0:	20001158 	.word	0x20001158
100092a4:	1000b7d8 	.word	0x1000b7d8
100092a8:	10008f25 	.word	0x10008f25
100092ac:	1000b7d0 	.word	0x1000b7d0

100092b0 <xTimerCreate>:
100092b0:	b5f8      	push	{r3, r4, r5, r6, r7, lr}
100092b2:	4645      	mov	r5, r8
100092b4:	46de      	mov	lr, fp
100092b6:	4657      	mov	r7, sl
100092b8:	464e      	mov	r6, r9
100092ba:	b5e0      	push	{r5, r6, r7, lr}
100092bc:	0007      	movs	r7, r0
100092be:	2028      	movs	r0, #40	; 0x28
100092c0:	4688      	mov	r8, r1
100092c2:	0016      	movs	r6, r2
100092c4:	001d      	movs	r5, r3
100092c6:	f000 f8c7 	bl	10009458 <pvPortMalloc>
100092ca:	1e04      	subs	r4, r0, #0
100092cc:	d01b      	beq.n	10009306 <xTimerCreate+0x56>
100092ce:	2324      	movs	r3, #36	; 0x24
100092d0:	2200      	movs	r2, #0
100092d2:	54c2      	strb	r2, [r0, r3]
100092d4:	f000 f91e 	bl	10009514 <vPortEnterCritical>
100092d8:	4b1d      	ldr	r3, [pc, #116]	; (10009350 <xTimerCreate+0xa0>)
100092da:	4699      	mov	r9, r3
100092dc:	68db      	ldr	r3, [r3, #12]
100092de:	2b00      	cmp	r3, #0
100092e0:	d018      	beq.n	10009314 <xTimerCreate+0x64>
100092e2:	f000 f923 	bl	1000952c <vPortExitCritical>
100092e6:	4643      	mov	r3, r8
100092e8:	61a3      	str	r3, [r4, #24]
100092ea:	9b0a      	ldr	r3, [sp, #40]	; 0x28
100092ec:	6027      	str	r7, [r4, #0]
100092ee:	61e5      	str	r5, [r4, #28]
100092f0:	6223      	str	r3, [r4, #32]
100092f2:	1d20      	adds	r0, r4, #4
100092f4:	f000 f9a2 	bl	1000963c <vListInitialiseItem>
100092f8:	2e00      	cmp	r6, #0
100092fa:	d004      	beq.n	10009306 <xTimerCreate+0x56>
100092fc:	2224      	movs	r2, #36	; 0x24
100092fe:	2104      	movs	r1, #4
10009300:	5ca3      	ldrb	r3, [r4, r2]
10009302:	430b      	orrs	r3, r1
10009304:	54a3      	strb	r3, [r4, r2]
10009306:	0020      	movs	r0, r4
10009308:	bcf0      	pop	{r4, r5, r6, r7}
1000930a:	46bb      	mov	fp, r7
1000930c:	46b2      	mov	sl, r6
1000930e:	46a9      	mov	r9, r5
10009310:	46a0      	mov	r8, r4
10009312:	bdf8      	pop	{r3, r4, r5, r6, r7, pc}
10009314:	3310      	adds	r3, #16
10009316:	444b      	add	r3, r9
10009318:	0018      	movs	r0, r3
1000931a:	469b      	mov	fp, r3
1000931c:	f000 f982 	bl	10009624 <vListInitialise>
10009320:	2324      	movs	r3, #36	; 0x24
10009322:	444b      	add	r3, r9
10009324:	0018      	movs	r0, r3
10009326:	469a      	mov	sl, r3
10009328:	f000 f97c 	bl	10009624 <vListInitialise>
1000932c:	464b      	mov	r3, r9
1000932e:	465a      	mov	r2, fp
10009330:	601a      	str	r2, [r3, #0]
10009332:	4652      	mov	r2, sl
10009334:	210c      	movs	r1, #12
10009336:	609a      	str	r2, [r3, #8]
10009338:	200a      	movs	r0, #10
1000933a:	2200      	movs	r2, #0
1000933c:	f000 fa08 	bl	10009750 <xQueueGenericCreate>
10009340:	464b      	mov	r3, r9
10009342:	60d8      	str	r0, [r3, #12]
10009344:	2800      	cmp	r0, #0
10009346:	d0cc      	beq.n	100092e2 <xTimerCreate+0x32>
10009348:	4902      	ldr	r1, [pc, #8]	; (10009354 <xTimerCreate+0xa4>)
1000934a:	f001 f945 	bl	1000a5d8 <vQueueAddToRegistry>
1000934e:	e7c8      	b.n	100092e2 <xTimerCreate+0x32>
10009350:	20001158 	.word	0x20001158
10009354:	1000b7d0 	.word	0x1000b7d0

10009358 <xTimerGenericCommand>:
10009358:	b570      	push	{r4, r5, r6, lr}
1000935a:	4e13      	ldr	r6, [pc, #76]	; (100093a8 <xTimerGenericCommand+0x50>)
1000935c:	001c      	movs	r4, r3
1000935e:	68f5      	ldr	r5, [r6, #12]
10009360:	b084      	sub	sp, #16
10009362:	2d00      	cmp	r5, #0
10009364:	d017      	beq.n	10009396 <xTimerGenericCommand+0x3e>
10009366:	9101      	str	r1, [sp, #4]
10009368:	9202      	str	r2, [sp, #8]
1000936a:	9003      	str	r0, [sp, #12]
1000936c:	2905      	cmp	r1, #5
1000936e:	dc0a      	bgt.n	10009386 <xTimerGenericCommand+0x2e>
10009370:	f7ff fb8c 	bl	10008a8c <xTaskGetSchedulerState>
10009374:	2802      	cmp	r0, #2
10009376:	d010      	beq.n	1000939a <xTimerGenericCommand+0x42>
10009378:	2300      	movs	r3, #0
1000937a:	2200      	movs	r2, #0
1000937c:	68f0      	ldr	r0, [r6, #12]
1000937e:	a901      	add	r1, sp, #4
10009380:	f000 fa32 	bl	100097e8 <xQueueGenericSend>
10009384:	e005      	b.n	10009392 <xTimerGenericCommand+0x3a>
10009386:	2300      	movs	r3, #0
10009388:	0022      	movs	r2, r4
1000938a:	0028      	movs	r0, r5
1000938c:	a901      	add	r1, sp, #4
1000938e:	f000 fbb7 	bl	10009b00 <xQueueGenericSendFromISR>
10009392:	b004      	add	sp, #16
10009394:	bd70      	pop	{r4, r5, r6, pc}
10009396:	2000      	movs	r0, #0
10009398:	e7fb      	b.n	10009392 <xTimerGenericCommand+0x3a>
1000939a:	2300      	movs	r3, #0
1000939c:	68f0      	ldr	r0, [r6, #12]
1000939e:	9a08      	ldr	r2, [sp, #32]
100093a0:	a901      	add	r1, sp, #4
100093a2:	f000 fa21 	bl	100097e8 <xQueueGenericSend>
100093a6:	e7f4      	b.n	10009392 <xTimerGenericCommand+0x3a>
100093a8:	20001158 	.word	0x20001158

100093ac <xTimerGetTimerDaemonTaskHandle>:
100093ac:	4b01      	ldr	r3, [pc, #4]	; (100093b4 <xTimerGetTimerDaemonTaskHandle+0x8>)
100093ae:	6b98      	ldr	r0, [r3, #56]	; 0x38
100093b0:	4770      	bx	lr
100093b2:	46c0      	nop			; (mov r8, r8)
100093b4:	20001158 	.word	0x20001158

100093b8 <xTimerGetPeriod>:
100093b8:	6980      	ldr	r0, [r0, #24]
100093ba:	4770      	bx	lr

100093bc <vTimerSetReloadMode>:
100093bc:	b570      	push	{r4, r5, r6, lr}
100093be:	0004      	movs	r4, r0
100093c0:	000d      	movs	r5, r1
100093c2:	f000 f8a7 	bl	10009514 <vPortEnterCritical>
100093c6:	2324      	movs	r3, #36	; 0x24
100093c8:	2204      	movs	r2, #4
100093ca:	5ce3      	ldrb	r3, [r4, r3]
100093cc:	2d00      	cmp	r5, #0
100093ce:	d005      	beq.n	100093dc <vTimerSetReloadMode+0x20>
100093d0:	4313      	orrs	r3, r2
100093d2:	2224      	movs	r2, #36	; 0x24
100093d4:	54a3      	strb	r3, [r4, r2]
100093d6:	f000 f8a9 	bl	1000952c <vPortExitCritical>
100093da:	bd70      	pop	{r4, r5, r6, pc}
100093dc:	4393      	bics	r3, r2
100093de:	e7f8      	b.n	100093d2 <vTimerSetReloadMode+0x16>

100093e0 <xTimerGetReloadMode>:
100093e0:	b510      	push	{r4, lr}
100093e2:	0004      	movs	r4, r0
100093e4:	f000 f896 	bl	10009514 <vPortEnterCritical>
100093e8:	2324      	movs	r3, #36	; 0x24
100093ea:	5ce4      	ldrb	r4, [r4, r3]
100093ec:	f000 f89e 	bl	1000952c <vPortExitCritical>
100093f0:	0764      	lsls	r4, r4, #29
100093f2:	0fe4      	lsrs	r4, r4, #31
100093f4:	0020      	movs	r0, r4
100093f6:	bd10      	pop	{r4, pc}

100093f8 <uxTimerGetReloadMode>:
100093f8:	b510      	push	{r4, lr}
100093fa:	0004      	movs	r4, r0
100093fc:	f000 f88a 	bl	10009514 <vPortEnterCritical>
10009400:	2324      	movs	r3, #36	; 0x24
10009402:	5ce4      	ldrb	r4, [r4, r3]
10009404:	f000 f892 	bl	1000952c <vPortExitCritical>
10009408:	0764      	lsls	r4, r4, #29
1000940a:	0fe4      	lsrs	r4, r4, #31
1000940c:	0020      	movs	r0, r4
1000940e:	bd10      	pop	{r4, pc}

10009410 <xTimerGetExpiryTime>:
10009410:	6840      	ldr	r0, [r0, #4]
10009412:	4770      	bx	lr

10009414 <pcTimerGetName>:
10009414:	6800      	ldr	r0, [r0, #0]
10009416:	4770      	bx	lr

10009418 <xTimerIsTimerActive>:
10009418:	b510      	push	{r4, lr}
1000941a:	0004      	movs	r4, r0
1000941c:	f000 f87a 	bl	10009514 <vPortEnterCritical>
10009420:	2324      	movs	r3, #36	; 0x24
10009422:	5ce3      	ldrb	r3, [r4, r3]
10009424:	2401      	movs	r4, #1
10009426:	401c      	ands	r4, r3
10009428:	f000 f880 	bl	1000952c <vPortExitCritical>
1000942c:	0020      	movs	r0, r4
1000942e:	bd10      	pop	{r4, pc}

10009430 <pvTimerGetTimerID>:
10009430:	b510      	push	{r4, lr}
10009432:	0004      	movs	r4, r0
10009434:	f000 f86e 	bl	10009514 <vPortEnterCritical>
10009438:	69e4      	ldr	r4, [r4, #28]
1000943a:	f000 f877 	bl	1000952c <vPortExitCritical>
1000943e:	0020      	movs	r0, r4
10009440:	bd10      	pop	{r4, pc}
10009442:	46c0      	nop			; (mov r8, r8)

10009444 <vTimerSetTimerID>:
10009444:	b570      	push	{r4, r5, r6, lr}
10009446:	000d      	movs	r5, r1
10009448:	0004      	movs	r4, r0
1000944a:	f000 f863 	bl	10009514 <vPortEnterCritical>
1000944e:	61e5      	str	r5, [r4, #28]
10009450:	f000 f86c 	bl	1000952c <vPortExitCritical>
10009454:	bd70      	pop	{r4, r5, r6, pc}
10009456:	46c0      	nop			; (mov r8, r8)

10009458 <pvPortMalloc>:
10009458:	b510      	push	{r4, lr}
1000945a:	0004      	movs	r4, r0
1000945c:	f7fe ff8a 	bl	10008374 <vTaskSuspendAll>
10009460:	0020      	movs	r0, r4
10009462:	f7fb fa75 	bl	10004950 <__wrap_malloc>
10009466:	0004      	movs	r4, r0
10009468:	f7fe ff8c 	bl	10008384 <xTaskResumeAll>
1000946c:	0020      	movs	r0, r4
1000946e:	bd10      	pop	{r4, pc}

10009470 <vPortFree>:
10009470:	b510      	push	{r4, lr}
10009472:	1e04      	subs	r4, r0, #0
10009474:	d006      	beq.n	10009484 <vPortFree+0x14>
10009476:	f7fe ff7d 	bl	10008374 <vTaskSuspendAll>
1000947a:	0020      	movs	r0, r4
1000947c:	f7fb fa7a 	bl	10004974 <__wrap_free>
10009480:	f7fe ff80 	bl	10008384 <xTaskResumeAll>
10009484:	bd10      	pop	{r4, pc}
10009486:	46c0      	nop			; (mov r8, r8)
	...

10009490 <prvTaskExitError>:
10009490:	2300      	movs	r3, #0
10009492:	b082      	sub	sp, #8
10009494:	9301      	str	r3, [sp, #4]
10009496:	b672      	cpsid	i
10009498:	9b01      	ldr	r3, [sp, #4]
1000949a:	2b00      	cmp	r3, #0
1000949c:	d0fc      	beq.n	10009498 <prvTaskExitError+0x8>
1000949e:	b002      	add	sp, #8
100094a0:	4770      	bx	lr
100094a2:	46c0      	nop			; (mov r8, r8)

100094a4 <vPortStartFirstTask>:
100094a4:	4a0a      	ldr	r2, [pc, #40]	; (100094d0 <pxCurrentTCBConst2>)
100094a6:	6813      	ldr	r3, [r2, #0]
100094a8:	6818      	ldr	r0, [r3, #0]
100094aa:	3020      	adds	r0, #32
100094ac:	f380 8809 	msr	PSP, r0
100094b0:	2002      	movs	r0, #2
100094b2:	f380 8814 	msr	CONTROL, r0
100094b6:	f3bf 8f6f 	isb	sy
100094ba:	bc3f      	pop	{r0, r1, r2, r3, r4, r5}
100094bc:	46ae      	mov	lr, r5
100094be:	bc08      	pop	{r3}
100094c0:	bc04      	pop	{r2}
100094c2:	b662      	cpsie	i
100094c4:	4718      	bx	r3
100094c6:	46c0      	nop			; (mov r8, r8)
100094c8:	46c0      	nop			; (mov r8, r8)
100094ca:	46c0      	nop			; (mov r8, r8)
100094cc:	46c0      	nop			; (mov r8, r8)
100094ce:	46c0      	nop			; (mov r8, r8)

100094d0 <pxCurrentTCBConst2>:
100094d0:	200010d8 	.word	0x200010d8

100094d4 <pxPortInitialiseStack>:
100094d4:	b510      	push	{r4, lr}
100094d6:	2480      	movs	r4, #128	; 0x80
100094d8:	1f03      	subs	r3, r0, #4
100094da:	0464      	lsls	r4, r4, #17
100094dc:	601c      	str	r4, [r3, #0]
100094de:	3b04      	subs	r3, #4
100094e0:	6019      	str	r1, [r3, #0]
100094e2:	4903      	ldr	r1, [pc, #12]	; (100094f0 <pxPortInitialiseStack+0x1c>)
100094e4:	3b04      	subs	r3, #4
100094e6:	6019      	str	r1, [r3, #0]
100094e8:	3b14      	subs	r3, #20
100094ea:	3840      	subs	r0, #64	; 0x40
100094ec:	601a      	str	r2, [r3, #0]
100094ee:	bd10      	pop	{r4, pc}
100094f0:	10009491 	.word	0x10009491

100094f4 <isr_svcall>:
100094f4:	4770      	bx	lr
100094f6:	46c0      	nop			; (mov r8, r8)

100094f8 <vPortEndScheduler>:
100094f8:	4770      	bx	lr
100094fa:	46c0      	nop			; (mov r8, r8)

100094fc <vPortYield>:
100094fc:	2280      	movs	r2, #128	; 0x80
100094fe:	4b04      	ldr	r3, [pc, #16]	; (10009510 <vPortYield+0x14>)
10009500:	0552      	lsls	r2, r2, #21
10009502:	601a      	str	r2, [r3, #0]
10009504:	f3bf 8f4f 	dsb	sy
10009508:	f3bf 8f6f 	isb	sy
1000950c:	4770      	bx	lr
1000950e:	46c0      	nop			; (mov r8, r8)
10009510:	e000ed04 	.word	0xe000ed04

10009514 <vPortEnterCritical>:
10009514:	b672      	cpsid	i
10009516:	4a04      	ldr	r2, [pc, #16]	; (10009528 <vPortEnterCritical+0x14>)
10009518:	6813      	ldr	r3, [r2, #0]
1000951a:	3301      	adds	r3, #1
1000951c:	6013      	str	r3, [r2, #0]
1000951e:	f3bf 8f4f 	dsb	sy
10009522:	f3bf 8f6f 	isb	sy
10009526:	4770      	bx	lr
10009528:	2000047c 	.word	0x2000047c

1000952c <vPortExitCritical>:
1000952c:	4a03      	ldr	r2, [pc, #12]	; (1000953c <vPortExitCritical+0x10>)
1000952e:	6813      	ldr	r3, [r2, #0]
10009530:	3b01      	subs	r3, #1
10009532:	6013      	str	r3, [r2, #0]
10009534:	2b00      	cmp	r3, #0
10009536:	d100      	bne.n	1000953a <vPortExitCritical+0xe>
10009538:	b662      	cpsie	i
1000953a:	4770      	bx	lr
1000953c:	2000047c 	.word	0x2000047c

10009540 <ulSetInterruptMaskFromISR>:
10009540:	f3ef 8010 	mrs	r0, PRIMASK
10009544:	b672      	cpsid	i
10009546:	4770      	bx	lr

10009548 <vClearInterruptMaskFromISR>:
10009548:	f380 8810 	msr	PRIMASK, r0
1000954c:	4770      	bx	lr
1000954e:	46c0      	nop			; (mov r8, r8)

10009550 <isr_pendsv>:
10009550:	f3ef 8009 	mrs	r0, PSP
10009554:	4b0e      	ldr	r3, [pc, #56]	; (10009590 <pxCurrentTCBConst>)
10009556:	681a      	ldr	r2, [r3, #0]
10009558:	3820      	subs	r0, #32
1000955a:	6010      	str	r0, [r2, #0]
1000955c:	c0f0      	stmia	r0!, {r4, r5, r6, r7}
1000955e:	4644      	mov	r4, r8
10009560:	464d      	mov	r5, r9
10009562:	4656      	mov	r6, sl
10009564:	465f      	mov	r7, fp
10009566:	c0f0      	stmia	r0!, {r4, r5, r6, r7}
10009568:	b508      	push	{r3, lr}
1000956a:	b672      	cpsid	i
1000956c:	f7ff f850 	bl	10008610 <vTaskSwitchContext>
10009570:	b662      	cpsie	i
10009572:	bc0c      	pop	{r2, r3}
10009574:	6811      	ldr	r1, [r2, #0]
10009576:	6808      	ldr	r0, [r1, #0]
10009578:	3010      	adds	r0, #16
1000957a:	c8f0      	ldmia	r0!, {r4, r5, r6, r7}
1000957c:	46a0      	mov	r8, r4
1000957e:	46a9      	mov	r9, r5
10009580:	46b2      	mov	sl, r6
10009582:	46bb      	mov	fp, r7
10009584:	f380 8809 	msr	PSP, r0
10009588:	3820      	subs	r0, #32
1000958a:	c8f0      	ldmia	r0!, {r4, r5, r6, r7}
1000958c:	4718      	bx	r3
1000958e:	46c0      	nop			; (mov r8, r8)

10009590 <pxCurrentTCBConst>:
10009590:	200010d8 	.word	0x200010d8

10009594 <isr_systick>:
10009594:	b510      	push	{r4, lr}
10009596:	f7ff ffd3 	bl	10009540 <ulSetInterruptMaskFromISR>
1000959a:	0004      	movs	r4, r0
1000959c:	f7ff f826 	bl	100085ec <xTaskIncrementTick>
100095a0:	2800      	cmp	r0, #0
100095a2:	d003      	beq.n	100095ac <isr_systick+0x18>
100095a4:	2280      	movs	r2, #128	; 0x80
100095a6:	4b03      	ldr	r3, [pc, #12]	; (100095b4 <isr_systick+0x20>)
100095a8:	0552      	lsls	r2, r2, #21
100095aa:	601a      	str	r2, [r3, #0]
100095ac:	0020      	movs	r0, r4
100095ae:	f7ff ffcb 	bl	10009548 <vClearInterruptMaskFromISR>
100095b2:	bd10      	pop	{r4, pc}
100095b4:	e000ed04 	.word	0xe000ed04

100095b8 <vPortSetupTimerInterrupt>:
100095b8:	2200      	movs	r2, #0
100095ba:	4b05      	ldr	r3, [pc, #20]	; (100095d0 <vPortSetupTimerInterrupt+0x18>)
100095bc:	4905      	ldr	r1, [pc, #20]	; (100095d4 <vPortSetupTimerInterrupt+0x1c>)
100095be:	601a      	str	r2, [r3, #0]
100095c0:	600a      	str	r2, [r1, #0]
100095c2:	4a05      	ldr	r2, [pc, #20]	; (100095d8 <vPortSetupTimerInterrupt+0x20>)
100095c4:	4905      	ldr	r1, [pc, #20]	; (100095dc <vPortSetupTimerInterrupt+0x24>)
100095c6:	6011      	str	r1, [r2, #0]
100095c8:	2207      	movs	r2, #7
100095ca:	601a      	str	r2, [r3, #0]
100095cc:	4770      	bx	lr
100095ce:	46c0      	nop			; (mov r8, r8)
100095d0:	e000e010 	.word	0xe000e010
100095d4:	e000e018 	.word	0xe000e018
100095d8:	e000e014 	.word	0xe000e014
100095dc:	00020787 	.word	0x00020787

100095e0 <xPortStartScheduler>:
100095e0:	22ff      	movs	r2, #255	; 0xff
100095e2:	4b0e      	ldr	r3, [pc, #56]	; (1000961c <xPortStartScheduler+0x3c>)
100095e4:	0412      	lsls	r2, r2, #16
100095e6:	6819      	ldr	r1, [r3, #0]
100095e8:	b510      	push	{r4, lr}
100095ea:	430a      	orrs	r2, r1
100095ec:	601a      	str	r2, [r3, #0]
100095ee:	22ff      	movs	r2, #255	; 0xff
100095f0:	2400      	movs	r4, #0
100095f2:	6819      	ldr	r1, [r3, #0]
100095f4:	0612      	lsls	r2, r2, #24
100095f6:	430a      	orrs	r2, r1
100095f8:	b082      	sub	sp, #8
100095fa:	601a      	str	r2, [r3, #0]
100095fc:	f7ff ffdc 	bl	100095b8 <vPortSetupTimerInterrupt>
10009600:	4b07      	ldr	r3, [pc, #28]	; (10009620 <xPortStartScheduler+0x40>)
10009602:	601c      	str	r4, [r3, #0]
10009604:	f7ff ff4e 	bl	100094a4 <vPortStartFirstTask>
10009608:	f7ff f802 	bl	10008610 <vTaskSwitchContext>
1000960c:	9401      	str	r4, [sp, #4]
1000960e:	b672      	cpsid	i
10009610:	9b01      	ldr	r3, [sp, #4]
10009612:	2b00      	cmp	r3, #0
10009614:	d0fc      	beq.n	10009610 <xPortStartScheduler+0x30>
10009616:	2000      	movs	r0, #0
10009618:	b002      	add	sp, #8
1000961a:	bd10      	pop	{r4, pc}
1000961c:	e000ed20 	.word	0xe000ed20
10009620:	2000047c 	.word	0x2000047c

10009624 <vListInitialise>:
10009624:	0003      	movs	r3, r0
10009626:	3308      	adds	r3, #8
10009628:	2201      	movs	r2, #1
1000962a:	6043      	str	r3, [r0, #4]
1000962c:	60c3      	str	r3, [r0, #12]
1000962e:	6103      	str	r3, [r0, #16]
10009630:	2300      	movs	r3, #0
10009632:	4252      	negs	r2, r2
10009634:	6082      	str	r2, [r0, #8]
10009636:	6003      	str	r3, [r0, #0]
10009638:	4770      	bx	lr
1000963a:	46c0      	nop			; (mov r8, r8)

1000963c <vListInitialiseItem>:
1000963c:	2300      	movs	r3, #0
1000963e:	6103      	str	r3, [r0, #16]
10009640:	4770      	bx	lr
10009642:	46c0      	nop			; (mov r8, r8)

10009644 <vListInsertEnd>:
10009644:	6843      	ldr	r3, [r0, #4]
10009646:	689a      	ldr	r2, [r3, #8]
10009648:	604b      	str	r3, [r1, #4]
1000964a:	608a      	str	r2, [r1, #8]
1000964c:	689a      	ldr	r2, [r3, #8]
1000964e:	6051      	str	r1, [r2, #4]
10009650:	6099      	str	r1, [r3, #8]
10009652:	6803      	ldr	r3, [r0, #0]
10009654:	6108      	str	r0, [r1, #16]
10009656:	3301      	adds	r3, #1
10009658:	6003      	str	r3, [r0, #0]
1000965a:	4770      	bx	lr

1000965c <vListInsert>:
1000965c:	0003      	movs	r3, r0
1000965e:	b530      	push	{r4, r5, lr}
10009660:	680c      	ldr	r4, [r1, #0]
10009662:	3308      	adds	r3, #8
10009664:	1c62      	adds	r2, r4, #1
10009666:	d00d      	beq.n	10009684 <vListInsert+0x28>
10009668:	001a      	movs	r2, r3
1000966a:	685b      	ldr	r3, [r3, #4]
1000966c:	681d      	ldr	r5, [r3, #0]
1000966e:	42a5      	cmp	r5, r4
10009670:	d9fa      	bls.n	10009668 <vListInsert+0xc>
10009672:	604b      	str	r3, [r1, #4]
10009674:	6099      	str	r1, [r3, #8]
10009676:	6803      	ldr	r3, [r0, #0]
10009678:	608a      	str	r2, [r1, #8]
1000967a:	3301      	adds	r3, #1
1000967c:	6051      	str	r1, [r2, #4]
1000967e:	6108      	str	r0, [r1, #16]
10009680:	6003      	str	r3, [r0, #0]
10009682:	bd30      	pop	{r4, r5, pc}
10009684:	6902      	ldr	r2, [r0, #16]
10009686:	6853      	ldr	r3, [r2, #4]
10009688:	e7f3      	b.n	10009672 <vListInsert+0x16>
1000968a:	46c0      	nop			; (mov r8, r8)

1000968c <uxListRemove>:
1000968c:	6903      	ldr	r3, [r0, #16]
1000968e:	6841      	ldr	r1, [r0, #4]
10009690:	6882      	ldr	r2, [r0, #8]
10009692:	608a      	str	r2, [r1, #8]
10009694:	6051      	str	r1, [r2, #4]
10009696:	6859      	ldr	r1, [r3, #4]
10009698:	4281      	cmp	r1, r0
1000969a:	d006      	beq.n	100096aa <uxListRemove+0x1e>
1000969c:	2200      	movs	r2, #0
1000969e:	6102      	str	r2, [r0, #16]
100096a0:	681a      	ldr	r2, [r3, #0]
100096a2:	3a01      	subs	r2, #1
100096a4:	601a      	str	r2, [r3, #0]
100096a6:	6818      	ldr	r0, [r3, #0]
100096a8:	4770      	bx	lr
100096aa:	605a      	str	r2, [r3, #4]
100096ac:	e7f6      	b.n	1000969c <uxListRemove+0x10>
100096ae:	46c0      	nop			; (mov r8, r8)

100096b0 <xQueueGenericReset>:
100096b0:	b570      	push	{r4, r5, r6, lr}
100096b2:	0004      	movs	r4, r0
100096b4:	000d      	movs	r5, r1
100096b6:	2800      	cmp	r0, #0
100096b8:	d032      	beq.n	10009720 <xQueueGenericReset+0x70>
100096ba:	6bc3      	ldr	r3, [r0, #60]	; 0x3c
100096bc:	2000      	movs	r0, #0
100096be:	2b00      	cmp	r3, #0
100096c0:	d020      	beq.n	10009704 <xQueueGenericReset+0x54>
100096c2:	6c21      	ldr	r1, [r4, #64]	; 0x40
100096c4:	0c18      	lsrs	r0, r3, #16
100096c6:	0c0a      	lsrs	r2, r1, #16
100096c8:	d11d      	bne.n	10009706 <xQueueGenericReset+0x56>
100096ca:	2800      	cmp	r0, #0
100096cc:	d12a      	bne.n	10009724 <xQueueGenericReset+0x74>
100096ce:	f7ff ff21 	bl	10009514 <vPortEnterCritical>
100096d2:	6c21      	ldr	r1, [r4, #64]	; 0x40
100096d4:	6be3      	ldr	r3, [r4, #60]	; 0x3c
100096d6:	6822      	ldr	r2, [r4, #0]
100096d8:	434b      	muls	r3, r1
100096da:	18d0      	adds	r0, r2, r3
100096dc:	1a5b      	subs	r3, r3, r1
100096de:	18d3      	adds	r3, r2, r3
100096e0:	60a0      	str	r0, [r4, #8]
100096e2:	6062      	str	r2, [r4, #4]
100096e4:	60e3      	str	r3, [r4, #12]
100096e6:	2244      	movs	r2, #68	; 0x44
100096e8:	23ff      	movs	r3, #255	; 0xff
100096ea:	2000      	movs	r0, #0
100096ec:	63a0      	str	r0, [r4, #56]	; 0x38
100096ee:	54a3      	strb	r3, [r4, r2]
100096f0:	3201      	adds	r2, #1
100096f2:	54a3      	strb	r3, [r4, r2]
100096f4:	2d00      	cmp	r5, #0
100096f6:	d118      	bne.n	1000972a <xQueueGenericReset+0x7a>
100096f8:	6923      	ldr	r3, [r4, #16]
100096fa:	2b00      	cmp	r3, #0
100096fc:	d11e      	bne.n	1000973c <xQueueGenericReset+0x8c>
100096fe:	f7ff ff15 	bl	1000952c <vPortExitCritical>
10009702:	2001      	movs	r0, #1
10009704:	bd70      	pop	{r4, r5, r6, pc}
10009706:	2800      	cmp	r0, #0
10009708:	d10a      	bne.n	10009720 <xQueueGenericReset+0x70>
1000970a:	1c18      	adds	r0, r3, #0
1000970c:	b289      	uxth	r1, r1
1000970e:	b29b      	uxth	r3, r3
10009710:	434b      	muls	r3, r1
10009712:	b280      	uxth	r0, r0
10009714:	b292      	uxth	r2, r2
10009716:	4342      	muls	r2, r0
10009718:	0c1b      	lsrs	r3, r3, #16
1000971a:	18d3      	adds	r3, r2, r3
1000971c:	0c1b      	lsrs	r3, r3, #16
1000971e:	d0d6      	beq.n	100096ce <xQueueGenericReset+0x1e>
10009720:	2000      	movs	r0, #0
10009722:	e7ef      	b.n	10009704 <xQueueGenericReset+0x54>
10009724:	1c02      	adds	r2, r0, #0
10009726:	1c08      	adds	r0, r1, #0
10009728:	e7f0      	b.n	1000970c <xQueueGenericReset+0x5c>
1000972a:	0020      	movs	r0, r4
1000972c:	3010      	adds	r0, #16
1000972e:	f7ff ff79 	bl	10009624 <vListInitialise>
10009732:	0020      	movs	r0, r4
10009734:	3024      	adds	r0, #36	; 0x24
10009736:	f7ff ff75 	bl	10009624 <vListInitialise>
1000973a:	e7e0      	b.n	100096fe <xQueueGenericReset+0x4e>
1000973c:	0020      	movs	r0, r4
1000973e:	3010      	adds	r0, #16
10009740:	f7ff f88e 	bl	10008860 <xTaskRemoveFromEventList>
10009744:	2800      	cmp	r0, #0
10009746:	d0da      	beq.n	100096fe <xQueueGenericReset+0x4e>
10009748:	f7ff fed8 	bl	100094fc <vPortYield>
1000974c:	e7d7      	b.n	100096fe <xQueueGenericReset+0x4e>
1000974e:	46c0      	nop			; (mov r8, r8)

10009750 <xQueueGenericCreate>:
10009750:	b570      	push	{r4, r5, r6, lr}
10009752:	0005      	movs	r5, r0
10009754:	000e      	movs	r6, r1
10009756:	2800      	cmp	r0, #0
10009758:	d043      	beq.n	100097e2 <xQueueGenericCreate+0x92>
1000975a:	0c0b      	lsrs	r3, r1, #16
1000975c:	0c02      	lsrs	r2, r0, #16
1000975e:	2b00      	cmp	r3, #0
10009760:	d131      	bne.n	100097c6 <xQueueGenericCreate+0x76>
10009762:	1c33      	adds	r3, r6, #0
10009764:	2a00      	cmp	r2, #0
10009766:	d132      	bne.n	100097ce <xQueueGenericCreate+0x7e>
10009768:	0030      	movs	r0, r6
1000976a:	4368      	muls	r0, r5
1000976c:	0003      	movs	r3, r0
1000976e:	3349      	adds	r3, #73	; 0x49
10009770:	d837      	bhi.n	100097e2 <xQueueGenericCreate+0x92>
10009772:	3048      	adds	r0, #72	; 0x48
10009774:	f7ff fe70 	bl	10009458 <pvPortMalloc>
10009778:	1e04      	subs	r4, r0, #0
1000977a:	d032      	beq.n	100097e2 <xQueueGenericCreate+0x92>
1000977c:	0003      	movs	r3, r0
1000977e:	2e00      	cmp	r6, #0
10009780:	d000      	beq.n	10009784 <xQueueGenericCreate+0x34>
10009782:	3348      	adds	r3, #72	; 0x48
10009784:	6023      	str	r3, [r4, #0]
10009786:	63e5      	str	r5, [r4, #60]	; 0x3c
10009788:	6426      	str	r6, [r4, #64]	; 0x40
1000978a:	f7ff fec3 	bl	10009514 <vPortEnterCritical>
1000978e:	6c21      	ldr	r1, [r4, #64]	; 0x40
10009790:	6be3      	ldr	r3, [r4, #60]	; 0x3c
10009792:	6822      	ldr	r2, [r4, #0]
10009794:	434b      	muls	r3, r1
10009796:	18d0      	adds	r0, r2, r3
10009798:	60a0      	str	r0, [r4, #8]
1000979a:	2000      	movs	r0, #0
1000979c:	1a5b      	subs	r3, r3, r1
1000979e:	18d3      	adds	r3, r2, r3
100097a0:	6062      	str	r2, [r4, #4]
100097a2:	60e3      	str	r3, [r4, #12]
100097a4:	2244      	movs	r2, #68	; 0x44
100097a6:	23ff      	movs	r3, #255	; 0xff
100097a8:	63a0      	str	r0, [r4, #56]	; 0x38
100097aa:	0020      	movs	r0, r4
100097ac:	54a3      	strb	r3, [r4, r2]
100097ae:	3201      	adds	r2, #1
100097b0:	54a3      	strb	r3, [r4, r2]
100097b2:	3010      	adds	r0, #16
100097b4:	f7ff ff36 	bl	10009624 <vListInitialise>
100097b8:	0020      	movs	r0, r4
100097ba:	3024      	adds	r0, #36	; 0x24
100097bc:	f7ff ff32 	bl	10009624 <vListInitialise>
100097c0:	f7ff feb4 	bl	1000952c <vPortExitCritical>
100097c4:	e00e      	b.n	100097e4 <xQueueGenericCreate+0x94>
100097c6:	2a00      	cmp	r2, #0
100097c8:	d10b      	bne.n	100097e2 <xQueueGenericCreate+0x92>
100097ca:	1c1a      	adds	r2, r3, #0
100097cc:	1c03      	adds	r3, r0, #0
100097ce:	b2b0      	uxth	r0, r6
100097d0:	b2a9      	uxth	r1, r5
100097d2:	4341      	muls	r1, r0
100097d4:	b298      	uxth	r0, r3
100097d6:	b293      	uxth	r3, r2
100097d8:	4343      	muls	r3, r0
100097da:	0c09      	lsrs	r1, r1, #16
100097dc:	185b      	adds	r3, r3, r1
100097de:	0c1b      	lsrs	r3, r3, #16
100097e0:	d0c2      	beq.n	10009768 <xQueueGenericCreate+0x18>
100097e2:	2400      	movs	r4, #0
100097e4:	0020      	movs	r0, r4
100097e6:	bd70      	pop	{r4, r5, r6, pc}

100097e8 <xQueueGenericSend>:
100097e8:	b5f0      	push	{r4, r5, r6, r7, lr}
100097ea:	46ce      	mov	lr, r9
100097ec:	4647      	mov	r7, r8
100097ee:	0004      	movs	r4, r0
100097f0:	0006      	movs	r6, r0
100097f2:	b580      	push	{r7, lr}
100097f4:	b085      	sub	sp, #20
100097f6:	4699      	mov	r9, r3
100097f8:	9201      	str	r2, [sp, #4]
100097fa:	4688      	mov	r8, r1
100097fc:	f7ff fe8a 	bl	10009514 <vPortEnterCritical>
10009800:	6ba3      	ldr	r3, [r4, #56]	; 0x38
10009802:	6be2      	ldr	r2, [r4, #60]	; 0x3c
10009804:	2500      	movs	r5, #0
10009806:	3624      	adds	r6, #36	; 0x24
10009808:	4293      	cmp	r3, r2
1000980a:	d37c      	bcc.n	10009906 <xQueueGenericSend+0x11e>
1000980c:	464b      	mov	r3, r9
1000980e:	2b02      	cmp	r3, #2
10009810:	d100      	bne.n	10009814 <xQueueGenericSend+0x2c>
10009812:	e0e1      	b.n	100099d8 <xQueueGenericSend+0x1f0>
10009814:	9b01      	ldr	r3, [sp, #4]
10009816:	2b00      	cmp	r3, #0
10009818:	d100      	bne.n	1000981c <xQueueGenericSend+0x34>
1000981a:	e0f9      	b.n	10009a10 <xQueueGenericSend+0x228>
1000981c:	2d00      	cmp	r5, #0
1000981e:	d100      	bne.n	10009822 <xQueueGenericSend+0x3a>
10009820:	e0d6      	b.n	100099d0 <xQueueGenericSend+0x1e8>
10009822:	f7ff fe83 	bl	1000952c <vPortExitCritical>
10009826:	f7fe fda5 	bl	10008374 <vTaskSuspendAll>
1000982a:	f7ff fe73 	bl	10009514 <vPortEnterCritical>
1000982e:	2244      	movs	r2, #68	; 0x44
10009830:	5ca3      	ldrb	r3, [r4, r2]
10009832:	b25b      	sxtb	r3, r3
10009834:	3301      	adds	r3, #1
10009836:	d101      	bne.n	1000983c <xQueueGenericSend+0x54>
10009838:	2300      	movs	r3, #0
1000983a:	54a3      	strb	r3, [r4, r2]
1000983c:	2245      	movs	r2, #69	; 0x45
1000983e:	5ca3      	ldrb	r3, [r4, r2]
10009840:	b25b      	sxtb	r3, r3
10009842:	3301      	adds	r3, #1
10009844:	d101      	bne.n	1000984a <xQueueGenericSend+0x62>
10009846:	2300      	movs	r3, #0
10009848:	54a3      	strb	r3, [r4, r2]
1000984a:	f7ff fe6f 	bl	1000952c <vPortExitCritical>
1000984e:	a901      	add	r1, sp, #4
10009850:	a802      	add	r0, sp, #8
10009852:	f7ff f8c9 	bl	100089e8 <xTaskCheckForTimeOut>
10009856:	2800      	cmp	r0, #0
10009858:	d000      	beq.n	1000985c <xQueueGenericSend+0x74>
1000985a:	e0dd      	b.n	10009a18 <xQueueGenericSend+0x230>
1000985c:	f7ff fe5a 	bl	10009514 <vPortEnterCritical>
10009860:	6ba3      	ldr	r3, [r4, #56]	; 0x38
10009862:	6be2      	ldr	r2, [r4, #60]	; 0x3c
10009864:	4293      	cmp	r3, r2
10009866:	d061      	beq.n	1000992c <xQueueGenericSend+0x144>
10009868:	f7ff fe60 	bl	1000952c <vPortExitCritical>
1000986c:	f7ff fe52 	bl	10009514 <vPortEnterCritical>
10009870:	2345      	movs	r3, #69	; 0x45
10009872:	5ce5      	ldrb	r5, [r4, r3]
10009874:	b26d      	sxtb	r5, r5
10009876:	2d00      	cmp	r5, #0
10009878:	dc05      	bgt.n	10009886 <xQueueGenericSend+0x9e>
1000987a:	e013      	b.n	100098a4 <xQueueGenericSend+0xbc>
1000987c:	3d01      	subs	r5, #1
1000987e:	b2eb      	uxtb	r3, r5
10009880:	b26d      	sxtb	r5, r5
10009882:	2b00      	cmp	r3, #0
10009884:	d00e      	beq.n	100098a4 <xQueueGenericSend+0xbc>
10009886:	6a63      	ldr	r3, [r4, #36]	; 0x24
10009888:	2b00      	cmp	r3, #0
1000988a:	d00b      	beq.n	100098a4 <xQueueGenericSend+0xbc>
1000988c:	0030      	movs	r0, r6
1000988e:	f7fe ffe7 	bl	10008860 <xTaskRemoveFromEventList>
10009892:	2800      	cmp	r0, #0
10009894:	d0f2      	beq.n	1000987c <xQueueGenericSend+0x94>
10009896:	3d01      	subs	r5, #1
10009898:	f7ff f8ce 	bl	10008a38 <vTaskMissedYield>
1000989c:	b2eb      	uxtb	r3, r5
1000989e:	b26d      	sxtb	r5, r5
100098a0:	2b00      	cmp	r3, #0
100098a2:	d1f0      	bne.n	10009886 <xQueueGenericSend+0x9e>
100098a4:	2345      	movs	r3, #69	; 0x45
100098a6:	22ff      	movs	r2, #255	; 0xff
100098a8:	54e2      	strb	r2, [r4, r3]
100098aa:	f7ff fe3f 	bl	1000952c <vPortExitCritical>
100098ae:	f7ff fe31 	bl	10009514 <vPortEnterCritical>
100098b2:	2344      	movs	r3, #68	; 0x44
100098b4:	0027      	movs	r7, r4
100098b6:	5ce5      	ldrb	r5, [r4, r3]
100098b8:	3710      	adds	r7, #16
100098ba:	b26d      	sxtb	r5, r5
100098bc:	2d00      	cmp	r5, #0
100098be:	dc05      	bgt.n	100098cc <xQueueGenericSend+0xe4>
100098c0:	e013      	b.n	100098ea <xQueueGenericSend+0x102>
100098c2:	3d01      	subs	r5, #1
100098c4:	b2eb      	uxtb	r3, r5
100098c6:	b26d      	sxtb	r5, r5
100098c8:	2b00      	cmp	r3, #0
100098ca:	d00e      	beq.n	100098ea <xQueueGenericSend+0x102>
100098cc:	6923      	ldr	r3, [r4, #16]
100098ce:	2b00      	cmp	r3, #0
100098d0:	d00b      	beq.n	100098ea <xQueueGenericSend+0x102>
100098d2:	0038      	movs	r0, r7
100098d4:	f7fe ffc4 	bl	10008860 <xTaskRemoveFromEventList>
100098d8:	2800      	cmp	r0, #0
100098da:	d0f2      	beq.n	100098c2 <xQueueGenericSend+0xda>
100098dc:	3d01      	subs	r5, #1
100098de:	f7ff f8ab 	bl	10008a38 <vTaskMissedYield>
100098e2:	b2eb      	uxtb	r3, r5
100098e4:	b26d      	sxtb	r5, r5
100098e6:	2b00      	cmp	r3, #0
100098e8:	d1f0      	bne.n	100098cc <xQueueGenericSend+0xe4>
100098ea:	2344      	movs	r3, #68	; 0x44
100098ec:	22ff      	movs	r2, #255	; 0xff
100098ee:	54e2      	strb	r2, [r4, r3]
100098f0:	f7ff fe1c 	bl	1000952c <vPortExitCritical>
100098f4:	f7fe fd46 	bl	10008384 <xTaskResumeAll>
100098f8:	2501      	movs	r5, #1
100098fa:	f7ff fe0b 	bl	10009514 <vPortEnterCritical>
100098fe:	6ba3      	ldr	r3, [r4, #56]	; 0x38
10009900:	6be2      	ldr	r2, [r4, #60]	; 0x3c
10009902:	4293      	cmp	r3, r2
10009904:	d282      	bcs.n	1000980c <xQueueGenericSend+0x24>
10009906:	6c22      	ldr	r2, [r4, #64]	; 0x40
10009908:	6ba5      	ldr	r5, [r4, #56]	; 0x38
1000990a:	2a00      	cmp	r2, #0
1000990c:	d000      	beq.n	10009910 <xQueueGenericSend+0x128>
1000990e:	e0cd      	b.n	10009aac <xQueueGenericSend+0x2c4>
10009910:	3501      	adds	r5, #1
10009912:	63a5      	str	r5, [r4, #56]	; 0x38
10009914:	6a63      	ldr	r3, [r4, #36]	; 0x24
10009916:	2b00      	cmp	r3, #0
10009918:	d000      	beq.n	1000991c <xQueueGenericSend+0x134>
1000991a:	e0db      	b.n	10009ad4 <xQueueGenericSend+0x2ec>
1000991c:	f7ff fe06 	bl	1000952c <vPortExitCritical>
10009920:	2001      	movs	r0, #1
10009922:	b005      	add	sp, #20
10009924:	bcc0      	pop	{r6, r7}
10009926:	46b9      	mov	r9, r7
10009928:	46b0      	mov	r8, r6
1000992a:	bdf0      	pop	{r4, r5, r6, r7, pc}
1000992c:	0027      	movs	r7, r4
1000992e:	3710      	adds	r7, #16
10009930:	f7ff fdfc 	bl	1000952c <vPortExitCritical>
10009934:	0038      	movs	r0, r7
10009936:	9901      	ldr	r1, [sp, #4]
10009938:	f7fe febc 	bl	100086b4 <vTaskPlaceOnEventList>
1000993c:	f7ff fdea 	bl	10009514 <vPortEnterCritical>
10009940:	2345      	movs	r3, #69	; 0x45
10009942:	5ce5      	ldrb	r5, [r4, r3]
10009944:	b26d      	sxtb	r5, r5
10009946:	2d00      	cmp	r5, #0
10009948:	dc05      	bgt.n	10009956 <xQueueGenericSend+0x16e>
1000994a:	e013      	b.n	10009974 <xQueueGenericSend+0x18c>
1000994c:	3d01      	subs	r5, #1
1000994e:	b2ea      	uxtb	r2, r5
10009950:	b26d      	sxtb	r5, r5
10009952:	2a00      	cmp	r2, #0
10009954:	d00e      	beq.n	10009974 <xQueueGenericSend+0x18c>
10009956:	6a63      	ldr	r3, [r4, #36]	; 0x24
10009958:	2b00      	cmp	r3, #0
1000995a:	d00b      	beq.n	10009974 <xQueueGenericSend+0x18c>
1000995c:	0030      	movs	r0, r6
1000995e:	f7fe ff7f 	bl	10008860 <xTaskRemoveFromEventList>
10009962:	2800      	cmp	r0, #0
10009964:	d0f2      	beq.n	1000994c <xQueueGenericSend+0x164>
10009966:	3d01      	subs	r5, #1
10009968:	f7ff f866 	bl	10008a38 <vTaskMissedYield>
1000996c:	b2ea      	uxtb	r2, r5
1000996e:	b26d      	sxtb	r5, r5
10009970:	2a00      	cmp	r2, #0
10009972:	d1f0      	bne.n	10009956 <xQueueGenericSend+0x16e>
10009974:	2345      	movs	r3, #69	; 0x45
10009976:	22ff      	movs	r2, #255	; 0xff
10009978:	54e2      	strb	r2, [r4, r3]
1000997a:	f7ff fdd7 	bl	1000952c <vPortExitCritical>
1000997e:	f7ff fdc9 	bl	10009514 <vPortEnterCritical>
10009982:	2344      	movs	r3, #68	; 0x44
10009984:	5ce5      	ldrb	r5, [r4, r3]
10009986:	b26d      	sxtb	r5, r5
10009988:	2d00      	cmp	r5, #0
1000998a:	dc05      	bgt.n	10009998 <xQueueGenericSend+0x1b0>
1000998c:	e013      	b.n	100099b6 <xQueueGenericSend+0x1ce>
1000998e:	3d01      	subs	r5, #1
10009990:	b2ea      	uxtb	r2, r5
10009992:	b26d      	sxtb	r5, r5
10009994:	2a00      	cmp	r2, #0
10009996:	d00e      	beq.n	100099b6 <xQueueGenericSend+0x1ce>
10009998:	6923      	ldr	r3, [r4, #16]
1000999a:	2b00      	cmp	r3, #0
1000999c:	d00b      	beq.n	100099b6 <xQueueGenericSend+0x1ce>
1000999e:	0038      	movs	r0, r7
100099a0:	f7fe ff5e 	bl	10008860 <xTaskRemoveFromEventList>
100099a4:	2800      	cmp	r0, #0
100099a6:	d0f2      	beq.n	1000998e <xQueueGenericSend+0x1a6>
100099a8:	3d01      	subs	r5, #1
100099aa:	f7ff f845 	bl	10008a38 <vTaskMissedYield>
100099ae:	b2ea      	uxtb	r2, r5
100099b0:	b26d      	sxtb	r5, r5
100099b2:	2a00      	cmp	r2, #0
100099b4:	d1f0      	bne.n	10009998 <xQueueGenericSend+0x1b0>
100099b6:	2344      	movs	r3, #68	; 0x44
100099b8:	22ff      	movs	r2, #255	; 0xff
100099ba:	54e2      	strb	r2, [r4, r3]
100099bc:	f7ff fdb6 	bl	1000952c <vPortExitCritical>
100099c0:	f7fe fce0 	bl	10008384 <xTaskResumeAll>
100099c4:	2800      	cmp	r0, #0
100099c6:	d197      	bne.n	100098f8 <xQueueGenericSend+0x110>
100099c8:	f7ff fd98 	bl	100094fc <vPortYield>
100099cc:	2501      	movs	r5, #1
100099ce:	e794      	b.n	100098fa <xQueueGenericSend+0x112>
100099d0:	a802      	add	r0, sp, #8
100099d2:	f7ff f801 	bl	100089d8 <vTaskInternalSetTimeOutState>
100099d6:	e724      	b.n	10009822 <xQueueGenericSend+0x3a>
100099d8:	6c22      	ldr	r2, [r4, #64]	; 0x40
100099da:	6ba5      	ldr	r5, [r4, #56]	; 0x38
100099dc:	2a00      	cmp	r2, #0
100099de:	d097      	beq.n	10009910 <xQueueGenericSend+0x128>
100099e0:	4641      	mov	r1, r8
100099e2:	68e0      	ldr	r0, [r4, #12]
100099e4:	f7fa ffd8 	bl	10004998 <__wrap___aeabi_memcpy>
100099e8:	68e1      	ldr	r1, [r4, #12]
100099ea:	6c23      	ldr	r3, [r4, #64]	; 0x40
100099ec:	425a      	negs	r2, r3
100099ee:	1acb      	subs	r3, r1, r3
100099f0:	6821      	ldr	r1, [r4, #0]
100099f2:	60e3      	str	r3, [r4, #12]
100099f4:	428b      	cmp	r3, r1
100099f6:	d207      	bcs.n	10009a08 <xQueueGenericSend+0x220>
100099f8:	68a3      	ldr	r3, [r4, #8]
100099fa:	469c      	mov	ip, r3
100099fc:	4462      	add	r2, ip
100099fe:	60e2      	str	r2, [r4, #12]
10009a00:	464b      	mov	r3, r9
10009a02:	2b02      	cmp	r3, #2
10009a04:	d000      	beq.n	10009a08 <xQueueGenericSend+0x220>
10009a06:	e783      	b.n	10009910 <xQueueGenericSend+0x128>
10009a08:	2d00      	cmp	r5, #0
10009a0a:	d000      	beq.n	10009a0e <xQueueGenericSend+0x226>
10009a0c:	e781      	b.n	10009912 <xQueueGenericSend+0x12a>
10009a0e:	e77f      	b.n	10009910 <xQueueGenericSend+0x128>
10009a10:	f7ff fd8c 	bl	1000952c <vPortExitCritical>
10009a14:	2000      	movs	r0, #0
10009a16:	e784      	b.n	10009922 <xQueueGenericSend+0x13a>
10009a18:	f7ff fd7c 	bl	10009514 <vPortEnterCritical>
10009a1c:	2345      	movs	r3, #69	; 0x45
10009a1e:	0026      	movs	r6, r4
10009a20:	5ce5      	ldrb	r5, [r4, r3]
10009a22:	3624      	adds	r6, #36	; 0x24
10009a24:	b26d      	sxtb	r5, r5
10009a26:	2d00      	cmp	r5, #0
10009a28:	dc05      	bgt.n	10009a36 <xQueueGenericSend+0x24e>
10009a2a:	e013      	b.n	10009a54 <xQueueGenericSend+0x26c>
10009a2c:	3d01      	subs	r5, #1
10009a2e:	b2ea      	uxtb	r2, r5
10009a30:	b26d      	sxtb	r5, r5
10009a32:	2a00      	cmp	r2, #0
10009a34:	d00e      	beq.n	10009a54 <xQueueGenericSend+0x26c>
10009a36:	6a63      	ldr	r3, [r4, #36]	; 0x24
10009a38:	2b00      	cmp	r3, #0
10009a3a:	d00b      	beq.n	10009a54 <xQueueGenericSend+0x26c>
10009a3c:	0030      	movs	r0, r6
10009a3e:	f7fe ff0f 	bl	10008860 <xTaskRemoveFromEventList>
10009a42:	2800      	cmp	r0, #0
10009a44:	d0f2      	beq.n	10009a2c <xQueueGenericSend+0x244>
10009a46:	3d01      	subs	r5, #1
10009a48:	f7fe fff6 	bl	10008a38 <vTaskMissedYield>
10009a4c:	b2ea      	uxtb	r2, r5
10009a4e:	b26d      	sxtb	r5, r5
10009a50:	2a00      	cmp	r2, #0
10009a52:	d1f0      	bne.n	10009a36 <xQueueGenericSend+0x24e>
10009a54:	2345      	movs	r3, #69	; 0x45
10009a56:	22ff      	movs	r2, #255	; 0xff
10009a58:	54e2      	strb	r2, [r4, r3]
10009a5a:	f7ff fd67 	bl	1000952c <vPortExitCritical>
10009a5e:	f7ff fd59 	bl	10009514 <vPortEnterCritical>
10009a62:	2344      	movs	r3, #68	; 0x44
10009a64:	0026      	movs	r6, r4
10009a66:	5ce5      	ldrb	r5, [r4, r3]
10009a68:	3610      	adds	r6, #16
10009a6a:	b26d      	sxtb	r5, r5
10009a6c:	2d00      	cmp	r5, #0
10009a6e:	dc05      	bgt.n	10009a7c <xQueueGenericSend+0x294>
10009a70:	e013      	b.n	10009a9a <xQueueGenericSend+0x2b2>
10009a72:	3d01      	subs	r5, #1
10009a74:	b2ea      	uxtb	r2, r5
10009a76:	b26d      	sxtb	r5, r5
10009a78:	2a00      	cmp	r2, #0
10009a7a:	d00e      	beq.n	10009a9a <xQueueGenericSend+0x2b2>
10009a7c:	6923      	ldr	r3, [r4, #16]
10009a7e:	2b00      	cmp	r3, #0
10009a80:	d00b      	beq.n	10009a9a <xQueueGenericSend+0x2b2>
10009a82:	0030      	movs	r0, r6
10009a84:	f7fe feec 	bl	10008860 <xTaskRemoveFromEventList>
10009a88:	2800      	cmp	r0, #0
10009a8a:	d0f2      	beq.n	10009a72 <xQueueGenericSend+0x28a>
10009a8c:	3d01      	subs	r5, #1
10009a8e:	f7fe ffd3 	bl	10008a38 <vTaskMissedYield>
10009a92:	b2ea      	uxtb	r2, r5
10009a94:	b26d      	sxtb	r5, r5
10009a96:	2a00      	cmp	r2, #0
10009a98:	d1f0      	bne.n	10009a7c <xQueueGenericSend+0x294>
10009a9a:	2344      	movs	r3, #68	; 0x44
10009a9c:	22ff      	movs	r2, #255	; 0xff
10009a9e:	54e2      	strb	r2, [r4, r3]
10009aa0:	f7ff fd44 	bl	1000952c <vPortExitCritical>
10009aa4:	f7fe fc6e 	bl	10008384 <xTaskResumeAll>
10009aa8:	2000      	movs	r0, #0
10009aaa:	e73a      	b.n	10009922 <xQueueGenericSend+0x13a>
10009aac:	464b      	mov	r3, r9
10009aae:	4641      	mov	r1, r8
10009ab0:	2b00      	cmp	r3, #0
10009ab2:	d119      	bne.n	10009ae8 <xQueueGenericSend+0x300>
10009ab4:	6860      	ldr	r0, [r4, #4]
10009ab6:	f7fa ff6f 	bl	10004998 <__wrap___aeabi_memcpy>
10009aba:	6c22      	ldr	r2, [r4, #64]	; 0x40
10009abc:	6863      	ldr	r3, [r4, #4]
10009abe:	4694      	mov	ip, r2
10009ac0:	68a2      	ldr	r2, [r4, #8]
10009ac2:	4463      	add	r3, ip
10009ac4:	6063      	str	r3, [r4, #4]
10009ac6:	4293      	cmp	r3, r2
10009ac8:	d200      	bcs.n	10009acc <xQueueGenericSend+0x2e4>
10009aca:	e721      	b.n	10009910 <xQueueGenericSend+0x128>
10009acc:	6823      	ldr	r3, [r4, #0]
10009ace:	3501      	adds	r5, #1
10009ad0:	6063      	str	r3, [r4, #4]
10009ad2:	e71e      	b.n	10009912 <xQueueGenericSend+0x12a>
10009ad4:	0020      	movs	r0, r4
10009ad6:	3024      	adds	r0, #36	; 0x24
10009ad8:	f7fe fec2 	bl	10008860 <xTaskRemoveFromEventList>
10009adc:	2800      	cmp	r0, #0
10009ade:	d100      	bne.n	10009ae2 <xQueueGenericSend+0x2fa>
10009ae0:	e71c      	b.n	1000991c <xQueueGenericSend+0x134>
10009ae2:	f7ff fd0b 	bl	100094fc <vPortYield>
10009ae6:	e719      	b.n	1000991c <xQueueGenericSend+0x134>
10009ae8:	68e0      	ldr	r0, [r4, #12]
10009aea:	f7fa ff55 	bl	10004998 <__wrap___aeabi_memcpy>
10009aee:	68e1      	ldr	r1, [r4, #12]
10009af0:	6c23      	ldr	r3, [r4, #64]	; 0x40
10009af2:	425a      	negs	r2, r3
10009af4:	1acb      	subs	r3, r1, r3
10009af6:	6821      	ldr	r1, [r4, #0]
10009af8:	60e3      	str	r3, [r4, #12]
10009afa:	428b      	cmp	r3, r1
10009afc:	d280      	bcs.n	10009a00 <xQueueGenericSend+0x218>
10009afe:	e77b      	b.n	100099f8 <xQueueGenericSend+0x210>

10009b00 <xQueueGenericSendFromISR>:
10009b00:	b5f0      	push	{r4, r5, r6, r7, lr}
10009b02:	464f      	mov	r7, r9
10009b04:	46d6      	mov	lr, sl
10009b06:	4646      	mov	r6, r8
10009b08:	b5c0      	push	{r6, r7, lr}
10009b0a:	0004      	movs	r4, r0
10009b0c:	4699      	mov	r9, r3
10009b0e:	000f      	movs	r7, r1
10009b10:	4690      	mov	r8, r2
10009b12:	f7ff fd15 	bl	10009540 <ulSetInterruptMaskFromISR>
10009b16:	6be3      	ldr	r3, [r4, #60]	; 0x3c
10009b18:	0005      	movs	r5, r0
10009b1a:	6ba0      	ldr	r0, [r4, #56]	; 0x38
10009b1c:	4298      	cmp	r0, r3
10009b1e:	d337      	bcc.n	10009b90 <xQueueGenericSendFromISR+0x90>
10009b20:	464b      	mov	r3, r9
10009b22:	2b02      	cmp	r3, #2
10009b24:	d009      	beq.n	10009b3a <xQueueGenericSendFromISR+0x3a>
10009b26:	2400      	movs	r4, #0
10009b28:	0028      	movs	r0, r5
10009b2a:	f7ff fd0d 	bl	10009548 <vClearInterruptMaskFromISR>
10009b2e:	0020      	movs	r0, r4
10009b30:	bce0      	pop	{r5, r6, r7}
10009b32:	46ba      	mov	sl, r7
10009b34:	46b1      	mov	r9, r6
10009b36:	46a8      	mov	r8, r5
10009b38:	bdf0      	pop	{r4, r5, r6, r7, pc}
10009b3a:	2345      	movs	r3, #69	; 0x45
10009b3c:	6c22      	ldr	r2, [r4, #64]	; 0x40
10009b3e:	5ce6      	ldrb	r6, [r4, r3]
10009b40:	6ba3      	ldr	r3, [r4, #56]	; 0x38
10009b42:	6ba3      	ldr	r3, [r4, #56]	; 0x38
10009b44:	b276      	sxtb	r6, r6
10009b46:	469a      	mov	sl, r3
10009b48:	2a00      	cmp	r2, #0
10009b4a:	d02a      	beq.n	10009ba2 <xQueueGenericSendFromISR+0xa2>
10009b4c:	0039      	movs	r1, r7
10009b4e:	68e0      	ldr	r0, [r4, #12]
10009b50:	f7fa ff22 	bl	10004998 <__wrap___aeabi_memcpy>
10009b54:	68e1      	ldr	r1, [r4, #12]
10009b56:	6c23      	ldr	r3, [r4, #64]	; 0x40
10009b58:	425a      	negs	r2, r3
10009b5a:	1acb      	subs	r3, r1, r3
10009b5c:	6821      	ldr	r1, [r4, #0]
10009b5e:	60e3      	str	r3, [r4, #12]
10009b60:	428b      	cmp	r3, r1
10009b62:	d249      	bcs.n	10009bf8 <xQueueGenericSendFromISR+0xf8>
10009b64:	68a3      	ldr	r3, [r4, #8]
10009b66:	469c      	mov	ip, r3
10009b68:	4462      	add	r2, ip
10009b6a:	60e2      	str	r2, [r4, #12]
10009b6c:	464b      	mov	r3, r9
10009b6e:	2b02      	cmp	r3, #2
10009b70:	d042      	beq.n	10009bf8 <xQueueGenericSendFromISR+0xf8>
10009b72:	4653      	mov	r3, sl
10009b74:	3301      	adds	r3, #1
10009b76:	63a3      	str	r3, [r4, #56]	; 0x38
10009b78:	1c73      	adds	r3, r6, #1
10009b7a:	d016      	beq.n	10009baa <xQueueGenericSendFromISR+0xaa>
10009b7c:	f7fe fd10 	bl	100085a0 <uxTaskGetNumberOfTasks>
10009b80:	4286      	cmp	r6, r0
10009b82:	d215      	bcs.n	10009bb0 <xQueueGenericSendFromISR+0xb0>
10009b84:	2345      	movs	r3, #69	; 0x45
10009b86:	3601      	adds	r6, #1
10009b88:	b276      	sxtb	r6, r6
10009b8a:	54e6      	strb	r6, [r4, r3]
10009b8c:	2401      	movs	r4, #1
10009b8e:	e7cb      	b.n	10009b28 <xQueueGenericSendFromISR+0x28>
10009b90:	2345      	movs	r3, #69	; 0x45
10009b92:	6c22      	ldr	r2, [r4, #64]	; 0x40
10009b94:	5ce6      	ldrb	r6, [r4, r3]
10009b96:	6ba3      	ldr	r3, [r4, #56]	; 0x38
10009b98:	6ba3      	ldr	r3, [r4, #56]	; 0x38
10009b9a:	b276      	sxtb	r6, r6
10009b9c:	469a      	mov	sl, r3
10009b9e:	2a00      	cmp	r2, #0
10009ba0:	d108      	bne.n	10009bb4 <xQueueGenericSendFromISR+0xb4>
10009ba2:	3301      	adds	r3, #1
10009ba4:	63a3      	str	r3, [r4, #56]	; 0x38
10009ba6:	1c73      	adds	r3, r6, #1
10009ba8:	d1e8      	bne.n	10009b7c <xQueueGenericSendFromISR+0x7c>
10009baa:	6a63      	ldr	r3, [r4, #36]	; 0x24
10009bac:	2b00      	cmp	r3, #0
10009bae:	d115      	bne.n	10009bdc <xQueueGenericSendFromISR+0xdc>
10009bb0:	2401      	movs	r4, #1
10009bb2:	e7b9      	b.n	10009b28 <xQueueGenericSendFromISR+0x28>
10009bb4:	464b      	mov	r3, r9
10009bb6:	0039      	movs	r1, r7
10009bb8:	2b00      	cmp	r3, #0
10009bba:	d121      	bne.n	10009c00 <xQueueGenericSendFromISR+0x100>
10009bbc:	6860      	ldr	r0, [r4, #4]
10009bbe:	f7fa feeb 	bl	10004998 <__wrap___aeabi_memcpy>
10009bc2:	6c22      	ldr	r2, [r4, #64]	; 0x40
10009bc4:	6863      	ldr	r3, [r4, #4]
10009bc6:	4694      	mov	ip, r2
10009bc8:	68a2      	ldr	r2, [r4, #8]
10009bca:	4463      	add	r3, ip
10009bcc:	6063      	str	r3, [r4, #4]
10009bce:	4293      	cmp	r3, r2
10009bd0:	d3cf      	bcc.n	10009b72 <xQueueGenericSendFromISR+0x72>
10009bd2:	6823      	ldr	r3, [r4, #0]
10009bd4:	6063      	str	r3, [r4, #4]
10009bd6:	4653      	mov	r3, sl
10009bd8:	3301      	adds	r3, #1
10009bda:	e7e3      	b.n	10009ba4 <xQueueGenericSendFromISR+0xa4>
10009bdc:	0020      	movs	r0, r4
10009bde:	3024      	adds	r0, #36	; 0x24
10009be0:	f7fe fe3e 	bl	10008860 <xTaskRemoveFromEventList>
10009be4:	2800      	cmp	r0, #0
10009be6:	d0e3      	beq.n	10009bb0 <xQueueGenericSendFromISR+0xb0>
10009be8:	4643      	mov	r3, r8
10009bea:	2b00      	cmp	r3, #0
10009bec:	d0e0      	beq.n	10009bb0 <xQueueGenericSendFromISR+0xb0>
10009bee:	2301      	movs	r3, #1
10009bf0:	4642      	mov	r2, r8
10009bf2:	2401      	movs	r4, #1
10009bf4:	6013      	str	r3, [r2, #0]
10009bf6:	e797      	b.n	10009b28 <xQueueGenericSendFromISR+0x28>
10009bf8:	4653      	mov	r3, sl
10009bfa:	2b00      	cmp	r3, #0
10009bfc:	d1d2      	bne.n	10009ba4 <xQueueGenericSendFromISR+0xa4>
10009bfe:	e7d0      	b.n	10009ba2 <xQueueGenericSendFromISR+0xa2>
10009c00:	68e0      	ldr	r0, [r4, #12]
10009c02:	f7fa fec9 	bl	10004998 <__wrap___aeabi_memcpy>
10009c06:	68e1      	ldr	r1, [r4, #12]
10009c08:	6c23      	ldr	r3, [r4, #64]	; 0x40
10009c0a:	425a      	negs	r2, r3
10009c0c:	1acb      	subs	r3, r1, r3
10009c0e:	6821      	ldr	r1, [r4, #0]
10009c10:	60e3      	str	r3, [r4, #12]
10009c12:	428b      	cmp	r3, r1
10009c14:	d2aa      	bcs.n	10009b6c <xQueueGenericSendFromISR+0x6c>
10009c16:	e7a5      	b.n	10009b64 <xQueueGenericSendFromISR+0x64>

10009c18 <xQueueGiveFromISR>:
10009c18:	b5f0      	push	{r4, r5, r6, r7, lr}
10009c1a:	46c6      	mov	lr, r8
10009c1c:	0004      	movs	r4, r0
10009c1e:	b500      	push	{lr}
10009c20:	000e      	movs	r6, r1
10009c22:	f7ff fc8d 	bl	10009540 <ulSetInterruptMaskFromISR>
10009c26:	6ba3      	ldr	r3, [r4, #56]	; 0x38
10009c28:	6be2      	ldr	r2, [r4, #60]	; 0x3c
10009c2a:	0005      	movs	r5, r0
10009c2c:	2700      	movs	r7, #0
10009c2e:	429a      	cmp	r2, r3
10009c30:	d90b      	bls.n	10009c4a <xQueueGiveFromISR+0x32>
10009c32:	2245      	movs	r2, #69	; 0x45
10009c34:	5ca7      	ldrb	r7, [r4, r2]
10009c36:	3301      	adds	r3, #1
10009c38:	b27f      	sxtb	r7, r7
10009c3a:	4690      	mov	r8, r2
10009c3c:	63a3      	str	r3, [r4, #56]	; 0x38
10009c3e:	1c7b      	adds	r3, r7, #1
10009c40:	d10a      	bne.n	10009c58 <xQueueGiveFromISR+0x40>
10009c42:	6a63      	ldr	r3, [r4, #36]	; 0x24
10009c44:	2b00      	cmp	r3, #0
10009c46:	d111      	bne.n	10009c6c <xQueueGiveFromISR+0x54>
10009c48:	2701      	movs	r7, #1
10009c4a:	0028      	movs	r0, r5
10009c4c:	f7ff fc7c 	bl	10009548 <vClearInterruptMaskFromISR>
10009c50:	0038      	movs	r0, r7
10009c52:	bc80      	pop	{r7}
10009c54:	46b8      	mov	r8, r7
10009c56:	bdf0      	pop	{r4, r5, r6, r7, pc}
10009c58:	f7fe fca2 	bl	100085a0 <uxTaskGetNumberOfTasks>
10009c5c:	4287      	cmp	r7, r0
10009c5e:	d2f3      	bcs.n	10009c48 <xQueueGiveFromISR+0x30>
10009c60:	4643      	mov	r3, r8
10009c62:	3701      	adds	r7, #1
10009c64:	b27f      	sxtb	r7, r7
10009c66:	54e7      	strb	r7, [r4, r3]
10009c68:	2701      	movs	r7, #1
10009c6a:	e7ee      	b.n	10009c4a <xQueueGiveFromISR+0x32>
10009c6c:	0020      	movs	r0, r4
10009c6e:	3024      	adds	r0, #36	; 0x24
10009c70:	f7fe fdf6 	bl	10008860 <xTaskRemoveFromEventList>
10009c74:	2800      	cmp	r0, #0
10009c76:	d0e7      	beq.n	10009c48 <xQueueGiveFromISR+0x30>
10009c78:	2e00      	cmp	r6, #0
10009c7a:	d0e5      	beq.n	10009c48 <xQueueGiveFromISR+0x30>
10009c7c:	2301      	movs	r3, #1
10009c7e:	2701      	movs	r7, #1
10009c80:	6033      	str	r3, [r6, #0]
10009c82:	e7e2      	b.n	10009c4a <xQueueGiveFromISR+0x32>

10009c84 <xQueueReceive>:
10009c84:	b5f0      	push	{r4, r5, r6, r7, lr}
10009c86:	46ce      	mov	lr, r9
10009c88:	4647      	mov	r7, r8
10009c8a:	0004      	movs	r4, r0
10009c8c:	b580      	push	{r7, lr}
10009c8e:	b085      	sub	sp, #20
10009c90:	4688      	mov	r8, r1
10009c92:	9201      	str	r2, [sp, #4]
10009c94:	f7ff fc3e 	bl	10009514 <vPortEnterCritical>
10009c98:	6ba5      	ldr	r5, [r4, #56]	; 0x38
10009c9a:	2d00      	cmp	r5, #0
10009c9c:	d000      	beq.n	10009ca0 <xQueueReceive+0x1c>
10009c9e:	e11f      	b.n	10009ee0 <xQueueReceive+0x25c>
10009ca0:	9b01      	ldr	r3, [sp, #4]
10009ca2:	2b00      	cmp	r3, #0
10009ca4:	d100      	bne.n	10009ca8 <xQueueReceive+0x24>
10009ca6:	e0cb      	b.n	10009e40 <xQueueReceive+0x1bc>
10009ca8:	0026      	movs	r6, r4
10009caa:	a802      	add	r0, sp, #8
10009cac:	f7fe fe94 	bl	100089d8 <vTaskInternalSetTimeOutState>
10009cb0:	2744      	movs	r7, #68	; 0x44
10009cb2:	3624      	adds	r6, #36	; 0x24
10009cb4:	f7ff fc3a 	bl	1000952c <vPortExitCritical>
10009cb8:	f7fe fb5c 	bl	10008374 <vTaskSuspendAll>
10009cbc:	f7ff fc2a 	bl	10009514 <vPortEnterCritical>
10009cc0:	5de3      	ldrb	r3, [r4, r7]
10009cc2:	b25b      	sxtb	r3, r3
10009cc4:	3301      	adds	r3, #1
10009cc6:	d101      	bne.n	10009ccc <xQueueReceive+0x48>
10009cc8:	2300      	movs	r3, #0
10009cca:	55e3      	strb	r3, [r4, r7]
10009ccc:	2245      	movs	r2, #69	; 0x45
10009cce:	5ca3      	ldrb	r3, [r4, r2]
10009cd0:	b25b      	sxtb	r3, r3
10009cd2:	3301      	adds	r3, #1
10009cd4:	d101      	bne.n	10009cda <xQueueReceive+0x56>
10009cd6:	2300      	movs	r3, #0
10009cd8:	54a3      	strb	r3, [r4, r2]
10009cda:	f7ff fc27 	bl	1000952c <vPortExitCritical>
10009cde:	a901      	add	r1, sp, #4
10009ce0:	a802      	add	r0, sp, #8
10009ce2:	f7fe fe81 	bl	100089e8 <xTaskCheckForTimeOut>
10009ce6:	2800      	cmp	r0, #0
10009ce8:	d155      	bne.n	10009d96 <xQueueReceive+0x112>
10009cea:	f7ff fc13 	bl	10009514 <vPortEnterCritical>
10009cee:	6ba3      	ldr	r3, [r4, #56]	; 0x38
10009cf0:	2b00      	cmp	r3, #0
10009cf2:	d000      	beq.n	10009cf6 <xQueueReceive+0x72>
10009cf4:	e0ac      	b.n	10009e50 <xQueueReceive+0x1cc>
10009cf6:	f7ff fc19 	bl	1000952c <vPortExitCritical>
10009cfa:	0030      	movs	r0, r6
10009cfc:	9901      	ldr	r1, [sp, #4]
10009cfe:	f7fe fcd9 	bl	100086b4 <vTaskPlaceOnEventList>
10009d02:	f7ff fc07 	bl	10009514 <vPortEnterCritical>
10009d06:	2345      	movs	r3, #69	; 0x45
10009d08:	5ce5      	ldrb	r5, [r4, r3]
10009d0a:	b26d      	sxtb	r5, r5
10009d0c:	2d00      	cmp	r5, #0
10009d0e:	dc05      	bgt.n	10009d1c <xQueueReceive+0x98>
10009d10:	e013      	b.n	10009d3a <xQueueReceive+0xb6>
10009d12:	3d01      	subs	r5, #1
10009d14:	b2ea      	uxtb	r2, r5
10009d16:	b26d      	sxtb	r5, r5
10009d18:	2a00      	cmp	r2, #0
10009d1a:	d00e      	beq.n	10009d3a <xQueueReceive+0xb6>
10009d1c:	6a63      	ldr	r3, [r4, #36]	; 0x24
10009d1e:	2b00      	cmp	r3, #0
10009d20:	d00b      	beq.n	10009d3a <xQueueReceive+0xb6>
10009d22:	0030      	movs	r0, r6
10009d24:	f7fe fd9c 	bl	10008860 <xTaskRemoveFromEventList>
10009d28:	2800      	cmp	r0, #0
10009d2a:	d0f2      	beq.n	10009d12 <xQueueReceive+0x8e>
10009d2c:	3d01      	subs	r5, #1
10009d2e:	f7fe fe83 	bl	10008a38 <vTaskMissedYield>
10009d32:	b2ea      	uxtb	r2, r5
10009d34:	b26d      	sxtb	r5, r5
10009d36:	2a00      	cmp	r2, #0
10009d38:	d1f0      	bne.n	10009d1c <xQueueReceive+0x98>
10009d3a:	2345      	movs	r3, #69	; 0x45
10009d3c:	22ff      	movs	r2, #255	; 0xff
10009d3e:	54e2      	strb	r2, [r4, r3]
10009d40:	f7ff fbf4 	bl	1000952c <vPortExitCritical>
10009d44:	f7ff fbe6 	bl	10009514 <vPortEnterCritical>
10009d48:	2310      	movs	r3, #16
10009d4a:	4699      	mov	r9, r3
10009d4c:	5de5      	ldrb	r5, [r4, r7]
10009d4e:	44a1      	add	r9, r4
10009d50:	b26d      	sxtb	r5, r5
10009d52:	2d00      	cmp	r5, #0
10009d54:	dc05      	bgt.n	10009d62 <xQueueReceive+0xde>
10009d56:	e013      	b.n	10009d80 <xQueueReceive+0xfc>
10009d58:	3d01      	subs	r5, #1
10009d5a:	b2ea      	uxtb	r2, r5
10009d5c:	b26d      	sxtb	r5, r5
10009d5e:	2a00      	cmp	r2, #0
10009d60:	d00e      	beq.n	10009d80 <xQueueReceive+0xfc>
10009d62:	6923      	ldr	r3, [r4, #16]
10009d64:	2b00      	cmp	r3, #0
10009d66:	d00b      	beq.n	10009d80 <xQueueReceive+0xfc>
10009d68:	4648      	mov	r0, r9
10009d6a:	f7fe fd79 	bl	10008860 <xTaskRemoveFromEventList>
10009d6e:	2800      	cmp	r0, #0
10009d70:	d0f2      	beq.n	10009d58 <xQueueReceive+0xd4>
10009d72:	3d01      	subs	r5, #1
10009d74:	f7fe fe60 	bl	10008a38 <vTaskMissedYield>
10009d78:	b2ea      	uxtb	r2, r5
10009d7a:	b26d      	sxtb	r5, r5
10009d7c:	2a00      	cmp	r2, #0
10009d7e:	d1f0      	bne.n	10009d62 <xQueueReceive+0xde>
10009d80:	23ff      	movs	r3, #255	; 0xff
10009d82:	55e3      	strb	r3, [r4, r7]
10009d84:	f7ff fbd2 	bl	1000952c <vPortExitCritical>
10009d88:	f7fe fafc 	bl	10008384 <xTaskResumeAll>
10009d8c:	2800      	cmp	r0, #0
10009d8e:	d14e      	bne.n	10009e2e <xQueueReceive+0x1aa>
10009d90:	f7ff fbb4 	bl	100094fc <vPortYield>
10009d94:	e04b      	b.n	10009e2e <xQueueReceive+0x1aa>
10009d96:	f7ff fbbd 	bl	10009514 <vPortEnterCritical>
10009d9a:	2345      	movs	r3, #69	; 0x45
10009d9c:	5ce5      	ldrb	r5, [r4, r3]
10009d9e:	b26d      	sxtb	r5, r5
10009da0:	2d00      	cmp	r5, #0
10009da2:	dc05      	bgt.n	10009db0 <xQueueReceive+0x12c>
10009da4:	e013      	b.n	10009dce <xQueueReceive+0x14a>
10009da6:	3d01      	subs	r5, #1
10009da8:	b2ea      	uxtb	r2, r5
10009daa:	b26d      	sxtb	r5, r5
10009dac:	2a00      	cmp	r2, #0
10009dae:	d00e      	beq.n	10009dce <xQueueReceive+0x14a>
10009db0:	6a63      	ldr	r3, [r4, #36]	; 0x24
10009db2:	2b00      	cmp	r3, #0
10009db4:	d00b      	beq.n	10009dce <xQueueReceive+0x14a>
10009db6:	0030      	movs	r0, r6
10009db8:	f7fe fd52 	bl	10008860 <xTaskRemoveFromEventList>
10009dbc:	2800      	cmp	r0, #0
10009dbe:	d0f2      	beq.n	10009da6 <xQueueReceive+0x122>
10009dc0:	3d01      	subs	r5, #1
10009dc2:	f7fe fe39 	bl	10008a38 <vTaskMissedYield>
10009dc6:	b2ea      	uxtb	r2, r5
10009dc8:	b26d      	sxtb	r5, r5
10009dca:	2a00      	cmp	r2, #0
10009dcc:	d1f0      	bne.n	10009db0 <xQueueReceive+0x12c>
10009dce:	2345      	movs	r3, #69	; 0x45
10009dd0:	22ff      	movs	r2, #255	; 0xff
10009dd2:	54e2      	strb	r2, [r4, r3]
10009dd4:	f7ff fbaa 	bl	1000952c <vPortExitCritical>
10009dd8:	f7ff fb9c 	bl	10009514 <vPortEnterCritical>
10009ddc:	2310      	movs	r3, #16
10009dde:	4699      	mov	r9, r3
10009de0:	5de5      	ldrb	r5, [r4, r7]
10009de2:	44a1      	add	r9, r4
10009de4:	b26d      	sxtb	r5, r5
10009de6:	2d00      	cmp	r5, #0
10009de8:	dc05      	bgt.n	10009df6 <xQueueReceive+0x172>
10009dea:	e013      	b.n	10009e14 <xQueueReceive+0x190>
10009dec:	3d01      	subs	r5, #1
10009dee:	b2ea      	uxtb	r2, r5
10009df0:	b26d      	sxtb	r5, r5
10009df2:	2a00      	cmp	r2, #0
10009df4:	d00e      	beq.n	10009e14 <xQueueReceive+0x190>
10009df6:	6923      	ldr	r3, [r4, #16]
10009df8:	2b00      	cmp	r3, #0
10009dfa:	d00b      	beq.n	10009e14 <xQueueReceive+0x190>
10009dfc:	4648      	mov	r0, r9
10009dfe:	f7fe fd2f 	bl	10008860 <xTaskRemoveFromEventList>
10009e02:	2800      	cmp	r0, #0
10009e04:	d0f2      	beq.n	10009dec <xQueueReceive+0x168>
10009e06:	3d01      	subs	r5, #1
10009e08:	f7fe fe16 	bl	10008a38 <vTaskMissedYield>
10009e0c:	b2ea      	uxtb	r2, r5
10009e0e:	b26d      	sxtb	r5, r5
10009e10:	2a00      	cmp	r2, #0
10009e12:	d1f0      	bne.n	10009df6 <xQueueReceive+0x172>
10009e14:	23ff      	movs	r3, #255	; 0xff
10009e16:	55e3      	strb	r3, [r4, r7]
10009e18:	f7ff fb88 	bl	1000952c <vPortExitCritical>
10009e1c:	f7fe fab2 	bl	10008384 <xTaskResumeAll>
10009e20:	f7ff fb78 	bl	10009514 <vPortEnterCritical>
10009e24:	6ba3      	ldr	r3, [r4, #56]	; 0x38
10009e26:	2b00      	cmp	r3, #0
10009e28:	d00a      	beq.n	10009e40 <xQueueReceive+0x1bc>
10009e2a:	f7ff fb7f 	bl	1000952c <vPortExitCritical>
10009e2e:	f7ff fb71 	bl	10009514 <vPortEnterCritical>
10009e32:	6ba5      	ldr	r5, [r4, #56]	; 0x38
10009e34:	2d00      	cmp	r5, #0
10009e36:	d153      	bne.n	10009ee0 <xQueueReceive+0x25c>
10009e38:	9b01      	ldr	r3, [sp, #4]
10009e3a:	2b00      	cmp	r3, #0
10009e3c:	d000      	beq.n	10009e40 <xQueueReceive+0x1bc>
10009e3e:	e739      	b.n	10009cb4 <xQueueReceive+0x30>
10009e40:	f7ff fb74 	bl	1000952c <vPortExitCritical>
10009e44:	2000      	movs	r0, #0
10009e46:	b005      	add	sp, #20
10009e48:	bcc0      	pop	{r6, r7}
10009e4a:	46b9      	mov	r9, r7
10009e4c:	46b0      	mov	r8, r6
10009e4e:	bdf0      	pop	{r4, r5, r6, r7, pc}
10009e50:	f7ff fb6c 	bl	1000952c <vPortExitCritical>
10009e54:	f7ff fb5e 	bl	10009514 <vPortEnterCritical>
10009e58:	2345      	movs	r3, #69	; 0x45
10009e5a:	5ce5      	ldrb	r5, [r4, r3]
10009e5c:	b26d      	sxtb	r5, r5
10009e5e:	2d00      	cmp	r5, #0
10009e60:	dc05      	bgt.n	10009e6e <xQueueReceive+0x1ea>
10009e62:	e013      	b.n	10009e8c <xQueueReceive+0x208>
10009e64:	3d01      	subs	r5, #1
10009e66:	b2ea      	uxtb	r2, r5
10009e68:	b26d      	sxtb	r5, r5
10009e6a:	2a00      	cmp	r2, #0
10009e6c:	d00e      	beq.n	10009e8c <xQueueReceive+0x208>
10009e6e:	6a63      	ldr	r3, [r4, #36]	; 0x24
10009e70:	2b00      	cmp	r3, #0
10009e72:	d00b      	beq.n	10009e8c <xQueueReceive+0x208>
10009e74:	0030      	movs	r0, r6
10009e76:	f7fe fcf3 	bl	10008860 <xTaskRemoveFromEventList>
10009e7a:	2800      	cmp	r0, #0
10009e7c:	d0f2      	beq.n	10009e64 <xQueueReceive+0x1e0>
10009e7e:	3d01      	subs	r5, #1
10009e80:	f7fe fdda 	bl	10008a38 <vTaskMissedYield>
10009e84:	b2ea      	uxtb	r2, r5
10009e86:	b26d      	sxtb	r5, r5
10009e88:	2a00      	cmp	r2, #0
10009e8a:	d1f0      	bne.n	10009e6e <xQueueReceive+0x1ea>
10009e8c:	2345      	movs	r3, #69	; 0x45
10009e8e:	22ff      	movs	r2, #255	; 0xff
10009e90:	54e2      	strb	r2, [r4, r3]
10009e92:	f7ff fb4b 	bl	1000952c <vPortExitCritical>
10009e96:	f7ff fb3d 	bl	10009514 <vPortEnterCritical>
10009e9a:	2310      	movs	r3, #16
10009e9c:	4699      	mov	r9, r3
10009e9e:	5de5      	ldrb	r5, [r4, r7]
10009ea0:	44a1      	add	r9, r4
10009ea2:	b26d      	sxtb	r5, r5
10009ea4:	2d00      	cmp	r5, #0
10009ea6:	dc05      	bgt.n	10009eb4 <xQueueReceive+0x230>
10009ea8:	e013      	b.n	10009ed2 <xQueueReceive+0x24e>
10009eaa:	3d01      	subs	r5, #1
10009eac:	b2ea      	uxtb	r2, r5
10009eae:	b26d      	sxtb	r5, r5
10009eb0:	2a00      	cmp	r2, #0
10009eb2:	d00e      	beq.n	10009ed2 <xQueueReceive+0x24e>
10009eb4:	6923      	ldr	r3, [r4, #16]
10009eb6:	2b00      	cmp	r3, #0
10009eb8:	d00b      	beq.n	10009ed2 <xQueueReceive+0x24e>
10009eba:	4648      	mov	r0, r9
10009ebc:	f7fe fcd0 	bl	10008860 <xTaskRemoveFromEventList>
10009ec0:	2800      	cmp	r0, #0
10009ec2:	d0f2      	beq.n	10009eaa <xQueueReceive+0x226>
10009ec4:	3d01      	subs	r5, #1
10009ec6:	f7fe fdb7 	bl	10008a38 <vTaskMissedYield>
10009eca:	b2ea      	uxtb	r2, r5
10009ecc:	b26d      	sxtb	r5, r5
10009ece:	2a00      	cmp	r2, #0
10009ed0:	d1f0      	bne.n	10009eb4 <xQueueReceive+0x230>
10009ed2:	23ff      	movs	r3, #255	; 0xff
10009ed4:	55e3      	strb	r3, [r4, r7]
10009ed6:	f7ff fb29 	bl	1000952c <vPortExitCritical>
10009eda:	f7fe fa53 	bl	10008384 <xTaskResumeAll>
10009ede:	e7a6      	b.n	10009e2e <xQueueReceive+0x1aa>
10009ee0:	6c22      	ldr	r2, [r4, #64]	; 0x40
10009ee2:	2a00      	cmp	r2, #0
10009ee4:	d008      	beq.n	10009ef8 <xQueueReceive+0x274>
10009ee6:	68e3      	ldr	r3, [r4, #12]
10009ee8:	1899      	adds	r1, r3, r2
10009eea:	68a3      	ldr	r3, [r4, #8]
10009eec:	60e1      	str	r1, [r4, #12]
10009eee:	4299      	cmp	r1, r3
10009ef0:	d20b      	bcs.n	10009f0a <xQueueReceive+0x286>
10009ef2:	4640      	mov	r0, r8
10009ef4:	f7fa fd50 	bl	10004998 <__wrap___aeabi_memcpy>
10009ef8:	3d01      	subs	r5, #1
10009efa:	63a5      	str	r5, [r4, #56]	; 0x38
10009efc:	6923      	ldr	r3, [r4, #16]
10009efe:	2b00      	cmp	r3, #0
10009f00:	d106      	bne.n	10009f10 <xQueueReceive+0x28c>
10009f02:	f7ff fb13 	bl	1000952c <vPortExitCritical>
10009f06:	2001      	movs	r0, #1
10009f08:	e79d      	b.n	10009e46 <xQueueReceive+0x1c2>
10009f0a:	6821      	ldr	r1, [r4, #0]
10009f0c:	60e1      	str	r1, [r4, #12]
10009f0e:	e7f0      	b.n	10009ef2 <xQueueReceive+0x26e>
10009f10:	0020      	movs	r0, r4
10009f12:	3010      	adds	r0, #16
10009f14:	f7fe fca4 	bl	10008860 <xTaskRemoveFromEventList>
10009f18:	2800      	cmp	r0, #0
10009f1a:	d0f2      	beq.n	10009f02 <xQueueReceive+0x27e>
10009f1c:	f7ff faee 	bl	100094fc <vPortYield>
10009f20:	e7ef      	b.n	10009f02 <xQueueReceive+0x27e>
10009f22:	46c0      	nop			; (mov r8, r8)

10009f24 <xQueueSemaphoreTake>:
10009f24:	b5f0      	push	{r4, r5, r6, r7, lr}
10009f26:	46c6      	mov	lr, r8
10009f28:	0004      	movs	r4, r0
10009f2a:	b500      	push	{lr}
10009f2c:	b084      	sub	sp, #16
10009f2e:	9101      	str	r1, [sp, #4]
10009f30:	f7ff faf0 	bl	10009514 <vPortEnterCritical>
10009f34:	6ba3      	ldr	r3, [r4, #56]	; 0x38
10009f36:	2b00      	cmp	r3, #0
10009f38:	d000      	beq.n	10009f3c <xQueueSemaphoreTake+0x18>
10009f3a:	e122      	b.n	1000a182 <xQueueSemaphoreTake+0x25e>
10009f3c:	9b01      	ldr	r3, [sp, #4]
10009f3e:	2b00      	cmp	r3, #0
10009f40:	d100      	bne.n	10009f44 <xQueueSemaphoreTake+0x20>
10009f42:	e0cb      	b.n	1000a0dc <xQueueSemaphoreTake+0x1b8>
10009f44:	0026      	movs	r6, r4
10009f46:	a802      	add	r0, sp, #8
10009f48:	f7fe fd46 	bl	100089d8 <vTaskInternalSetTimeOutState>
10009f4c:	2744      	movs	r7, #68	; 0x44
10009f4e:	3624      	adds	r6, #36	; 0x24
10009f50:	f7ff faec 	bl	1000952c <vPortExitCritical>
10009f54:	f7fe fa0e 	bl	10008374 <vTaskSuspendAll>
10009f58:	f7ff fadc 	bl	10009514 <vPortEnterCritical>
10009f5c:	5de3      	ldrb	r3, [r4, r7]
10009f5e:	b25b      	sxtb	r3, r3
10009f60:	3301      	adds	r3, #1
10009f62:	d101      	bne.n	10009f68 <xQueueSemaphoreTake+0x44>
10009f64:	2300      	movs	r3, #0
10009f66:	55e3      	strb	r3, [r4, r7]
10009f68:	2245      	movs	r2, #69	; 0x45
10009f6a:	5ca3      	ldrb	r3, [r4, r2]
10009f6c:	b25b      	sxtb	r3, r3
10009f6e:	3301      	adds	r3, #1
10009f70:	d101      	bne.n	10009f76 <xQueueSemaphoreTake+0x52>
10009f72:	2300      	movs	r3, #0
10009f74:	54a3      	strb	r3, [r4, r2]
10009f76:	f7ff fad9 	bl	1000952c <vPortExitCritical>
10009f7a:	a901      	add	r1, sp, #4
10009f7c:	a802      	add	r0, sp, #8
10009f7e:	f7fe fd33 	bl	100089e8 <xTaskCheckForTimeOut>
10009f82:	2800      	cmp	r0, #0
10009f84:	d155      	bne.n	1000a032 <xQueueSemaphoreTake+0x10e>
10009f86:	f7ff fac5 	bl	10009514 <vPortEnterCritical>
10009f8a:	6ba3      	ldr	r3, [r4, #56]	; 0x38
10009f8c:	2b00      	cmp	r3, #0
10009f8e:	d000      	beq.n	10009f92 <xQueueSemaphoreTake+0x6e>
10009f90:	e0ab      	b.n	1000a0ea <xQueueSemaphoreTake+0x1c6>
10009f92:	f7ff facb 	bl	1000952c <vPortExitCritical>
10009f96:	0030      	movs	r0, r6
10009f98:	9901      	ldr	r1, [sp, #4]
10009f9a:	f7fe fb8b 	bl	100086b4 <vTaskPlaceOnEventList>
10009f9e:	f7ff fab9 	bl	10009514 <vPortEnterCritical>
10009fa2:	2345      	movs	r3, #69	; 0x45
10009fa4:	5ce5      	ldrb	r5, [r4, r3]
10009fa6:	b26d      	sxtb	r5, r5
10009fa8:	2d00      	cmp	r5, #0
10009faa:	dc05      	bgt.n	10009fb8 <xQueueSemaphoreTake+0x94>
10009fac:	e013      	b.n	10009fd6 <xQueueSemaphoreTake+0xb2>
10009fae:	3d01      	subs	r5, #1
10009fb0:	b2ea      	uxtb	r2, r5
10009fb2:	b26d      	sxtb	r5, r5
10009fb4:	2a00      	cmp	r2, #0
10009fb6:	d00e      	beq.n	10009fd6 <xQueueSemaphoreTake+0xb2>
10009fb8:	6a63      	ldr	r3, [r4, #36]	; 0x24
10009fba:	2b00      	cmp	r3, #0
10009fbc:	d00b      	beq.n	10009fd6 <xQueueSemaphoreTake+0xb2>
10009fbe:	0030      	movs	r0, r6
10009fc0:	f7fe fc4e 	bl	10008860 <xTaskRemoveFromEventList>
10009fc4:	2800      	cmp	r0, #0
10009fc6:	d0f2      	beq.n	10009fae <xQueueSemaphoreTake+0x8a>
10009fc8:	3d01      	subs	r5, #1
10009fca:	f7fe fd35 	bl	10008a38 <vTaskMissedYield>
10009fce:	b2ea      	uxtb	r2, r5
10009fd0:	b26d      	sxtb	r5, r5
10009fd2:	2a00      	cmp	r2, #0
10009fd4:	d1f0      	bne.n	10009fb8 <xQueueSemaphoreTake+0x94>
10009fd6:	2345      	movs	r3, #69	; 0x45
10009fd8:	22ff      	movs	r2, #255	; 0xff
10009fda:	54e2      	strb	r2, [r4, r3]
10009fdc:	f7ff faa6 	bl	1000952c <vPortExitCritical>
10009fe0:	f7ff fa98 	bl	10009514 <vPortEnterCritical>
10009fe4:	5de5      	ldrb	r5, [r4, r7]
10009fe6:	b26d      	sxtb	r5, r5
10009fe8:	2d00      	cmp	r5, #0
10009fea:	dd17      	ble.n	1000a01c <xQueueSemaphoreTake+0xf8>
10009fec:	2310      	movs	r3, #16
10009fee:	4698      	mov	r8, r3
10009ff0:	44a0      	add	r8, r4
10009ff2:	e004      	b.n	10009ffe <xQueueSemaphoreTake+0xda>
10009ff4:	3d01      	subs	r5, #1
10009ff6:	b2ea      	uxtb	r2, r5
10009ff8:	b26d      	sxtb	r5, r5
10009ffa:	2a00      	cmp	r2, #0
10009ffc:	d00e      	beq.n	1000a01c <xQueueSemaphoreTake+0xf8>
10009ffe:	6923      	ldr	r3, [r4, #16]
1000a000:	2b00      	cmp	r3, #0
1000a002:	d00b      	beq.n	1000a01c <xQueueSemaphoreTake+0xf8>
1000a004:	4640      	mov	r0, r8
1000a006:	f7fe fc2b 	bl	10008860 <xTaskRemoveFromEventList>
1000a00a:	2800      	cmp	r0, #0
1000a00c:	d0f2      	beq.n	10009ff4 <xQueueSemaphoreTake+0xd0>
1000a00e:	3d01      	subs	r5, #1
1000a010:	f7fe fd12 	bl	10008a38 <vTaskMissedYield>
1000a014:	b2ea      	uxtb	r2, r5
1000a016:	b26d      	sxtb	r5, r5
1000a018:	2a00      	cmp	r2, #0
1000a01a:	d1f0      	bne.n	10009ffe <xQueueSemaphoreTake+0xda>
1000a01c:	23ff      	movs	r3, #255	; 0xff
1000a01e:	55e3      	strb	r3, [r4, r7]
1000a020:	f7ff fa84 	bl	1000952c <vPortExitCritical>
1000a024:	f7fe f9ae 	bl	10008384 <xTaskResumeAll>
1000a028:	2800      	cmp	r0, #0
1000a02a:	d14e      	bne.n	1000a0ca <xQueueSemaphoreTake+0x1a6>
1000a02c:	f7ff fa66 	bl	100094fc <vPortYield>
1000a030:	e04b      	b.n	1000a0ca <xQueueSemaphoreTake+0x1a6>
1000a032:	f7ff fa6f 	bl	10009514 <vPortEnterCritical>
1000a036:	2345      	movs	r3, #69	; 0x45
1000a038:	5ce5      	ldrb	r5, [r4, r3]
1000a03a:	b26d      	sxtb	r5, r5
1000a03c:	2d00      	cmp	r5, #0
1000a03e:	dc05      	bgt.n	1000a04c <xQueueSemaphoreTake+0x128>
1000a040:	e013      	b.n	1000a06a <xQueueSemaphoreTake+0x146>
1000a042:	3d01      	subs	r5, #1
1000a044:	b2ea      	uxtb	r2, r5
1000a046:	b26d      	sxtb	r5, r5
1000a048:	2a00      	cmp	r2, #0
1000a04a:	d00e      	beq.n	1000a06a <xQueueSemaphoreTake+0x146>
1000a04c:	6a63      	ldr	r3, [r4, #36]	; 0x24
1000a04e:	2b00      	cmp	r3, #0
1000a050:	d00b      	beq.n	1000a06a <xQueueSemaphoreTake+0x146>
1000a052:	0030      	movs	r0, r6
1000a054:	f7fe fc04 	bl	10008860 <xTaskRemoveFromEventList>
1000a058:	2800      	cmp	r0, #0
1000a05a:	d0f2      	beq.n	1000a042 <xQueueSemaphoreTake+0x11e>
1000a05c:	3d01      	subs	r5, #1
1000a05e:	f7fe fceb 	bl	10008a38 <vTaskMissedYield>
1000a062:	b2ea      	uxtb	r2, r5
1000a064:	b26d      	sxtb	r5, r5
1000a066:	2a00      	cmp	r2, #0
1000a068:	d1f0      	bne.n	1000a04c <xQueueSemaphoreTake+0x128>
1000a06a:	2345      	movs	r3, #69	; 0x45
1000a06c:	22ff      	movs	r2, #255	; 0xff
1000a06e:	54e2      	strb	r2, [r4, r3]
1000a070:	f7ff fa5c 	bl	1000952c <vPortExitCritical>
1000a074:	f7ff fa4e 	bl	10009514 <vPortEnterCritical>
1000a078:	5de5      	ldrb	r5, [r4, r7]
1000a07a:	b26d      	sxtb	r5, r5
1000a07c:	2d00      	cmp	r5, #0
1000a07e:	dd17      	ble.n	1000a0b0 <xQueueSemaphoreTake+0x18c>
1000a080:	2310      	movs	r3, #16
1000a082:	4698      	mov	r8, r3
1000a084:	44a0      	add	r8, r4
1000a086:	e004      	b.n	1000a092 <xQueueSemaphoreTake+0x16e>
1000a088:	3d01      	subs	r5, #1
1000a08a:	b2ea      	uxtb	r2, r5
1000a08c:	b26d      	sxtb	r5, r5
1000a08e:	2a00      	cmp	r2, #0
1000a090:	d00e      	beq.n	1000a0b0 <xQueueSemaphoreTake+0x18c>
1000a092:	6923      	ldr	r3, [r4, #16]
1000a094:	2b00      	cmp	r3, #0
1000a096:	d00b      	beq.n	1000a0b0 <xQueueSemaphoreTake+0x18c>
1000a098:	4640      	mov	r0, r8
1000a09a:	f7fe fbe1 	bl	10008860 <xTaskRemoveFromEventList>
1000a09e:	2800      	cmp	r0, #0
1000a0a0:	d0f2      	beq.n	1000a088 <xQueueSemaphoreTake+0x164>
1000a0a2:	3d01      	subs	r5, #1
1000a0a4:	f7fe fcc8 	bl	10008a38 <vTaskMissedYield>
1000a0a8:	b2ea      	uxtb	r2, r5
1000a0aa:	b26d      	sxtb	r5, r5
1000a0ac:	2a00      	cmp	r2, #0
1000a0ae:	d1f0      	bne.n	1000a092 <xQueueSemaphoreTake+0x16e>
1000a0b0:	23ff      	movs	r3, #255	; 0xff
1000a0b2:	55e3      	strb	r3, [r4, r7]
1000a0b4:	f7ff fa3a 	bl	1000952c <vPortExitCritical>
1000a0b8:	f7fe f964 	bl	10008384 <xTaskResumeAll>
1000a0bc:	f7ff fa2a 	bl	10009514 <vPortEnterCritical>
1000a0c0:	6ba3      	ldr	r3, [r4, #56]	; 0x38
1000a0c2:	2b00      	cmp	r3, #0
1000a0c4:	d00a      	beq.n	1000a0dc <xQueueSemaphoreTake+0x1b8>
1000a0c6:	f7ff fa31 	bl	1000952c <vPortExitCritical>
1000a0ca:	f7ff fa23 	bl	10009514 <vPortEnterCritical>
1000a0ce:	6ba3      	ldr	r3, [r4, #56]	; 0x38
1000a0d0:	2b00      	cmp	r3, #0
1000a0d2:	d156      	bne.n	1000a182 <xQueueSemaphoreTake+0x25e>
1000a0d4:	9b01      	ldr	r3, [sp, #4]
1000a0d6:	2b00      	cmp	r3, #0
1000a0d8:	d000      	beq.n	1000a0dc <xQueueSemaphoreTake+0x1b8>
1000a0da:	e739      	b.n	10009f50 <xQueueSemaphoreTake+0x2c>
1000a0dc:	f7ff fa26 	bl	1000952c <vPortExitCritical>
1000a0e0:	2000      	movs	r0, #0
1000a0e2:	b004      	add	sp, #16
1000a0e4:	bc80      	pop	{r7}
1000a0e6:	46b8      	mov	r8, r7
1000a0e8:	bdf0      	pop	{r4, r5, r6, r7, pc}
1000a0ea:	f7ff fa1f 	bl	1000952c <vPortExitCritical>
1000a0ee:	f7ff fa11 	bl	10009514 <vPortEnterCritical>
1000a0f2:	2345      	movs	r3, #69	; 0x45
1000a0f4:	5ce5      	ldrb	r5, [r4, r3]
1000a0f6:	b26d      	sxtb	r5, r5
1000a0f8:	2d00      	cmp	r5, #0
1000a0fa:	dc05      	bgt.n	1000a108 <xQueueSemaphoreTake+0x1e4>
1000a0fc:	e013      	b.n	1000a126 <xQueueSemaphoreTake+0x202>
1000a0fe:	3d01      	subs	r5, #1
1000a100:	b2ea      	uxtb	r2, r5
1000a102:	b26d      	sxtb	r5, r5
1000a104:	2a00      	cmp	r2, #0
1000a106:	d00e      	beq.n	1000a126 <xQueueSemaphoreTake+0x202>
1000a108:	6a63      	ldr	r3, [r4, #36]	; 0x24
1000a10a:	2b00      	cmp	r3, #0
1000a10c:	d00b      	beq.n	1000a126 <xQueueSemaphoreTake+0x202>
1000a10e:	0030      	movs	r0, r6
1000a110:	f7fe fba6 	bl	10008860 <xTaskRemoveFromEventList>
1000a114:	2800      	cmp	r0, #0
1000a116:	d0f2      	beq.n	1000a0fe <xQueueSemaphoreTake+0x1da>
1000a118:	3d01      	subs	r5, #1
1000a11a:	f7fe fc8d 	bl	10008a38 <vTaskMissedYield>
1000a11e:	b2ea      	uxtb	r2, r5
1000a120:	b26d      	sxtb	r5, r5
1000a122:	2a00      	cmp	r2, #0
1000a124:	d1f0      	bne.n	1000a108 <xQueueSemaphoreTake+0x1e4>
1000a126:	2345      	movs	r3, #69	; 0x45
1000a128:	22ff      	movs	r2, #255	; 0xff
1000a12a:	54e2      	strb	r2, [r4, r3]
1000a12c:	f7ff f9fe 	bl	1000952c <vPortExitCritical>
1000a130:	f7ff f9f0 	bl	10009514 <vPortEnterCritical>
1000a134:	5de5      	ldrb	r5, [r4, r7]
1000a136:	b26d      	sxtb	r5, r5
1000a138:	2d00      	cmp	r5, #0
1000a13a:	dd17      	ble.n	1000a16c <xQueueSemaphoreTake+0x248>
1000a13c:	2310      	movs	r3, #16
1000a13e:	4698      	mov	r8, r3
1000a140:	44a0      	add	r8, r4
1000a142:	e004      	b.n	1000a14e <xQueueSemaphoreTake+0x22a>
1000a144:	3d01      	subs	r5, #1
1000a146:	b2ea      	uxtb	r2, r5
1000a148:	b26d      	sxtb	r5, r5
1000a14a:	2a00      	cmp	r2, #0
1000a14c:	d00e      	beq.n	1000a16c <xQueueSemaphoreTake+0x248>
1000a14e:	6923      	ldr	r3, [r4, #16]
1000a150:	2b00      	cmp	r3, #0
1000a152:	d00b      	beq.n	1000a16c <xQueueSemaphoreTake+0x248>
1000a154:	4640      	mov	r0, r8
1000a156:	f7fe fb83 	bl	10008860 <xTaskRemoveFromEventList>
1000a15a:	2800      	cmp	r0, #0
1000a15c:	d0f2      	beq.n	1000a144 <xQueueSemaphoreTake+0x220>
1000a15e:	3d01      	subs	r5, #1
1000a160:	f7fe fc6a 	bl	10008a38 <vTaskMissedYield>
1000a164:	b2ea      	uxtb	r2, r5
1000a166:	b26d      	sxtb	r5, r5
1000a168:	2a00      	cmp	r2, #0
1000a16a:	d1f0      	bne.n	1000a14e <xQueueSemaphoreTake+0x22a>
1000a16c:	23ff      	movs	r3, #255	; 0xff
1000a16e:	55e3      	strb	r3, [r4, r7]
1000a170:	f7ff f9dc 	bl	1000952c <vPortExitCritical>
1000a174:	f7fe f906 	bl	10008384 <xTaskResumeAll>
1000a178:	f7ff f9cc 	bl	10009514 <vPortEnterCritical>
1000a17c:	6ba3      	ldr	r3, [r4, #56]	; 0x38
1000a17e:	2b00      	cmp	r3, #0
1000a180:	d0a8      	beq.n	1000a0d4 <xQueueSemaphoreTake+0x1b0>
1000a182:	3b01      	subs	r3, #1
1000a184:	63a3      	str	r3, [r4, #56]	; 0x38
1000a186:	6923      	ldr	r3, [r4, #16]
1000a188:	2b00      	cmp	r3, #0
1000a18a:	d103      	bne.n	1000a194 <xQueueSemaphoreTake+0x270>
1000a18c:	f7ff f9ce 	bl	1000952c <vPortExitCritical>
1000a190:	2001      	movs	r0, #1
1000a192:	e7a6      	b.n	1000a0e2 <xQueueSemaphoreTake+0x1be>
1000a194:	0020      	movs	r0, r4
1000a196:	3010      	adds	r0, #16
1000a198:	f7fe fb62 	bl	10008860 <xTaskRemoveFromEventList>
1000a19c:	2800      	cmp	r0, #0
1000a19e:	d0f5      	beq.n	1000a18c <xQueueSemaphoreTake+0x268>
1000a1a0:	f7ff f9ac 	bl	100094fc <vPortYield>
1000a1a4:	e7f2      	b.n	1000a18c <xQueueSemaphoreTake+0x268>
1000a1a6:	46c0      	nop			; (mov r8, r8)

1000a1a8 <xQueuePeek>:
1000a1a8:	b5f0      	push	{r4, r5, r6, r7, lr}
1000a1aa:	46ce      	mov	lr, r9
1000a1ac:	4647      	mov	r7, r8
1000a1ae:	0004      	movs	r4, r0
1000a1b0:	b580      	push	{r7, lr}
1000a1b2:	b085      	sub	sp, #20
1000a1b4:	4688      	mov	r8, r1
1000a1b6:	9201      	str	r2, [sp, #4]
1000a1b8:	f7ff f9ac 	bl	10009514 <vPortEnterCritical>
1000a1bc:	6ba3      	ldr	r3, [r4, #56]	; 0x38
1000a1be:	2b00      	cmp	r3, #0
1000a1c0:	d000      	beq.n	1000a1c4 <xQueuePeek+0x1c>
1000a1c2:	e11f      	b.n	1000a404 <xQueuePeek+0x25c>
1000a1c4:	9b01      	ldr	r3, [sp, #4]
1000a1c6:	2b00      	cmp	r3, #0
1000a1c8:	d100      	bne.n	1000a1cc <xQueuePeek+0x24>
1000a1ca:	e0cb      	b.n	1000a364 <xQueuePeek+0x1bc>
1000a1cc:	0026      	movs	r6, r4
1000a1ce:	a802      	add	r0, sp, #8
1000a1d0:	f7fe fc02 	bl	100089d8 <vTaskInternalSetTimeOutState>
1000a1d4:	2744      	movs	r7, #68	; 0x44
1000a1d6:	3624      	adds	r6, #36	; 0x24
1000a1d8:	f7ff f9a8 	bl	1000952c <vPortExitCritical>
1000a1dc:	f7fe f8ca 	bl	10008374 <vTaskSuspendAll>
1000a1e0:	f7ff f998 	bl	10009514 <vPortEnterCritical>
1000a1e4:	5de3      	ldrb	r3, [r4, r7]
1000a1e6:	b25b      	sxtb	r3, r3
1000a1e8:	3301      	adds	r3, #1
1000a1ea:	d101      	bne.n	1000a1f0 <xQueuePeek+0x48>
1000a1ec:	2300      	movs	r3, #0
1000a1ee:	55e3      	strb	r3, [r4, r7]
1000a1f0:	2245      	movs	r2, #69	; 0x45
1000a1f2:	5ca3      	ldrb	r3, [r4, r2]
1000a1f4:	b25b      	sxtb	r3, r3
1000a1f6:	3301      	adds	r3, #1
1000a1f8:	d101      	bne.n	1000a1fe <xQueuePeek+0x56>
1000a1fa:	2300      	movs	r3, #0
1000a1fc:	54a3      	strb	r3, [r4, r2]
1000a1fe:	f7ff f995 	bl	1000952c <vPortExitCritical>
1000a202:	a901      	add	r1, sp, #4
1000a204:	a802      	add	r0, sp, #8
1000a206:	f7fe fbef 	bl	100089e8 <xTaskCheckForTimeOut>
1000a20a:	2800      	cmp	r0, #0
1000a20c:	d155      	bne.n	1000a2ba <xQueuePeek+0x112>
1000a20e:	f7ff f981 	bl	10009514 <vPortEnterCritical>
1000a212:	6ba3      	ldr	r3, [r4, #56]	; 0x38
1000a214:	2b00      	cmp	r3, #0
1000a216:	d000      	beq.n	1000a21a <xQueuePeek+0x72>
1000a218:	e0ac      	b.n	1000a374 <xQueuePeek+0x1cc>
1000a21a:	f7ff f987 	bl	1000952c <vPortExitCritical>
1000a21e:	0030      	movs	r0, r6
1000a220:	9901      	ldr	r1, [sp, #4]
1000a222:	f7fe fa47 	bl	100086b4 <vTaskPlaceOnEventList>
1000a226:	f7ff f975 	bl	10009514 <vPortEnterCritical>
1000a22a:	2345      	movs	r3, #69	; 0x45
1000a22c:	5ce5      	ldrb	r5, [r4, r3]
1000a22e:	b26d      	sxtb	r5, r5
1000a230:	2d00      	cmp	r5, #0
1000a232:	dc05      	bgt.n	1000a240 <xQueuePeek+0x98>
1000a234:	e013      	b.n	1000a25e <xQueuePeek+0xb6>
1000a236:	3d01      	subs	r5, #1
1000a238:	b2ea      	uxtb	r2, r5
1000a23a:	b26d      	sxtb	r5, r5
1000a23c:	2a00      	cmp	r2, #0
1000a23e:	d00e      	beq.n	1000a25e <xQueuePeek+0xb6>
1000a240:	6a63      	ldr	r3, [r4, #36]	; 0x24
1000a242:	2b00      	cmp	r3, #0
1000a244:	d00b      	beq.n	1000a25e <xQueuePeek+0xb6>
1000a246:	0030      	movs	r0, r6
1000a248:	f7fe fb0a 	bl	10008860 <xTaskRemoveFromEventList>
1000a24c:	2800      	cmp	r0, #0
1000a24e:	d0f2      	beq.n	1000a236 <xQueuePeek+0x8e>
1000a250:	3d01      	subs	r5, #1
1000a252:	f7fe fbf1 	bl	10008a38 <vTaskMissedYield>
1000a256:	b2ea      	uxtb	r2, r5
1000a258:	b26d      	sxtb	r5, r5
1000a25a:	2a00      	cmp	r2, #0
1000a25c:	d1f0      	bne.n	1000a240 <xQueuePeek+0x98>
1000a25e:	2345      	movs	r3, #69	; 0x45
1000a260:	22ff      	movs	r2, #255	; 0xff
1000a262:	54e2      	strb	r2, [r4, r3]
1000a264:	f7ff f962 	bl	1000952c <vPortExitCritical>
1000a268:	f7ff f954 	bl	10009514 <vPortEnterCritical>
1000a26c:	2310      	movs	r3, #16
1000a26e:	4699      	mov	r9, r3
1000a270:	5de5      	ldrb	r5, [r4, r7]
1000a272:	44a1      	add	r9, r4
1000a274:	b26d      	sxtb	r5, r5
1000a276:	2d00      	cmp	r5, #0
1000a278:	dc05      	bgt.n	1000a286 <xQueuePeek+0xde>
1000a27a:	e013      	b.n	1000a2a4 <xQueuePeek+0xfc>
1000a27c:	3d01      	subs	r5, #1
1000a27e:	b2ea      	uxtb	r2, r5
1000a280:	b26d      	sxtb	r5, r5
1000a282:	2a00      	cmp	r2, #0
1000a284:	d00e      	beq.n	1000a2a4 <xQueuePeek+0xfc>
1000a286:	6923      	ldr	r3, [r4, #16]
1000a288:	2b00      	cmp	r3, #0
1000a28a:	d00b      	beq.n	1000a2a4 <xQueuePeek+0xfc>
1000a28c:	4648      	mov	r0, r9
1000a28e:	f7fe fae7 	bl	10008860 <xTaskRemoveFromEventList>
1000a292:	2800      	cmp	r0, #0
1000a294:	d0f2      	beq.n	1000a27c <xQueuePeek+0xd4>
1000a296:	3d01      	subs	r5, #1
1000a298:	f7fe fbce 	bl	10008a38 <vTaskMissedYield>
1000a29c:	b2ea      	uxtb	r2, r5
1000a29e:	b26d      	sxtb	r5, r5
1000a2a0:	2a00      	cmp	r2, #0
1000a2a2:	d1f0      	bne.n	1000a286 <xQueuePeek+0xde>
1000a2a4:	23ff      	movs	r3, #255	; 0xff
1000a2a6:	55e3      	strb	r3, [r4, r7]
1000a2a8:	f7ff f940 	bl	1000952c <vPortExitCritical>
1000a2ac:	f7fe f86a 	bl	10008384 <xTaskResumeAll>
1000a2b0:	2800      	cmp	r0, #0
1000a2b2:	d14e      	bne.n	1000a352 <xQueuePeek+0x1aa>
1000a2b4:	f7ff f922 	bl	100094fc <vPortYield>
1000a2b8:	e04b      	b.n	1000a352 <xQueuePeek+0x1aa>
1000a2ba:	f7ff f92b 	bl	10009514 <vPortEnterCritical>
1000a2be:	2345      	movs	r3, #69	; 0x45
1000a2c0:	5ce5      	ldrb	r5, [r4, r3]
1000a2c2:	b26d      	sxtb	r5, r5
1000a2c4:	2d00      	cmp	r5, #0
1000a2c6:	dc05      	bgt.n	1000a2d4 <xQueuePeek+0x12c>
1000a2c8:	e013      	b.n	1000a2f2 <xQueuePeek+0x14a>
1000a2ca:	3d01      	subs	r5, #1
1000a2cc:	b2ea      	uxtb	r2, r5
1000a2ce:	b26d      	sxtb	r5, r5
1000a2d0:	2a00      	cmp	r2, #0
1000a2d2:	d00e      	beq.n	1000a2f2 <xQueuePeek+0x14a>
1000a2d4:	6a63      	ldr	r3, [r4, #36]	; 0x24
1000a2d6:	2b00      	cmp	r3, #0
1000a2d8:	d00b      	beq.n	1000a2f2 <xQueuePeek+0x14a>
1000a2da:	0030      	movs	r0, r6
1000a2dc:	f7fe fac0 	bl	10008860 <xTaskRemoveFromEventList>
1000a2e0:	2800      	cmp	r0, #0
1000a2e2:	d0f2      	beq.n	1000a2ca <xQueuePeek+0x122>
1000a2e4:	3d01      	subs	r5, #1
1000a2e6:	f7fe fba7 	bl	10008a38 <vTaskMissedYield>
1000a2ea:	b2ea      	uxtb	r2, r5
1000a2ec:	b26d      	sxtb	r5, r5
1000a2ee:	2a00      	cmp	r2, #0
1000a2f0:	d1f0      	bne.n	1000a2d4 <xQueuePeek+0x12c>
1000a2f2:	2345      	movs	r3, #69	; 0x45
1000a2f4:	22ff      	movs	r2, #255	; 0xff
1000a2f6:	54e2      	strb	r2, [r4, r3]
1000a2f8:	f7ff f918 	bl	1000952c <vPortExitCritical>
1000a2fc:	f7ff f90a 	bl	10009514 <vPortEnterCritical>
1000a300:	2310      	movs	r3, #16
1000a302:	4699      	mov	r9, r3
1000a304:	5de5      	ldrb	r5, [r4, r7]
1000a306:	44a1      	add	r9, r4
1000a308:	b26d      	sxtb	r5, r5
1000a30a:	2d00      	cmp	r5, #0
1000a30c:	dc05      	bgt.n	1000a31a <xQueuePeek+0x172>
1000a30e:	e013      	b.n	1000a338 <xQueuePeek+0x190>
1000a310:	3d01      	subs	r5, #1
1000a312:	b2ea      	uxtb	r2, r5
1000a314:	b26d      	sxtb	r5, r5
1000a316:	2a00      	cmp	r2, #0
1000a318:	d00e      	beq.n	1000a338 <xQueuePeek+0x190>
1000a31a:	6923      	ldr	r3, [r4, #16]
1000a31c:	2b00      	cmp	r3, #0
1000a31e:	d00b      	beq.n	1000a338 <xQueuePeek+0x190>
1000a320:	4648      	mov	r0, r9
1000a322:	f7fe fa9d 	bl	10008860 <xTaskRemoveFromEventList>
1000a326:	2800      	cmp	r0, #0
1000a328:	d0f2      	beq.n	1000a310 <xQueuePeek+0x168>
1000a32a:	3d01      	subs	r5, #1
1000a32c:	f7fe fb84 	bl	10008a38 <vTaskMissedYield>
1000a330:	b2ea      	uxtb	r2, r5
1000a332:	b26d      	sxtb	r5, r5
1000a334:	2a00      	cmp	r2, #0
1000a336:	d1f0      	bne.n	1000a31a <xQueuePeek+0x172>
1000a338:	23ff      	movs	r3, #255	; 0xff
1000a33a:	55e3      	strb	r3, [r4, r7]
1000a33c:	f7ff f8f6 	bl	1000952c <vPortExitCritical>
1000a340:	f7fe f820 	bl	10008384 <xTaskResumeAll>
1000a344:	f7ff f8e6 	bl	10009514 <vPortEnterCritical>
1000a348:	6ba3      	ldr	r3, [r4, #56]	; 0x38
1000a34a:	2b00      	cmp	r3, #0
1000a34c:	d00a      	beq.n	1000a364 <xQueuePeek+0x1bc>
1000a34e:	f7ff f8ed 	bl	1000952c <vPortExitCritical>
1000a352:	f7ff f8df 	bl	10009514 <vPortEnterCritical>
1000a356:	6ba3      	ldr	r3, [r4, #56]	; 0x38
1000a358:	2b00      	cmp	r3, #0
1000a35a:	d153      	bne.n	1000a404 <xQueuePeek+0x25c>
1000a35c:	9b01      	ldr	r3, [sp, #4]
1000a35e:	2b00      	cmp	r3, #0
1000a360:	d000      	beq.n	1000a364 <xQueuePeek+0x1bc>
1000a362:	e739      	b.n	1000a1d8 <xQueuePeek+0x30>
1000a364:	f7ff f8e2 	bl	1000952c <vPortExitCritical>
1000a368:	2000      	movs	r0, #0
1000a36a:	b005      	add	sp, #20
1000a36c:	bcc0      	pop	{r6, r7}
1000a36e:	46b9      	mov	r9, r7
1000a370:	46b0      	mov	r8, r6
1000a372:	bdf0      	pop	{r4, r5, r6, r7, pc}
1000a374:	f7ff f8da 	bl	1000952c <vPortExitCritical>
1000a378:	f7ff f8cc 	bl	10009514 <vPortEnterCritical>
1000a37c:	2345      	movs	r3, #69	; 0x45
1000a37e:	5ce5      	ldrb	r5, [r4, r3]
1000a380:	b26d      	sxtb	r5, r5
1000a382:	2d00      	cmp	r5, #0
1000a384:	dc05      	bgt.n	1000a392 <xQueuePeek+0x1ea>
1000a386:	e013      	b.n	1000a3b0 <xQueuePeek+0x208>
1000a388:	3d01      	subs	r5, #1
1000a38a:	b2ea      	uxtb	r2, r5
1000a38c:	b26d      	sxtb	r5, r5
1000a38e:	2a00      	cmp	r2, #0
1000a390:	d00e      	beq.n	1000a3b0 <xQueuePeek+0x208>
1000a392:	6a63      	ldr	r3, [r4, #36]	; 0x24
1000a394:	2b00      	cmp	r3, #0
1000a396:	d00b      	beq.n	1000a3b0 <xQueuePeek+0x208>
1000a398:	0030      	movs	r0, r6
1000a39a:	f7fe fa61 	bl	10008860 <xTaskRemoveFromEventList>
1000a39e:	2800      	cmp	r0, #0
1000a3a0:	d0f2      	beq.n	1000a388 <xQueuePeek+0x1e0>
1000a3a2:	3d01      	subs	r5, #1
1000a3a4:	f7fe fb48 	bl	10008a38 <vTaskMissedYield>
1000a3a8:	b2ea      	uxtb	r2, r5
1000a3aa:	b26d      	sxtb	r5, r5
1000a3ac:	2a00      	cmp	r2, #0
1000a3ae:	d1f0      	bne.n	1000a392 <xQueuePeek+0x1ea>
1000a3b0:	2345      	movs	r3, #69	; 0x45
1000a3b2:	22ff      	movs	r2, #255	; 0xff
1000a3b4:	54e2      	strb	r2, [r4, r3]
1000a3b6:	f7ff f8b9 	bl	1000952c <vPortExitCritical>
1000a3ba:	f7ff f8ab 	bl	10009514 <vPortEnterCritical>
1000a3be:	2310      	movs	r3, #16
1000a3c0:	4699      	mov	r9, r3
1000a3c2:	5de5      	ldrb	r5, [r4, r7]
1000a3c4:	44a1      	add	r9, r4
1000a3c6:	b26d      	sxtb	r5, r5
1000a3c8:	2d00      	cmp	r5, #0
1000a3ca:	dc05      	bgt.n	1000a3d8 <xQueuePeek+0x230>
1000a3cc:	e013      	b.n	1000a3f6 <xQueuePeek+0x24e>
1000a3ce:	3d01      	subs	r5, #1
1000a3d0:	b2ea      	uxtb	r2, r5
1000a3d2:	b26d      	sxtb	r5, r5
1000a3d4:	2a00      	cmp	r2, #0
1000a3d6:	d00e      	beq.n	1000a3f6 <xQueuePeek+0x24e>
1000a3d8:	6923      	ldr	r3, [r4, #16]
1000a3da:	2b00      	cmp	r3, #0
1000a3dc:	d00b      	beq.n	1000a3f6 <xQueuePeek+0x24e>
1000a3de:	4648      	mov	r0, r9
1000a3e0:	f7fe fa3e 	bl	10008860 <xTaskRemoveFromEventList>
1000a3e4:	2800      	cmp	r0, #0
1000a3e6:	d0f2      	beq.n	1000a3ce <xQueuePeek+0x226>
1000a3e8:	3d01      	subs	r5, #1
1000a3ea:	f7fe fb25 	bl	10008a38 <vTaskMissedYield>
1000a3ee:	b2ea      	uxtb	r2, r5
1000a3f0:	b26d      	sxtb	r5, r5
1000a3f2:	2a00      	cmp	r2, #0
1000a3f4:	d1f0      	bne.n	1000a3d8 <xQueuePeek+0x230>
1000a3f6:	23ff      	movs	r3, #255	; 0xff
1000a3f8:	55e3      	strb	r3, [r4, r7]
1000a3fa:	f7ff f897 	bl	1000952c <vPortExitCritical>
1000a3fe:	f7fd ffc1 	bl	10008384 <xTaskResumeAll>
1000a402:	e7a6      	b.n	1000a352 <xQueuePeek+0x1aa>
1000a404:	6c22      	ldr	r2, [r4, #64]	; 0x40
1000a406:	68e5      	ldr	r5, [r4, #12]
1000a408:	2a00      	cmp	r2, #0
1000a40a:	d007      	beq.n	1000a41c <xQueuePeek+0x274>
1000a40c:	68a3      	ldr	r3, [r4, #8]
1000a40e:	18a9      	adds	r1, r5, r2
1000a410:	60e1      	str	r1, [r4, #12]
1000a412:	4299      	cmp	r1, r3
1000a414:	d20a      	bcs.n	1000a42c <xQueuePeek+0x284>
1000a416:	4640      	mov	r0, r8
1000a418:	f7fa fabe 	bl	10004998 <__wrap___aeabi_memcpy>
1000a41c:	6a63      	ldr	r3, [r4, #36]	; 0x24
1000a41e:	60e5      	str	r5, [r4, #12]
1000a420:	2b00      	cmp	r3, #0
1000a422:	d106      	bne.n	1000a432 <xQueuePeek+0x28a>
1000a424:	f7ff f882 	bl	1000952c <vPortExitCritical>
1000a428:	2001      	movs	r0, #1
1000a42a:	e79e      	b.n	1000a36a <xQueuePeek+0x1c2>
1000a42c:	6821      	ldr	r1, [r4, #0]
1000a42e:	60e1      	str	r1, [r4, #12]
1000a430:	e7f1      	b.n	1000a416 <xQueuePeek+0x26e>
1000a432:	0020      	movs	r0, r4
1000a434:	3024      	adds	r0, #36	; 0x24
1000a436:	f7fe fa13 	bl	10008860 <xTaskRemoveFromEventList>
1000a43a:	2800      	cmp	r0, #0
1000a43c:	d0f2      	beq.n	1000a424 <xQueuePeek+0x27c>
1000a43e:	f7ff f85d 	bl	100094fc <vPortYield>
1000a442:	e7ef      	b.n	1000a424 <xQueuePeek+0x27c>

1000a444 <xQueueReceiveFromISR>:
1000a444:	b5f8      	push	{r3, r4, r5, r6, r7, lr}
1000a446:	46ce      	mov	lr, r9
1000a448:	4647      	mov	r7, r8
1000a44a:	0004      	movs	r4, r0
1000a44c:	b580      	push	{r7, lr}
1000a44e:	4689      	mov	r9, r1
1000a450:	4690      	mov	r8, r2
1000a452:	f7ff f875 	bl	10009540 <ulSetInterruptMaskFromISR>
1000a456:	6ba6      	ldr	r6, [r4, #56]	; 0x38
1000a458:	0005      	movs	r5, r0
1000a45a:	2700      	movs	r7, #0
1000a45c:	2e00      	cmp	r6, #0
1000a45e:	d107      	bne.n	1000a470 <xQueueReceiveFromISR+0x2c>
1000a460:	0028      	movs	r0, r5
1000a462:	f7ff f871 	bl	10009548 <vClearInterruptMaskFromISR>
1000a466:	0038      	movs	r0, r7
1000a468:	bcc0      	pop	{r6, r7}
1000a46a:	46b9      	mov	r9, r7
1000a46c:	46b0      	mov	r8, r6
1000a46e:	bdf8      	pop	{r3, r4, r5, r6, r7, pc}
1000a470:	2344      	movs	r3, #68	; 0x44
1000a472:	6c22      	ldr	r2, [r4, #64]	; 0x40
1000a474:	5ce7      	ldrb	r7, [r4, r3]
1000a476:	b27f      	sxtb	r7, r7
1000a478:	2a00      	cmp	r2, #0
1000a47a:	d00a      	beq.n	1000a492 <xQueueReceiveFromISR+0x4e>
1000a47c:	68e3      	ldr	r3, [r4, #12]
1000a47e:	1899      	adds	r1, r3, r2
1000a480:	68a3      	ldr	r3, [r4, #8]
1000a482:	60e1      	str	r1, [r4, #12]
1000a484:	4299      	cmp	r1, r3
1000a486:	d301      	bcc.n	1000a48c <xQueueReceiveFromISR+0x48>
1000a488:	6821      	ldr	r1, [r4, #0]
1000a48a:	60e1      	str	r1, [r4, #12]
1000a48c:	4648      	mov	r0, r9
1000a48e:	f7fa fa83 	bl	10004998 <__wrap___aeabi_memcpy>
1000a492:	3e01      	subs	r6, #1
1000a494:	63a6      	str	r6, [r4, #56]	; 0x38
1000a496:	1c7b      	adds	r3, r7, #1
1000a498:	d104      	bne.n	1000a4a4 <xQueueReceiveFromISR+0x60>
1000a49a:	6923      	ldr	r3, [r4, #16]
1000a49c:	2b00      	cmp	r3, #0
1000a49e:	d10b      	bne.n	1000a4b8 <xQueueReceiveFromISR+0x74>
1000a4a0:	2701      	movs	r7, #1
1000a4a2:	e7dd      	b.n	1000a460 <xQueueReceiveFromISR+0x1c>
1000a4a4:	f7fe f87c 	bl	100085a0 <uxTaskGetNumberOfTasks>
1000a4a8:	4287      	cmp	r7, r0
1000a4aa:	d2f9      	bcs.n	1000a4a0 <xQueueReceiveFromISR+0x5c>
1000a4ac:	2344      	movs	r3, #68	; 0x44
1000a4ae:	3701      	adds	r7, #1
1000a4b0:	b27f      	sxtb	r7, r7
1000a4b2:	54e7      	strb	r7, [r4, r3]
1000a4b4:	2701      	movs	r7, #1
1000a4b6:	e7d3      	b.n	1000a460 <xQueueReceiveFromISR+0x1c>
1000a4b8:	0020      	movs	r0, r4
1000a4ba:	3010      	adds	r0, #16
1000a4bc:	f7fe f9d0 	bl	10008860 <xTaskRemoveFromEventList>
1000a4c0:	2800      	cmp	r0, #0
1000a4c2:	d0ed      	beq.n	1000a4a0 <xQueueReceiveFromISR+0x5c>
1000a4c4:	4643      	mov	r3, r8
1000a4c6:	2b00      	cmp	r3, #0
1000a4c8:	d0ea      	beq.n	1000a4a0 <xQueueReceiveFromISR+0x5c>
1000a4ca:	2301      	movs	r3, #1
1000a4cc:	4642      	mov	r2, r8
1000a4ce:	2701      	movs	r7, #1
1000a4d0:	6013      	str	r3, [r2, #0]
1000a4d2:	e7c5      	b.n	1000a460 <xQueueReceiveFromISR+0x1c>

1000a4d4 <xQueuePeekFromISR>:
1000a4d4:	b5f8      	push	{r3, r4, r5, r6, r7, lr}
1000a4d6:	0004      	movs	r4, r0
1000a4d8:	000f      	movs	r7, r1
1000a4da:	f7ff f831 	bl	10009540 <ulSetInterruptMaskFromISR>
1000a4de:	6ba3      	ldr	r3, [r4, #56]	; 0x38
1000a4e0:	0005      	movs	r5, r0
1000a4e2:	2600      	movs	r6, #0
1000a4e4:	2b00      	cmp	r3, #0
1000a4e6:	d104      	bne.n	1000a4f2 <xQueuePeekFromISR+0x1e>
1000a4e8:	0028      	movs	r0, r5
1000a4ea:	f7ff f82d 	bl	10009548 <vClearInterruptMaskFromISR>
1000a4ee:	0030      	movs	r0, r6
1000a4f0:	bdf8      	pop	{r3, r4, r5, r6, r7, pc}
1000a4f2:	6c22      	ldr	r2, [r4, #64]	; 0x40
1000a4f4:	68e6      	ldr	r6, [r4, #12]
1000a4f6:	2a00      	cmp	r2, #0
1000a4f8:	d009      	beq.n	1000a50e <xQueuePeekFromISR+0x3a>
1000a4fa:	68a3      	ldr	r3, [r4, #8]
1000a4fc:	18b1      	adds	r1, r6, r2
1000a4fe:	60e1      	str	r1, [r4, #12]
1000a500:	4299      	cmp	r1, r3
1000a502:	d301      	bcc.n	1000a508 <xQueuePeekFromISR+0x34>
1000a504:	6821      	ldr	r1, [r4, #0]
1000a506:	60e1      	str	r1, [r4, #12]
1000a508:	0038      	movs	r0, r7
1000a50a:	f7fa fa45 	bl	10004998 <__wrap___aeabi_memcpy>
1000a50e:	60e6      	str	r6, [r4, #12]
1000a510:	2601      	movs	r6, #1
1000a512:	e7e9      	b.n	1000a4e8 <xQueuePeekFromISR+0x14>

1000a514 <uxQueueMessagesWaiting>:
1000a514:	b510      	push	{r4, lr}
1000a516:	0004      	movs	r4, r0
1000a518:	f7fe fffc 	bl	10009514 <vPortEnterCritical>
1000a51c:	6ba4      	ldr	r4, [r4, #56]	; 0x38
1000a51e:	f7ff f805 	bl	1000952c <vPortExitCritical>
1000a522:	0020      	movs	r0, r4
1000a524:	bd10      	pop	{r4, pc}
1000a526:	46c0      	nop			; (mov r8, r8)

1000a528 <uxQueueSpacesAvailable>:
1000a528:	b510      	push	{r4, lr}
1000a52a:	0004      	movs	r4, r0
1000a52c:	f7fe fff2 	bl	10009514 <vPortEnterCritical>
1000a530:	6ba3      	ldr	r3, [r4, #56]	; 0x38
1000a532:	6be4      	ldr	r4, [r4, #60]	; 0x3c
1000a534:	1ae4      	subs	r4, r4, r3
1000a536:	f7fe fff9 	bl	1000952c <vPortExitCritical>
1000a53a:	0020      	movs	r0, r4
1000a53c:	bd10      	pop	{r4, pc}
1000a53e:	46c0      	nop			; (mov r8, r8)

1000a540 <uxQueueMessagesWaitingFromISR>:
1000a540:	6b80      	ldr	r0, [r0, #56]	; 0x38
1000a542:	4770      	bx	lr

1000a544 <vQueueDelete>:
1000a544:	4b1e      	ldr	r3, [pc, #120]	; (1000a5c0 <vQueueDelete+0x7c>)
1000a546:	b570      	push	{r4, r5, r6, lr}
1000a548:	685a      	ldr	r2, [r3, #4]
1000a54a:	4290      	cmp	r0, r2
1000a54c:	d01d      	beq.n	1000a58a <vQueueDelete+0x46>
1000a54e:	68da      	ldr	r2, [r3, #12]
1000a550:	4290      	cmp	r0, r2
1000a552:	d022      	beq.n	1000a59a <vQueueDelete+0x56>
1000a554:	695a      	ldr	r2, [r3, #20]
1000a556:	4290      	cmp	r0, r2
1000a558:	d021      	beq.n	1000a59e <vQueueDelete+0x5a>
1000a55a:	69da      	ldr	r2, [r3, #28]
1000a55c:	4290      	cmp	r0, r2
1000a55e:	d020      	beq.n	1000a5a2 <vQueueDelete+0x5e>
1000a560:	6a5a      	ldr	r2, [r3, #36]	; 0x24
1000a562:	4290      	cmp	r0, r2
1000a564:	d01f      	beq.n	1000a5a6 <vQueueDelete+0x62>
1000a566:	6ada      	ldr	r2, [r3, #44]	; 0x2c
1000a568:	4290      	cmp	r0, r2
1000a56a:	d01e      	beq.n	1000a5aa <vQueueDelete+0x66>
1000a56c:	6b5a      	ldr	r2, [r3, #52]	; 0x34
1000a56e:	4290      	cmp	r0, r2
1000a570:	d01d      	beq.n	1000a5ae <vQueueDelete+0x6a>
1000a572:	6bda      	ldr	r2, [r3, #60]	; 0x3c
1000a574:	4290      	cmp	r0, r2
1000a576:	d01c      	beq.n	1000a5b2 <vQueueDelete+0x6e>
1000a578:	6c5a      	ldr	r2, [r3, #68]	; 0x44
1000a57a:	4290      	cmp	r0, r2
1000a57c:	d01b      	beq.n	1000a5b6 <vQueueDelete+0x72>
1000a57e:	6cda      	ldr	r2, [r3, #76]	; 0x4c
1000a580:	4290      	cmp	r0, r2
1000a582:	d01a      	beq.n	1000a5ba <vQueueDelete+0x76>
1000a584:	f7fe ff74 	bl	10009470 <vPortFree>
1000a588:	bd70      	pop	{r4, r5, r6, pc}
1000a58a:	2200      	movs	r2, #0
1000a58c:	2400      	movs	r4, #0
1000a58e:	2500      	movs	r5, #0
1000a590:	00d2      	lsls	r2, r2, #3
1000a592:	189b      	adds	r3, r3, r2
1000a594:	601c      	str	r4, [r3, #0]
1000a596:	605d      	str	r5, [r3, #4]
1000a598:	e7f4      	b.n	1000a584 <vQueueDelete+0x40>
1000a59a:	2201      	movs	r2, #1
1000a59c:	e7f6      	b.n	1000a58c <vQueueDelete+0x48>
1000a59e:	2202      	movs	r2, #2
1000a5a0:	e7f4      	b.n	1000a58c <vQueueDelete+0x48>
1000a5a2:	2203      	movs	r2, #3
1000a5a4:	e7f2      	b.n	1000a58c <vQueueDelete+0x48>
1000a5a6:	2204      	movs	r2, #4
1000a5a8:	e7f0      	b.n	1000a58c <vQueueDelete+0x48>
1000a5aa:	2205      	movs	r2, #5
1000a5ac:	e7ee      	b.n	1000a58c <vQueueDelete+0x48>
1000a5ae:	2206      	movs	r2, #6
1000a5b0:	e7ec      	b.n	1000a58c <vQueueDelete+0x48>
1000a5b2:	2207      	movs	r2, #7
1000a5b4:	e7ea      	b.n	1000a58c <vQueueDelete+0x48>
1000a5b6:	2208      	movs	r2, #8
1000a5b8:	e7e8      	b.n	1000a58c <vQueueDelete+0x48>
1000a5ba:	2209      	movs	r2, #9
1000a5bc:	e7e6      	b.n	1000a58c <vQueueDelete+0x48>
1000a5be:	46c0      	nop			; (mov r8, r8)
1000a5c0:	20000ce0 	.word	0x20000ce0

1000a5c4 <xQueueIsQueueEmptyFromISR>:
1000a5c4:	6b80      	ldr	r0, [r0, #56]	; 0x38
1000a5c6:	4243      	negs	r3, r0
1000a5c8:	4158      	adcs	r0, r3
1000a5ca:	4770      	bx	lr

1000a5cc <xQueueIsQueueFullFromISR>:
1000a5cc:	6b83      	ldr	r3, [r0, #56]	; 0x38
1000a5ce:	6bc0      	ldr	r0, [r0, #60]	; 0x3c
1000a5d0:	1ac0      	subs	r0, r0, r3
1000a5d2:	4243      	negs	r3, r0
1000a5d4:	4158      	adcs	r0, r3
1000a5d6:	4770      	bx	lr

1000a5d8 <vQueueAddToRegistry>:
1000a5d8:	b570      	push	{r4, r5, r6, lr}
1000a5da:	2900      	cmp	r1, #0
1000a5dc:	d00f      	beq.n	1000a5fe <vQueueAddToRegistry+0x26>
1000a5de:	2600      	movs	r6, #0
1000a5e0:	2300      	movs	r3, #0
1000a5e2:	4c42      	ldr	r4, [pc, #264]	; (1000a6ec <vQueueAddToRegistry+0x114>)
1000a5e4:	00da      	lsls	r2, r3, #3
1000a5e6:	18a5      	adds	r5, r4, r2
1000a5e8:	686d      	ldr	r5, [r5, #4]
1000a5ea:	4285      	cmp	r5, r0
1000a5ec:	d100      	bne.n	1000a5f0 <vQueueAddToRegistry+0x18>
1000a5ee:	e06f      	b.n	1000a6d0 <vQueueAddToRegistry+0xf8>
1000a5f0:	2e00      	cmp	r6, #0
1000a5f2:	d005      	beq.n	1000a600 <vQueueAddToRegistry+0x28>
1000a5f4:	3301      	adds	r3, #1
1000a5f6:	2b0a      	cmp	r3, #10
1000a5f8:	d1f4      	bne.n	1000a5e4 <vQueueAddToRegistry+0xc>
1000a5fa:	6031      	str	r1, [r6, #0]
1000a5fc:	6070      	str	r0, [r6, #4]
1000a5fe:	bd70      	pop	{r4, r5, r6, pc}
1000a600:	58a5      	ldr	r5, [r4, r2]
1000a602:	2d00      	cmp	r5, #0
1000a604:	d061      	beq.n	1000a6ca <vQueueAddToRegistry+0xf2>
1000a606:	1c5d      	adds	r5, r3, #1
1000a608:	2b09      	cmp	r3, #9
1000a60a:	d0f8      	beq.n	1000a5fe <vQueueAddToRegistry+0x26>
1000a60c:	00ea      	lsls	r2, r5, #3
1000a60e:	18a6      	adds	r6, r4, r2
1000a610:	6876      	ldr	r6, [r6, #4]
1000a612:	42b0      	cmp	r0, r6
1000a614:	d05c      	beq.n	1000a6d0 <vQueueAddToRegistry+0xf8>
1000a616:	58a6      	ldr	r6, [r4, r2]
1000a618:	2e00      	cmp	r6, #0
1000a61a:	d05d      	beq.n	1000a6d8 <vQueueAddToRegistry+0x100>
1000a61c:	1c9d      	adds	r5, r3, #2
1000a61e:	2b08      	cmp	r3, #8
1000a620:	d0ed      	beq.n	1000a5fe <vQueueAddToRegistry+0x26>
1000a622:	00ea      	lsls	r2, r5, #3
1000a624:	18a6      	adds	r6, r4, r2
1000a626:	6876      	ldr	r6, [r6, #4]
1000a628:	42b0      	cmp	r0, r6
1000a62a:	d051      	beq.n	1000a6d0 <vQueueAddToRegistry+0xf8>
1000a62c:	58a6      	ldr	r6, [r4, r2]
1000a62e:	2e00      	cmp	r6, #0
1000a630:	d052      	beq.n	1000a6d8 <vQueueAddToRegistry+0x100>
1000a632:	1cdd      	adds	r5, r3, #3
1000a634:	2b07      	cmp	r3, #7
1000a636:	d0e2      	beq.n	1000a5fe <vQueueAddToRegistry+0x26>
1000a638:	00ea      	lsls	r2, r5, #3
1000a63a:	18a6      	adds	r6, r4, r2
1000a63c:	6876      	ldr	r6, [r6, #4]
1000a63e:	4286      	cmp	r6, r0
1000a640:	d046      	beq.n	1000a6d0 <vQueueAddToRegistry+0xf8>
1000a642:	58a6      	ldr	r6, [r4, r2]
1000a644:	2e00      	cmp	r6, #0
1000a646:	d047      	beq.n	1000a6d8 <vQueueAddToRegistry+0x100>
1000a648:	1d1d      	adds	r5, r3, #4
1000a64a:	2b06      	cmp	r3, #6
1000a64c:	d0d7      	beq.n	1000a5fe <vQueueAddToRegistry+0x26>
1000a64e:	00ea      	lsls	r2, r5, #3
1000a650:	18a6      	adds	r6, r4, r2
1000a652:	6876      	ldr	r6, [r6, #4]
1000a654:	42b0      	cmp	r0, r6
1000a656:	d03b      	beq.n	1000a6d0 <vQueueAddToRegistry+0xf8>
1000a658:	58a6      	ldr	r6, [r4, r2]
1000a65a:	2e00      	cmp	r6, #0
1000a65c:	d03c      	beq.n	1000a6d8 <vQueueAddToRegistry+0x100>
1000a65e:	1d5d      	adds	r5, r3, #5
1000a660:	2b05      	cmp	r3, #5
1000a662:	d0cc      	beq.n	1000a5fe <vQueueAddToRegistry+0x26>
1000a664:	00ea      	lsls	r2, r5, #3
1000a666:	18a6      	adds	r6, r4, r2
1000a668:	6876      	ldr	r6, [r6, #4]
1000a66a:	42b0      	cmp	r0, r6
1000a66c:	d030      	beq.n	1000a6d0 <vQueueAddToRegistry+0xf8>
1000a66e:	58a6      	ldr	r6, [r4, r2]
1000a670:	2e00      	cmp	r6, #0
1000a672:	d031      	beq.n	1000a6d8 <vQueueAddToRegistry+0x100>
1000a674:	1d9a      	adds	r2, r3, #6
1000a676:	2b04      	cmp	r3, #4
1000a678:	d0c1      	beq.n	1000a5fe <vQueueAddToRegistry+0x26>
1000a67a:	00d5      	lsls	r5, r2, #3
1000a67c:	1966      	adds	r6, r4, r5
1000a67e:	6876      	ldr	r6, [r6, #4]
1000a680:	42b0      	cmp	r0, r6
1000a682:	d024      	beq.n	1000a6ce <vQueueAddToRegistry+0xf6>
1000a684:	5965      	ldr	r5, [r4, r5]
1000a686:	2d00      	cmp	r5, #0
1000a688:	d029      	beq.n	1000a6de <vQueueAddToRegistry+0x106>
1000a68a:	1ddd      	adds	r5, r3, #7
1000a68c:	2b03      	cmp	r3, #3
1000a68e:	d0b6      	beq.n	1000a5fe <vQueueAddToRegistry+0x26>
1000a690:	00ea      	lsls	r2, r5, #3
1000a692:	18a6      	adds	r6, r4, r2
1000a694:	6876      	ldr	r6, [r6, #4]
1000a696:	42b0      	cmp	r0, r6
1000a698:	d01a      	beq.n	1000a6d0 <vQueueAddToRegistry+0xf8>
1000a69a:	58a6      	ldr	r6, [r4, r2]
1000a69c:	2e00      	cmp	r6, #0
1000a69e:	d01b      	beq.n	1000a6d8 <vQueueAddToRegistry+0x100>
1000a6a0:	3501      	adds	r5, #1
1000a6a2:	2b02      	cmp	r3, #2
1000a6a4:	d0ab      	beq.n	1000a5fe <vQueueAddToRegistry+0x26>
1000a6a6:	00ea      	lsls	r2, r5, #3
1000a6a8:	18a6      	adds	r6, r4, r2
1000a6aa:	6876      	ldr	r6, [r6, #4]
1000a6ac:	42b0      	cmp	r0, r6
1000a6ae:	d00f      	beq.n	1000a6d0 <vQueueAddToRegistry+0xf8>
1000a6b0:	58a6      	ldr	r6, [r4, r2]
1000a6b2:	2e00      	cmp	r6, #0
1000a6b4:	d010      	beq.n	1000a6d8 <vQueueAddToRegistry+0x100>
1000a6b6:	2b01      	cmp	r3, #1
1000a6b8:	d0a1      	beq.n	1000a5fe <vQueueAddToRegistry+0x26>
1000a6ba:	6ce3      	ldr	r3, [r4, #76]	; 0x4c
1000a6bc:	4298      	cmp	r0, r3
1000a6be:	d012      	beq.n	1000a6e6 <vQueueAddToRegistry+0x10e>
1000a6c0:	6ca3      	ldr	r3, [r4, #72]	; 0x48
1000a6c2:	2b00      	cmp	r3, #0
1000a6c4:	d19b      	bne.n	1000a5fe <vQueueAddToRegistry+0x26>
1000a6c6:	2309      	movs	r3, #9
1000a6c8:	2248      	movs	r2, #72	; 0x48
1000a6ca:	18a6      	adds	r6, r4, r2
1000a6cc:	e792      	b.n	1000a5f4 <vQueueAddToRegistry+0x1c>
1000a6ce:	00d2      	lsls	r2, r2, #3
1000a6d0:	18a6      	adds	r6, r4, r2
1000a6d2:	6031      	str	r1, [r6, #0]
1000a6d4:	6070      	str	r0, [r6, #4]
1000a6d6:	e792      	b.n	1000a5fe <vQueueAddToRegistry+0x26>
1000a6d8:	002b      	movs	r3, r5
1000a6da:	18a6      	adds	r6, r4, r2
1000a6dc:	e78a      	b.n	1000a5f4 <vQueueAddToRegistry+0x1c>
1000a6de:	0013      	movs	r3, r2
1000a6e0:	00d2      	lsls	r2, r2, #3
1000a6e2:	18a6      	adds	r6, r4, r2
1000a6e4:	e786      	b.n	1000a5f4 <vQueueAddToRegistry+0x1c>
1000a6e6:	2248      	movs	r2, #72	; 0x48
1000a6e8:	18a6      	adds	r6, r4, r2
1000a6ea:	e7f2      	b.n	1000a6d2 <vQueueAddToRegistry+0xfa>
1000a6ec:	20000ce0 	.word	0x20000ce0

1000a6f0 <pcQueueGetName>:
1000a6f0:	4a1b      	ldr	r2, [pc, #108]	; (1000a760 <pcQueueGetName+0x70>)
1000a6f2:	0003      	movs	r3, r0
1000a6f4:	6851      	ldr	r1, [r2, #4]
1000a6f6:	4288      	cmp	r0, r1
1000a6f8:	d01c      	beq.n	1000a734 <pcQueueGetName+0x44>
1000a6fa:	68d1      	ldr	r1, [r2, #12]
1000a6fc:	4288      	cmp	r0, r1
1000a6fe:	d01d      	beq.n	1000a73c <pcQueueGetName+0x4c>
1000a700:	6951      	ldr	r1, [r2, #20]
1000a702:	4288      	cmp	r0, r1
1000a704:	d01c      	beq.n	1000a740 <pcQueueGetName+0x50>
1000a706:	69d1      	ldr	r1, [r2, #28]
1000a708:	4288      	cmp	r0, r1
1000a70a:	d01b      	beq.n	1000a744 <pcQueueGetName+0x54>
1000a70c:	6a51      	ldr	r1, [r2, #36]	; 0x24
1000a70e:	4288      	cmp	r0, r1
1000a710:	d01a      	beq.n	1000a748 <pcQueueGetName+0x58>
1000a712:	6ad1      	ldr	r1, [r2, #44]	; 0x2c
1000a714:	4288      	cmp	r0, r1
1000a716:	d019      	beq.n	1000a74c <pcQueueGetName+0x5c>
1000a718:	6b51      	ldr	r1, [r2, #52]	; 0x34
1000a71a:	4288      	cmp	r0, r1
1000a71c:	d018      	beq.n	1000a750 <pcQueueGetName+0x60>
1000a71e:	6bd1      	ldr	r1, [r2, #60]	; 0x3c
1000a720:	4288      	cmp	r0, r1
1000a722:	d017      	beq.n	1000a754 <pcQueueGetName+0x64>
1000a724:	6c51      	ldr	r1, [r2, #68]	; 0x44
1000a726:	4288      	cmp	r0, r1
1000a728:	d016      	beq.n	1000a758 <pcQueueGetName+0x68>
1000a72a:	6cd1      	ldr	r1, [r2, #76]	; 0x4c
1000a72c:	2000      	movs	r0, #0
1000a72e:	4299      	cmp	r1, r3
1000a730:	d014      	beq.n	1000a75c <pcQueueGetName+0x6c>
1000a732:	4770      	bx	lr
1000a734:	2300      	movs	r3, #0
1000a736:	00db      	lsls	r3, r3, #3
1000a738:	58d0      	ldr	r0, [r2, r3]
1000a73a:	e7fa      	b.n	1000a732 <pcQueueGetName+0x42>
1000a73c:	2301      	movs	r3, #1
1000a73e:	e7fa      	b.n	1000a736 <pcQueueGetName+0x46>
1000a740:	2302      	movs	r3, #2
1000a742:	e7f8      	b.n	1000a736 <pcQueueGetName+0x46>
1000a744:	2303      	movs	r3, #3
1000a746:	e7f6      	b.n	1000a736 <pcQueueGetName+0x46>
1000a748:	2304      	movs	r3, #4
1000a74a:	e7f4      	b.n	1000a736 <pcQueueGetName+0x46>
1000a74c:	2305      	movs	r3, #5
1000a74e:	e7f2      	b.n	1000a736 <pcQueueGetName+0x46>
1000a750:	2306      	movs	r3, #6
1000a752:	e7f0      	b.n	1000a736 <pcQueueGetName+0x46>
1000a754:	2307      	movs	r3, #7
1000a756:	e7ee      	b.n	1000a736 <pcQueueGetName+0x46>
1000a758:	2308      	movs	r3, #8
1000a75a:	e7ec      	b.n	1000a736 <pcQueueGetName+0x46>
1000a75c:	2309      	movs	r3, #9
1000a75e:	e7ea      	b.n	1000a736 <pcQueueGetName+0x46>
1000a760:	20000ce0 	.word	0x20000ce0

1000a764 <vQueueUnregisterQueue>:
1000a764:	4b1c      	ldr	r3, [pc, #112]	; (1000a7d8 <vQueueUnregisterQueue+0x74>)
1000a766:	685a      	ldr	r2, [r3, #4]
1000a768:	4290      	cmp	r0, r2
1000a76a:	d01b      	beq.n	1000a7a4 <vQueueUnregisterQueue+0x40>
1000a76c:	68da      	ldr	r2, [r3, #12]
1000a76e:	4290      	cmp	r0, r2
1000a770:	d020      	beq.n	1000a7b4 <vQueueUnregisterQueue+0x50>
1000a772:	695a      	ldr	r2, [r3, #20]
1000a774:	4290      	cmp	r0, r2
1000a776:	d01f      	beq.n	1000a7b8 <vQueueUnregisterQueue+0x54>
1000a778:	69da      	ldr	r2, [r3, #28]
1000a77a:	4290      	cmp	r0, r2
1000a77c:	d01e      	beq.n	1000a7bc <vQueueUnregisterQueue+0x58>
1000a77e:	6a5a      	ldr	r2, [r3, #36]	; 0x24
1000a780:	4290      	cmp	r0, r2
1000a782:	d01d      	beq.n	1000a7c0 <vQueueUnregisterQueue+0x5c>
1000a784:	6ada      	ldr	r2, [r3, #44]	; 0x2c
1000a786:	4290      	cmp	r0, r2
1000a788:	d01c      	beq.n	1000a7c4 <vQueueUnregisterQueue+0x60>
1000a78a:	6b5a      	ldr	r2, [r3, #52]	; 0x34
1000a78c:	4290      	cmp	r0, r2
1000a78e:	d01b      	beq.n	1000a7c8 <vQueueUnregisterQueue+0x64>
1000a790:	6bda      	ldr	r2, [r3, #60]	; 0x3c
1000a792:	4290      	cmp	r0, r2
1000a794:	d01a      	beq.n	1000a7cc <vQueueUnregisterQueue+0x68>
1000a796:	6c5a      	ldr	r2, [r3, #68]	; 0x44
1000a798:	4290      	cmp	r0, r2
1000a79a:	d019      	beq.n	1000a7d0 <vQueueUnregisterQueue+0x6c>
1000a79c:	6cda      	ldr	r2, [r3, #76]	; 0x4c
1000a79e:	4282      	cmp	r2, r0
1000a7a0:	d018      	beq.n	1000a7d4 <vQueueUnregisterQueue+0x70>
1000a7a2:	4770      	bx	lr
1000a7a4:	2200      	movs	r2, #0
1000a7a6:	2000      	movs	r0, #0
1000a7a8:	2100      	movs	r1, #0
1000a7aa:	00d2      	lsls	r2, r2, #3
1000a7ac:	189b      	adds	r3, r3, r2
1000a7ae:	6018      	str	r0, [r3, #0]
1000a7b0:	6059      	str	r1, [r3, #4]
1000a7b2:	e7f6      	b.n	1000a7a2 <vQueueUnregisterQueue+0x3e>
1000a7b4:	2201      	movs	r2, #1
1000a7b6:	e7f6      	b.n	1000a7a6 <vQueueUnregisterQueue+0x42>
1000a7b8:	2202      	movs	r2, #2
1000a7ba:	e7f4      	b.n	1000a7a6 <vQueueUnregisterQueue+0x42>
1000a7bc:	2203      	movs	r2, #3
1000a7be:	e7f2      	b.n	1000a7a6 <vQueueUnregisterQueue+0x42>
1000a7c0:	2204      	movs	r2, #4
1000a7c2:	e7f0      	b.n	1000a7a6 <vQueueUnregisterQueue+0x42>
1000a7c4:	2205      	movs	r2, #5
1000a7c6:	e7ee      	b.n	1000a7a6 <vQueueUnregisterQueue+0x42>
1000a7c8:	2206      	movs	r2, #6
1000a7ca:	e7ec      	b.n	1000a7a6 <vQueueUnregisterQueue+0x42>
1000a7cc:	2207      	movs	r2, #7
1000a7ce:	e7ea      	b.n	1000a7a6 <vQueueUnregisterQueue+0x42>
1000a7d0:	2208      	movs	r2, #8
1000a7d2:	e7e8      	b.n	1000a7a6 <vQueueUnregisterQueue+0x42>
1000a7d4:	2209      	movs	r2, #9
1000a7d6:	e7e6      	b.n	1000a7a6 <vQueueUnregisterQueue+0x42>
1000a7d8:	20000ce0 	.word	0x20000ce0

1000a7dc <vQueueWaitForMessageRestricted>:
1000a7dc:	b570      	push	{r4, r5, r6, lr}
1000a7de:	0005      	movs	r5, r0
1000a7e0:	0016      	movs	r6, r2
1000a7e2:	000c      	movs	r4, r1
1000a7e4:	f7fe fe96 	bl	10009514 <vPortEnterCritical>
1000a7e8:	2244      	movs	r2, #68	; 0x44
1000a7ea:	5cab      	ldrb	r3, [r5, r2]
1000a7ec:	b25b      	sxtb	r3, r3
1000a7ee:	3301      	adds	r3, #1
1000a7f0:	d101      	bne.n	1000a7f6 <vQueueWaitForMessageRestricted+0x1a>
1000a7f2:	2300      	movs	r3, #0
1000a7f4:	54ab      	strb	r3, [r5, r2]
1000a7f6:	2245      	movs	r2, #69	; 0x45
1000a7f8:	5cab      	ldrb	r3, [r5, r2]
1000a7fa:	b25b      	sxtb	r3, r3
1000a7fc:	3301      	adds	r3, #1
1000a7fe:	d101      	bne.n	1000a804 <vQueueWaitForMessageRestricted+0x28>
1000a800:	2300      	movs	r3, #0
1000a802:	54ab      	strb	r3, [r5, r2]
1000a804:	f7fe fe92 	bl	1000952c <vPortExitCritical>
1000a808:	6bab      	ldr	r3, [r5, #56]	; 0x38
1000a80a:	2b00      	cmp	r3, #0
1000a80c:	d046      	beq.n	1000a89c <vQueueWaitForMessageRestricted+0xc0>
1000a80e:	f7fe fe81 	bl	10009514 <vPortEnterCritical>
1000a812:	2345      	movs	r3, #69	; 0x45
1000a814:	5cec      	ldrb	r4, [r5, r3]
1000a816:	b264      	sxtb	r4, r4
1000a818:	2c00      	cmp	r4, #0
1000a81a:	dd16      	ble.n	1000a84a <vQueueWaitForMessageRestricted+0x6e>
1000a81c:	002e      	movs	r6, r5
1000a81e:	3624      	adds	r6, #36	; 0x24
1000a820:	e004      	b.n	1000a82c <vQueueWaitForMessageRestricted+0x50>
1000a822:	3c01      	subs	r4, #1
1000a824:	b2e2      	uxtb	r2, r4
1000a826:	b264      	sxtb	r4, r4
1000a828:	2a00      	cmp	r2, #0
1000a82a:	d00e      	beq.n	1000a84a <vQueueWaitForMessageRestricted+0x6e>
1000a82c:	6a6b      	ldr	r3, [r5, #36]	; 0x24
1000a82e:	2b00      	cmp	r3, #0
1000a830:	d00b      	beq.n	1000a84a <vQueueWaitForMessageRestricted+0x6e>
1000a832:	0030      	movs	r0, r6
1000a834:	f7fe f814 	bl	10008860 <xTaskRemoveFromEventList>
1000a838:	2800      	cmp	r0, #0
1000a83a:	d0f2      	beq.n	1000a822 <vQueueWaitForMessageRestricted+0x46>
1000a83c:	3c01      	subs	r4, #1
1000a83e:	f7fe f8fb 	bl	10008a38 <vTaskMissedYield>
1000a842:	b2e2      	uxtb	r2, r4
1000a844:	b264      	sxtb	r4, r4
1000a846:	2a00      	cmp	r2, #0
1000a848:	d1f0      	bne.n	1000a82c <vQueueWaitForMessageRestricted+0x50>
1000a84a:	2345      	movs	r3, #69	; 0x45
1000a84c:	22ff      	movs	r2, #255	; 0xff
1000a84e:	54ea      	strb	r2, [r5, r3]
1000a850:	f7fe fe6c 	bl	1000952c <vPortExitCritical>
1000a854:	f7fe fe5e 	bl	10009514 <vPortEnterCritical>
1000a858:	2344      	movs	r3, #68	; 0x44
1000a85a:	5cec      	ldrb	r4, [r5, r3]
1000a85c:	b264      	sxtb	r4, r4
1000a85e:	2c00      	cmp	r4, #0
1000a860:	dd16      	ble.n	1000a890 <vQueueWaitForMessageRestricted+0xb4>
1000a862:	002e      	movs	r6, r5
1000a864:	3610      	adds	r6, #16
1000a866:	e004      	b.n	1000a872 <vQueueWaitForMessageRestricted+0x96>
1000a868:	3c01      	subs	r4, #1
1000a86a:	b2e2      	uxtb	r2, r4
1000a86c:	b264      	sxtb	r4, r4
1000a86e:	2a00      	cmp	r2, #0
1000a870:	d00e      	beq.n	1000a890 <vQueueWaitForMessageRestricted+0xb4>
1000a872:	692b      	ldr	r3, [r5, #16]
1000a874:	2b00      	cmp	r3, #0
1000a876:	d00b      	beq.n	1000a890 <vQueueWaitForMessageRestricted+0xb4>
1000a878:	0030      	movs	r0, r6
1000a87a:	f7fd fff1 	bl	10008860 <xTaskRemoveFromEventList>
1000a87e:	2800      	cmp	r0, #0
1000a880:	d0f2      	beq.n	1000a868 <vQueueWaitForMessageRestricted+0x8c>
1000a882:	3c01      	subs	r4, #1
1000a884:	f7fe f8d8 	bl	10008a38 <vTaskMissedYield>
1000a888:	b2e2      	uxtb	r2, r4
1000a88a:	b264      	sxtb	r4, r4
1000a88c:	2a00      	cmp	r2, #0
1000a88e:	d1f0      	bne.n	1000a872 <vQueueWaitForMessageRestricted+0x96>
1000a890:	2344      	movs	r3, #68	; 0x44
1000a892:	22ff      	movs	r2, #255	; 0xff
1000a894:	54ea      	strb	r2, [r5, r3]
1000a896:	f7fe fe49 	bl	1000952c <vPortExitCritical>
1000a89a:	bd70      	pop	{r4, r5, r6, pc}
1000a89c:	0028      	movs	r0, r5
1000a89e:	0032      	movs	r2, r6
1000a8a0:	0021      	movs	r1, r4
1000a8a2:	3024      	adds	r0, #36	; 0x24
1000a8a4:	f7fd ff8e 	bl	100087c4 <vTaskPlaceOnEventListRestricted>
1000a8a8:	e7b1      	b.n	1000a80e <vQueueWaitForMessageRestricted+0x32>
1000a8aa:	46c0      	nop			; (mov r8, r8)

1000a8ac <malloc>:
1000a8ac:	b510      	push	{r4, lr}
1000a8ae:	4b03      	ldr	r3, [pc, #12]	; (1000a8bc <malloc+0x10>)
1000a8b0:	0001      	movs	r1, r0
1000a8b2:	6818      	ldr	r0, [r3, #0]
1000a8b4:	f000 f80e 	bl	1000a8d4 <_malloc_r>
1000a8b8:	bd10      	pop	{r4, pc}
1000a8ba:	46c0      	nop			; (mov r8, r8)
1000a8bc:	20000480 	.word	0x20000480

1000a8c0 <free>:
1000a8c0:	b510      	push	{r4, lr}
1000a8c2:	4b03      	ldr	r3, [pc, #12]	; (1000a8d0 <free+0x10>)
1000a8c4:	0001      	movs	r1, r0
1000a8c6:	6818      	ldr	r0, [r3, #0]
1000a8c8:	f000 fb50 	bl	1000af6c <_free_r>
1000a8cc:	bd10      	pop	{r4, pc}
1000a8ce:	46c0      	nop			; (mov r8, r8)
1000a8d0:	20000480 	.word	0x20000480

1000a8d4 <_malloc_r>:
1000a8d4:	b5f0      	push	{r4, r5, r6, r7, lr}
1000a8d6:	464e      	mov	r6, r9
1000a8d8:	4645      	mov	r5, r8
1000a8da:	46de      	mov	lr, fp
1000a8dc:	4657      	mov	r7, sl
1000a8de:	b5e0      	push	{r5, r6, r7, lr}
1000a8e0:	000d      	movs	r5, r1
1000a8e2:	350b      	adds	r5, #11
1000a8e4:	0006      	movs	r6, r0
1000a8e6:	b083      	sub	sp, #12
1000a8e8:	2d16      	cmp	r5, #22
1000a8ea:	d822      	bhi.n	1000a932 <_malloc_r+0x5e>
1000a8ec:	2910      	cmp	r1, #16
1000a8ee:	d900      	bls.n	1000a8f2 <_malloc_r+0x1e>
1000a8f0:	e0b2      	b.n	1000aa58 <_malloc_r+0x184>
1000a8f2:	f000 faa9 	bl	1000ae48 <__malloc_lock>
1000a8f6:	2510      	movs	r5, #16
1000a8f8:	2318      	movs	r3, #24
1000a8fa:	2002      	movs	r0, #2
1000a8fc:	4fcc      	ldr	r7, [pc, #816]	; (1000ac30 <_malloc_r+0x35c>)
1000a8fe:	18fb      	adds	r3, r7, r3
1000a900:	001a      	movs	r2, r3
1000a902:	685c      	ldr	r4, [r3, #4]
1000a904:	3a08      	subs	r2, #8
1000a906:	4294      	cmp	r4, r2
1000a908:	d100      	bne.n	1000a90c <_malloc_r+0x38>
1000a90a:	e0b5      	b.n	1000aa78 <_malloc_r+0x1a4>
1000a90c:	2303      	movs	r3, #3
1000a90e:	6862      	ldr	r2, [r4, #4]
1000a910:	439a      	bics	r2, r3
1000a912:	0013      	movs	r3, r2
1000a914:	68e2      	ldr	r2, [r4, #12]
1000a916:	68a1      	ldr	r1, [r4, #8]
1000a918:	60ca      	str	r2, [r1, #12]
1000a91a:	6091      	str	r1, [r2, #8]
1000a91c:	2201      	movs	r2, #1
1000a91e:	18e3      	adds	r3, r4, r3
1000a920:	6859      	ldr	r1, [r3, #4]
1000a922:	0030      	movs	r0, r6
1000a924:	430a      	orrs	r2, r1
1000a926:	605a      	str	r2, [r3, #4]
1000a928:	f000 fa90 	bl	1000ae4c <__malloc_unlock>
1000a92c:	0020      	movs	r0, r4
1000a92e:	3008      	adds	r0, #8
1000a930:	e095      	b.n	1000aa5e <_malloc_r+0x18a>
1000a932:	2307      	movs	r3, #7
1000a934:	439d      	bics	r5, r3
1000a936:	d500      	bpl.n	1000a93a <_malloc_r+0x66>
1000a938:	e08e      	b.n	1000aa58 <_malloc_r+0x184>
1000a93a:	42a9      	cmp	r1, r5
1000a93c:	d900      	bls.n	1000a940 <_malloc_r+0x6c>
1000a93e:	e08b      	b.n	1000aa58 <_malloc_r+0x184>
1000a940:	f000 fa82 	bl	1000ae48 <__malloc_lock>
1000a944:	23fc      	movs	r3, #252	; 0xfc
1000a946:	005b      	lsls	r3, r3, #1
1000a948:	429d      	cmp	r5, r3
1000a94a:	d200      	bcs.n	1000a94e <_malloc_r+0x7a>
1000a94c:	e1a1      	b.n	1000ac92 <_malloc_r+0x3be>
1000a94e:	0a68      	lsrs	r0, r5, #9
1000a950:	d100      	bne.n	1000a954 <_malloc_r+0x80>
1000a952:	e08b      	b.n	1000aa6c <_malloc_r+0x198>
1000a954:	2804      	cmp	r0, #4
1000a956:	d900      	bls.n	1000a95a <_malloc_r+0x86>
1000a958:	e174      	b.n	1000ac44 <_malloc_r+0x370>
1000a95a:	2338      	movs	r3, #56	; 0x38
1000a95c:	4698      	mov	r8, r3
1000a95e:	09a8      	lsrs	r0, r5, #6
1000a960:	4480      	add	r8, r0
1000a962:	3039      	adds	r0, #57	; 0x39
1000a964:	00c1      	lsls	r1, r0, #3
1000a966:	4fb2      	ldr	r7, [pc, #712]	; (1000ac30 <_malloc_r+0x35c>)
1000a968:	1879      	adds	r1, r7, r1
1000a96a:	684c      	ldr	r4, [r1, #4]
1000a96c:	3908      	subs	r1, #8
1000a96e:	42a1      	cmp	r1, r4
1000a970:	d00e      	beq.n	1000a990 <_malloc_r+0xbc>
1000a972:	2303      	movs	r3, #3
1000a974:	469c      	mov	ip, r3
1000a976:	e004      	b.n	1000a982 <_malloc_r+0xae>
1000a978:	2a00      	cmp	r2, #0
1000a97a:	dacb      	bge.n	1000a914 <_malloc_r+0x40>
1000a97c:	68e4      	ldr	r4, [r4, #12]
1000a97e:	42a1      	cmp	r1, r4
1000a980:	d006      	beq.n	1000a990 <_malloc_r+0xbc>
1000a982:	4662      	mov	r2, ip
1000a984:	6863      	ldr	r3, [r4, #4]
1000a986:	4393      	bics	r3, r2
1000a988:	1b5a      	subs	r2, r3, r5
1000a98a:	2a0f      	cmp	r2, #15
1000a98c:	ddf4      	ble.n	1000a978 <_malloc_r+0xa4>
1000a98e:	4640      	mov	r0, r8
1000a990:	003a      	movs	r2, r7
1000a992:	693c      	ldr	r4, [r7, #16]
1000a994:	3208      	adds	r2, #8
1000a996:	4294      	cmp	r4, r2
1000a998:	d100      	bne.n	1000a99c <_malloc_r+0xc8>
1000a99a:	e078      	b.n	1000aa8e <_malloc_r+0x1ba>
1000a99c:	2303      	movs	r3, #3
1000a99e:	6861      	ldr	r1, [r4, #4]
1000a9a0:	4399      	bics	r1, r3
1000a9a2:	4689      	mov	r9, r1
1000a9a4:	000b      	movs	r3, r1
1000a9a6:	1b49      	subs	r1, r1, r5
1000a9a8:	290f      	cmp	r1, #15
1000a9aa:	dd00      	ble.n	1000a9ae <_malloc_r+0xda>
1000a9ac:	e175      	b.n	1000ac9a <_malloc_r+0x3c6>
1000a9ae:	617a      	str	r2, [r7, #20]
1000a9b0:	613a      	str	r2, [r7, #16]
1000a9b2:	2900      	cmp	r1, #0
1000a9b4:	dab2      	bge.n	1000a91c <_malloc_r+0x48>
1000a9b6:	2280      	movs	r2, #128	; 0x80
1000a9b8:	0092      	lsls	r2, r2, #2
1000a9ba:	4591      	cmp	r9, r2
1000a9bc:	d300      	bcc.n	1000a9c0 <_malloc_r+0xec>
1000a9be:	e110      	b.n	1000abe2 <_malloc_r+0x30e>
1000a9c0:	0959      	lsrs	r1, r3, #5
1000a9c2:	08da      	lsrs	r2, r3, #3
1000a9c4:	2301      	movs	r3, #1
1000a9c6:	408b      	lsls	r3, r1
1000a9c8:	00d2      	lsls	r2, r2, #3
1000a9ca:	6879      	ldr	r1, [r7, #4]
1000a9cc:	19d2      	adds	r2, r2, r7
1000a9ce:	430b      	orrs	r3, r1
1000a9d0:	6891      	ldr	r1, [r2, #8]
1000a9d2:	607b      	str	r3, [r7, #4]
1000a9d4:	60e2      	str	r2, [r4, #12]
1000a9d6:	60a1      	str	r1, [r4, #8]
1000a9d8:	6094      	str	r4, [r2, #8]
1000a9da:	60cc      	str	r4, [r1, #12]
1000a9dc:	2101      	movs	r1, #1
1000a9de:	1082      	asrs	r2, r0, #2
1000a9e0:	4091      	lsls	r1, r2
1000a9e2:	4299      	cmp	r1, r3
1000a9e4:	d859      	bhi.n	1000aa9a <_malloc_r+0x1c6>
1000a9e6:	420b      	tst	r3, r1
1000a9e8:	d105      	bne.n	1000a9f6 <_malloc_r+0x122>
1000a9ea:	2203      	movs	r2, #3
1000a9ec:	4390      	bics	r0, r2
1000a9ee:	0049      	lsls	r1, r1, #1
1000a9f0:	3004      	adds	r0, #4
1000a9f2:	420b      	tst	r3, r1
1000a9f4:	d0fb      	beq.n	1000a9ee <_malloc_r+0x11a>
1000a9f6:	2303      	movs	r3, #3
1000a9f8:	4698      	mov	r8, r3
1000a9fa:	00c3      	lsls	r3, r0, #3
1000a9fc:	4699      	mov	r9, r3
1000a9fe:	44b9      	add	r9, r7
1000aa00:	46cc      	mov	ip, r9
1000aa02:	4682      	mov	sl, r0
1000aa04:	4663      	mov	r3, ip
1000aa06:	68dc      	ldr	r4, [r3, #12]
1000aa08:	45a4      	cmp	ip, r4
1000aa0a:	d107      	bne.n	1000aa1c <_malloc_r+0x148>
1000aa0c:	e126      	b.n	1000ac5c <_malloc_r+0x388>
1000aa0e:	2a00      	cmp	r2, #0
1000aa10:	db00      	blt.n	1000aa14 <_malloc_r+0x140>
1000aa12:	e12f      	b.n	1000ac74 <_malloc_r+0x3a0>
1000aa14:	68e4      	ldr	r4, [r4, #12]
1000aa16:	45a4      	cmp	ip, r4
1000aa18:	d100      	bne.n	1000aa1c <_malloc_r+0x148>
1000aa1a:	e11f      	b.n	1000ac5c <_malloc_r+0x388>
1000aa1c:	4642      	mov	r2, r8
1000aa1e:	6863      	ldr	r3, [r4, #4]
1000aa20:	4393      	bics	r3, r2
1000aa22:	1b5a      	subs	r2, r3, r5
1000aa24:	2a0f      	cmp	r2, #15
1000aa26:	ddf2      	ble.n	1000aa0e <_malloc_r+0x13a>
1000aa28:	2001      	movs	r0, #1
1000aa2a:	4680      	mov	r8, r0
1000aa2c:	1961      	adds	r1, r4, r5
1000aa2e:	4305      	orrs	r5, r0
1000aa30:	6065      	str	r5, [r4, #4]
1000aa32:	68a0      	ldr	r0, [r4, #8]
1000aa34:	68e5      	ldr	r5, [r4, #12]
1000aa36:	3708      	adds	r7, #8
1000aa38:	60c5      	str	r5, [r0, #12]
1000aa3a:	60a8      	str	r0, [r5, #8]
1000aa3c:	4640      	mov	r0, r8
1000aa3e:	4310      	orrs	r0, r2
1000aa40:	60f9      	str	r1, [r7, #12]
1000aa42:	60b9      	str	r1, [r7, #8]
1000aa44:	6048      	str	r0, [r1, #4]
1000aa46:	60cf      	str	r7, [r1, #12]
1000aa48:	0030      	movs	r0, r6
1000aa4a:	608f      	str	r7, [r1, #8]
1000aa4c:	50e2      	str	r2, [r4, r3]
1000aa4e:	f000 f9fd 	bl	1000ae4c <__malloc_unlock>
1000aa52:	0020      	movs	r0, r4
1000aa54:	3008      	adds	r0, #8
1000aa56:	e002      	b.n	1000aa5e <_malloc_r+0x18a>
1000aa58:	230c      	movs	r3, #12
1000aa5a:	2000      	movs	r0, #0
1000aa5c:	6033      	str	r3, [r6, #0]
1000aa5e:	b003      	add	sp, #12
1000aa60:	bcf0      	pop	{r4, r5, r6, r7}
1000aa62:	46bb      	mov	fp, r7
1000aa64:	46b2      	mov	sl, r6
1000aa66:	46a9      	mov	r9, r5
1000aa68:	46a0      	mov	r8, r4
1000aa6a:	bdf0      	pop	{r4, r5, r6, r7, pc}
1000aa6c:	2180      	movs	r1, #128	; 0x80
1000aa6e:	233f      	movs	r3, #63	; 0x3f
1000aa70:	2040      	movs	r0, #64	; 0x40
1000aa72:	4698      	mov	r8, r3
1000aa74:	0089      	lsls	r1, r1, #2
1000aa76:	e776      	b.n	1000a966 <_malloc_r+0x92>
1000aa78:	68dc      	ldr	r4, [r3, #12]
1000aa7a:	3002      	adds	r0, #2
1000aa7c:	42a3      	cmp	r3, r4
1000aa7e:	d000      	beq.n	1000aa82 <_malloc_r+0x1ae>
1000aa80:	e744      	b.n	1000a90c <_malloc_r+0x38>
1000aa82:	003a      	movs	r2, r7
1000aa84:	693c      	ldr	r4, [r7, #16]
1000aa86:	3208      	adds	r2, #8
1000aa88:	4294      	cmp	r4, r2
1000aa8a:	d000      	beq.n	1000aa8e <_malloc_r+0x1ba>
1000aa8c:	e786      	b.n	1000a99c <_malloc_r+0xc8>
1000aa8e:	2101      	movs	r1, #1
1000aa90:	687b      	ldr	r3, [r7, #4]
1000aa92:	1082      	asrs	r2, r0, #2
1000aa94:	4091      	lsls	r1, r2
1000aa96:	4299      	cmp	r1, r3
1000aa98:	d9a5      	bls.n	1000a9e6 <_malloc_r+0x112>
1000aa9a:	2303      	movs	r3, #3
1000aa9c:	68bc      	ldr	r4, [r7, #8]
1000aa9e:	6862      	ldr	r2, [r4, #4]
1000aaa0:	439a      	bics	r2, r3
1000aaa2:	4691      	mov	r9, r2
1000aaa4:	4295      	cmp	r5, r2
1000aaa6:	d803      	bhi.n	1000aab0 <_malloc_r+0x1dc>
1000aaa8:	1b53      	subs	r3, r2, r5
1000aaaa:	2b0f      	cmp	r3, #15
1000aaac:	dd00      	ble.n	1000aab0 <_malloc_r+0x1dc>
1000aaae:	e08a      	b.n	1000abc6 <_malloc_r+0x2f2>
1000aab0:	0023      	movs	r3, r4
1000aab2:	444b      	add	r3, r9
1000aab4:	4a5f      	ldr	r2, [pc, #380]	; (1000ac34 <_malloc_r+0x360>)
1000aab6:	9301      	str	r3, [sp, #4]
1000aab8:	4b5f      	ldr	r3, [pc, #380]	; (1000ac38 <_malloc_r+0x364>)
1000aaba:	4693      	mov	fp, r2
1000aabc:	469a      	mov	sl, r3
1000aabe:	6812      	ldr	r2, [r2, #0]
1000aac0:	681b      	ldr	r3, [r3, #0]
1000aac2:	18eb      	adds	r3, r5, r3
1000aac4:	3201      	adds	r2, #1
1000aac6:	d100      	bne.n	1000aaca <_malloc_r+0x1f6>
1000aac8:	e136      	b.n	1000ad38 <_malloc_r+0x464>
1000aaca:	4a5c      	ldr	r2, [pc, #368]	; (1000ac3c <_malloc_r+0x368>)
1000aacc:	4694      	mov	ip, r2
1000aace:	4463      	add	r3, ip
1000aad0:	0b1b      	lsrs	r3, r3, #12
1000aad2:	031b      	lsls	r3, r3, #12
1000aad4:	9300      	str	r3, [sp, #0]
1000aad6:	0030      	movs	r0, r6
1000aad8:	9900      	ldr	r1, [sp, #0]
1000aada:	f000 f9b9 	bl	1000ae50 <_sbrk_r>
1000aade:	0003      	movs	r3, r0
1000aae0:	4680      	mov	r8, r0
1000aae2:	3301      	adds	r3, #1
1000aae4:	d100      	bne.n	1000aae8 <_malloc_r+0x214>
1000aae6:	e0f3      	b.n	1000acd0 <_malloc_r+0x3fc>
1000aae8:	9b01      	ldr	r3, [sp, #4]
1000aaea:	4283      	cmp	r3, r0
1000aaec:	d900      	bls.n	1000aaf0 <_malloc_r+0x21c>
1000aaee:	e0ed      	b.n	1000accc <_malloc_r+0x3f8>
1000aaf0:	4652      	mov	r2, sl
1000aaf2:	9800      	ldr	r0, [sp, #0]
1000aaf4:	6852      	ldr	r2, [r2, #4]
1000aaf6:	0003      	movs	r3, r0
1000aaf8:	4694      	mov	ip, r2
1000aafa:	4651      	mov	r1, sl
1000aafc:	4463      	add	r3, ip
1000aafe:	604b      	str	r3, [r1, #4]
1000ab00:	9901      	ldr	r1, [sp, #4]
1000ab02:	001a      	movs	r2, r3
1000ab04:	4541      	cmp	r1, r8
1000ab06:	d100      	bne.n	1000ab0a <_malloc_r+0x236>
1000ab08:	e14b      	b.n	1000ada2 <_malloc_r+0x4ce>
1000ab0a:	465b      	mov	r3, fp
1000ab0c:	681b      	ldr	r3, [r3, #0]
1000ab0e:	3301      	adds	r3, #1
1000ab10:	d100      	bne.n	1000ab14 <_malloc_r+0x240>
1000ab12:	e150      	b.n	1000adb6 <_malloc_r+0x4e2>
1000ab14:	4643      	mov	r3, r8
1000ab16:	9901      	ldr	r1, [sp, #4]
1000ab18:	1a5b      	subs	r3, r3, r1
1000ab1a:	189a      	adds	r2, r3, r2
1000ab1c:	4653      	mov	r3, sl
1000ab1e:	605a      	str	r2, [r3, #4]
1000ab20:	2307      	movs	r3, #7
1000ab22:	4642      	mov	r2, r8
1000ab24:	4641      	mov	r1, r8
1000ab26:	401a      	ands	r2, r3
1000ab28:	9201      	str	r2, [sp, #4]
1000ab2a:	4219      	tst	r1, r3
1000ab2c:	d100      	bne.n	1000ab30 <_malloc_r+0x25c>
1000ab2e:	e10d      	b.n	1000ad4c <_malloc_r+0x478>
1000ab30:	2308      	movs	r3, #8
1000ab32:	4698      	mov	r8, r3
1000ab34:	1a88      	subs	r0, r1, r2
1000ab36:	4b42      	ldr	r3, [pc, #264]	; (1000ac40 <_malloc_r+0x36c>)
1000ab38:	9900      	ldr	r1, [sp, #0]
1000ab3a:	4480      	add	r8, r0
1000ab3c:	4441      	add	r1, r8
1000ab3e:	1a9b      	subs	r3, r3, r2
1000ab40:	1a5b      	subs	r3, r3, r1
1000ab42:	051b      	lsls	r3, r3, #20
1000ab44:	0d1b      	lsrs	r3, r3, #20
1000ab46:	9100      	str	r1, [sp, #0]
1000ab48:	0030      	movs	r0, r6
1000ab4a:	0019      	movs	r1, r3
1000ab4c:	469b      	mov	fp, r3
1000ab4e:	f000 f97f 	bl	1000ae50 <_sbrk_r>
1000ab52:	1c43      	adds	r3, r0, #1
1000ab54:	d100      	bne.n	1000ab58 <_malloc_r+0x284>
1000ab56:	e14a      	b.n	1000adee <_malloc_r+0x51a>
1000ab58:	4643      	mov	r3, r8
1000ab5a:	1ac0      	subs	r0, r0, r3
1000ab5c:	0003      	movs	r3, r0
1000ab5e:	445b      	add	r3, fp
1000ab60:	9300      	str	r3, [sp, #0]
1000ab62:	4653      	mov	r3, sl
1000ab64:	4652      	mov	r2, sl
1000ab66:	685b      	ldr	r3, [r3, #4]
1000ab68:	2101      	movs	r1, #1
1000ab6a:	445b      	add	r3, fp
1000ab6c:	6053      	str	r3, [r2, #4]
1000ab6e:	4642      	mov	r2, r8
1000ab70:	4640      	mov	r0, r8
1000ab72:	60ba      	str	r2, [r7, #8]
1000ab74:	9a00      	ldr	r2, [sp, #0]
1000ab76:	430a      	orrs	r2, r1
1000ab78:	6042      	str	r2, [r0, #4]
1000ab7a:	42bc      	cmp	r4, r7
1000ab7c:	d100      	bne.n	1000ab80 <_malloc_r+0x2ac>
1000ab7e:	e11e      	b.n	1000adbe <_malloc_r+0x4ea>
1000ab80:	464a      	mov	r2, r9
1000ab82:	2a0f      	cmp	r2, #15
1000ab84:	d800      	bhi.n	1000ab88 <_malloc_r+0x2b4>
1000ab86:	e11c      	b.n	1000adc2 <_malloc_r+0x4ee>
1000ab88:	2007      	movs	r0, #7
1000ab8a:	3a0c      	subs	r2, #12
1000ab8c:	4382      	bics	r2, r0
1000ab8e:	6860      	ldr	r0, [r4, #4]
1000ab90:	4001      	ands	r1, r0
1000ab92:	2005      	movs	r0, #5
1000ab94:	4311      	orrs	r1, r2
1000ab96:	6061      	str	r1, [r4, #4]
1000ab98:	18a1      	adds	r1, r4, r2
1000ab9a:	6048      	str	r0, [r1, #4]
1000ab9c:	6088      	str	r0, [r1, #8]
1000ab9e:	2a0f      	cmp	r2, #15
1000aba0:	d900      	bls.n	1000aba4 <_malloc_r+0x2d0>
1000aba2:	e12f      	b.n	1000ae04 <_malloc_r+0x530>
1000aba4:	4642      	mov	r2, r8
1000aba6:	4644      	mov	r4, r8
1000aba8:	6852      	ldr	r2, [r2, #4]
1000abaa:	4651      	mov	r1, sl
1000abac:	6ac9      	ldr	r1, [r1, #44]	; 0x2c
1000abae:	4299      	cmp	r1, r3
1000abb0:	d201      	bcs.n	1000abb6 <_malloc_r+0x2e2>
1000abb2:	4651      	mov	r1, sl
1000abb4:	62cb      	str	r3, [r1, #44]	; 0x2c
1000abb6:	4651      	mov	r1, sl
1000abb8:	6b09      	ldr	r1, [r1, #48]	; 0x30
1000abba:	4299      	cmp	r1, r3
1000abbc:	d300      	bcc.n	1000abc0 <_malloc_r+0x2ec>
1000abbe:	e089      	b.n	1000acd4 <_malloc_r+0x400>
1000abc0:	4651      	mov	r1, sl
1000abc2:	630b      	str	r3, [r1, #48]	; 0x30
1000abc4:	e086      	b.n	1000acd4 <_malloc_r+0x400>
1000abc6:	2201      	movs	r2, #1
1000abc8:	0029      	movs	r1, r5
1000abca:	4313      	orrs	r3, r2
1000abcc:	4311      	orrs	r1, r2
1000abce:	1965      	adds	r5, r4, r5
1000abd0:	6061      	str	r1, [r4, #4]
1000abd2:	0030      	movs	r0, r6
1000abd4:	60bd      	str	r5, [r7, #8]
1000abd6:	606b      	str	r3, [r5, #4]
1000abd8:	f000 f938 	bl	1000ae4c <__malloc_unlock>
1000abdc:	0020      	movs	r0, r4
1000abde:	3008      	adds	r0, #8
1000abe0:	e73d      	b.n	1000aa5e <_malloc_r+0x18a>
1000abe2:	0a5a      	lsrs	r2, r3, #9
1000abe4:	2a04      	cmp	r2, #4
1000abe6:	d96b      	bls.n	1000acc0 <_malloc_r+0x3ec>
1000abe8:	2a14      	cmp	r2, #20
1000abea:	d900      	bls.n	1000abee <_malloc_r+0x31a>
1000abec:	e0be      	b.n	1000ad6c <_malloc_r+0x498>
1000abee:	0011      	movs	r1, r2
1000abf0:	325c      	adds	r2, #92	; 0x5c
1000abf2:	315b      	adds	r1, #91	; 0x5b
1000abf4:	00d2      	lsls	r2, r2, #3
1000abf6:	2308      	movs	r3, #8
1000abf8:	425b      	negs	r3, r3
1000abfa:	469c      	mov	ip, r3
1000abfc:	18ba      	adds	r2, r7, r2
1000abfe:	4494      	add	ip, r2
1000ac00:	4663      	mov	r3, ip
1000ac02:	689a      	ldr	r2, [r3, #8]
1000ac04:	2303      	movs	r3, #3
1000ac06:	4698      	mov	r8, r3
1000ac08:	4594      	cmp	ip, r2
1000ac0a:	d100      	bne.n	1000ac0e <_malloc_r+0x33a>
1000ac0c:	e097      	b.n	1000ad3e <_malloc_r+0x46a>
1000ac0e:	4643      	mov	r3, r8
1000ac10:	6851      	ldr	r1, [r2, #4]
1000ac12:	4399      	bics	r1, r3
1000ac14:	4549      	cmp	r1, r9
1000ac16:	d902      	bls.n	1000ac1e <_malloc_r+0x34a>
1000ac18:	6892      	ldr	r2, [r2, #8]
1000ac1a:	4594      	cmp	ip, r2
1000ac1c:	d1f7      	bne.n	1000ac0e <_malloc_r+0x33a>
1000ac1e:	68d3      	ldr	r3, [r2, #12]
1000ac20:	469c      	mov	ip, r3
1000ac22:	687b      	ldr	r3, [r7, #4]
1000ac24:	4661      	mov	r1, ip
1000ac26:	60a2      	str	r2, [r4, #8]
1000ac28:	60e1      	str	r1, [r4, #12]
1000ac2a:	608c      	str	r4, [r1, #8]
1000ac2c:	60d4      	str	r4, [r2, #12]
1000ac2e:	e6d5      	b.n	1000a9dc <_malloc_r+0x108>
1000ac30:	200008b8 	.word	0x200008b8
1000ac34:	200008b0 	.word	0x200008b0
1000ac38:	20001194 	.word	0x20001194
1000ac3c:	0000100f 	.word	0x0000100f
1000ac40:	00001008 	.word	0x00001008
1000ac44:	2814      	cmp	r0, #20
1000ac46:	d952      	bls.n	1000acee <_malloc_r+0x41a>
1000ac48:	2854      	cmp	r0, #84	; 0x54
1000ac4a:	d900      	bls.n	1000ac4e <_malloc_r+0x37a>
1000ac4c:	e096      	b.n	1000ad7c <_malloc_r+0x4a8>
1000ac4e:	236e      	movs	r3, #110	; 0x6e
1000ac50:	4698      	mov	r8, r3
1000ac52:	0b28      	lsrs	r0, r5, #12
1000ac54:	4480      	add	r8, r0
1000ac56:	306f      	adds	r0, #111	; 0x6f
1000ac58:	00c1      	lsls	r1, r0, #3
1000ac5a:	e684      	b.n	1000a966 <_malloc_r+0x92>
1000ac5c:	2308      	movs	r3, #8
1000ac5e:	469b      	mov	fp, r3
1000ac60:	3b07      	subs	r3, #7
1000ac62:	44dc      	add	ip, fp
1000ac64:	469b      	mov	fp, r3
1000ac66:	44da      	add	sl, fp
1000ac68:	4643      	mov	r3, r8
1000ac6a:	4652      	mov	r2, sl
1000ac6c:	4213      	tst	r3, r2
1000ac6e:	d000      	beq.n	1000ac72 <_malloc_r+0x39e>
1000ac70:	e6c8      	b.n	1000aa04 <_malloc_r+0x130>
1000ac72:	e04c      	b.n	1000ad0e <_malloc_r+0x43a>
1000ac74:	2201      	movs	r2, #1
1000ac76:	18e3      	adds	r3, r4, r3
1000ac78:	6859      	ldr	r1, [r3, #4]
1000ac7a:	0030      	movs	r0, r6
1000ac7c:	430a      	orrs	r2, r1
1000ac7e:	605a      	str	r2, [r3, #4]
1000ac80:	68e3      	ldr	r3, [r4, #12]
1000ac82:	68a2      	ldr	r2, [r4, #8]
1000ac84:	60d3      	str	r3, [r2, #12]
1000ac86:	609a      	str	r2, [r3, #8]
1000ac88:	f000 f8e0 	bl	1000ae4c <__malloc_unlock>
1000ac8c:	0020      	movs	r0, r4
1000ac8e:	3008      	adds	r0, #8
1000ac90:	e6e5      	b.n	1000aa5e <_malloc_r+0x18a>
1000ac92:	002b      	movs	r3, r5
1000ac94:	08e8      	lsrs	r0, r5, #3
1000ac96:	3308      	adds	r3, #8
1000ac98:	e630      	b.n	1000a8fc <_malloc_r+0x28>
1000ac9a:	2301      	movs	r3, #1
1000ac9c:	1960      	adds	r0, r4, r5
1000ac9e:	431d      	orrs	r5, r3
1000aca0:	6065      	str	r5, [r4, #4]
1000aca2:	6178      	str	r0, [r7, #20]
1000aca4:	6138      	str	r0, [r7, #16]
1000aca6:	60c2      	str	r2, [r0, #12]
1000aca8:	6082      	str	r2, [r0, #8]
1000acaa:	001a      	movs	r2, r3
1000acac:	464b      	mov	r3, r9
1000acae:	430a      	orrs	r2, r1
1000acb0:	6042      	str	r2, [r0, #4]
1000acb2:	0030      	movs	r0, r6
1000acb4:	50e1      	str	r1, [r4, r3]
1000acb6:	f000 f8c9 	bl	1000ae4c <__malloc_unlock>
1000acba:	0020      	movs	r0, r4
1000acbc:	3008      	adds	r0, #8
1000acbe:	e6ce      	b.n	1000aa5e <_malloc_r+0x18a>
1000acc0:	099a      	lsrs	r2, r3, #6
1000acc2:	0011      	movs	r1, r2
1000acc4:	3239      	adds	r2, #57	; 0x39
1000acc6:	3138      	adds	r1, #56	; 0x38
1000acc8:	00d2      	lsls	r2, r2, #3
1000acca:	e794      	b.n	1000abf6 <_malloc_r+0x322>
1000accc:	42bc      	cmp	r4, r7
1000acce:	d060      	beq.n	1000ad92 <_malloc_r+0x4be>
1000acd0:	68bc      	ldr	r4, [r7, #8]
1000acd2:	6862      	ldr	r2, [r4, #4]
1000acd4:	2303      	movs	r3, #3
1000acd6:	439a      	bics	r2, r3
1000acd8:	1b53      	subs	r3, r2, r5
1000acda:	4295      	cmp	r5, r2
1000acdc:	d802      	bhi.n	1000ace4 <_malloc_r+0x410>
1000acde:	2b0f      	cmp	r3, #15
1000ace0:	dd00      	ble.n	1000ace4 <_malloc_r+0x410>
1000ace2:	e770      	b.n	1000abc6 <_malloc_r+0x2f2>
1000ace4:	0030      	movs	r0, r6
1000ace6:	f000 f8b1 	bl	1000ae4c <__malloc_unlock>
1000acea:	2000      	movs	r0, #0
1000acec:	e6b7      	b.n	1000aa5e <_malloc_r+0x18a>
1000acee:	235b      	movs	r3, #91	; 0x5b
1000acf0:	4698      	mov	r8, r3
1000acf2:	4480      	add	r8, r0
1000acf4:	305c      	adds	r0, #92	; 0x5c
1000acf6:	00c1      	lsls	r1, r0, #3
1000acf8:	e635      	b.n	1000a966 <_malloc_r+0x92>
1000acfa:	2308      	movs	r3, #8
1000acfc:	425b      	negs	r3, r3
1000acfe:	469c      	mov	ip, r3
1000ad00:	44e1      	add	r9, ip
1000ad02:	464b      	mov	r3, r9
1000ad04:	689b      	ldr	r3, [r3, #8]
1000ad06:	3801      	subs	r0, #1
1000ad08:	454b      	cmp	r3, r9
1000ad0a:	d000      	beq.n	1000ad0e <_malloc_r+0x43a>
1000ad0c:	e097      	b.n	1000ae3e <_malloc_r+0x56a>
1000ad0e:	4643      	mov	r3, r8
1000ad10:	4203      	tst	r3, r0
1000ad12:	d1f2      	bne.n	1000acfa <_malloc_r+0x426>
1000ad14:	687b      	ldr	r3, [r7, #4]
1000ad16:	438b      	bics	r3, r1
1000ad18:	607b      	str	r3, [r7, #4]
1000ad1a:	0049      	lsls	r1, r1, #1
1000ad1c:	4299      	cmp	r1, r3
1000ad1e:	d900      	bls.n	1000ad22 <_malloc_r+0x44e>
1000ad20:	e6bb      	b.n	1000aa9a <_malloc_r+0x1c6>
1000ad22:	2900      	cmp	r1, #0
1000ad24:	d104      	bne.n	1000ad30 <_malloc_r+0x45c>
1000ad26:	e6b8      	b.n	1000aa9a <_malloc_r+0x1c6>
1000ad28:	2204      	movs	r2, #4
1000ad2a:	4694      	mov	ip, r2
1000ad2c:	0049      	lsls	r1, r1, #1
1000ad2e:	44e2      	add	sl, ip
1000ad30:	420b      	tst	r3, r1
1000ad32:	d0f9      	beq.n	1000ad28 <_malloc_r+0x454>
1000ad34:	4650      	mov	r0, sl
1000ad36:	e660      	b.n	1000a9fa <_malloc_r+0x126>
1000ad38:	3310      	adds	r3, #16
1000ad3a:	9300      	str	r3, [sp, #0]
1000ad3c:	e6cb      	b.n	1000aad6 <_malloc_r+0x202>
1000ad3e:	1089      	asrs	r1, r1, #2
1000ad40:	3b02      	subs	r3, #2
1000ad42:	408b      	lsls	r3, r1
1000ad44:	6879      	ldr	r1, [r7, #4]
1000ad46:	430b      	orrs	r3, r1
1000ad48:	607b      	str	r3, [r7, #4]
1000ad4a:	e76b      	b.n	1000ac24 <_malloc_r+0x350>
1000ad4c:	9b00      	ldr	r3, [sp, #0]
1000ad4e:	0030      	movs	r0, r6
1000ad50:	4443      	add	r3, r8
1000ad52:	425b      	negs	r3, r3
1000ad54:	051b      	lsls	r3, r3, #20
1000ad56:	0d1b      	lsrs	r3, r3, #20
1000ad58:	0019      	movs	r1, r3
1000ad5a:	469b      	mov	fp, r3
1000ad5c:	f000 f878 	bl	1000ae50 <_sbrk_r>
1000ad60:	1c43      	adds	r3, r0, #1
1000ad62:	d000      	beq.n	1000ad66 <_malloc_r+0x492>
1000ad64:	e6f8      	b.n	1000ab58 <_malloc_r+0x284>
1000ad66:	2300      	movs	r3, #0
1000ad68:	469b      	mov	fp, r3
1000ad6a:	e6fa      	b.n	1000ab62 <_malloc_r+0x28e>
1000ad6c:	2a54      	cmp	r2, #84	; 0x54
1000ad6e:	d82a      	bhi.n	1000adc6 <_malloc_r+0x4f2>
1000ad70:	0b1a      	lsrs	r2, r3, #12
1000ad72:	0011      	movs	r1, r2
1000ad74:	326f      	adds	r2, #111	; 0x6f
1000ad76:	316e      	adds	r1, #110	; 0x6e
1000ad78:	00d2      	lsls	r2, r2, #3
1000ad7a:	e73c      	b.n	1000abf6 <_malloc_r+0x322>
1000ad7c:	23aa      	movs	r3, #170	; 0xaa
1000ad7e:	005b      	lsls	r3, r3, #1
1000ad80:	4298      	cmp	r0, r3
1000ad82:	d82a      	bhi.n	1000adda <_malloc_r+0x506>
1000ad84:	3bdd      	subs	r3, #221	; 0xdd
1000ad86:	4698      	mov	r8, r3
1000ad88:	0be8      	lsrs	r0, r5, #15
1000ad8a:	4480      	add	r8, r0
1000ad8c:	3078      	adds	r0, #120	; 0x78
1000ad8e:	00c1      	lsls	r1, r0, #3
1000ad90:	e5e9      	b.n	1000a966 <_malloc_r+0x92>
1000ad92:	4653      	mov	r3, sl
1000ad94:	685b      	ldr	r3, [r3, #4]
1000ad96:	9a00      	ldr	r2, [sp, #0]
1000ad98:	469c      	mov	ip, r3
1000ad9a:	4653      	mov	r3, sl
1000ad9c:	4462      	add	r2, ip
1000ad9e:	605a      	str	r2, [r3, #4]
1000ada0:	e6b3      	b.n	1000ab0a <_malloc_r+0x236>
1000ada2:	0509      	lsls	r1, r1, #20
1000ada4:	d000      	beq.n	1000ada8 <_malloc_r+0x4d4>
1000ada6:	e6b0      	b.n	1000ab0a <_malloc_r+0x236>
1000ada8:	0002      	movs	r2, r0
1000adaa:	68bc      	ldr	r4, [r7, #8]
1000adac:	444a      	add	r2, r9
1000adae:	3101      	adds	r1, #1
1000adb0:	430a      	orrs	r2, r1
1000adb2:	6062      	str	r2, [r4, #4]
1000adb4:	e6f9      	b.n	1000abaa <_malloc_r+0x2d6>
1000adb6:	465b      	mov	r3, fp
1000adb8:	4642      	mov	r2, r8
1000adba:	601a      	str	r2, [r3, #0]
1000adbc:	e6b0      	b.n	1000ab20 <_malloc_r+0x24c>
1000adbe:	4644      	mov	r4, r8
1000adc0:	e6f3      	b.n	1000abaa <_malloc_r+0x2d6>
1000adc2:	6041      	str	r1, [r0, #4]
1000adc4:	e78e      	b.n	1000ace4 <_malloc_r+0x410>
1000adc6:	21aa      	movs	r1, #170	; 0xaa
1000adc8:	0049      	lsls	r1, r1, #1
1000adca:	428a      	cmp	r2, r1
1000adcc:	d824      	bhi.n	1000ae18 <_malloc_r+0x544>
1000adce:	0bda      	lsrs	r2, r3, #15
1000add0:	0011      	movs	r1, r2
1000add2:	3278      	adds	r2, #120	; 0x78
1000add4:	3177      	adds	r1, #119	; 0x77
1000add6:	00d2      	lsls	r2, r2, #3
1000add8:	e70d      	b.n	1000abf6 <_malloc_r+0x322>
1000adda:	4b1a      	ldr	r3, [pc, #104]	; (1000ae44 <_malloc_r+0x570>)
1000addc:	4298      	cmp	r0, r3
1000adde:	d824      	bhi.n	1000ae2a <_malloc_r+0x556>
1000ade0:	237c      	movs	r3, #124	; 0x7c
1000ade2:	4698      	mov	r8, r3
1000ade4:	0ca8      	lsrs	r0, r5, #18
1000ade6:	4480      	add	r8, r0
1000ade8:	307d      	adds	r0, #125	; 0x7d
1000adea:	00c1      	lsls	r1, r0, #3
1000adec:	e5bb      	b.n	1000a966 <_malloc_r+0x92>
1000adee:	9a00      	ldr	r2, [sp, #0]
1000adf0:	9b01      	ldr	r3, [sp, #4]
1000adf2:	4694      	mov	ip, r2
1000adf4:	4642      	mov	r2, r8
1000adf6:	3b08      	subs	r3, #8
1000adf8:	4463      	add	r3, ip
1000adfa:	1a9b      	subs	r3, r3, r2
1000adfc:	9300      	str	r3, [sp, #0]
1000adfe:	2300      	movs	r3, #0
1000ae00:	469b      	mov	fp, r3
1000ae02:	e6ae      	b.n	1000ab62 <_malloc_r+0x28e>
1000ae04:	0021      	movs	r1, r4
1000ae06:	0030      	movs	r0, r6
1000ae08:	3108      	adds	r1, #8
1000ae0a:	f000 f8af 	bl	1000af6c <_free_r>
1000ae0e:	4653      	mov	r3, sl
1000ae10:	68bc      	ldr	r4, [r7, #8]
1000ae12:	685b      	ldr	r3, [r3, #4]
1000ae14:	6862      	ldr	r2, [r4, #4]
1000ae16:	e6c8      	b.n	1000abaa <_malloc_r+0x2d6>
1000ae18:	490a      	ldr	r1, [pc, #40]	; (1000ae44 <_malloc_r+0x570>)
1000ae1a:	428a      	cmp	r2, r1
1000ae1c:	d80b      	bhi.n	1000ae36 <_malloc_r+0x562>
1000ae1e:	0c9a      	lsrs	r2, r3, #18
1000ae20:	0011      	movs	r1, r2
1000ae22:	327d      	adds	r2, #125	; 0x7d
1000ae24:	317c      	adds	r1, #124	; 0x7c
1000ae26:	00d2      	lsls	r2, r2, #3
1000ae28:	e6e5      	b.n	1000abf6 <_malloc_r+0x322>
1000ae2a:	21fe      	movs	r1, #254	; 0xfe
1000ae2c:	237e      	movs	r3, #126	; 0x7e
1000ae2e:	207f      	movs	r0, #127	; 0x7f
1000ae30:	4698      	mov	r8, r3
1000ae32:	0089      	lsls	r1, r1, #2
1000ae34:	e597      	b.n	1000a966 <_malloc_r+0x92>
1000ae36:	22fe      	movs	r2, #254	; 0xfe
1000ae38:	217e      	movs	r1, #126	; 0x7e
1000ae3a:	0092      	lsls	r2, r2, #2
1000ae3c:	e6db      	b.n	1000abf6 <_malloc_r+0x322>
1000ae3e:	687b      	ldr	r3, [r7, #4]
1000ae40:	e76b      	b.n	1000ad1a <_malloc_r+0x446>
1000ae42:	46c0      	nop			; (mov r8, r8)
1000ae44:	00000554 	.word	0x00000554

1000ae48 <__malloc_lock>:
1000ae48:	4770      	bx	lr
1000ae4a:	46c0      	nop			; (mov r8, r8)

1000ae4c <__malloc_unlock>:
1000ae4c:	4770      	bx	lr
1000ae4e:	46c0      	nop			; (mov r8, r8)

1000ae50 <_sbrk_r>:
1000ae50:	2300      	movs	r3, #0
1000ae52:	b570      	push	{r4, r5, r6, lr}
1000ae54:	4d06      	ldr	r5, [pc, #24]	; (1000ae70 <_sbrk_r+0x20>)
1000ae56:	0004      	movs	r4, r0
1000ae58:	0008      	movs	r0, r1
1000ae5a:	602b      	str	r3, [r5, #0]
1000ae5c:	f7f7 f862 	bl	10001f24 <_sbrk>
1000ae60:	1c43      	adds	r3, r0, #1
1000ae62:	d000      	beq.n	1000ae66 <_sbrk_r+0x16>
1000ae64:	bd70      	pop	{r4, r5, r6, pc}
1000ae66:	682b      	ldr	r3, [r5, #0]
1000ae68:	2b00      	cmp	r3, #0
1000ae6a:	d0fb      	beq.n	1000ae64 <_sbrk_r+0x14>
1000ae6c:	6023      	str	r3, [r4, #0]
1000ae6e:	e7f9      	b.n	1000ae64 <_sbrk_r+0x14>
1000ae70:	200011c8 	.word	0x200011c8

1000ae74 <strlen>:
1000ae74:	b510      	push	{r4, lr}
1000ae76:	0783      	lsls	r3, r0, #30
1000ae78:	d00a      	beq.n	1000ae90 <strlen+0x1c>
1000ae7a:	0003      	movs	r3, r0
1000ae7c:	2103      	movs	r1, #3
1000ae7e:	e002      	b.n	1000ae86 <strlen+0x12>
1000ae80:	3301      	adds	r3, #1
1000ae82:	420b      	tst	r3, r1
1000ae84:	d005      	beq.n	1000ae92 <strlen+0x1e>
1000ae86:	781a      	ldrb	r2, [r3, #0]
1000ae88:	2a00      	cmp	r2, #0
1000ae8a:	d1f9      	bne.n	1000ae80 <strlen+0xc>
1000ae8c:	1a18      	subs	r0, r3, r0
1000ae8e:	bd10      	pop	{r4, pc}
1000ae90:	0003      	movs	r3, r0
1000ae92:	6819      	ldr	r1, [r3, #0]
1000ae94:	4a0c      	ldr	r2, [pc, #48]	; (1000aec8 <strlen+0x54>)
1000ae96:	4c0d      	ldr	r4, [pc, #52]	; (1000aecc <strlen+0x58>)
1000ae98:	188a      	adds	r2, r1, r2
1000ae9a:	438a      	bics	r2, r1
1000ae9c:	4222      	tst	r2, r4
1000ae9e:	d10f      	bne.n	1000aec0 <strlen+0x4c>
1000aea0:	6859      	ldr	r1, [r3, #4]
1000aea2:	4a09      	ldr	r2, [pc, #36]	; (1000aec8 <strlen+0x54>)
1000aea4:	3304      	adds	r3, #4
1000aea6:	188a      	adds	r2, r1, r2
1000aea8:	438a      	bics	r2, r1
1000aeaa:	4222      	tst	r2, r4
1000aeac:	d108      	bne.n	1000aec0 <strlen+0x4c>
1000aeae:	6859      	ldr	r1, [r3, #4]
1000aeb0:	4a05      	ldr	r2, [pc, #20]	; (1000aec8 <strlen+0x54>)
1000aeb2:	3304      	adds	r3, #4
1000aeb4:	188a      	adds	r2, r1, r2
1000aeb6:	438a      	bics	r2, r1
1000aeb8:	4222      	tst	r2, r4
1000aeba:	d0f1      	beq.n	1000aea0 <strlen+0x2c>
1000aebc:	e000      	b.n	1000aec0 <strlen+0x4c>
1000aebe:	3301      	adds	r3, #1
1000aec0:	781a      	ldrb	r2, [r3, #0]
1000aec2:	2a00      	cmp	r2, #0
1000aec4:	d1fb      	bne.n	1000aebe <strlen+0x4a>
1000aec6:	e7e1      	b.n	1000ae8c <strlen+0x18>
1000aec8:	fefefeff 	.word	0xfefefeff
1000aecc:	80808080 	.word	0x80808080

1000aed0 <_malloc_trim_r>:
1000aed0:	b5f8      	push	{r3, r4, r5, r6, r7, lr}
1000aed2:	000c      	movs	r4, r1
1000aed4:	0005      	movs	r5, r0
1000aed6:	f7ff ffb7 	bl	1000ae48 <__malloc_lock>
1000aeda:	4f20      	ldr	r7, [pc, #128]	; (1000af5c <_malloc_trim_r+0x8c>)
1000aedc:	68bb      	ldr	r3, [r7, #8]
1000aede:	685e      	ldr	r6, [r3, #4]
1000aee0:	2303      	movs	r3, #3
1000aee2:	439e      	bics	r6, r3
1000aee4:	4b1e      	ldr	r3, [pc, #120]	; (1000af60 <_malloc_trim_r+0x90>)
1000aee6:	1b34      	subs	r4, r6, r4
1000aee8:	469c      	mov	ip, r3
1000aeea:	4464      	add	r4, ip
1000aeec:	0b24      	lsrs	r4, r4, #12
1000aeee:	3c01      	subs	r4, #1
1000aef0:	3311      	adds	r3, #17
1000aef2:	0324      	lsls	r4, r4, #12
1000aef4:	429c      	cmp	r4, r3
1000aef6:	db07      	blt.n	1000af08 <_malloc_trim_r+0x38>
1000aef8:	2100      	movs	r1, #0
1000aefa:	0028      	movs	r0, r5
1000aefc:	f7ff ffa8 	bl	1000ae50 <_sbrk_r>
1000af00:	68bb      	ldr	r3, [r7, #8]
1000af02:	199b      	adds	r3, r3, r6
1000af04:	4298      	cmp	r0, r3
1000af06:	d004      	beq.n	1000af12 <_malloc_trim_r+0x42>
1000af08:	0028      	movs	r0, r5
1000af0a:	f7ff ff9f 	bl	1000ae4c <__malloc_unlock>
1000af0e:	2000      	movs	r0, #0
1000af10:	bdf8      	pop	{r3, r4, r5, r6, r7, pc}
1000af12:	0028      	movs	r0, r5
1000af14:	4261      	negs	r1, r4
1000af16:	f7ff ff9b 	bl	1000ae50 <_sbrk_r>
1000af1a:	1c43      	adds	r3, r0, #1
1000af1c:	d00d      	beq.n	1000af3a <_malloc_trim_r+0x6a>
1000af1e:	2201      	movs	r2, #1
1000af20:	68bb      	ldr	r3, [r7, #8]
1000af22:	1b36      	subs	r6, r6, r4
1000af24:	4316      	orrs	r6, r2
1000af26:	605e      	str	r6, [r3, #4]
1000af28:	4b0e      	ldr	r3, [pc, #56]	; (1000af64 <_malloc_trim_r+0x94>)
1000af2a:	0028      	movs	r0, r5
1000af2c:	681a      	ldr	r2, [r3, #0]
1000af2e:	1b14      	subs	r4, r2, r4
1000af30:	601c      	str	r4, [r3, #0]
1000af32:	f7ff ff8b 	bl	1000ae4c <__malloc_unlock>
1000af36:	2001      	movs	r0, #1
1000af38:	e7ea      	b.n	1000af10 <_malloc_trim_r+0x40>
1000af3a:	2100      	movs	r1, #0
1000af3c:	0028      	movs	r0, r5
1000af3e:	f7ff ff87 	bl	1000ae50 <_sbrk_r>
1000af42:	68ba      	ldr	r2, [r7, #8]
1000af44:	1a83      	subs	r3, r0, r2
1000af46:	2b0f      	cmp	r3, #15
1000af48:	ddde      	ble.n	1000af08 <_malloc_trim_r+0x38>
1000af4a:	4907      	ldr	r1, [pc, #28]	; (1000af68 <_malloc_trim_r+0x98>)
1000af4c:	6809      	ldr	r1, [r1, #0]
1000af4e:	1a40      	subs	r0, r0, r1
1000af50:	4904      	ldr	r1, [pc, #16]	; (1000af64 <_malloc_trim_r+0x94>)
1000af52:	6008      	str	r0, [r1, #0]
1000af54:	2101      	movs	r1, #1
1000af56:	430b      	orrs	r3, r1
1000af58:	6053      	str	r3, [r2, #4]
1000af5a:	e7d5      	b.n	1000af08 <_malloc_trim_r+0x38>
1000af5c:	200008b8 	.word	0x200008b8
1000af60:	00000fef 	.word	0x00000fef
1000af64:	20001198 	.word	0x20001198
1000af68:	200008b0 	.word	0x200008b0

1000af6c <_free_r>:
1000af6c:	b5f0      	push	{r4, r5, r6, r7, lr}
1000af6e:	46c6      	mov	lr, r8
1000af70:	0005      	movs	r5, r0
1000af72:	000c      	movs	r4, r1
1000af74:	b500      	push	{lr}
1000af76:	2900      	cmp	r1, #0
1000af78:	d04f      	beq.n	1000b01a <_free_r+0xae>
1000af7a:	f7ff ff65 	bl	1000ae48 <__malloc_lock>
1000af7e:	0021      	movs	r1, r4
1000af80:	3908      	subs	r1, #8
1000af82:	684c      	ldr	r4, [r1, #4]
1000af84:	2601      	movs	r6, #1
1000af86:	0022      	movs	r2, r4
1000af88:	2003      	movs	r0, #3
1000af8a:	43b2      	bics	r2, r6
1000af8c:	188f      	adds	r7, r1, r2
1000af8e:	687b      	ldr	r3, [r7, #4]
1000af90:	4383      	bics	r3, r0
1000af92:	4862      	ldr	r0, [pc, #392]	; (1000b11c <_free_r+0x1b0>)
1000af94:	4698      	mov	r8, r3
1000af96:	6883      	ldr	r3, [r0, #8]
1000af98:	42bb      	cmp	r3, r7
1000af9a:	d06a      	beq.n	1000b072 <_free_r+0x106>
1000af9c:	4643      	mov	r3, r8
1000af9e:	607b      	str	r3, [r7, #4]
1000afa0:	4226      	tst	r6, r4
1000afa2:	d11e      	bne.n	1000afe2 <_free_r+0x76>
1000afa4:	2308      	movs	r3, #8
1000afa6:	469c      	mov	ip, r3
1000afa8:	680c      	ldr	r4, [r1, #0]
1000afaa:	4484      	add	ip, r0
1000afac:	1b09      	subs	r1, r1, r4
1000afae:	1912      	adds	r2, r2, r4
1000afb0:	688c      	ldr	r4, [r1, #8]
1000afb2:	4564      	cmp	r4, ip
1000afb4:	d04f      	beq.n	1000b056 <_free_r+0xea>
1000afb6:	68cb      	ldr	r3, [r1, #12]
1000afb8:	60e3      	str	r3, [r4, #12]
1000afba:	609c      	str	r4, [r3, #8]
1000afbc:	4643      	mov	r3, r8
1000afbe:	18fc      	adds	r4, r7, r3
1000afc0:	6864      	ldr	r4, [r4, #4]
1000afc2:	4234      	tst	r4, r6
1000afc4:	d111      	bne.n	1000afea <_free_r+0x7e>
1000afc6:	68bb      	ldr	r3, [r7, #8]
1000afc8:	4c55      	ldr	r4, [pc, #340]	; (1000b120 <_free_r+0x1b4>)
1000afca:	4442      	add	r2, r8
1000afcc:	42a3      	cmp	r3, r4
1000afce:	d100      	bne.n	1000afd2 <_free_r+0x66>
1000afd0:	e07e      	b.n	1000b0d0 <_free_r+0x164>
1000afd2:	68fc      	ldr	r4, [r7, #12]
1000afd4:	60dc      	str	r4, [r3, #12]
1000afd6:	60a3      	str	r3, [r4, #8]
1000afd8:	2301      	movs	r3, #1
1000afda:	4313      	orrs	r3, r2
1000afdc:	604b      	str	r3, [r1, #4]
1000afde:	508a      	str	r2, [r1, r2]
1000afe0:	e006      	b.n	1000aff0 <_free_r+0x84>
1000afe2:	18fc      	adds	r4, r7, r3
1000afe4:	6864      	ldr	r4, [r4, #4]
1000afe6:	4234      	tst	r4, r6
1000afe8:	d0ed      	beq.n	1000afc6 <_free_r+0x5a>
1000afea:	4316      	orrs	r6, r2
1000afec:	604e      	str	r6, [r1, #4]
1000afee:	603a      	str	r2, [r7, #0]
1000aff0:	2380      	movs	r3, #128	; 0x80
1000aff2:	009b      	lsls	r3, r3, #2
1000aff4:	429a      	cmp	r2, r3
1000aff6:	d213      	bcs.n	1000b020 <_free_r+0xb4>
1000aff8:	0954      	lsrs	r4, r2, #5
1000affa:	08d3      	lsrs	r3, r2, #3
1000affc:	2201      	movs	r2, #1
1000affe:	40a2      	lsls	r2, r4
1000b000:	6844      	ldr	r4, [r0, #4]
1000b002:	00db      	lsls	r3, r3, #3
1000b004:	4322      	orrs	r2, r4
1000b006:	6042      	str	r2, [r0, #4]
1000b008:	1818      	adds	r0, r3, r0
1000b00a:	6883      	ldr	r3, [r0, #8]
1000b00c:	60c8      	str	r0, [r1, #12]
1000b00e:	608b      	str	r3, [r1, #8]
1000b010:	6081      	str	r1, [r0, #8]
1000b012:	60d9      	str	r1, [r3, #12]
1000b014:	0028      	movs	r0, r5
1000b016:	f7ff ff19 	bl	1000ae4c <__malloc_unlock>
1000b01a:	bc80      	pop	{r7}
1000b01c:	46b8      	mov	r8, r7
1000b01e:	bdf0      	pop	{r4, r5, r6, r7, pc}
1000b020:	0a53      	lsrs	r3, r2, #9
1000b022:	2b04      	cmp	r3, #4
1000b024:	d83e      	bhi.n	1000b0a4 <_free_r+0x138>
1000b026:	0994      	lsrs	r4, r2, #6
1000b028:	0026      	movs	r6, r4
1000b02a:	3439      	adds	r4, #57	; 0x39
1000b02c:	3638      	adds	r6, #56	; 0x38
1000b02e:	00e4      	lsls	r4, r4, #3
1000b030:	1904      	adds	r4, r0, r4
1000b032:	6823      	ldr	r3, [r4, #0]
1000b034:	3c08      	subs	r4, #8
1000b036:	2703      	movs	r7, #3
1000b038:	429c      	cmp	r4, r3
1000b03a:	d042      	beq.n	1000b0c2 <_free_r+0x156>
1000b03c:	6858      	ldr	r0, [r3, #4]
1000b03e:	43b8      	bics	r0, r7
1000b040:	4290      	cmp	r0, r2
1000b042:	d902      	bls.n	1000b04a <_free_r+0xde>
1000b044:	689b      	ldr	r3, [r3, #8]
1000b046:	429c      	cmp	r4, r3
1000b048:	d1f8      	bne.n	1000b03c <_free_r+0xd0>
1000b04a:	68dc      	ldr	r4, [r3, #12]
1000b04c:	60cc      	str	r4, [r1, #12]
1000b04e:	608b      	str	r3, [r1, #8]
1000b050:	60a1      	str	r1, [r4, #8]
1000b052:	60d9      	str	r1, [r3, #12]
1000b054:	e7de      	b.n	1000b014 <_free_r+0xa8>
1000b056:	4643      	mov	r3, r8
1000b058:	18f8      	adds	r0, r7, r3
1000b05a:	6840      	ldr	r0, [r0, #4]
1000b05c:	4230      	tst	r0, r6
1000b05e:	d157      	bne.n	1000b110 <_free_r+0x1a4>
1000b060:	68fb      	ldr	r3, [r7, #12]
1000b062:	68b8      	ldr	r0, [r7, #8]
1000b064:	4442      	add	r2, r8
1000b066:	4316      	orrs	r6, r2
1000b068:	60c3      	str	r3, [r0, #12]
1000b06a:	6098      	str	r0, [r3, #8]
1000b06c:	604e      	str	r6, [r1, #4]
1000b06e:	508a      	str	r2, [r1, r2]
1000b070:	e7d0      	b.n	1000b014 <_free_r+0xa8>
1000b072:	0013      	movs	r3, r2
1000b074:	4443      	add	r3, r8
1000b076:	4226      	tst	r6, r4
1000b078:	d106      	bne.n	1000b088 <_free_r+0x11c>
1000b07a:	680a      	ldr	r2, [r1, #0]
1000b07c:	1a89      	subs	r1, r1, r2
1000b07e:	688c      	ldr	r4, [r1, #8]
1000b080:	189b      	adds	r3, r3, r2
1000b082:	68ca      	ldr	r2, [r1, #12]
1000b084:	60e2      	str	r2, [r4, #12]
1000b086:	6094      	str	r4, [r2, #8]
1000b088:	2201      	movs	r2, #1
1000b08a:	431a      	orrs	r2, r3
1000b08c:	604a      	str	r2, [r1, #4]
1000b08e:	4a25      	ldr	r2, [pc, #148]	; (1000b124 <_free_r+0x1b8>)
1000b090:	6081      	str	r1, [r0, #8]
1000b092:	6812      	ldr	r2, [r2, #0]
1000b094:	429a      	cmp	r2, r3
1000b096:	d8bd      	bhi.n	1000b014 <_free_r+0xa8>
1000b098:	4b23      	ldr	r3, [pc, #140]	; (1000b128 <_free_r+0x1bc>)
1000b09a:	0028      	movs	r0, r5
1000b09c:	6819      	ldr	r1, [r3, #0]
1000b09e:	f7ff ff17 	bl	1000aed0 <_malloc_trim_r>
1000b0a2:	e7b7      	b.n	1000b014 <_free_r+0xa8>
1000b0a4:	2b14      	cmp	r3, #20
1000b0a6:	d907      	bls.n	1000b0b8 <_free_r+0x14c>
1000b0a8:	2b54      	cmp	r3, #84	; 0x54
1000b0aa:	d81a      	bhi.n	1000b0e2 <_free_r+0x176>
1000b0ac:	0b14      	lsrs	r4, r2, #12
1000b0ae:	0026      	movs	r6, r4
1000b0b0:	346f      	adds	r4, #111	; 0x6f
1000b0b2:	366e      	adds	r6, #110	; 0x6e
1000b0b4:	00e4      	lsls	r4, r4, #3
1000b0b6:	e7bb      	b.n	1000b030 <_free_r+0xc4>
1000b0b8:	001e      	movs	r6, r3
1000b0ba:	335c      	adds	r3, #92	; 0x5c
1000b0bc:	365b      	adds	r6, #91	; 0x5b
1000b0be:	00dc      	lsls	r4, r3, #3
1000b0c0:	e7b6      	b.n	1000b030 <_free_r+0xc4>
1000b0c2:	2201      	movs	r2, #1
1000b0c4:	10b6      	asrs	r6, r6, #2
1000b0c6:	40b2      	lsls	r2, r6
1000b0c8:	6846      	ldr	r6, [r0, #4]
1000b0ca:	4332      	orrs	r2, r6
1000b0cc:	6042      	str	r2, [r0, #4]
1000b0ce:	e7bd      	b.n	1000b04c <_free_r+0xe0>
1000b0d0:	60d9      	str	r1, [r3, #12]
1000b0d2:	6099      	str	r1, [r3, #8]
1000b0d4:	60cb      	str	r3, [r1, #12]
1000b0d6:	608b      	str	r3, [r1, #8]
1000b0d8:	2301      	movs	r3, #1
1000b0da:	4313      	orrs	r3, r2
1000b0dc:	604b      	str	r3, [r1, #4]
1000b0de:	508a      	str	r2, [r1, r2]
1000b0e0:	e798      	b.n	1000b014 <_free_r+0xa8>
1000b0e2:	24aa      	movs	r4, #170	; 0xaa
1000b0e4:	0064      	lsls	r4, r4, #1
1000b0e6:	42a3      	cmp	r3, r4
1000b0e8:	d805      	bhi.n	1000b0f6 <_free_r+0x18a>
1000b0ea:	0bd4      	lsrs	r4, r2, #15
1000b0ec:	0026      	movs	r6, r4
1000b0ee:	3478      	adds	r4, #120	; 0x78
1000b0f0:	3677      	adds	r6, #119	; 0x77
1000b0f2:	00e4      	lsls	r4, r4, #3
1000b0f4:	e79c      	b.n	1000b030 <_free_r+0xc4>
1000b0f6:	4c0d      	ldr	r4, [pc, #52]	; (1000b12c <_free_r+0x1c0>)
1000b0f8:	42a3      	cmp	r3, r4
1000b0fa:	d805      	bhi.n	1000b108 <_free_r+0x19c>
1000b0fc:	0c94      	lsrs	r4, r2, #18
1000b0fe:	0026      	movs	r6, r4
1000b100:	347d      	adds	r4, #125	; 0x7d
1000b102:	367c      	adds	r6, #124	; 0x7c
1000b104:	00e4      	lsls	r4, r4, #3
1000b106:	e793      	b.n	1000b030 <_free_r+0xc4>
1000b108:	24fe      	movs	r4, #254	; 0xfe
1000b10a:	267e      	movs	r6, #126	; 0x7e
1000b10c:	00a4      	lsls	r4, r4, #2
1000b10e:	e78f      	b.n	1000b030 <_free_r+0xc4>
1000b110:	0033      	movs	r3, r6
1000b112:	4313      	orrs	r3, r2
1000b114:	604b      	str	r3, [r1, #4]
1000b116:	603a      	str	r2, [r7, #0]
1000b118:	e77c      	b.n	1000b014 <_free_r+0xa8>
1000b11a:	46c0      	nop			; (mov r8, r8)
1000b11c:	200008b8 	.word	0x200008b8
1000b120:	200008c0 	.word	0x200008c0
1000b124:	200008b4 	.word	0x200008b4
1000b128:	20001194 	.word	0x20001194
1000b12c:	00000554 	.word	0x00000554

1000b130 <_fini>:
1000b130:	b5f8      	push	{r3, r4, r5, r6, r7, lr}
1000b132:	46c0      	nop			; (mov r8, r8)
1000b134:	0000      	movs	r0, r0
	...

1000b138 <__flash_do_cmd_veneer>:
1000b138:	b401      	push	{r0}
1000b13a:	4802      	ldr	r0, [pc, #8]	; (1000b144 <__flash_do_cmd_veneer+0xc>)
1000b13c:	4684      	mov	ip, r0
1000b13e:	bc01      	pop	{r0}
1000b140:	4760      	bx	ip
1000b142:	bf00      	nop
1000b144:	2000028d 	.word	0x2000028d

1000b148 <__mutex_exit_veneer>:
1000b148:	b401      	push	{r0}
1000b14a:	4802      	ldr	r0, [pc, #8]	; (1000b154 <__mutex_exit_veneer+0xc>)
1000b14c:	4684      	mov	ip, r0
1000b14e:	bc01      	pop	{r0}
1000b150:	4760      	bx	ip
1000b152:	bf00      	nop
1000b154:	200001ed 	.word	0x200001ed

1000b158 <____aeabi_ldiv0_veneer>:
1000b158:	b401      	push	{r0}
1000b15a:	4802      	ldr	r0, [pc, #8]	; (1000b164 <____aeabi_ldiv0_veneer+0xc>)
1000b15c:	4684      	mov	ip, r0
1000b15e:	bc01      	pop	{r0}
1000b160:	4760      	bx	ip
1000b162:	bf00      	nop
1000b164:	20000351 	.word	0x20000351

1000b168 <____aeabi_idiv0_veneer>:
1000b168:	b401      	push	{r0}
1000b16a:	4802      	ldr	r0, [pc, #8]	; (1000b174 <____aeabi_idiv0_veneer+0xc>)
1000b16c:	4684      	mov	ip, r0
1000b16e:	bc01      	pop	{r0}
1000b170:	4760      	bx	ip
1000b172:	bf00      	nop
1000b174:	20000351 	.word	0x20000351

1000b178 <__mutex_try_enter_veneer>:
1000b178:	b401      	push	{r0}
1000b17a:	4802      	ldr	r0, [pc, #8]	; (1000b184 <__mutex_try_enter_veneer+0xc>)
1000b17c:	4684      	mov	ip, r0
1000b17e:	bc01      	pop	{r0}
1000b180:	4760      	bx	ip
1000b182:	bf00      	nop
1000b184:	20000109 	.word	0x20000109

1000b188 <__mutex_enter_timeout_ms_veneer>:
1000b188:	b401      	push	{r0}
1000b18a:	4802      	ldr	r0, [pc, #8]	; (1000b194 <__mutex_enter_timeout_ms_veneer+0xc>)
1000b18c:	4684      	mov	ip, r0
1000b18e:	bc01      	pop	{r0}
1000b190:	4760      	bx	ip
1000b192:	bf00      	nop
1000b194:	2000014d 	.word	0x2000014d

1000b198 <__mutex_enter_blocking_veneer>:
1000b198:	b401      	push	{r0}
1000b19a:	4802      	ldr	r0, [pc, #8]	; (1000b1a4 <__mutex_enter_blocking_veneer+0xc>)
1000b19c:	4684      	mov	ip, r0
1000b19e:	bc01      	pop	{r0}
1000b1a0:	4760      	bx	ip
1000b1a2:	bf00      	nop
1000b1a4:	200000c1 	.word	0x200000c1

Disassembly of section .data:

200000c0 <mutex_enter_blocking>:
200000c0:	23d0      	movs	r3, #208	; 0xd0
200000c2:	b530      	push	{r4, r5, lr}
200000c4:	2500      	movs	r5, #0
200000c6:	061b      	lsls	r3, r3, #24
200000c8:	2400      	movs	r4, #0
200000ca:	575d      	ldrsb	r5, [r3, r5]
200000cc:	e006      	b.n	200000dc <mutex_enter_blocking+0x1c>
200000ce:	6803      	ldr	r3, [r0, #0]
200000d0:	f3bf 8f5f 	dmb	sy
200000d4:	601c      	str	r4, [r3, #0]
200000d6:	f381 8810 	msr	PRIMASK, r1
200000da:	bf20      	wfe
200000dc:	6802      	ldr	r2, [r0, #0]
200000de:	f3ef 8110 	mrs	r1, PRIMASK
200000e2:	b672      	cpsid	i
200000e4:	6813      	ldr	r3, [r2, #0]
200000e6:	2b00      	cmp	r3, #0
200000e8:	d0fc      	beq.n	200000e4 <mutex_enter_blocking+0x24>
200000ea:	f3bf 8f5f 	dmb	sy
200000ee:	7903      	ldrb	r3, [r0, #4]
200000f0:	2b7f      	cmp	r3, #127	; 0x7f
200000f2:	d9ec      	bls.n	200000ce <mutex_enter_blocking+0xe>
200000f4:	7105      	strb	r5, [r0, #4]
200000f6:	6803      	ldr	r3, [r0, #0]
200000f8:	f3bf 8f5f 	dmb	sy
200000fc:	2200      	movs	r2, #0
200000fe:	601a      	str	r2, [r3, #0]
20000100:	f381 8810 	msr	PRIMASK, r1
20000104:	bd30      	pop	{r4, r5, pc}
20000106:	46c0      	nop			; (mov r8, r8)

20000108 <mutex_try_enter>:
20000108:	0003      	movs	r3, r0
2000010a:	6800      	ldr	r0, [r0, #0]
2000010c:	f3ef 8c10 	mrs	ip, PRIMASK
20000110:	b672      	cpsid	i
20000112:	6802      	ldr	r2, [r0, #0]
20000114:	2a00      	cmp	r2, #0
20000116:	d0fc      	beq.n	20000112 <mutex_try_enter+0xa>
20000118:	f3bf 8f5f 	dmb	sy
2000011c:	2204      	movs	r2, #4
2000011e:	569a      	ldrsb	r2, [r3, r2]
20000120:	2a00      	cmp	r2, #0
20000122:	db0b      	blt.n	2000013c <mutex_try_enter+0x34>
20000124:	2900      	cmp	r1, #0
20000126:	d00f      	beq.n	20000148 <mutex_try_enter+0x40>
20000128:	2000      	movs	r0, #0
2000012a:	600a      	str	r2, [r1, #0]
2000012c:	681b      	ldr	r3, [r3, #0]
2000012e:	f3bf 8f5f 	dmb	sy
20000132:	2200      	movs	r2, #0
20000134:	601a      	str	r2, [r3, #0]
20000136:	f38c 8810 	msr	PRIMASK, ip
2000013a:	4770      	bx	lr
2000013c:	22d0      	movs	r2, #208	; 0xd0
2000013e:	0612      	lsls	r2, r2, #24
20000140:	6812      	ldr	r2, [r2, #0]
20000142:	2001      	movs	r0, #1
20000144:	711a      	strb	r2, [r3, #4]
20000146:	e7f1      	b.n	2000012c <mutex_try_enter+0x24>
20000148:	2000      	movs	r0, #0
2000014a:	e7ef      	b.n	2000012c <mutex_try_enter+0x24>

2000014c <mutex_enter_timeout_ms>:
2000014c:	b5f0      	push	{r4, r5, r6, r7, lr}
2000014e:	46c6      	mov	lr, r8
20000150:	b500      	push	{lr}
20000152:	b082      	sub	sp, #8
20000154:	000c      	movs	r4, r1
20000156:	0007      	movs	r7, r0
20000158:	f000 f90e 	bl	20000378 <__time_us_64_veneer>
2000015c:	22fa      	movs	r2, #250	; 0xfa
2000015e:	2300      	movs	r3, #0
20000160:	9000      	str	r0, [sp, #0]
20000162:	9101      	str	r1, [sp, #4]
20000164:	0020      	movs	r0, r4
20000166:	0092      	lsls	r2, r2, #2
20000168:	2100      	movs	r1, #0
2000016a:	f000 f8f5 	bl	20000358 <____wrap___aeabi_lmul_veneer>
2000016e:	9a00      	ldr	r2, [sp, #0]
20000170:	9b01      	ldr	r3, [sp, #4]
20000172:	0014      	movs	r4, r2
20000174:	001d      	movs	r5, r3
20000176:	1824      	adds	r4, r4, r0
20000178:	414d      	adcs	r5, r1
2000017a:	42ab      	cmp	r3, r5
2000017c:	d82f      	bhi.n	200001de <mutex_enter_timeout_ms+0x92>
2000017e:	d02b      	beq.n	200001d8 <mutex_enter_timeout_ms+0x8c>
20000180:	23d0      	movs	r3, #208	; 0xd0
20000182:	061b      	lsls	r3, r3, #24
20000184:	681b      	ldr	r3, [r3, #0]
20000186:	2600      	movs	r6, #0
20000188:	4698      	mov	r8, r3
2000018a:	e00b      	b.n	200001a4 <mutex_enter_timeout_ms+0x58>
2000018c:	683b      	ldr	r3, [r7, #0]
2000018e:	f3bf 8f5f 	dmb	sy
20000192:	601e      	str	r6, [r3, #0]
20000194:	f381 8810 	msr	PRIMASK, r1
20000198:	0020      	movs	r0, r4
2000019a:	0029      	movs	r1, r5
2000019c:	f000 f8e4 	bl	20000368 <__best_effort_wfe_or_timeout_veneer>
200001a0:	2800      	cmp	r0, #0
200001a2:	d120      	bne.n	200001e6 <mutex_enter_timeout_ms+0x9a>
200001a4:	683a      	ldr	r2, [r7, #0]
200001a6:	f3ef 8110 	mrs	r1, PRIMASK
200001aa:	b672      	cpsid	i
200001ac:	6813      	ldr	r3, [r2, #0]
200001ae:	2b00      	cmp	r3, #0
200001b0:	d0fc      	beq.n	200001ac <mutex_enter_timeout_ms+0x60>
200001b2:	f3bf 8f5f 	dmb	sy
200001b6:	793b      	ldrb	r3, [r7, #4]
200001b8:	2b7f      	cmp	r3, #127	; 0x7f
200001ba:	d9e7      	bls.n	2000018c <mutex_enter_timeout_ms+0x40>
200001bc:	4643      	mov	r3, r8
200001be:	713b      	strb	r3, [r7, #4]
200001c0:	683b      	ldr	r3, [r7, #0]
200001c2:	f3bf 8f5f 	dmb	sy
200001c6:	2200      	movs	r2, #0
200001c8:	601a      	str	r2, [r3, #0]
200001ca:	f381 8810 	msr	PRIMASK, r1
200001ce:	2001      	movs	r0, #1
200001d0:	b002      	add	sp, #8
200001d2:	bc80      	pop	{r7}
200001d4:	46b8      	mov	r8, r7
200001d6:	bdf0      	pop	{r4, r5, r6, r7, pc}
200001d8:	9b00      	ldr	r3, [sp, #0]
200001da:	42a3      	cmp	r3, r4
200001dc:	d9d0      	bls.n	20000180 <mutex_enter_timeout_ms+0x34>
200001de:	2401      	movs	r4, #1
200001e0:	4264      	negs	r4, r4
200001e2:	17e5      	asrs	r5, r4, #31
200001e4:	e7cc      	b.n	20000180 <mutex_enter_timeout_ms+0x34>
200001e6:	2000      	movs	r0, #0
200001e8:	e7f2      	b.n	200001d0 <mutex_enter_timeout_ms+0x84>
200001ea:	46c0      	nop			; (mov r8, r8)

200001ec <mutex_exit>:
200001ec:	6802      	ldr	r2, [r0, #0]
200001ee:	f3ef 8110 	mrs	r1, PRIMASK
200001f2:	b672      	cpsid	i
200001f4:	6813      	ldr	r3, [r2, #0]
200001f6:	2b00      	cmp	r3, #0
200001f8:	d0fc      	beq.n	200001f4 <mutex_exit+0x8>
200001fa:	f3bf 8f5f 	dmb	sy
200001fe:	23ff      	movs	r3, #255	; 0xff
20000200:	7103      	strb	r3, [r0, #4]
20000202:	6803      	ldr	r3, [r0, #0]
20000204:	f3bf 8f5f 	dmb	sy
20000208:	2200      	movs	r2, #0
2000020a:	601a      	str	r2, [r3, #0]
2000020c:	f381 8810 	msr	PRIMASK, r1
20000210:	bf40      	sev
20000212:	4770      	bx	lr

20000214 <flash_init_boot2_copyout>:
20000214:	4808      	ldr	r0, [pc, #32]	; (20000238 <flash_init_boot2_copyout+0x24>)
20000216:	b510      	push	{r4, lr}
20000218:	7803      	ldrb	r3, [r0, #0]
2000021a:	2b00      	cmp	r3, #0
2000021c:	d10a      	bne.n	20000234 <flash_init_boot2_copyout+0x20>
2000021e:	2380      	movs	r3, #128	; 0x80
20000220:	4906      	ldr	r1, [pc, #24]	; (2000023c <flash_init_boot2_copyout+0x28>)
20000222:	4a07      	ldr	r2, [pc, #28]	; (20000240 <flash_init_boot2_copyout+0x2c>)
20000224:	055b      	lsls	r3, r3, #21
20000226:	681c      	ldr	r4, [r3, #0]
20000228:	50cc      	str	r4, [r1, r3]
2000022a:	3304      	adds	r3, #4
2000022c:	4293      	cmp	r3, r2
2000022e:	d1fa      	bne.n	20000226 <flash_init_boot2_copyout+0x12>
20000230:	2301      	movs	r3, #1
20000232:	7003      	strb	r3, [r0, #0]
20000234:	bd10      	pop	{r4, pc}
20000236:	46c0      	nop			; (mov r8, r8)
20000238:	20001c44 	.word	0x20001c44
2000023c:	10001630 	.word	0x10001630
20000240:	10000100 	.word	0x10000100

20000244 <flash_enable_xip_via_boot2>:
20000244:	b510      	push	{r4, lr}
20000246:	4b02      	ldr	r3, [pc, #8]	; (20000250 <flash_enable_xip_via_boot2+0xc>)
20000248:	3301      	adds	r3, #1
2000024a:	4798      	blx	r3
2000024c:	bd10      	pop	{r4, pc}
2000024e:	46c0      	nop			; (mov r8, r8)
20000250:	20001630 	.word	0x20001630

20000254 <flash_cs_force.constprop.0>:
20000254:	4b03      	ldr	r3, [pc, #12]	; (20000264 <flash_cs_force.constprop.0+0x10>)
20000256:	681a      	ldr	r2, [r3, #0]
20000258:	23c0      	movs	r3, #192	; 0xc0
2000025a:	009b      	lsls	r3, r3, #2
2000025c:	4393      	bics	r3, r2
2000025e:	4a02      	ldr	r2, [pc, #8]	; (20000268 <flash_cs_force.constprop.0+0x14>)
20000260:	6013      	str	r3, [r2, #0]
20000262:	4770      	bx	lr
20000264:	4001800c 	.word	0x4001800c
20000268:	4001900c 	.word	0x4001900c

2000026c <flash_cs_force.constprop.1>:
2000026c:	4b05      	ldr	r3, [pc, #20]	; (20000284 <flash_cs_force.constprop.1+0x18>)
2000026e:	681a      	ldr	r2, [r3, #0]
20000270:	2380      	movs	r3, #128	; 0x80
20000272:	009b      	lsls	r3, r3, #2
20000274:	4053      	eors	r3, r2
20000276:	22c0      	movs	r2, #192	; 0xc0
20000278:	0092      	lsls	r2, r2, #2
2000027a:	4013      	ands	r3, r2
2000027c:	4a02      	ldr	r2, [pc, #8]	; (20000288 <flash_cs_force.constprop.1+0x1c>)
2000027e:	6013      	str	r3, [r2, #0]
20000280:	4770      	bx	lr
20000282:	46c0      	nop			; (mov r8, r8)
20000284:	4001800c 	.word	0x4001800c
20000288:	4001900c 	.word	0x4001900c

2000028c <flash_do_cmd>:
2000028c:	2314      	movs	r3, #20
2000028e:	b5f0      	push	{r4, r5, r6, r7, lr}
20000290:	46d6      	mov	lr, sl
20000292:	464f      	mov	r7, r9
20000294:	4646      	mov	r6, r8
20000296:	469a      	mov	sl, r3
20000298:	4681      	mov	r9, r0
2000029a:	8818      	ldrh	r0, [r3, #0]
2000029c:	3304      	adds	r3, #4
2000029e:	b5c0      	push	{r6, r7, lr}
200002a0:	4698      	mov	r8, r3
200002a2:	000e      	movs	r6, r1
200002a4:	881b      	ldrh	r3, [r3, #0]
200002a6:	4927      	ldr	r1, [pc, #156]	; (20000344 <flash_do_cmd+0xb8>)
200002a8:	0014      	movs	r4, r2
200002aa:	4798      	blx	r3
200002ac:	4653      	mov	r3, sl
200002ae:	0007      	movs	r7, r0
200002b0:	8818      	ldrh	r0, [r3, #0]
200002b2:	4643      	mov	r3, r8
200002b4:	4924      	ldr	r1, [pc, #144]	; (20000348 <flash_do_cmd+0xbc>)
200002b6:	881b      	ldrh	r3, [r3, #0]
200002b8:	4798      	blx	r3
200002ba:	4653      	mov	r3, sl
200002bc:	0005      	movs	r5, r0
200002be:	8818      	ldrh	r0, [r3, #0]
200002c0:	4643      	mov	r3, r8
200002c2:	4922      	ldr	r1, [pc, #136]	; (2000034c <flash_do_cmd+0xc0>)
200002c4:	881b      	ldrh	r3, [r3, #0]
200002c6:	4798      	blx	r3
200002c8:	4680      	mov	r8, r0
200002ca:	f7ff ffa3 	bl	20000214 <flash_init_boot2_copyout>
200002ce:	47b8      	blx	r7
200002d0:	47a8      	blx	r5
200002d2:	f7ff ffcb 	bl	2000026c <flash_cs_force.constprop.1>
200002d6:	2c00      	cmp	r4, #0
200002d8:	d01b      	beq.n	20000312 <flash_do_cmd+0x86>
200002da:	21c0      	movs	r1, #192	; 0xc0
200002dc:	0022      	movs	r2, r4
200002de:	2708      	movs	r7, #8
200002e0:	2002      	movs	r0, #2
200002e2:	0549      	lsls	r1, r1, #21
200002e4:	003d      	movs	r5, r7
200002e6:	6a8b      	ldr	r3, [r1, #40]	; 0x28
200002e8:	401d      	ands	r5, r3
200002ea:	4218      	tst	r0, r3
200002ec:	d00b      	beq.n	20000306 <flash_do_cmd+0x7a>
200002ee:	2c00      	cmp	r4, #0
200002f0:	d009      	beq.n	20000306 <flash_do_cmd+0x7a>
200002f2:	1b13      	subs	r3, r2, r4
200002f4:	2b0d      	cmp	r3, #13
200002f6:	d81f      	bhi.n	20000338 <flash_do_cmd+0xac>
200002f8:	464b      	mov	r3, r9
200002fa:	781b      	ldrb	r3, [r3, #0]
200002fc:	3c01      	subs	r4, #1
200002fe:	660b      	str	r3, [r1, #96]	; 0x60
20000300:	2301      	movs	r3, #1
20000302:	469c      	mov	ip, r3
20000304:	44e1      	add	r9, ip
20000306:	0023      	movs	r3, r4
20000308:	2d00      	cmp	r5, #0
2000030a:	d10c      	bne.n	20000326 <flash_do_cmd+0x9a>
2000030c:	4313      	orrs	r3, r2
2000030e:	2b00      	cmp	r3, #0
20000310:	d1e8      	bne.n	200002e4 <flash_do_cmd+0x58>
20000312:	f7ff ff9f 	bl	20000254 <flash_cs_force.constprop.0>
20000316:	47c0      	blx	r8
20000318:	f7ff ff94 	bl	20000244 <flash_enable_xip_via_boot2>
2000031c:	bce0      	pop	{r5, r6, r7}
2000031e:	46ba      	mov	sl, r7
20000320:	46b1      	mov	r9, r6
20000322:	46a8      	mov	r8, r5
20000324:	bdf0      	pop	{r4, r5, r6, r7, pc}
20000326:	2a00      	cmp	r2, #0
20000328:	d0f1      	beq.n	2000030e <flash_do_cmd+0x82>
2000032a:	6e0b      	ldr	r3, [r1, #96]	; 0x60
2000032c:	3a01      	subs	r2, #1
2000032e:	7033      	strb	r3, [r6, #0]
20000330:	0013      	movs	r3, r2
20000332:	3601      	adds	r6, #1
20000334:	4323      	orrs	r3, r4
20000336:	e7ea      	b.n	2000030e <flash_do_cmd+0x82>
20000338:	2d00      	cmp	r5, #0
2000033a:	d0d3      	beq.n	200002e4 <flash_do_cmd+0x58>
2000033c:	2a00      	cmp	r2, #0
2000033e:	d0d1      	beq.n	200002e4 <flash_do_cmd+0x58>
20000340:	e7f3      	b.n	2000032a <flash_do_cmd+0x9e>
20000342:	46c0      	nop			; (mov r8, r8)
20000344:	00004649 	.word	0x00004649
20000348:	00005845 	.word	0x00005845
2000034c:	00004346 	.word	0x00004346

20000350 <__aeabi_idiv0>:
20000350:	4770      	bx	lr
20000352:	46c0      	nop			; (mov r8, r8)
20000354:	0000      	movs	r0, r0
	...

20000358 <____wrap___aeabi_lmul_veneer>:
20000358:	b401      	push	{r0}
2000035a:	4802      	ldr	r0, [pc, #8]	; (20000364 <____wrap___aeabi_lmul_veneer+0xc>)
2000035c:	4684      	mov	ip, r0
2000035e:	bc01      	pop	{r0}
20000360:	4760      	bx	ip
20000362:	bf00      	nop
20000364:	10004729 	.word	0x10004729

20000368 <__best_effort_wfe_or_timeout_veneer>:
20000368:	b401      	push	{r0}
2000036a:	4802      	ldr	r0, [pc, #8]	; (20000374 <__best_effort_wfe_or_timeout_veneer+0xc>)
2000036c:	4684      	mov	ip, r0
2000036e:	bc01      	pop	{r0}
20000370:	4760      	bx	ip
20000372:	bf00      	nop
20000374:	100016d9 	.word	0x100016d9

20000378 <__time_us_64_veneer>:
20000378:	b401      	push	{r0}
2000037a:	4802      	ldr	r0, [pc, #8]	; (20000384 <__time_us_64_veneer+0xc>)
2000037c:	4684      	mov	ip, r0
2000037e:	bc01      	pop	{r0}
20000380:	4760      	bx	ip
20000382:	bf00      	nop
20000384:	1000187d 	.word	0x1000187d

20000388 <current_humi>:
20000388:	000003e7                                ....

2000038c <current_temp>:
2000038c:	000003e7                                ....

20000390 <cycle_btn_state.0>:
20000390:	                                         .

20000391 <down_btn_state.1>:
20000391:	                                         .

20000392 <up_btn_state.2>:
20000392:	                                         .

20000393 <striped_spin_lock_num>:
20000393:	                                         .

20000394 <irq_handler_chain_slots>:
20000394:	00000000 	.word	0x00000000
20000398:	00010000 	.word	0x00010000
	...
200003a4:	00020000 	.word	0x00020000
	...
200003b0:	00030000 	.word	0x00030000
	...
200003bc:	00ff0000 	.word	0x00ff0000
200003c0:	00000000 	.word	0x00000000

200003c4 <irq_handler_chain_first_slot>:
200003c4:	b500      	push	{lr}
200003c6:	6848      	ldr	r0, [r1, #4]
200003c8:	3101      	adds	r1, #1
200003ca:	468e      	mov	lr, r1
200003cc:	4700      	bx	r0

200003ce <irq_handler_chain_remove_tail>:
200003ce:	4670      	mov	r0, lr
200003d0:	3809      	subs	r0, #9
200003d2:	4901      	ldr	r1, [pc, #4]	; (200003d8 <irq_handler_chain_remove_tail+0xa>)
200003d4:	4788      	blx	r1
200003d6:	bd00      	pop	{pc}
200003d8:	10000f79 	.word	0x10000f79

200003dc <default_alarm_pool>:
200003dc:	200003f4 00000000 20000d30 2000175c     ... ....0.. \.. 
	...

200003f4 <default_alarm_pool_heap>:
200003f4:	2000176c 00000000 00000000 00000010     l.. ............
	...

20000410 <aeabi_bits_funcs>:
20000410:	00003350 	.word	0x00003350
20000414:	0000334c 	.word	0x0000334c
20000418:	00003354 	.word	0x00003354
2000041c:	00003352 	.word	0x00003352

20000420 <aeabi_bits_funcs_end>:
20000420:	0000534d 	.word	0x0000534d
20000424:	0000434d 	.word	0x0000434d
20000428:	00003453 	.word	0x00003453
2000042c:	00003443 	.word	0x00003443

20000430 <stdio_usb>:
20000430:	10004f15 00000000 10004ead 00000000     .O.......N......
20000440:	00000100                                ....

20000444 <ep_dir_string>:
20000444:	1000b6fc 1000b700                       ........

2000044c <_usbd_qdef>:
2000044c:	20001560 000c0010 ffe00000 0000001f     `.. ............
	...

20000470 <i2c0_inst>:
20000470:	40044000 00000000                       .@.@....

20000478 <uxTopUsedPriority>:
20000478:	00000004                                ....

2000047c <uxCriticalNesting>:
2000047c:	aaaaaaaa                                ....

20000480 <_impure_ptr>:
20000480:	20000488 00000000                       ... ....

20000488 <impure_data>:
20000488:	00000000 20000774 200007dc 20000844     ....t.. ... D.. 
	...
20000530:	00000001 00000000 abcd330e e66d1234     .........3..4.m.
20000540:	0005deec 0000000b 00000000 00000000     ................
	...

200008b0 <__malloc_sbrk_base>:
200008b0:	ffffffff                                ....

200008b4 <__malloc_trim_threshold>:
200008b4:	00020000                                ....

200008b8 <__malloc_av_>:
	...
200008c0:	200008b8 200008b8 200008c0 200008c0     ... ... ... ... 
200008d0:	200008c8 200008c8 200008d0 200008d0     ... ... ... ... 
200008e0:	200008d8 200008d8 200008e0 200008e0     ... ... ... ... 
200008f0:	200008e8 200008e8 200008f0 200008f0     ... ... ... ... 
20000900:	200008f8 200008f8 20000900 20000900     ... ... ... ... 
20000910:	20000908 20000908 20000910 20000910     ... ... ... ... 
20000920:	20000918 20000918 20000920 20000920     ... ...  ..  .. 
20000930:	20000928 20000928 20000930 20000930     (.. (.. 0.. 0.. 
20000940:	20000938 20000938 20000940 20000940     8.. 8.. @.. @.. 
20000950:	20000948 20000948 20000950 20000950     H.. H.. P.. P.. 
20000960:	20000958 20000958 20000960 20000960     X.. X.. `.. `.. 
20000970:	20000968 20000968 20000970 20000970     h.. h.. p.. p.. 
20000980:	20000978 20000978 20000980 20000980     x.. x.. ... ... 
20000990:	20000988 20000988 20000990 20000990     ... ... ... ... 
200009a0:	20000998 20000998 200009a0 200009a0     ... ... ... ... 
200009b0:	200009a8 200009a8 200009b0 200009b0     ... ... ... ... 
200009c0:	200009b8 200009b8 200009c0 200009c0     ... ... ... ... 
200009d0:	200009c8 200009c8 200009d0 200009d0     ... ... ... ... 
200009e0:	200009d8 200009d8 200009e0 200009e0     ... ... ... ... 
200009f0:	200009e8 200009e8 200009f0 200009f0     ... ... ... ... 
20000a00:	200009f8 200009f8 20000a00 20000a00     ... ... ... ... 
20000a10:	20000a08 20000a08 20000a10 20000a10     ... ... ... ... 
20000a20:	20000a18 20000a18 20000a20 20000a20     ... ...  ..  .. 
20000a30:	20000a28 20000a28 20000a30 20000a30     (.. (.. 0.. 0.. 
20000a40:	20000a38 20000a38 20000a40 20000a40     8.. 8.. @.. @.. 
20000a50:	20000a48 20000a48 20000a50 20000a50     H.. H.. P.. P.. 
20000a60:	20000a58 20000a58 20000a60 20000a60     X.. X.. `.. `.. 
20000a70:	20000a68 20000a68 20000a70 20000a70     h.. h.. p.. p.. 
20000a80:	20000a78 20000a78 20000a80 20000a80     x.. x.. ... ... 
20000a90:	20000a88 20000a88 20000a90 20000a90     ... ... ... ... 
20000aa0:	20000a98 20000a98 20000aa0 20000aa0     ... ... ... ... 
20000ab0:	20000aa8 20000aa8 20000ab0 20000ab0     ... ... ... ... 
20000ac0:	20000ab8 20000ab8 20000ac0 20000ac0     ... ... ... ... 
20000ad0:	20000ac8 20000ac8 20000ad0 20000ad0     ... ... ... ... 
20000ae0:	20000ad8 20000ad8 20000ae0 20000ae0     ... ... ... ... 
20000af0:	20000ae8 20000ae8 20000af0 20000af0     ... ... ... ... 
20000b00:	20000af8 20000af8 20000b00 20000b00     ... ... ... ... 
20000b10:	20000b08 20000b08 20000b10 20000b10     ... ... ... ... 
20000b20:	20000b18 20000b18 20000b20 20000b20     ... ...  ..  .. 
20000b30:	20000b28 20000b28 20000b30 20000b30     (.. (.. 0.. 0.. 
20000b40:	20000b38 20000b38 20000b40 20000b40     8.. 8.. @.. @.. 
20000b50:	20000b48 20000b48 20000b50 20000b50     H.. H.. P.. P.. 
20000b60:	20000b58 20000b58 20000b60 20000b60     X.. X.. `.. `.. 
20000b70:	20000b68 20000b68 20000b70 20000b70     h.. h.. p.. p.. 
20000b80:	20000b78 20000b78 20000b80 20000b80     x.. x.. ... ... 
20000b90:	20000b88 20000b88 20000b90 20000b90     ... ... ... ... 
20000ba0:	20000b98 20000b98 20000ba0 20000ba0     ... ... ... ... 
20000bb0:	20000ba8 20000ba8 20000bb0 20000bb0     ... ... ... ... 
20000bc0:	20000bb8 20000bb8 20000bc0 20000bc0     ... ... ... ... 
20000bd0:	20000bc8 20000bc8 20000bd0 20000bd0     ... ... ... ... 
20000be0:	20000bd8 20000bd8 20000be0 20000be0     ... ... ... ... 
20000bf0:	20000be8 20000be8 20000bf0 20000bf0     ... ... ... ... 
20000c00:	20000bf8 20000bf8 20000c00 20000c00     ... ... ... ... 
20000c10:	20000c08 20000c08 20000c10 20000c10     ... ... ... ... 
20000c20:	20000c18 20000c18 20000c20 20000c20     ... ...  ..  .. 
20000c30:	20000c28 20000c28 20000c30 20000c30     (.. (.. 0.. 0.. 
20000c40:	20000c38 20000c38 20000c40 20000c40     8.. 8.. @.. @.. 
20000c50:	20000c48 20000c48 20000c50 20000c50     H.. H.. P.. P.. 
20000c60:	20000c58 20000c58 20000c60 20000c60     X.. X.. `.. `.. 
20000c70:	20000c68 20000c68 20000c70 20000c70     h.. h.. p.. p.. 
20000c80:	20000c78 20000c78 20000c80 20000c80     x.. x.. ... ... 
20000c90:	20000c88 20000c88 20000c90 20000c90     ... ... ... ... 
20000ca0:	20000c98 20000c98 20000ca0 20000ca0     ... ... ... ... 
20000cb0:	20000ca8 20000ca8 20000cb0 20000cb0     ... ... ... ... 

20000cc0 <print_mutex>:
	...

20000cc8 <__mutex_array_end>:
20000cc8:	1000497d 	.word	0x1000497d
20000ccc:	100039a5 	.word	0x100039a5
20000cd0:	100040d9 	.word	0x100040d9
20000cd4:	10004879 	.word	0x10004879

20000cd8 <__frame_dummy_init_array_entry>:
20000cd8:	10000339 10007569                       9...iu..
