
/home/austin/pico/Thermostat/build/ProjectFiles/Thermostat.elf:     file format elf32-littlearm

Sections:
Idx Name          Size      VMA       LMA       File off  Algn
  0 .boot2        00000100  10000000  10000000  00001000  2**0
                  CONTENTS, ALLOC, LOAD, READONLY, CODE
  1 .text         0000b3f8  10000100  10000100  00001100  2**4
                  CONTENTS, ALLOC, LOAD, READONLY, CODE
  2 .rodata       00000668  1000b4f8  1000b4f8  0000c4f8  2**3
                  CONTENTS, ALLOC, LOAD, READONLY, DATA
  3 .binary_info  00000024  1000bb60  1000bb60  0000cb60  2**2
                  CONTENTS, ALLOC, LOAD, DATA
  4 .ram_vector_table 000000c0  20000000  20000000  0000dcd0  2**2
                  CONTENTS
  5 .data         00000c10  200000c0  1000bb84  0000d0c0  2**4
                  CONTENTS, ALLOC, LOAD, READONLY, CODE
  6 .uninitialized_data 00000000  20000cd0  20000cd0  0000dd90  2**0
                  CONTENTS
  7 .scratch_x    00000000  20040000  20040000  0000dd90  2**0
                  CONTENTS
  8 .scratch_y    00000000  20041000  20041000  0000dd90  2**0
                  CONTENTS
  9 .bss          00000f94  20000cd0  20000cd0  0000dcd0  2**3
                  ALLOC
 10 .heap         00000800  20001c64  20001c64  0000dd90  2**2
                  CONTENTS, READONLY
 11 .stack_dummy  00000800  20041000  20041000  0000e5a0  2**5
                  CONTENTS, READONLY
 12 .ARM.attributes 00000028  00000000  00000000  0000eda0  2**0
                  CONTENTS, READONLY
 13 .comment      00000033  00000000  00000000  0000edc8  2**0
                  CONTENTS, READONLY
 14 .debug_line   000016b9  00000000  00000000  0000edfb  2**0
                  CONTENTS, READONLY, DEBUGGING, OCTETS
 15 .debug_info   00004dec  00000000  00000000  000104b4  2**0
                  CONTENTS, READONLY, DEBUGGING, OCTETS
 16 .debug_abbrev 00001109  00000000  00000000  000152a0  2**0
                  CONTENTS, READONLY, DEBUGGING, OCTETS
 17 .debug_aranges 00000118  00000000  00000000  000163b0  2**3
                  CONTENTS, READONLY, DEBUGGING, OCTETS
 18 .debug_str    00000a5c  00000000  00000000  000164c8  2**0
                  CONTENTS, READONLY, DEBUGGING, OCTETS
 19 .debug_loc    00001720  00000000  00000000  00016f24  2**0
                  CONTENTS, READONLY, DEBUGGING, OCTETS
 20 .debug_frame  000001a4  00000000  00000000  00018644  2**2
                  CONTENTS, READONLY, DEBUGGING, OCTETS
 21 .debug_ranges 00000050  00000000  00000000  000187e8  2**0
                  CONTENTS, READONLY, DEBUGGING, OCTETS

/home/austin/pico/Thermostat/build/ProjectFiles/Thermostat.elf:     file format elf32-littlearm


Disassembly of section .boot2:

10000000 <__boot2_start__>:
10000000:	4b32b500 	.word	0x4b32b500
10000004:	60582021 	.word	0x60582021
10000008:	21026898 	.word	0x21026898
1000000c:	60984388 	.word	0x60984388
10000010:	611860d8 	.word	0x611860d8
10000014:	4b2e6158 	.word	0x4b2e6158
10000018:	60992100 	.word	0x60992100
1000001c:	61592102 	.word	0x61592102
10000020:	22f02101 	.word	0x22f02101
10000024:	492b5099 	.word	0x492b5099
10000028:	21016019 	.word	0x21016019
1000002c:	20356099 	.word	0x20356099
10000030:	f844f000 	.word	0xf844f000
10000034:	42902202 	.word	0x42902202
10000038:	2106d014 	.word	0x2106d014
1000003c:	f0006619 	.word	0xf0006619
10000040:	6e19f834 	.word	0x6e19f834
10000044:	66192101 	.word	0x66192101
10000048:	66182000 	.word	0x66182000
1000004c:	f000661a 	.word	0xf000661a
10000050:	6e19f82c 	.word	0x6e19f82c
10000054:	6e196e19 	.word	0x6e196e19
10000058:	f0002005 	.word	0xf0002005
1000005c:	2101f82f 	.word	0x2101f82f
10000060:	d1f94208 	.word	0xd1f94208
10000064:	60992100 	.word	0x60992100
10000068:	6019491b 	.word	0x6019491b
1000006c:	60592100 	.word	0x60592100
10000070:	481b491a 	.word	0x481b491a
10000074:	21016001 	.word	0x21016001
10000078:	21eb6099 	.word	0x21eb6099
1000007c:	21a06619 	.word	0x21a06619
10000080:	f0006619 	.word	0xf0006619
10000084:	2100f812 	.word	0x2100f812
10000088:	49166099 	.word	0x49166099
1000008c:	60014814 	.word	0x60014814
10000090:	60992101 	.word	0x60992101
10000094:	2800bc01 	.word	0x2800bc01
10000098:	4700d000 	.word	0x4700d000
1000009c:	49134812 	.word	0x49134812
100000a0:	c8036008 	.word	0xc8036008
100000a4:	8808f380 	.word	0x8808f380
100000a8:	b5034708 	.word	0xb5034708
100000ac:	20046a99 	.word	0x20046a99
100000b0:	d0fb4201 	.word	0xd0fb4201
100000b4:	42012001 	.word	0x42012001
100000b8:	bd03d1f8 	.word	0xbd03d1f8
100000bc:	6618b502 	.word	0x6618b502
100000c0:	f7ff6618 	.word	0xf7ff6618
100000c4:	6e18fff2 	.word	0x6e18fff2
100000c8:	bd026e18 	.word	0xbd026e18
100000cc:	40020000 	.word	0x40020000
100000d0:	18000000 	.word	0x18000000
100000d4:	00070000 	.word	0x00070000
100000d8:	005f0300 	.word	0x005f0300
100000dc:	00002221 	.word	0x00002221
100000e0:	180000f4 	.word	0x180000f4
100000e4:	a0002022 	.word	0xa0002022
100000e8:	10000100 	.word	0x10000100
100000ec:	e000ed08 	.word	0xe000ed08
	...
100000fc:	7a4eb274 	.word	0x7a4eb274

Disassembly of section .text:

10000100 <__VECTOR_TABLE>:
10000100:	20042000 	.word	0x20042000
10000104:	100001f7 	.word	0x100001f7
10000108:	100001c3 	.word	0x100001c3
1000010c:	100001c5 	.word	0x100001c5
10000110:	100001c1 	.word	0x100001c1
10000114:	100001c1 	.word	0x100001c1
10000118:	100001c1 	.word	0x100001c1
1000011c:	100001c1 	.word	0x100001c1
10000120:	100001c1 	.word	0x100001c1
10000124:	100001c1 	.word	0x100001c1
10000128:	100001c1 	.word	0x100001c1
1000012c:	10009845 	.word	0x10009845
10000130:	100001c1 	.word	0x100001c1
10000134:	100001c1 	.word	0x100001c1
10000138:	100098a1 	.word	0x100098a1
1000013c:	100098e5 	.word	0x100098e5
10000140:	100001cd 	.word	0x100001cd
10000144:	100001cd 	.word	0x100001cd
10000148:	100001cd 	.word	0x100001cd
1000014c:	100001cd 	.word	0x100001cd
10000150:	100001cd 	.word	0x100001cd
10000154:	100001cd 	.word	0x100001cd
10000158:	100001cd 	.word	0x100001cd
1000015c:	100001cd 	.word	0x100001cd
10000160:	100001cd 	.word	0x100001cd
10000164:	100001cd 	.word	0x100001cd
10000168:	100001cd 	.word	0x100001cd
1000016c:	100001cd 	.word	0x100001cd
10000170:	100001cd 	.word	0x100001cd
10000174:	100001cd 	.word	0x100001cd
10000178:	100001cd 	.word	0x100001cd
1000017c:	100001cd 	.word	0x100001cd
10000180:	100001cd 	.word	0x100001cd
10000184:	100001cd 	.word	0x100001cd
10000188:	100001cd 	.word	0x100001cd
1000018c:	100001cd 	.word	0x100001cd
10000190:	100001cd 	.word	0x100001cd
10000194:	100001cd 	.word	0x100001cd
10000198:	100001cd 	.word	0x100001cd
1000019c:	100001cd 	.word	0x100001cd
100001a0:	100001cd 	.word	0x100001cd
100001a4:	100001cd 	.word	0x100001cd
100001a8:	100001cd 	.word	0x100001cd
100001ac:	100001cd 	.word	0x100001cd
100001b0:	100001cd 	.word	0x100001cd
100001b4:	100001cd 	.word	0x100001cd
100001b8:	100001cd 	.word	0x100001cd
100001bc:	100001cd 	.word	0x100001cd

100001c0 <isr_invalid>:
100001c0:	be00      	bkpt	0x0000

100001c2 <isr_nmi>:
100001c2:	be00      	bkpt	0x0000

100001c4 <isr_hardfault>:
100001c4:	be00      	bkpt	0x0000
100001c6:	be00      	bkpt	0x0000
100001c8:	be00      	bkpt	0x0000
100001ca:	be00      	bkpt	0x0000

100001cc <__unhandled_user_irq>:
100001cc:	f000 f84b 	bl	10000266 <__get_current_exception>
100001d0:	3810      	subs	r0, #16

100001d2 <unhandled_user_irq_num_in_r0>:
100001d2:	be00      	bkpt	0x0000

100001d4 <binary_info_header>:
100001d4:	7188ebf2 	.word	0x7188ebf2
100001d8:	1000bb60 	.word	0x1000bb60
100001dc:	1000bb84 	.word	0x1000bb84
100001e0:	10000234 	.word	0x10000234
100001e4:	e71aa390 	.word	0xe71aa390

100001e8 <_entry_point>:
100001e8:	2000      	movs	r0, #0
100001ea:	4921      	ldr	r1, [pc, #132]	; (10000270 <__get_current_exception+0xa>)
100001ec:	6008      	str	r0, [r1, #0]
100001ee:	c806      	ldmia	r0!, {r1, r2}
100001f0:	f381 8808 	msr	MSP, r1
100001f4:	4710      	bx	r2

100001f6 <_reset_handler>:
100001f6:	481f      	ldr	r0, [pc, #124]	; (10000274 <__get_current_exception+0xe>)
100001f8:	6800      	ldr	r0, [r0, #0]
100001fa:	2800      	cmp	r0, #0
100001fc:	d12f      	bne.n	1000025e <hold_non_core0_in_bootrom>
100001fe:	a40d      	add	r4, pc, #52	; (adr r4, 10000234 <data_cpy_table>)
10000200:	cc0e      	ldmia	r4!, {r1, r2, r3}
10000202:	2900      	cmp	r1, #0
10000204:	d002      	beq.n	1000020c <_reset_handler+0x16>
10000206:	f000 f812 	bl	1000022e <data_cpy>
1000020a:	e7f9      	b.n	10000200 <_reset_handler+0xa>
1000020c:	491a      	ldr	r1, [pc, #104]	; (10000278 <__get_current_exception+0x12>)
1000020e:	4a1b      	ldr	r2, [pc, #108]	; (1000027c <__get_current_exception+0x16>)
10000210:	2000      	movs	r0, #0
10000212:	e000      	b.n	10000216 <bss_fill_test>

10000214 <bss_fill_loop>:
10000214:	c101      	stmia	r1!, {r0}

10000216 <bss_fill_test>:
10000216:	4291      	cmp	r1, r2
10000218:	d1fc      	bne.n	10000214 <bss_fill_loop>

1000021a <platform_entry>:
1000021a:	4919      	ldr	r1, [pc, #100]	; (10000280 <__get_current_exception+0x1a>)
1000021c:	4788      	blx	r1
1000021e:	4919      	ldr	r1, [pc, #100]	; (10000284 <__get_current_exception+0x1e>)
10000220:	4788      	blx	r1
10000222:	4919      	ldr	r1, [pc, #100]	; (10000288 <__get_current_exception+0x22>)
10000224:	4788      	blx	r1
10000226:	be00      	bkpt	0x0000
10000228:	e7fd      	b.n	10000226 <platform_entry+0xc>

1000022a <data_cpy_loop>:
1000022a:	c901      	ldmia	r1!, {r0}
1000022c:	c201      	stmia	r2!, {r0}

1000022e <data_cpy>:
1000022e:	429a      	cmp	r2, r3
10000230:	d3fb      	bcc.n	1000022a <data_cpy_loop>
10000232:	4770      	bx	lr

10000234 <data_cpy_table>:
10000234:	1000bb84 	.word	0x1000bb84
10000238:	200000c0 	.word	0x200000c0
1000023c:	20000cd0 	.word	0x20000cd0
10000240:	1000c794 	.word	0x1000c794
10000244:	20040000 	.word	0x20040000
10000248:	20040000 	.word	0x20040000
1000024c:	1000c794 	.word	0x1000c794
10000250:	20041000 	.word	0x20041000
10000254:	20041000 	.word	0x20041000
10000258:	00000000 	.word	0x00000000
1000025c:	4770      	bx	lr

1000025e <hold_non_core0_in_bootrom>:
1000025e:	480b      	ldr	r0, [pc, #44]	; (1000028c <__get_current_exception+0x26>)
10000260:	f003 fd54 	bl	10003d0c <rom_func_lookup>
10000264:	4700      	bx	r0

10000266 <__get_current_exception>:
10000266:	f3ef 8005 	mrs	r0, IPSR
1000026a:	b2c0      	uxtb	r0, r0
1000026c:	4770      	bx	lr
1000026e:	0000      	.short	0x0000
10000270:	e000ed08 	.word	0xe000ed08
10000274:	d0000000 	.word	0xd0000000
10000278:	20000cd0 	.word	0x20000cd0
1000027c:	20001c64 	.word	0x20001c64
10000280:	1000218d 	.word	0x1000218d
10000284:	100007b5 	.word	0x100007b5
10000288:	100022b1 	.word	0x100022b1
1000028c:	00005657 	.word	0x00005657

10000290 <__bi_50>:
10000290:	50520006 5360b3ab 1000b8e8              ..RP..`S....

1000029c <__bi_38>:
1000029c:	50520006 02031c86 1000b8f8              ..RP........

100002a8 <__bi_30>:
100002a8:	50520006 9da22254 1000b904              ..RPT"......

100002b4 <__bi_22>:
100002b4:	50520005 68f465de 1000c794              ..RP.e.h....

100002c0 <_init>:
100002c0:	b5f8      	push	{r3, r4, r5, r6, r7, lr}
100002c2:	46c0      	nop			; (mov r8, r8)

100002c4 <deregister_tm_clones>:
100002c4:	4804      	ldr	r0, [pc, #16]	; (100002d8 <deregister_tm_clones+0x14>)
100002c6:	4b05      	ldr	r3, [pc, #20]	; (100002dc <deregister_tm_clones+0x18>)
100002c8:	b510      	push	{r4, lr}
100002ca:	4283      	cmp	r3, r0
100002cc:	d003      	beq.n	100002d6 <deregister_tm_clones+0x12>
100002ce:	4b04      	ldr	r3, [pc, #16]	; (100002e0 <deregister_tm_clones+0x1c>)
100002d0:	2b00      	cmp	r3, #0
100002d2:	d000      	beq.n	100002d6 <deregister_tm_clones+0x12>
100002d4:	4798      	blx	r3
100002d6:	bd10      	pop	{r4, pc}
100002d8:	20000cd0 	.word	0x20000cd0
100002dc:	20000cd0 	.word	0x20000cd0
100002e0:	00000000 	.word	0x00000000

100002e4 <register_tm_clones>:
100002e4:	4806      	ldr	r0, [pc, #24]	; (10000300 <register_tm_clones+0x1c>)
100002e6:	4907      	ldr	r1, [pc, #28]	; (10000304 <register_tm_clones+0x20>)
100002e8:	1a09      	subs	r1, r1, r0
100002ea:	108b      	asrs	r3, r1, #2
100002ec:	0fc9      	lsrs	r1, r1, #31
100002ee:	18c9      	adds	r1, r1, r3
100002f0:	b510      	push	{r4, lr}
100002f2:	1049      	asrs	r1, r1, #1
100002f4:	d003      	beq.n	100002fe <register_tm_clones+0x1a>
100002f6:	4b04      	ldr	r3, [pc, #16]	; (10000308 <register_tm_clones+0x24>)
100002f8:	2b00      	cmp	r3, #0
100002fa:	d000      	beq.n	100002fe <register_tm_clones+0x1a>
100002fc:	4798      	blx	r3
100002fe:	bd10      	pop	{r4, pc}
10000300:	20000cd0 	.word	0x20000cd0
10000304:	20000cd0 	.word	0x20000cd0
10000308:	00000000 	.word	0x00000000

1000030c <__do_global_dtors_aux>:
1000030c:	b510      	push	{r4, lr}
1000030e:	4c07      	ldr	r4, [pc, #28]	; (1000032c <__do_global_dtors_aux+0x20>)
10000310:	7823      	ldrb	r3, [r4, #0]
10000312:	2b00      	cmp	r3, #0
10000314:	d109      	bne.n	1000032a <__do_global_dtors_aux+0x1e>
10000316:	f7ff ffd5 	bl	100002c4 <deregister_tm_clones>
1000031a:	4b05      	ldr	r3, [pc, #20]	; (10000330 <__do_global_dtors_aux+0x24>)
1000031c:	2b00      	cmp	r3, #0
1000031e:	d002      	beq.n	10000326 <__do_global_dtors_aux+0x1a>
10000320:	4804      	ldr	r0, [pc, #16]	; (10000334 <__do_global_dtors_aux+0x28>)
10000322:	e000      	b.n	10000326 <__do_global_dtors_aux+0x1a>
10000324:	bf00      	nop
10000326:	2301      	movs	r3, #1
10000328:	7023      	strb	r3, [r4, #0]
1000032a:	bd10      	pop	{r4, pc}
1000032c:	20001038 	.word	0x20001038
10000330:	00000000 	.word	0x00000000
10000334:	1000b4f8 	.word	0x1000b4f8

10000338 <frame_dummy>:
10000338:	4b05      	ldr	r3, [pc, #20]	; (10000350 <frame_dummy+0x18>)
1000033a:	b510      	push	{r4, lr}
1000033c:	2b00      	cmp	r3, #0
1000033e:	d003      	beq.n	10000348 <frame_dummy+0x10>
10000340:	4904      	ldr	r1, [pc, #16]	; (10000354 <frame_dummy+0x1c>)
10000342:	4805      	ldr	r0, [pc, #20]	; (10000358 <frame_dummy+0x20>)
10000344:	e000      	b.n	10000348 <frame_dummy+0x10>
10000346:	bf00      	nop
10000348:	f7ff ffcc 	bl	100002e4 <register_tm_clones>
1000034c:	bd10      	pop	{r4, pc}
1000034e:	46c0      	nop			; (mov r8, r8)
10000350:	00000000 	.word	0x00000000
10000354:	2000103c 	.word	0x2000103c
10000358:	1000b4f8 	.word	0x1000b4f8

1000035c <start_sensor_callback>:
1000035c:	2300      	movs	r3, #0
1000035e:	2280      	movs	r2, #128	; 0x80
10000360:	b500      	push	{lr}
10000362:	b083      	sub	sp, #12
10000364:	9301      	str	r3, [sp, #4]
10000366:	3302      	adds	r3, #2
10000368:	9300      	str	r3, [sp, #0]
1000036a:	4904      	ldr	r1, [pc, #16]	; (1000037c <start_sensor_callback+0x20>)
1000036c:	2300      	movs	r3, #0
1000036e:	0052      	lsls	r2, r2, #1
10000370:	4803      	ldr	r0, [pc, #12]	; (10000380 <start_sensor_callback+0x24>)
10000372:	f007 fdd9 	bl	10007f28 <xTaskCreate>
10000376:	b003      	add	sp, #12
10000378:	bd00      	pop	{pc}
1000037a:	46c0      	nop			; (mov r8, r8)
1000037c:	1000b4f8 	.word	0x1000b4f8
10000380:	10000425 	.word	0x10000425

10000384 <led_task>:
10000384:	b570      	push	{r4, r5, r6, lr}
10000386:	25d0      	movs	r5, #208	; 0xd0
10000388:	2480      	movs	r4, #128	; 0x80
1000038a:	4e08      	ldr	r6, [pc, #32]	; (100003ac <led_task+0x28>)
1000038c:	062d      	lsls	r5, r5, #24
1000038e:	04a4      	lsls	r4, r4, #18
10000390:	20fa      	movs	r0, #250	; 0xfa
10000392:	616c      	str	r4, [r5, #20]
10000394:	0040      	lsls	r0, r0, #1
10000396:	f008 fa79 	bl	1000888c <vTaskDelay>
1000039a:	20fa      	movs	r0, #250	; 0xfa
1000039c:	61ac      	str	r4, [r5, #24]
1000039e:	0040      	lsls	r0, r0, #1
100003a0:	f008 fa74 	bl	1000888c <vTaskDelay>
100003a4:	0030      	movs	r0, r6
100003a6:	f004 fe0b 	bl	10004fc0 <__wrap_puts>
100003aa:	e7f1      	b.n	10000390 <led_task+0xc>
100003ac:	1000b508 	.word	0x1000b508

100003b0 <manage_relay>:
100003b0:	b5f0      	push	{r4, r5, r6, r7, lr}
100003b2:	464f      	mov	r7, r9
100003b4:	4646      	mov	r6, r8
100003b6:	46d6      	mov	lr, sl
100003b8:	4b15      	ldr	r3, [pc, #84]	; (10000410 <manage_relay+0x60>)
100003ba:	b5c0      	push	{r6, r7, lr}
100003bc:	4698      	mov	r8, r3
100003be:	4b15      	ldr	r3, [pc, #84]	; (10000414 <manage_relay+0x64>)
100003c0:	27d0      	movs	r7, #208	; 0xd0
100003c2:	469a      	mov	sl, r3
100003c4:	2300      	movs	r3, #0
100003c6:	4c14      	ldr	r4, [pc, #80]	; (10000418 <manage_relay+0x68>)
100003c8:	4699      	mov	r9, r3
100003ca:	4e14      	ldr	r6, [pc, #80]	; (1000041c <manage_relay+0x6c>)
100003cc:	4d14      	ldr	r5, [pc, #80]	; (10000420 <manage_relay+0x70>)
100003ce:	063f      	lsls	r7, r7, #24
100003d0:	e00d      	b.n	100003ee <manage_relay+0x3e>
100003d2:	6832      	ldr	r2, [r6, #0]
100003d4:	682b      	ldr	r3, [r5, #0]
100003d6:	429a      	cmp	r2, r3
100003d8:	da05      	bge.n	100003e6 <manage_relay+0x36>
100003da:	2301      	movs	r3, #1
100003dc:	4640      	mov	r0, r8
100003de:	6023      	str	r3, [r4, #0]
100003e0:	617b      	str	r3, [r7, #20]
100003e2:	f004 fded 	bl	10004fc0 <__wrap_puts>
100003e6:	20fa      	movs	r0, #250	; 0xfa
100003e8:	0080      	lsls	r0, r0, #2
100003ea:	f008 fa4f 	bl	1000888c <vTaskDelay>
100003ee:	6823      	ldr	r3, [r4, #0]
100003f0:	2b00      	cmp	r3, #0
100003f2:	d0ee      	beq.n	100003d2 <manage_relay+0x22>
100003f4:	682b      	ldr	r3, [r5, #0]
100003f6:	6832      	ldr	r2, [r6, #0]
100003f8:	330f      	adds	r3, #15
100003fa:	4293      	cmp	r3, r2
100003fc:	daf3      	bge.n	100003e6 <manage_relay+0x36>
100003fe:	464b      	mov	r3, r9
10000400:	6023      	str	r3, [r4, #0]
10000402:	2301      	movs	r3, #1
10000404:	4650      	mov	r0, sl
10000406:	61bb      	str	r3, [r7, #24]
10000408:	f004 fdda 	bl	10004fc0 <__wrap_puts>
1000040c:	e7eb      	b.n	100003e6 <manage_relay+0x36>
1000040e:	46c0      	nop			; (mov r8, r8)
10000410:	1000b510 	.word	0x1000b510
10000414:	1000b51c 	.word	0x1000b51c
10000418:	20001c04 	.word	0x20001c04
1000041c:	20001764 	.word	0x20001764
10000420:	20001c38 	.word	0x20001c38

10000424 <manage_sensor>:
10000424:	b5f0      	push	{r4, r5, r6, r7, lr}
10000426:	464f      	mov	r7, r9
10000428:	4646      	mov	r6, r8
1000042a:	46d6      	mov	lr, sl
1000042c:	4b22      	ldr	r3, [pc, #136]	; (100004b8 <manage_sensor+0x94>)
1000042e:	b5c0      	push	{r6, r7, lr}
10000430:	4698      	mov	r8, r3
10000432:	4b22      	ldr	r3, [pc, #136]	; (100004bc <manage_sensor+0x98>)
10000434:	4c22      	ldr	r4, [pc, #136]	; (100004c0 <manage_sensor+0x9c>)
10000436:	4699      	mov	r9, r3
10000438:	4d22      	ldr	r5, [pc, #136]	; (100004c4 <manage_sensor+0xa0>)
1000043a:	4f23      	ldr	r7, [pc, #140]	; (100004c8 <manage_sensor+0xa4>)
1000043c:	4e23      	ldr	r6, [pc, #140]	; (100004cc <manage_sensor+0xa8>)
1000043e:	e019      	b.n	10000474 <manage_sensor+0x50>
10000440:	2b01      	cmp	r3, #1
10000442:	d102      	bne.n	1000044a <manage_sensor+0x26>
10000444:	6820      	ldr	r0, [r4, #0]
10000446:	f000 fad7 	bl	100009f8 <seven_seg_display_humidity>
1000044a:	6828      	ldr	r0, [r5, #0]
1000044c:	f004 fb5c 	bl	10004b08 <__wrap___aeabi_i2f>
10000450:	491f      	ldr	r1, [pc, #124]	; (100004d0 <manage_sensor+0xac>)
10000452:	f004 fb38 	bl	10004ac6 <__wrap___aeabi_fdiv>
10000456:	f004 fbb1 	bl	10004bbc <__wrap___aeabi_f2d>
1000045a:	0002      	movs	r2, r0
1000045c:	000b      	movs	r3, r1
1000045e:	0038      	movs	r0, r7
10000460:	f004 fe50 	bl	10005104 <__wrap_printf>
10000464:	0030      	movs	r0, r6
10000466:	6821      	ldr	r1, [r4, #0]
10000468:	f004 fe4c 	bl	10005104 <__wrap_printf>
1000046c:	209b      	movs	r0, #155	; 0x9b
1000046e:	0180      	lsls	r0, r0, #6
10000470:	f008 fa0c 	bl	1000888c <vTaskDelay>
10000474:	f000 fb50 	bl	10000b18 <aht20_start_measurement>
10000478:	2050      	movs	r0, #80	; 0x50
1000047a:	f008 fa07 	bl	1000888c <vTaskDelay>
1000047e:	f000 fb63 	bl	10000b48 <aht20_read_measurement>
10000482:	f000 fbcf 	bl	10000c24 <aht20_get_temp>
10000486:	4682      	mov	sl, r0
10000488:	f000 fbd2 	bl	10000c30 <aht20_get_humidity>
1000048c:	6020      	str	r0, [r4, #0]
1000048e:	4650      	mov	r0, sl
10000490:	f000 fbdc 	bl	10000c4c <buffer_append>
10000494:	f000 fbea 	bl	10000c6c <buffer_get_avg>
10000498:	4643      	mov	r3, r8
1000049a:	781b      	ldrb	r3, [r3, #0]
1000049c:	6028      	str	r0, [r5, #0]
1000049e:	2b00      	cmp	r3, #0
100004a0:	d1d3      	bne.n	1000044a <manage_sensor+0x26>
100004a2:	464b      	mov	r3, r9
100004a4:	781b      	ldrb	r3, [r3, #0]
100004a6:	2b00      	cmp	r3, #0
100004a8:	d1ca      	bne.n	10000440 <manage_sensor+0x1c>
100004aa:	6828      	ldr	r0, [r5, #0]
100004ac:	f000 fa4e 	bl	1000094c <seven_seg_display_temp>
100004b0:	464b      	mov	r3, r9
100004b2:	781b      	ldrb	r3, [r3, #0]
100004b4:	e7c4      	b.n	10000440 <manage_sensor+0x1c>
100004b6:	46c0      	nop			; (mov r8, r8)
100004b8:	20001c63 	.word	0x20001c63
100004bc:	20001c5c 	.word	0x20001c5c
100004c0:	2000175c 	.word	0x2000175c
100004c4:	20001764 	.word	0x20001764
100004c8:	1000b528 	.word	0x1000b528
100004cc:	1000b538 	.word	0x1000b538
100004d0:	41200000 	.word	0x41200000

100004d4 <screen_timeout_callback>:
100004d4:	2200      	movs	r2, #0
100004d6:	b510      	push	{r4, lr}
100004d8:	4b0b      	ldr	r3, [pc, #44]	; (10000508 <screen_timeout_callback+0x34>)
100004da:	701a      	strb	r2, [r3, #0]
100004dc:	4b0b      	ldr	r3, [pc, #44]	; (1000050c <screen_timeout_callback+0x38>)
100004de:	781b      	ldrb	r3, [r3, #0]
100004e0:	2b00      	cmp	r3, #0
100004e2:	d004      	beq.n	100004ee <screen_timeout_callback+0x1a>
100004e4:	2b01      	cmp	r3, #1
100004e6:	d00a      	beq.n	100004fe <screen_timeout_callback+0x2a>
100004e8:	2b02      	cmp	r3, #2
100004ea:	d005      	beq.n	100004f8 <screen_timeout_callback+0x24>
100004ec:	bd10      	pop	{r4, pc}
100004ee:	4b08      	ldr	r3, [pc, #32]	; (10000510 <screen_timeout_callback+0x3c>)
100004f0:	6818      	ldr	r0, [r3, #0]
100004f2:	f000 fa2b 	bl	1000094c <seven_seg_display_temp>
100004f6:	e7f9      	b.n	100004ec <screen_timeout_callback+0x18>
100004f8:	f000 f9d2 	bl	100008a0 <seven_seg_display_off>
100004fc:	e7f6      	b.n	100004ec <screen_timeout_callback+0x18>
100004fe:	4b05      	ldr	r3, [pc, #20]	; (10000514 <screen_timeout_callback+0x40>)
10000500:	6818      	ldr	r0, [r3, #0]
10000502:	f000 fa79 	bl	100009f8 <seven_seg_display_humidity>
10000506:	e7f1      	b.n	100004ec <screen_timeout_callback+0x18>
10000508:	20001c63 	.word	0x20001c63
1000050c:	20001c5c 	.word	0x20001c5c
10000510:	20001764 	.word	0x20001764
10000514:	2000175c 	.word	0x2000175c

10000518 <get_inputs>:
10000518:	b5f0      	push	{r4, r5, r6, r7, lr}
1000051a:	4657      	mov	r7, sl
1000051c:	464e      	mov	r6, r9
1000051e:	4645      	mov	r5, r8
10000520:	46de      	mov	lr, fp
10000522:	b5e0      	push	{r5, r6, r7, lr}
10000524:	25d0      	movs	r5, #208	; 0xd0
10000526:	4b57      	ldr	r3, [pc, #348]	; (10000684 <get_inputs+0x16c>)
10000528:	2401      	movs	r4, #1
1000052a:	4699      	mov	r9, r3
1000052c:	4b56      	ldr	r3, [pc, #344]	; (10000688 <get_inputs+0x170>)
1000052e:	4f57      	ldr	r7, [pc, #348]	; (1000068c <get_inputs+0x174>)
10000530:	469a      	mov	sl, r3
10000532:	4b57      	ldr	r3, [pc, #348]	; (10000690 <get_inputs+0x178>)
10000534:	4e57      	ldr	r6, [pc, #348]	; (10000694 <get_inputs+0x17c>)
10000536:	4698      	mov	r8, r3
10000538:	b083      	sub	sp, #12
1000053a:	062d      	lsls	r5, r5, #24
1000053c:	e02d      	b.n	1000059a <get_inputs+0x82>
1000053e:	7833      	ldrb	r3, [r6, #0]
10000540:	2b00      	cmp	r3, #0
10000542:	d005      	beq.n	10000550 <get_inputs+0x38>
10000544:	0022      	movs	r2, r4
10000546:	686b      	ldr	r3, [r5, #4]
10000548:	0b1b      	lsrs	r3, r3, #12
1000054a:	401a      	ands	r2, r3
1000054c:	421c      	tst	r4, r3
1000054e:	d060      	beq.n	10000612 <get_inputs+0xfa>
10000550:	4643      	mov	r3, r8
10000552:	781b      	ldrb	r3, [r3, #0]
10000554:	2b00      	cmp	r3, #0
10000556:	d005      	beq.n	10000564 <get_inputs+0x4c>
10000558:	0023      	movs	r3, r4
1000055a:	686a      	ldr	r2, [r5, #4]
1000055c:	0a52      	lsrs	r2, r2, #9
1000055e:	4013      	ands	r3, r2
10000560:	4214      	tst	r4, r2
10000562:	d045      	beq.n	100005f0 <get_inputs+0xd8>
10000564:	783a      	ldrb	r2, [r7, #0]
10000566:	2a00      	cmp	r2, #0
10000568:	d104      	bne.n	10000574 <get_inputs+0x5c>
1000056a:	686a      	ldr	r2, [r5, #4]
1000056c:	0b92      	lsrs	r2, r2, #14
1000056e:	4214      	tst	r4, r2
10000570:	d000      	beq.n	10000574 <get_inputs+0x5c>
10000572:	703c      	strb	r4, [r7, #0]
10000574:	7832      	ldrb	r2, [r6, #0]
10000576:	2a00      	cmp	r2, #0
10000578:	d104      	bne.n	10000584 <get_inputs+0x6c>
1000057a:	686a      	ldr	r2, [r5, #4]
1000057c:	0b12      	lsrs	r2, r2, #12
1000057e:	4214      	tst	r4, r2
10000580:	d000      	beq.n	10000584 <get_inputs+0x6c>
10000582:	7034      	strb	r4, [r6, #0]
10000584:	2b00      	cmp	r3, #0
10000586:	d105      	bne.n	10000594 <get_inputs+0x7c>
10000588:	686b      	ldr	r3, [r5, #4]
1000058a:	0a5b      	lsrs	r3, r3, #9
1000058c:	421c      	tst	r4, r3
1000058e:	d001      	beq.n	10000594 <get_inputs+0x7c>
10000590:	4643      	mov	r3, r8
10000592:	701c      	strb	r4, [r3, #0]
10000594:	2005      	movs	r0, #5
10000596:	f008 f979 	bl	1000888c <vTaskDelay>
1000059a:	783b      	ldrb	r3, [r7, #0]
1000059c:	2b00      	cmp	r3, #0
1000059e:	d0ce      	beq.n	1000053e <get_inputs+0x26>
100005a0:	0022      	movs	r2, r4
100005a2:	686b      	ldr	r3, [r5, #4]
100005a4:	0b9b      	lsrs	r3, r3, #14
100005a6:	401a      	ands	r2, r3
100005a8:	421c      	tst	r4, r3
100005aa:	d1c8      	bne.n	1000053e <get_inputs+0x26>
100005ac:	4b3a      	ldr	r3, [pc, #232]	; (10000698 <get_inputs+0x180>)
100005ae:	703a      	strb	r2, [r7, #0]
100005b0:	781b      	ldrb	r3, [r3, #0]
100005b2:	2b00      	cmp	r3, #0
100005b4:	d04f      	beq.n	10000656 <get_inputs+0x13e>
100005b6:	464b      	mov	r3, r9
100005b8:	464a      	mov	r2, r9
100005ba:	681b      	ldr	r3, [r3, #0]
100005bc:	330a      	adds	r3, #10
100005be:	6013      	str	r3, [r2, #0]
100005c0:	4653      	mov	r3, sl
100005c2:	681b      	ldr	r3, [r3, #0]
100005c4:	469b      	mov	fp, r3
100005c6:	f008 f98b 	bl	100088e0 <xTaskGetTickCount>
100005ca:	2301      	movs	r3, #1
100005cc:	425b      	negs	r3, r3
100005ce:	0002      	movs	r2, r0
100005d0:	2101      	movs	r1, #1
100005d2:	9300      	str	r3, [sp, #0]
100005d4:	4658      	mov	r0, fp
100005d6:	2300      	movs	r3, #0
100005d8:	f009 f86a 	bl	100096b0 <xTimerGenericCommand>
100005dc:	464b      	mov	r3, r9
100005de:	6818      	ldr	r0, [r3, #0]
100005e0:	f000 f9b4 	bl	1000094c <seven_seg_display_temp>
100005e4:	464b      	mov	r3, r9
100005e6:	482d      	ldr	r0, [pc, #180]	; (1000069c <get_inputs+0x184>)
100005e8:	6819      	ldr	r1, [r3, #0]
100005ea:	f004 fd8b 	bl	10005104 <__wrap_printf>
100005ee:	e7a6      	b.n	1000053e <get_inputs+0x26>
100005f0:	4642      	mov	r2, r8
100005f2:	7013      	strb	r3, [r2, #0]
100005f4:	4a2a      	ldr	r2, [pc, #168]	; (100006a0 <get_inputs+0x188>)
100005f6:	7812      	ldrb	r2, [r2, #0]
100005f8:	2a00      	cmp	r2, #0
100005fa:	d032      	beq.n	10000662 <get_inputs+0x14a>
100005fc:	2a01      	cmp	r2, #1
100005fe:	d039      	beq.n	10000674 <get_inputs+0x15c>
10000600:	4a27      	ldr	r2, [pc, #156]	; (100006a0 <get_inputs+0x188>)
10000602:	7013      	strb	r3, [r2, #0]
10000604:	4b27      	ldr	r3, [pc, #156]	; (100006a4 <get_inputs+0x18c>)
10000606:	6818      	ldr	r0, [r3, #0]
10000608:	f000 f9a0 	bl	1000094c <seven_seg_display_temp>
1000060c:	4643      	mov	r3, r8
1000060e:	781b      	ldrb	r3, [r3, #0]
10000610:	e7a8      	b.n	10000564 <get_inputs+0x4c>
10000612:	4b21      	ldr	r3, [pc, #132]	; (10000698 <get_inputs+0x180>)
10000614:	7032      	strb	r2, [r6, #0]
10000616:	781b      	ldrb	r3, [r3, #0]
10000618:	2b00      	cmp	r3, #0
1000061a:	d01f      	beq.n	1000065c <get_inputs+0x144>
1000061c:	464b      	mov	r3, r9
1000061e:	464a      	mov	r2, r9
10000620:	681b      	ldr	r3, [r3, #0]
10000622:	3b0a      	subs	r3, #10
10000624:	6013      	str	r3, [r2, #0]
10000626:	4653      	mov	r3, sl
10000628:	681b      	ldr	r3, [r3, #0]
1000062a:	469b      	mov	fp, r3
1000062c:	f008 f958 	bl	100088e0 <xTaskGetTickCount>
10000630:	2301      	movs	r3, #1
10000632:	425b      	negs	r3, r3
10000634:	0002      	movs	r2, r0
10000636:	2101      	movs	r1, #1
10000638:	9300      	str	r3, [sp, #0]
1000063a:	4658      	mov	r0, fp
1000063c:	2300      	movs	r3, #0
1000063e:	f009 f837 	bl	100096b0 <xTimerGenericCommand>
10000642:	464b      	mov	r3, r9
10000644:	6818      	ldr	r0, [r3, #0]
10000646:	f000 f981 	bl	1000094c <seven_seg_display_temp>
1000064a:	464b      	mov	r3, r9
1000064c:	4813      	ldr	r0, [pc, #76]	; (1000069c <get_inputs+0x184>)
1000064e:	6819      	ldr	r1, [r3, #0]
10000650:	f004 fd58 	bl	10005104 <__wrap_printf>
10000654:	e77c      	b.n	10000550 <get_inputs+0x38>
10000656:	4b10      	ldr	r3, [pc, #64]	; (10000698 <get_inputs+0x180>)
10000658:	701c      	strb	r4, [r3, #0]
1000065a:	e7b1      	b.n	100005c0 <get_inputs+0xa8>
1000065c:	4b0e      	ldr	r3, [pc, #56]	; (10000698 <get_inputs+0x180>)
1000065e:	701c      	strb	r4, [r3, #0]
10000660:	e7e1      	b.n	10000626 <get_inputs+0x10e>
10000662:	4b0f      	ldr	r3, [pc, #60]	; (100006a0 <get_inputs+0x188>)
10000664:	701c      	strb	r4, [r3, #0]
10000666:	4b10      	ldr	r3, [pc, #64]	; (100006a8 <get_inputs+0x190>)
10000668:	6818      	ldr	r0, [r3, #0]
1000066a:	f000 f9c5 	bl	100009f8 <seven_seg_display_humidity>
1000066e:	4643      	mov	r3, r8
10000670:	781b      	ldrb	r3, [r3, #0]
10000672:	e777      	b.n	10000564 <get_inputs+0x4c>
10000674:	2302      	movs	r3, #2
10000676:	4a0a      	ldr	r2, [pc, #40]	; (100006a0 <get_inputs+0x188>)
10000678:	7013      	strb	r3, [r2, #0]
1000067a:	f000 f911 	bl	100008a0 <seven_seg_display_off>
1000067e:	4643      	mov	r3, r8
10000680:	781b      	ldrb	r3, [r3, #0]
10000682:	e76f      	b.n	10000564 <get_inputs+0x4c>
10000684:	20001c38 	.word	0x20001c38
10000688:	20001c10 	.word	0x20001c10
1000068c:	2000038a 	.word	0x2000038a
10000690:	20000388 	.word	0x20000388
10000694:	20000389 	.word	0x20000389
10000698:	20001c63 	.word	0x20001c63
1000069c:	1000b54c 	.word	0x1000b54c
100006a0:	20001c5c 	.word	0x20001c5c
100006a4:	20001764 	.word	0x20001764
100006a8:	2000175c 	.word	0x2000175c

100006ac <intialize_ios>:
100006ac:	b570      	push	{r4, r5, r6, lr}
100006ae:	f004 fd35 	bl	1000511c <stdio_init_all>
100006b2:	2019      	movs	r0, #25
100006b4:	f000 fb1e 	bl	10000cf4 <gpio_init>
100006b8:	24d0      	movs	r4, #208	; 0xd0
100006ba:	2380      	movs	r3, #128	; 0x80
100006bc:	0624      	lsls	r4, r4, #24
100006be:	049b      	lsls	r3, r3, #18
100006c0:	6263      	str	r3, [r4, #36]	; 0x24
100006c2:	200e      	movs	r0, #14
100006c4:	f000 fb16 	bl	10000cf4 <gpio_init>
100006c8:	200c      	movs	r0, #12
100006ca:	f000 fb13 	bl	10000cf4 <gpio_init>
100006ce:	2009      	movs	r0, #9
100006d0:	f000 fb10 	bl	10000cf4 <gpio_init>
100006d4:	2380      	movs	r3, #128	; 0x80
100006d6:	01db      	lsls	r3, r3, #7
100006d8:	62a3      	str	r3, [r4, #40]	; 0x28
100006da:	2380      	movs	r3, #128	; 0x80
100006dc:	015b      	lsls	r3, r3, #5
100006de:	62a3      	str	r3, [r4, #40]	; 0x28
100006e0:	2380      	movs	r3, #128	; 0x80
100006e2:	2501      	movs	r5, #1
100006e4:	009b      	lsls	r3, r3, #2
100006e6:	62a3      	str	r3, [r4, #40]	; 0x28
100006e8:	2200      	movs	r2, #0
100006ea:	2101      	movs	r1, #1
100006ec:	200e      	movs	r0, #14
100006ee:	f000 fae9 	bl	10000cc4 <gpio_set_pulls>
100006f2:	2200      	movs	r2, #0
100006f4:	2101      	movs	r1, #1
100006f6:	200c      	movs	r0, #12
100006f8:	f000 fae4 	bl	10000cc4 <gpio_set_pulls>
100006fc:	2200      	movs	r2, #0
100006fe:	2101      	movs	r1, #1
10000700:	2009      	movs	r0, #9
10000702:	f000 fadf 	bl	10000cc4 <gpio_set_pulls>
10000706:	2000      	movs	r0, #0
10000708:	f000 faf4 	bl	10000cf4 <gpio_init>
1000070c:	6265      	str	r5, [r4, #36]	; 0x24
1000070e:	2201      	movs	r2, #1
10000710:	2100      	movs	r1, #0
10000712:	2000      	movs	r0, #0
10000714:	f000 fad6 	bl	10000cc4 <gpio_set_pulls>
10000718:	61a5      	str	r5, [r4, #24]
1000071a:	bd70      	pop	{r4, r5, r6, pc}

1000071c <system_initialize>:
1000071c:	2200      	movs	r2, #0
1000071e:	21af      	movs	r1, #175	; 0xaf
10000720:	4b1c      	ldr	r3, [pc, #112]	; (10000794 <system_initialize+0x78>)
10000722:	b530      	push	{r4, r5, lr}
10000724:	701a      	strb	r2, [r3, #0]
10000726:	4b1c      	ldr	r3, [pc, #112]	; (10000798 <system_initialize+0x7c>)
10000728:	0089      	lsls	r1, r1, #2
1000072a:	6019      	str	r1, [r3, #0]
1000072c:	481b      	ldr	r0, [pc, #108]	; (1000079c <system_initialize+0x80>)
1000072e:	491c      	ldr	r1, [pc, #112]	; (100007a0 <system_initialize+0x84>)
10000730:	b087      	sub	sp, #28
10000732:	6008      	str	r0, [r1, #0]
10000734:	2063      	movs	r0, #99	; 0x63
10000736:	491b      	ldr	r1, [pc, #108]	; (100007a4 <system_initialize+0x88>)
10000738:	6008      	str	r0, [r1, #0]
1000073a:	6818      	ldr	r0, [r3, #0]
1000073c:	491a      	ldr	r1, [pc, #104]	; (100007a8 <system_initialize+0x8c>)
1000073e:	3014      	adds	r0, #20
10000740:	700a      	strb	r2, [r1, #0]
10000742:	f000 fa7b 	bl	10000c3c <buffer_initialize>
10000746:	f7ff ffb1 	bl	100006ac <intialize_ios>
1000074a:	f000 f995 	bl	10000a78 <i2c_module_initialize>
1000074e:	f000 f891 	bl	10000874 <seven_seg_begin>
10000752:	2014      	movs	r0, #20
10000754:	f008 f89a 	bl	1000888c <vTaskDelay>
10000758:	f000 f9c8 	bl	10000aec <aht20_initialize>
1000075c:	4b13      	ldr	r3, [pc, #76]	; (100007ac <system_initialize+0x90>)
1000075e:	681c      	ldr	r4, [r3, #0]
10000760:	f008 f8be 	bl	100088e0 <xTaskGetTickCount>
10000764:	2301      	movs	r3, #1
10000766:	425b      	negs	r3, r3
10000768:	2101      	movs	r1, #1
1000076a:	0002      	movs	r2, r0
1000076c:	9300      	str	r3, [sp, #0]
1000076e:	0020      	movs	r0, r4
10000770:	2300      	movs	r3, #0
10000772:	f008 ff9d 	bl	100096b0 <xTimerGenericCommand>
10000776:	a802      	add	r0, sp, #8
10000778:	0002      	movs	r2, r0
1000077a:	4b0d      	ldr	r3, [pc, #52]	; (100007b0 <system_initialize+0x94>)
1000077c:	cb32      	ldmia	r3!, {r1, r4, r5}
1000077e:	c232      	stmia	r2!, {r1, r4, r5}
10000780:	681b      	ldr	r3, [r3, #0]
10000782:	6013      	str	r3, [r2, #0]
10000784:	f000 f8a0 	bl	100008c8 <seven_seg_display_test>
10000788:	2000      	movs	r0, #0
1000078a:	f007 fce3 	bl	10008154 <vTaskDelete>
1000078e:	b007      	add	sp, #28
10000790:	bd30      	pop	{r4, r5, pc}
10000792:	46c0      	nop			; (mov r8, r8)
10000794:	20001c5c 	.word	0x20001c5c
10000798:	20001c38 	.word	0x20001c38
1000079c:	000003e7 	.word	0x000003e7
100007a0:	20001764 	.word	0x20001764
100007a4:	2000175c 	.word	0x2000175c
100007a8:	20001c63 	.word	0x20001c63
100007ac:	20001c54 	.word	0x20001c54
100007b0:	1000b5bc 	.word	0x1000b5bc

100007b4 <main>:
100007b4:	21fa      	movs	r1, #250	; 0xfa
100007b6:	b530      	push	{r4, r5, lr}
100007b8:	4b1f      	ldr	r3, [pc, #124]	; (10000838 <main+0x84>)
100007ba:	b083      	sub	sp, #12
100007bc:	2200      	movs	r2, #0
100007be:	9300      	str	r3, [sp, #0]
100007c0:	00c9      	lsls	r1, r1, #3
100007c2:	2300      	movs	r3, #0
100007c4:	481d      	ldr	r0, [pc, #116]	; (1000083c <main+0x88>)
100007c6:	f008 ff1f 	bl	10009608 <xTimerCreate>
100007ca:	4b1d      	ldr	r3, [pc, #116]	; (10000840 <main+0x8c>)
100007cc:	2200      	movs	r2, #0
100007ce:	6018      	str	r0, [r3, #0]
100007d0:	4b1c      	ldr	r3, [pc, #112]	; (10000844 <main+0x90>)
100007d2:	491d      	ldr	r1, [pc, #116]	; (10000848 <main+0x94>)
100007d4:	9300      	str	r3, [sp, #0]
100007d6:	481d      	ldr	r0, [pc, #116]	; (1000084c <main+0x98>)
100007d8:	2300      	movs	r3, #0
100007da:	f008 ff15 	bl	10009608 <xTimerCreate>
100007de:	2400      	movs	r4, #0
100007e0:	2501      	movs	r5, #1
100007e2:	2280      	movs	r2, #128	; 0x80
100007e4:	4b1a      	ldr	r3, [pc, #104]	; (10000850 <main+0x9c>)
100007e6:	491b      	ldr	r1, [pc, #108]	; (10000854 <main+0xa0>)
100007e8:	6018      	str	r0, [r3, #0]
100007ea:	0052      	lsls	r2, r2, #1
100007ec:	2300      	movs	r3, #0
100007ee:	481a      	ldr	r0, [pc, #104]	; (10000858 <main+0xa4>)
100007f0:	9401      	str	r4, [sp, #4]
100007f2:	9500      	str	r5, [sp, #0]
100007f4:	f007 fb98 	bl	10007f28 <xTaskCreate>
100007f8:	2305      	movs	r3, #5
100007fa:	2280      	movs	r2, #128	; 0x80
100007fc:	4917      	ldr	r1, [pc, #92]	; (1000085c <main+0xa8>)
100007fe:	9300      	str	r3, [sp, #0]
10000800:	0052      	lsls	r2, r2, #1
10000802:	2300      	movs	r3, #0
10000804:	4816      	ldr	r0, [pc, #88]	; (10000860 <main+0xac>)
10000806:	9401      	str	r4, [sp, #4]
10000808:	f007 fb8e 	bl	10007f28 <xTaskCreate>
1000080c:	2302      	movs	r3, #2
1000080e:	2280      	movs	r2, #128	; 0x80
10000810:	4914      	ldr	r1, [pc, #80]	; (10000864 <main+0xb0>)
10000812:	9300      	str	r3, [sp, #0]
10000814:	0052      	lsls	r2, r2, #1
10000816:	2300      	movs	r3, #0
10000818:	4813      	ldr	r0, [pc, #76]	; (10000868 <main+0xb4>)
1000081a:	9401      	str	r4, [sp, #4]
1000081c:	f007 fb84 	bl	10007f28 <xTaskCreate>
10000820:	2280      	movs	r2, #128	; 0x80
10000822:	2300      	movs	r3, #0
10000824:	4911      	ldr	r1, [pc, #68]	; (1000086c <main+0xb8>)
10000826:	0052      	lsls	r2, r2, #1
10000828:	4811      	ldr	r0, [pc, #68]	; (10000870 <main+0xbc>)
1000082a:	9401      	str	r4, [sp, #4]
1000082c:	9500      	str	r5, [sp, #0]
1000082e:	f007 fb7b 	bl	10007f28 <xTaskCreate>
10000832:	f007 fe8b 	bl	1000854c <vTaskStartScheduler>
10000836:	e7fe      	b.n	10000836 <main+0x82>
10000838:	100004d5 	.word	0x100004d5
1000083c:	1000b564 	.word	0x1000b564
10000840:	20001c10 	.word	0x20001c10
10000844:	1000035d 	.word	0x1000035d
10000848:	00001770 	.word	0x00001770
1000084c:	1000b574 	.word	0x1000b574
10000850:	20001c54 	.word	0x20001c54
10000854:	1000b580 	.word	0x1000b580
10000858:	10000385 	.word	0x10000385
1000085c:	1000b58c 	.word	0x1000b58c
10000860:	1000071d 	.word	0x1000071d
10000864:	1000b5a0 	.word	0x1000b5a0
10000868:	10000519 	.word	0x10000519
1000086c:	1000b5ac 	.word	0x1000b5ac
10000870:	100003b1 	.word	0x100003b1

10000874 <seven_seg_begin>:
10000874:	b500      	push	{lr}
10000876:	b083      	sub	sp, #12
10000878:	466a      	mov	r2, sp
1000087a:	4b08      	ldr	r3, [pc, #32]	; (1000089c <seven_seg_begin+0x28>)
1000087c:	4669      	mov	r1, sp
1000087e:	781b      	ldrb	r3, [r3, #0]
10000880:	2070      	movs	r0, #112	; 0x70
10000882:	7013      	strb	r3, [r2, #0]
10000884:	2201      	movs	r2, #1
10000886:	f000 f913 	bl	10000ab0 <i2c_module_send>
1000088a:	23ef      	movs	r3, #239	; 0xef
1000088c:	a901      	add	r1, sp, #4
1000088e:	2070      	movs	r0, #112	; 0x70
10000890:	2201      	movs	r2, #1
10000892:	700b      	strb	r3, [r1, #0]
10000894:	f000 f90c 	bl	10000ab0 <i2c_module_send>
10000898:	b003      	add	sp, #12
1000089a:	bd00      	pop	{pc}
1000089c:	1000b5cc 	.word	0x1000b5cc

100008a0 <seven_seg_display_off>:
100008a0:	b500      	push	{lr}
100008a2:	4b07      	ldr	r3, [pc, #28]	; (100008c0 <seven_seg_display_off+0x20>)
100008a4:	b083      	sub	sp, #12
100008a6:	781b      	ldrb	r3, [r3, #0]
100008a8:	a901      	add	r1, sp, #4
100008aa:	2201      	movs	r2, #1
100008ac:	2070      	movs	r0, #112	; 0x70
100008ae:	700b      	strb	r3, [r1, #0]
100008b0:	f000 f8fe 	bl	10000ab0 <i2c_module_send>
100008b4:	2200      	movs	r2, #0
100008b6:	4b03      	ldr	r3, [pc, #12]	; (100008c4 <seven_seg_display_off+0x24>)
100008b8:	701a      	strb	r2, [r3, #0]
100008ba:	b003      	add	sp, #12
100008bc:	bd00      	pop	{pc}
100008be:	46c0      	nop			; (mov r8, r8)
100008c0:	1000b5d4 	.word	0x1000b5d4
100008c4:	20001c5d 	.word	0x20001c5d

100008c8 <seven_seg_display_test>:
100008c8:	b570      	push	{r4, r5, r6, lr}
100008ca:	6802      	ldr	r2, [r0, #0]
100008cc:	b082      	sub	sp, #8
100008ce:	2a11      	cmp	r2, #17
100008d0:	d827      	bhi.n	10000922 <seven_seg_display_test+0x5a>
100008d2:	6841      	ldr	r1, [r0, #4]
100008d4:	2911      	cmp	r1, #17
100008d6:	d824      	bhi.n	10000922 <seven_seg_display_test+0x5a>
100008d8:	6884      	ldr	r4, [r0, #8]
100008da:	2c11      	cmp	r4, #17
100008dc:	d821      	bhi.n	10000922 <seven_seg_display_test+0x5a>
100008de:	68c0      	ldr	r0, [r0, #12]
100008e0:	2811      	cmp	r0, #17
100008e2:	d81e      	bhi.n	10000922 <seven_seg_display_test+0x5a>
100008e4:	4b15      	ldr	r3, [pc, #84]	; (1000093c <seven_seg_display_test+0x74>)
100008e6:	4d16      	ldr	r5, [pc, #88]	; (10000940 <seven_seg_display_test+0x78>)
100008e8:	5c9a      	ldrb	r2, [r3, r2]
100008ea:	ae01      	add	r6, sp, #4
100008ec:	702a      	strb	r2, [r5, #0]
100008ee:	5c5a      	ldrb	r2, [r3, r1]
100008f0:	706a      	strb	r2, [r5, #1]
100008f2:	2200      	movs	r2, #0
100008f4:	70aa      	strb	r2, [r5, #2]
100008f6:	5d1a      	ldrb	r2, [r3, r4]
100008f8:	5c1b      	ldrb	r3, [r3, r0]
100008fa:	4c12      	ldr	r4, [pc, #72]	; (10000944 <seven_seg_display_test+0x7c>)
100008fc:	712b      	strb	r3, [r5, #4]
100008fe:	7823      	ldrb	r3, [r4, #0]
10000900:	70ea      	strb	r2, [r5, #3]
10000902:	2b00      	cmp	r3, #0
10000904:	d00f      	beq.n	10000926 <seven_seg_display_test+0x5e>
10000906:	2400      	movs	r4, #0
10000908:	782b      	ldrb	r3, [r5, #0]
1000090a:	7034      	strb	r4, [r6, #0]
1000090c:	3402      	adds	r4, #2
1000090e:	2202      	movs	r2, #2
10000910:	0031      	movs	r1, r6
10000912:	2070      	movs	r0, #112	; 0x70
10000914:	b2e4      	uxtb	r4, r4
10000916:	7073      	strb	r3, [r6, #1]
10000918:	3501      	adds	r5, #1
1000091a:	f000 f8c9 	bl	10000ab0 <i2c_module_send>
1000091e:	2c0a      	cmp	r4, #10
10000920:	d1f2      	bne.n	10000908 <seven_seg_display_test+0x40>
10000922:	b002      	add	sp, #8
10000924:	bd70      	pop	{r4, r5, r6, pc}
10000926:	4b08      	ldr	r3, [pc, #32]	; (10000948 <seven_seg_display_test+0x80>)
10000928:	2201      	movs	r2, #1
1000092a:	781b      	ldrb	r3, [r3, #0]
1000092c:	0031      	movs	r1, r6
1000092e:	2070      	movs	r0, #112	; 0x70
10000930:	7033      	strb	r3, [r6, #0]
10000932:	f000 f8bd 	bl	10000ab0 <i2c_module_send>
10000936:	2301      	movs	r3, #1
10000938:	7023      	strb	r3, [r4, #0]
1000093a:	e7e4      	b.n	10000906 <seven_seg_display_test+0x3e>
1000093c:	1000b5d8 	.word	0x1000b5d8
10000940:	200017d0 	.word	0x200017d0
10000944:	20001c5d 	.word	0x20001c5d
10000948:	1000b5d0 	.word	0x1000b5d0

1000094c <seven_seg_display_temp>:
1000094c:	b5f0      	push	{r4, r5, r6, r7, lr}
1000094e:	46c6      	mov	lr, r8
10000950:	0002      	movs	r2, r0
10000952:	23af      	movs	r3, #175	; 0xaf
10000954:	b500      	push	{lr}
10000956:	3a2d      	subs	r2, #45	; 0x2d
10000958:	3aff      	subs	r2, #255	; 0xff
1000095a:	0004      	movs	r4, r0
1000095c:	b082      	sub	sp, #8
1000095e:	009b      	lsls	r3, r3, #2
10000960:	429a      	cmp	r2, r3
10000962:	d232      	bcs.n	100009ca <seven_seg_display_temp+0x7e>
10000964:	4d20      	ldr	r5, [pc, #128]	; (100009e8 <seven_seg_display_temp+0x9c>)
10000966:	ae01      	add	r6, sp, #4
10000968:	782b      	ldrb	r3, [r5, #0]
1000096a:	2b00      	cmp	r3, #0
1000096c:	d031      	beq.n	100009d2 <seven_seg_display_temp+0x86>
1000096e:	0020      	movs	r0, r4
10000970:	210a      	movs	r1, #10
10000972:	f003 f9fd 	bl	10003d70 <__wrap___aeabi_idiv>
10000976:	4f1d      	ldr	r7, [pc, #116]	; (100009ec <seven_seg_display_temp+0xa0>)
10000978:	4d1d      	ldr	r5, [pc, #116]	; (100009f0 <seven_seg_display_temp+0xa4>)
1000097a:	5c7b      	ldrb	r3, [r7, r1]
1000097c:	0020      	movs	r0, r4
1000097e:	712b      	strb	r3, [r5, #4]
10000980:	210a      	movs	r1, #10
10000982:	f003 f9f5 	bl	10003d70 <__wrap___aeabi_idiv>
10000986:	210a      	movs	r1, #10
10000988:	0004      	movs	r4, r0
1000098a:	f003 f9f1 	bl	10003d70 <__wrap___aeabi_idiv>
1000098e:	2380      	movs	r3, #128	; 0x80
10000990:	5c7a      	ldrb	r2, [r7, r1]
10000992:	425b      	negs	r3, r3
10000994:	4313      	orrs	r3, r2
10000996:	70eb      	strb	r3, [r5, #3]
10000998:	2300      	movs	r3, #0
1000099a:	0020      	movs	r0, r4
1000099c:	70ab      	strb	r3, [r5, #2]
1000099e:	210a      	movs	r1, #10
100009a0:	4698      	mov	r8, r3
100009a2:	f003 f9e5 	bl	10003d70 <__wrap___aeabi_idiv>
100009a6:	5c3b      	ldrb	r3, [r7, r0]
100009a8:	2400      	movs	r4, #0
100009aa:	706b      	strb	r3, [r5, #1]
100009ac:	4643      	mov	r3, r8
100009ae:	702b      	strb	r3, [r5, #0]
100009b0:	782b      	ldrb	r3, [r5, #0]
100009b2:	7034      	strb	r4, [r6, #0]
100009b4:	3402      	adds	r4, #2
100009b6:	2202      	movs	r2, #2
100009b8:	0031      	movs	r1, r6
100009ba:	2070      	movs	r0, #112	; 0x70
100009bc:	b2e4      	uxtb	r4, r4
100009be:	7073      	strb	r3, [r6, #1]
100009c0:	3501      	adds	r5, #1
100009c2:	f000 f875 	bl	10000ab0 <i2c_module_send>
100009c6:	2c0a      	cmp	r4, #10
100009c8:	d1f2      	bne.n	100009b0 <seven_seg_display_temp+0x64>
100009ca:	b002      	add	sp, #8
100009cc:	bc80      	pop	{r7}
100009ce:	46b8      	mov	r8, r7
100009d0:	bdf0      	pop	{r4, r5, r6, r7, pc}
100009d2:	4b08      	ldr	r3, [pc, #32]	; (100009f4 <seven_seg_display_temp+0xa8>)
100009d4:	2201      	movs	r2, #1
100009d6:	781b      	ldrb	r3, [r3, #0]
100009d8:	0031      	movs	r1, r6
100009da:	2070      	movs	r0, #112	; 0x70
100009dc:	7033      	strb	r3, [r6, #0]
100009de:	f000 f867 	bl	10000ab0 <i2c_module_send>
100009e2:	2301      	movs	r3, #1
100009e4:	702b      	strb	r3, [r5, #0]
100009e6:	e7c2      	b.n	1000096e <seven_seg_display_temp+0x22>
100009e8:	20001c5d 	.word	0x20001c5d
100009ec:	1000b5d8 	.word	0x1000b5d8
100009f0:	200017d0 	.word	0x200017d0
100009f4:	1000b5d0 	.word	0x1000b5d0

100009f8 <seven_seg_display_humidity>:
100009f8:	b570      	push	{r4, r5, r6, lr}
100009fa:	1e43      	subs	r3, r0, #1
100009fc:	0004      	movs	r4, r0
100009fe:	b082      	sub	sp, #8
10000a00:	2b62      	cmp	r3, #98	; 0x62
10000a02:	d901      	bls.n	10000a08 <seven_seg_display_humidity+0x10>
10000a04:	b002      	add	sp, #8
10000a06:	bd70      	pop	{r4, r5, r6, pc}
10000a08:	2374      	movs	r3, #116	; 0x74
10000a0a:	4d17      	ldr	r5, [pc, #92]	; (10000a68 <seven_seg_display_humidity+0x70>)
10000a0c:	210a      	movs	r1, #10
10000a0e:	802b      	strh	r3, [r5, #0]
10000a10:	2300      	movs	r3, #0
10000a12:	70ab      	strb	r3, [r5, #2]
10000a14:	f003 f9ac 	bl	10003d70 <__wrap___aeabi_idiv>
10000a18:	4e14      	ldr	r6, [pc, #80]	; (10000a6c <seven_seg_display_humidity+0x74>)
10000a1a:	210a      	movs	r1, #10
10000a1c:	5c33      	ldrb	r3, [r6, r0]
10000a1e:	0020      	movs	r0, r4
10000a20:	70eb      	strb	r3, [r5, #3]
10000a22:	f003 f9a5 	bl	10003d70 <__wrap___aeabi_idiv>
10000a26:	4c12      	ldr	r4, [pc, #72]	; (10000a70 <seven_seg_display_humidity+0x78>)
10000a28:	5c73      	ldrb	r3, [r6, r1]
10000a2a:	ae01      	add	r6, sp, #4
10000a2c:	712b      	strb	r3, [r5, #4]
10000a2e:	7823      	ldrb	r3, [r4, #0]
10000a30:	2b00      	cmp	r3, #0
10000a32:	d00e      	beq.n	10000a52 <seven_seg_display_humidity+0x5a>
10000a34:	2400      	movs	r4, #0
10000a36:	782b      	ldrb	r3, [r5, #0]
10000a38:	7034      	strb	r4, [r6, #0]
10000a3a:	3402      	adds	r4, #2
10000a3c:	2202      	movs	r2, #2
10000a3e:	0031      	movs	r1, r6
10000a40:	2070      	movs	r0, #112	; 0x70
10000a42:	7073      	strb	r3, [r6, #1]
10000a44:	b2e4      	uxtb	r4, r4
10000a46:	f000 f833 	bl	10000ab0 <i2c_module_send>
10000a4a:	3501      	adds	r5, #1
10000a4c:	2c0a      	cmp	r4, #10
10000a4e:	d1f2      	bne.n	10000a36 <seven_seg_display_humidity+0x3e>
10000a50:	e7d8      	b.n	10000a04 <seven_seg_display_humidity+0xc>
10000a52:	4b08      	ldr	r3, [pc, #32]	; (10000a74 <seven_seg_display_humidity+0x7c>)
10000a54:	2201      	movs	r2, #1
10000a56:	781b      	ldrb	r3, [r3, #0]
10000a58:	0031      	movs	r1, r6
10000a5a:	7033      	strb	r3, [r6, #0]
10000a5c:	2070      	movs	r0, #112	; 0x70
10000a5e:	f000 f827 	bl	10000ab0 <i2c_module_send>
10000a62:	2301      	movs	r3, #1
10000a64:	7023      	strb	r3, [r4, #0]
10000a66:	e7e5      	b.n	10000a34 <seven_seg_display_humidity+0x3c>
10000a68:	200017d0 	.word	0x200017d0
10000a6c:	1000b5d8 	.word	0x1000b5d8
10000a70:	20001c5d 	.word	0x20001c5d
10000a74:	1000b5d0 	.word	0x1000b5d0

10000a78 <i2c_module_initialize>:
10000a78:	b510      	push	{r4, lr}
10000a7a:	490b      	ldr	r1, [pc, #44]	; (10000aa8 <i2c_module_initialize+0x30>)
10000a7c:	480b      	ldr	r0, [pc, #44]	; (10000aac <i2c_module_initialize+0x34>)
10000a7e:	f007 f87d 	bl	10007b7c <i2c_init>
10000a82:	2103      	movs	r1, #3
10000a84:	2004      	movs	r0, #4
10000a86:	f000 f905 	bl	10000c94 <gpio_set_function>
10000a8a:	2103      	movs	r1, #3
10000a8c:	2005      	movs	r0, #5
10000a8e:	f000 f901 	bl	10000c94 <gpio_set_function>
10000a92:	2200      	movs	r2, #0
10000a94:	2101      	movs	r1, #1
10000a96:	2004      	movs	r0, #4
10000a98:	f000 f914 	bl	10000cc4 <gpio_set_pulls>
10000a9c:	2200      	movs	r2, #0
10000a9e:	2101      	movs	r1, #1
10000aa0:	2005      	movs	r0, #5
10000aa2:	f000 f90f 	bl	10000cc4 <gpio_set_pulls>
10000aa6:	bd10      	pop	{r4, pc}
10000aa8:	000186a0 	.word	0x000186a0
10000aac:	20000460 	.word	0x20000460

10000ab0 <i2c_module_send>:
10000ab0:	b510      	push	{r4, lr}
10000ab2:	0013      	movs	r3, r2
10000ab4:	000c      	movs	r4, r1
10000ab6:	2200      	movs	r2, #0
10000ab8:	b082      	sub	sp, #8
10000aba:	b2c1      	uxtb	r1, r0
10000abc:	9200      	str	r2, [sp, #0]
10000abe:	4803      	ldr	r0, [pc, #12]	; (10000acc <i2c_module_send+0x1c>)
10000ac0:	0022      	movs	r2, r4
10000ac2:	f007 f885 	bl	10007bd0 <i2c_write_blocking>
10000ac6:	b002      	add	sp, #8
10000ac8:	bd10      	pop	{r4, pc}
10000aca:	46c0      	nop			; (mov r8, r8)
10000acc:	20000460 	.word	0x20000460

10000ad0 <i2c_module_read>:
10000ad0:	2300      	movs	r3, #0
10000ad2:	b500      	push	{lr}
10000ad4:	b083      	sub	sp, #12
10000ad6:	000a      	movs	r2, r1
10000ad8:	9300      	str	r3, [sp, #0]
10000ada:	b2c1      	uxtb	r1, r0
10000adc:	3306      	adds	r3, #6
10000ade:	4802      	ldr	r0, [pc, #8]	; (10000ae8 <i2c_module_read+0x18>)
10000ae0:	f007 f8de 	bl	10007ca0 <i2c_read_blocking>
10000ae4:	b003      	add	sp, #12
10000ae6:	bd00      	pop	{pc}
10000ae8:	20000460 	.word	0x20000460

10000aec <aht20_initialize>:
10000aec:	b500      	push	{lr}
10000aee:	b083      	sub	sp, #12
10000af0:	4669      	mov	r1, sp
10000af2:	4b07      	ldr	r3, [pc, #28]	; (10000b10 <aht20_initialize+0x24>)
10000af4:	2038      	movs	r0, #56	; 0x38
10000af6:	881a      	ldrh	r2, [r3, #0]
10000af8:	808a      	strh	r2, [r1, #4]
10000afa:	789b      	ldrb	r3, [r3, #2]
10000afc:	2203      	movs	r2, #3
10000afe:	718b      	strb	r3, [r1, #6]
10000b00:	a901      	add	r1, sp, #4
10000b02:	f7ff ffd5 	bl	10000ab0 <i2c_module_send>
10000b06:	2201      	movs	r2, #1
10000b08:	4b02      	ldr	r3, [pc, #8]	; (10000b14 <aht20_initialize+0x28>)
10000b0a:	701a      	strb	r2, [r3, #0]
10000b0c:	b003      	add	sp, #12
10000b0e:	bd00      	pop	{pc}
10000b10:	1000b5f4 	.word	0x1000b5f4
10000b14:	20001c5e 	.word	0x20001c5e

10000b18 <aht20_start_measurement>:
10000b18:	b500      	push	{lr}
10000b1a:	4b09      	ldr	r3, [pc, #36]	; (10000b40 <aht20_start_measurement+0x28>)
10000b1c:	b083      	sub	sp, #12
10000b1e:	781b      	ldrb	r3, [r3, #0]
10000b20:	2b00      	cmp	r3, #0
10000b22:	d00a      	beq.n	10000b3a <aht20_start_measurement+0x22>
10000b24:	4669      	mov	r1, sp
10000b26:	4b07      	ldr	r3, [pc, #28]	; (10000b44 <aht20_start_measurement+0x2c>)
10000b28:	2038      	movs	r0, #56	; 0x38
10000b2a:	881a      	ldrh	r2, [r3, #0]
10000b2c:	808a      	strh	r2, [r1, #4]
10000b2e:	789b      	ldrb	r3, [r3, #2]
10000b30:	2203      	movs	r2, #3
10000b32:	718b      	strb	r3, [r1, #6]
10000b34:	a901      	add	r1, sp, #4
10000b36:	f7ff ffbb 	bl	10000ab0 <i2c_module_send>
10000b3a:	b003      	add	sp, #12
10000b3c:	bd00      	pop	{pc}
10000b3e:	46c0      	nop			; (mov r8, r8)
10000b40:	20001c5e 	.word	0x20001c5e
10000b44:	1000b5f8 	.word	0x1000b5f8

10000b48 <aht20_read_measurement>:
10000b48:	b510      	push	{r4, lr}
10000b4a:	4b2b      	ldr	r3, [pc, #172]	; (10000bf8 <aht20_read_measurement+0xb0>)
10000b4c:	b082      	sub	sp, #8
10000b4e:	781b      	ldrb	r3, [r3, #0]
10000b50:	2b00      	cmp	r3, #0
10000b52:	d101      	bne.n	10000b58 <aht20_read_measurement+0x10>
10000b54:	b002      	add	sp, #8
10000b56:	bd10      	pop	{r4, pc}
10000b58:	4669      	mov	r1, sp
10000b5a:	2206      	movs	r2, #6
10000b5c:	2038      	movs	r0, #56	; 0x38
10000b5e:	f7ff ffb7 	bl	10000ad0 <i2c_module_read>
10000b62:	466b      	mov	r3, sp
10000b64:	466a      	mov	r2, sp
10000b66:	785b      	ldrb	r3, [r3, #1]
10000b68:	7890      	ldrb	r0, [r2, #2]
10000b6a:	78d4      	ldrb	r4, [r2, #3]
10000b6c:	021b      	lsls	r3, r3, #8
10000b6e:	18c0      	adds	r0, r0, r3
10000b70:	0100      	lsls	r0, r0, #4
10000b72:	0923      	lsrs	r3, r4, #4
10000b74:	1818      	adds	r0, r3, r0
10000b76:	f003 ffc1 	bl	10004afc <__wrap___aeabi_ui2f>
10000b7a:	21d6      	movs	r1, #214	; 0xd6
10000b7c:	0589      	lsls	r1, r1, #22
10000b7e:	f003 ffb6 	bl	10004aee <__wrap___aeabi_fmul>
10000b82:	491e      	ldr	r1, [pc, #120]	; (10000bfc <aht20_read_measurement+0xb4>)
10000b84:	f003 ffb3 	bl	10004aee <__wrap___aeabi_fmul>
10000b88:	f003 ffe0 	bl	10004b4c <__wrap___aeabi_f2iz>
10000b8c:	4b1c      	ldr	r3, [pc, #112]	; (10000c00 <aht20_read_measurement+0xb8>)
10000b8e:	466a      	mov	r2, sp
10000b90:	6018      	str	r0, [r3, #0]
10000b92:	200f      	movs	r0, #15
10000b94:	4020      	ands	r0, r4
10000b96:	0203      	lsls	r3, r0, #8
10000b98:	7910      	ldrb	r0, [r2, #4]
10000b9a:	18c0      	adds	r0, r0, r3
10000b9c:	7953      	ldrb	r3, [r2, #5]
10000b9e:	0200      	lsls	r0, r0, #8
10000ba0:	1818      	adds	r0, r3, r0
10000ba2:	f003 ffab 	bl	10004afc <__wrap___aeabi_ui2f>
10000ba6:	f004 f809 	bl	10004bbc <__wrap___aeabi_f2d>
10000baa:	2200      	movs	r2, #0
10000bac:	4b15      	ldr	r3, [pc, #84]	; (10000c04 <aht20_read_measurement+0xbc>)
10000bae:	f003 fb7a 	bl	100042a6 <__wrap___aeabi_dmul>
10000bb2:	2200      	movs	r2, #0
10000bb4:	4b14      	ldr	r3, [pc, #80]	; (10000c08 <aht20_read_measurement+0xc0>)
10000bb6:	f003 fb76 	bl	100042a6 <__wrap___aeabi_dmul>
10000bba:	2200      	movs	r2, #0
10000bbc:	4b13      	ldr	r3, [pc, #76]	; (10000c0c <aht20_read_measurement+0xc4>)
10000bbe:	f003 fb42 	bl	10004246 <__wrap___aeabi_dsub>
10000bc2:	f003 fc29 	bl	10004418 <__wrap___aeabi_d2f>
10000bc6:	4912      	ldr	r1, [pc, #72]	; (10000c10 <aht20_read_measurement+0xc8>)
10000bc8:	f003 ff91 	bl	10004aee <__wrap___aeabi_fmul>
10000bcc:	4911      	ldr	r1, [pc, #68]	; (10000c14 <aht20_read_measurement+0xcc>)
10000bce:	f003 ff7a 	bl	10004ac6 <__wrap___aeabi_fdiv>
10000bd2:	2184      	movs	r1, #132	; 0x84
10000bd4:	05c9      	lsls	r1, r1, #23
10000bd6:	f003 ff73 	bl	10004ac0 <__wrap___aeabi_fadd>
10000bda:	490f      	ldr	r1, [pc, #60]	; (10000c18 <aht20_read_measurement+0xd0>)
10000bdc:	f003 ff87 	bl	10004aee <__wrap___aeabi_fmul>
10000be0:	f003 ffb4 	bl	10004b4c <__wrap___aeabi_f2iz>
10000be4:	0002      	movs	r2, r0
10000be6:	4b0d      	ldr	r3, [pc, #52]	; (10000c1c <aht20_read_measurement+0xd4>)
10000be8:	3a2e      	subs	r2, #46	; 0x2e
10000bea:	3aff      	subs	r2, #255	; 0xff
10000bec:	429a      	cmp	r2, r3
10000bee:	d8b1      	bhi.n	10000b54 <aht20_read_measurement+0xc>
10000bf0:	4b0b      	ldr	r3, [pc, #44]	; (10000c20 <aht20_read_measurement+0xd8>)
10000bf2:	6018      	str	r0, [r3, #0]
10000bf4:	e7ae      	b.n	10000b54 <aht20_read_measurement+0xc>
10000bf6:	46c0      	nop			; (mov r8, r8)
10000bf8:	20001c5e 	.word	0x20001c5e
10000bfc:	42c80000 	.word	0x42c80000
10000c00:	200017e4 	.word	0x200017e4
10000c04:	3eb00000 	.word	0x3eb00000
10000c08:	40690000 	.word	0x40690000
10000c0c:	40490000 	.word	0x40490000
10000c10:	41100000 	.word	0x41100000
10000c14:	40a00000 	.word	0x40a00000
10000c18:	41200000 	.word	0x41200000
10000c1c:	0000031e 	.word	0x0000031e
10000c20:	20001c34 	.word	0x20001c34

10000c24 <aht20_get_temp>:
10000c24:	4b01      	ldr	r3, [pc, #4]	; (10000c2c <aht20_get_temp+0x8>)
10000c26:	6818      	ldr	r0, [r3, #0]
10000c28:	4770      	bx	lr
10000c2a:	46c0      	nop			; (mov r8, r8)
10000c2c:	20001c34 	.word	0x20001c34

10000c30 <aht20_get_humidity>:
10000c30:	4b01      	ldr	r3, [pc, #4]	; (10000c38 <aht20_get_humidity+0x8>)
10000c32:	6818      	ldr	r0, [r3, #0]
10000c34:	4770      	bx	lr
10000c36:	46c0      	nop			; (mov r8, r8)
10000c38:	200017e4 	.word	0x200017e4

10000c3c <buffer_initialize>:
10000c3c:	4b02      	ldr	r3, [pc, #8]	; (10000c48 <buffer_initialize+0xc>)
10000c3e:	6018      	str	r0, [r3, #0]
10000c40:	6058      	str	r0, [r3, #4]
10000c42:	6098      	str	r0, [r3, #8]
10000c44:	60d8      	str	r0, [r3, #12]
10000c46:	4770      	bx	lr
10000c48:	20000d20 	.word	0x20000d20

10000c4c <buffer_append>:
10000c4c:	4a05      	ldr	r2, [pc, #20]	; (10000c64 <buffer_append+0x18>)
10000c4e:	b510      	push	{r4, lr}
10000c50:	6813      	ldr	r3, [r2, #0]
10000c52:	4c05      	ldr	r4, [pc, #20]	; (10000c68 <buffer_append+0x1c>)
10000c54:	0099      	lsls	r1, r3, #2
10000c56:	3301      	adds	r3, #1
10000c58:	5060      	str	r0, [r4, r1]
10000c5a:	2b03      	cmp	r3, #3
10000c5c:	dd00      	ble.n	10000c60 <buffer_append+0x14>
10000c5e:	2300      	movs	r3, #0
10000c60:	6013      	str	r3, [r2, #0]
10000c62:	bd10      	pop	{r4, pc}
10000c64:	20001760 	.word	0x20001760
10000c68:	20000d20 	.word	0x20000d20

10000c6c <buffer_get_avg>:
10000c6c:	4b08      	ldr	r3, [pc, #32]	; (10000c90 <buffer_get_avg+0x24>)
10000c6e:	b510      	push	{r4, lr}
10000c70:	685a      	ldr	r2, [r3, #4]
10000c72:	6818      	ldr	r0, [r3, #0]
10000c74:	4694      	mov	ip, r2
10000c76:	689a      	ldr	r2, [r3, #8]
10000c78:	4460      	add	r0, ip
10000c7a:	4694      	mov	ip, r2
10000c7c:	68db      	ldr	r3, [r3, #12]
10000c7e:	4460      	add	r0, ip
10000c80:	18c0      	adds	r0, r0, r3
10000c82:	0083      	lsls	r3, r0, #2
10000c84:	1818      	adds	r0, r3, r0
10000c86:	2128      	movs	r1, #40	; 0x28
10000c88:	0040      	lsls	r0, r0, #1
10000c8a:	f003 f871 	bl	10003d70 <__wrap___aeabi_idiv>
10000c8e:	bd10      	pop	{r4, pc}
10000c90:	20000d20 	.word	0x20000d20

10000c94 <gpio_set_function>:
10000c94:	4a09      	ldr	r2, [pc, #36]	; (10000cbc <gpio_set_function+0x28>)
10000c96:	0083      	lsls	r3, r0, #2
10000c98:	4694      	mov	ip, r2
10000c9a:	2240      	movs	r2, #64	; 0x40
10000c9c:	4463      	add	r3, ip
10000c9e:	b510      	push	{r4, lr}
10000ca0:	681c      	ldr	r4, [r3, #0]
10000ca2:	00c0      	lsls	r0, r0, #3
10000ca4:	4062      	eors	r2, r4
10000ca6:	24c0      	movs	r4, #192	; 0xc0
10000ca8:	4014      	ands	r4, r2
10000caa:	2280      	movs	r2, #128	; 0x80
10000cac:	0152      	lsls	r2, r2, #5
10000cae:	4313      	orrs	r3, r2
10000cb0:	601c      	str	r4, [r3, #0]
10000cb2:	4b03      	ldr	r3, [pc, #12]	; (10000cc0 <gpio_set_function+0x2c>)
10000cb4:	469c      	mov	ip, r3
10000cb6:	4460      	add	r0, ip
10000cb8:	6041      	str	r1, [r0, #4]
10000cba:	bd10      	pop	{r4, pc}
10000cbc:	4001c004 	.word	0x4001c004
10000cc0:	40014000 	.word	0x40014000

10000cc4 <gpio_set_pulls>:
10000cc4:	4b0a      	ldr	r3, [pc, #40]	; (10000cf0 <gpio_set_pulls+0x2c>)
10000cc6:	0080      	lsls	r0, r0, #2
10000cc8:	469c      	mov	ip, r3
10000cca:	2304      	movs	r3, #4
10000ccc:	4460      	add	r0, ip
10000cce:	2900      	cmp	r1, #0
10000cd0:	d001      	beq.n	10000cd6 <gpio_set_pulls+0x12>
10000cd2:	230c      	movs	r3, #12
10000cd4:	2108      	movs	r1, #8
10000cd6:	2a00      	cmp	r2, #0
10000cd8:	d100      	bne.n	10000cdc <gpio_set_pulls+0x18>
10000cda:	000b      	movs	r3, r1
10000cdc:	6802      	ldr	r2, [r0, #0]
10000cde:	4053      	eors	r3, r2
10000ce0:	220c      	movs	r2, #12
10000ce2:	401a      	ands	r2, r3
10000ce4:	2380      	movs	r3, #128	; 0x80
10000ce6:	015b      	lsls	r3, r3, #5
10000ce8:	4318      	orrs	r0, r3
10000cea:	6002      	str	r2, [r0, #0]
10000cec:	4770      	bx	lr
10000cee:	46c0      	nop			; (mov r8, r8)
10000cf0:	4001c004 	.word	0x4001c004

10000cf4 <gpio_init>:
10000cf4:	2301      	movs	r3, #1
10000cf6:	22d0      	movs	r2, #208	; 0xd0
10000cf8:	4083      	lsls	r3, r0
10000cfa:	0612      	lsls	r2, r2, #24
10000cfc:	6293      	str	r3, [r2, #40]	; 0x28
10000cfe:	6193      	str	r3, [r2, #24]
10000d00:	4a09      	ldr	r2, [pc, #36]	; (10000d28 <gpio_init+0x34>)
10000d02:	0083      	lsls	r3, r0, #2
10000d04:	4694      	mov	ip, r2
10000d06:	2240      	movs	r2, #64	; 0x40
10000d08:	4463      	add	r3, ip
10000d0a:	6819      	ldr	r1, [r3, #0]
10000d0c:	00c0      	lsls	r0, r0, #3
10000d0e:	404a      	eors	r2, r1
10000d10:	21c0      	movs	r1, #192	; 0xc0
10000d12:	4011      	ands	r1, r2
10000d14:	2280      	movs	r2, #128	; 0x80
10000d16:	0152      	lsls	r2, r2, #5
10000d18:	4313      	orrs	r3, r2
10000d1a:	6019      	str	r1, [r3, #0]
10000d1c:	4b03      	ldr	r3, [pc, #12]	; (10000d2c <gpio_init+0x38>)
10000d1e:	469c      	mov	ip, r3
10000d20:	2305      	movs	r3, #5
10000d22:	4460      	add	r0, ip
10000d24:	6043      	str	r3, [r0, #4]
10000d26:	4770      	bx	lr
10000d28:	4001c004 	.word	0x4001c004
10000d2c:	40014000 	.word	0x40014000

10000d30 <hw_claim_or_assert>:
10000d30:	b570      	push	{r4, r5, r6, lr}
10000d32:	f3ef 8c10 	mrs	ip, PRIMASK
10000d36:	b672      	cpsid	i
10000d38:	4d0d      	ldr	r5, [pc, #52]	; (10000d70 <hw_claim_or_assert+0x40>)
10000d3a:	682b      	ldr	r3, [r5, #0]
10000d3c:	2b00      	cmp	r3, #0
10000d3e:	d0fc      	beq.n	10000d3a <hw_claim_or_assert+0xa>
10000d40:	f3bf 8f5f 	dmb	sy
10000d44:	2407      	movs	r4, #7
10000d46:	08cb      	lsrs	r3, r1, #3
10000d48:	18c6      	adds	r6, r0, r3
10000d4a:	5cc0      	ldrb	r0, [r0, r3]
10000d4c:	2301      	movs	r3, #1
10000d4e:	400c      	ands	r4, r1
10000d50:	40a3      	lsls	r3, r4
10000d52:	001c      	movs	r4, r3
10000d54:	4004      	ands	r4, r0
10000d56:	4203      	tst	r3, r0
10000d58:	d107      	bne.n	10000d6a <hw_claim_or_assert+0x3a>
10000d5a:	4303      	orrs	r3, r0
10000d5c:	7033      	strb	r3, [r6, #0]
10000d5e:	f3bf 8f5f 	dmb	sy
10000d62:	602c      	str	r4, [r5, #0]
10000d64:	f38c 8810 	msr	PRIMASK, ip
10000d68:	bd70      	pop	{r4, r5, r6, pc}
10000d6a:	0010      	movs	r0, r2
10000d6c:	f001 faa2 	bl	100022b4 <panic>
10000d70:	d000012c 	.word	0xd000012c

10000d74 <hw_claim_unused_from_range>:
10000d74:	b5f8      	push	{r3, r4, r5, r6, r7, lr}
10000d76:	4647      	mov	r7, r8
10000d78:	46ce      	mov	lr, r9
10000d7a:	4688      	mov	r8, r1
10000d7c:	b580      	push	{r7, lr}
10000d7e:	f3ef 8c10 	mrs	ip, PRIMASK
10000d82:	b672      	cpsid	i
10000d84:	4d21      	ldr	r5, [pc, #132]	; (10000e0c <hw_claim_unused_from_range+0x98>)
10000d86:	682c      	ldr	r4, [r5, #0]
10000d88:	2c00      	cmp	r4, #0
10000d8a:	d0fc      	beq.n	10000d86 <hw_claim_unused_from_range+0x12>
10000d8c:	f3bf 8f5f 	dmb	sy
10000d90:	429a      	cmp	r2, r3
10000d92:	d82c      	bhi.n	10000dee <hw_claim_unused_from_range+0x7a>
10000d94:	08d4      	lsrs	r4, r2, #3
10000d96:	2707      	movs	r7, #7
10000d98:	5d05      	ldrb	r5, [r0, r4]
10000d9a:	1906      	adds	r6, r0, r4
10000d9c:	2401      	movs	r4, #1
10000d9e:	4017      	ands	r7, r2
10000da0:	40bc      	lsls	r4, r7
10000da2:	422c      	tst	r4, r5
10000da4:	d01f      	beq.n	10000de6 <hw_claim_unused_from_range+0x72>
10000da6:	2107      	movs	r1, #7
10000da8:	2701      	movs	r7, #1
10000daa:	4689      	mov	r9, r1
10000dac:	e009      	b.n	10000dc2 <hw_claim_unused_from_range+0x4e>
10000dae:	08d4      	lsrs	r4, r2, #3
10000db0:	5d05      	ldrb	r5, [r0, r4]
10000db2:	1906      	adds	r6, r0, r4
10000db4:	464c      	mov	r4, r9
10000db6:	0039      	movs	r1, r7
10000db8:	4014      	ands	r4, r2
10000dba:	40a1      	lsls	r1, r4
10000dbc:	000c      	movs	r4, r1
10000dbe:	4229      	tst	r1, r5
10000dc0:	d011      	beq.n	10000de6 <hw_claim_unused_from_range+0x72>
10000dc2:	3201      	adds	r2, #1
10000dc4:	4293      	cmp	r3, r2
10000dc6:	d2f2      	bcs.n	10000dae <hw_claim_unused_from_range+0x3a>
10000dc8:	2001      	movs	r0, #1
10000dca:	4240      	negs	r0, r0
10000dcc:	f3bf 8f5f 	dmb	sy
10000dd0:	2200      	movs	r2, #0
10000dd2:	4b0e      	ldr	r3, [pc, #56]	; (10000e0c <hw_claim_unused_from_range+0x98>)
10000dd4:	601a      	str	r2, [r3, #0]
10000dd6:	f38c 8810 	msr	PRIMASK, ip
10000dda:	2800      	cmp	r0, #0
10000ddc:	db0f      	blt.n	10000dfe <hw_claim_unused_from_range+0x8a>
10000dde:	bcc0      	pop	{r6, r7}
10000de0:	46b9      	mov	r9, r7
10000de2:	46b0      	mov	r8, r6
10000de4:	bdf8      	pop	{r3, r4, r5, r6, r7, pc}
10000de6:	432c      	orrs	r4, r5
10000de8:	0010      	movs	r0, r2
10000dea:	7034      	strb	r4, [r6, #0]
10000dec:	e7ee      	b.n	10000dcc <hw_claim_unused_from_range+0x58>
10000dee:	f3bf 8f5f 	dmb	sy
10000df2:	2300      	movs	r3, #0
10000df4:	602b      	str	r3, [r5, #0]
10000df6:	f38c 8810 	msr	PRIMASK, ip
10000dfa:	2001      	movs	r0, #1
10000dfc:	4240      	negs	r0, r0
10000dfe:	4643      	mov	r3, r8
10000e00:	2b00      	cmp	r3, #0
10000e02:	d0ec      	beq.n	10000dde <hw_claim_unused_from_range+0x6a>
10000e04:	9808      	ldr	r0, [sp, #32]
10000e06:	f001 fa55 	bl	100022b4 <panic>
10000e0a:	46c0      	nop			; (mov r8, r8)
10000e0c:	d000012c 	.word	0xd000012c

10000e10 <running_on_fpga>:
10000e10:	4b02      	ldr	r3, [pc, #8]	; (10000e1c <running_on_fpga+0xc>)
10000e12:	6818      	ldr	r0, [r3, #0]
10000e14:	0780      	lsls	r0, r0, #30
10000e16:	0fc0      	lsrs	r0, r0, #31
10000e18:	4770      	bx	lr
10000e1a:	46c0      	nop			; (mov r8, r8)
10000e1c:	4006c000 	.word	0x4006c000

10000e20 <spin_locks_reset>:
10000e20:	2100      	movs	r1, #0
10000e22:	4b04      	ldr	r3, [pc, #16]	; (10000e34 <spin_locks_reset+0x14>)
10000e24:	4a04      	ldr	r2, [pc, #16]	; (10000e38 <spin_locks_reset+0x18>)
10000e26:	f3bf 8f5f 	dmb	sy
10000e2a:	c302      	stmia	r3!, {r1}
10000e2c:	4293      	cmp	r3, r2
10000e2e:	d1fa      	bne.n	10000e26 <spin_locks_reset+0x6>
10000e30:	4770      	bx	lr
10000e32:	46c0      	nop			; (mov r8, r8)
10000e34:	d0000100 	.word	0xd0000100
10000e38:	d0000180 	.word	0xd0000180

10000e3c <next_striped_spin_lock_num>:
10000e3c:	4a04      	ldr	r2, [pc, #16]	; (10000e50 <next_striped_spin_lock_num+0x14>)
10000e3e:	7810      	ldrb	r0, [r2, #0]
10000e40:	1c43      	adds	r3, r0, #1
10000e42:	b2db      	uxtb	r3, r3
10000e44:	2b17      	cmp	r3, #23
10000e46:	d900      	bls.n	10000e4a <next_striped_spin_lock_num+0xe>
10000e48:	2310      	movs	r3, #16
10000e4a:	7013      	strb	r3, [r2, #0]
10000e4c:	4770      	bx	lr
10000e4e:	46c0      	nop			; (mov r8, r8)
10000e50:	2000038b 	.word	0x2000038b

10000e54 <spin_lock_claim_unused>:
10000e54:	b500      	push	{lr}
10000e56:	4b05      	ldr	r3, [pc, #20]	; (10000e6c <spin_lock_claim_unused+0x18>)
10000e58:	b083      	sub	sp, #12
10000e5a:	0001      	movs	r1, r0
10000e5c:	9300      	str	r3, [sp, #0]
10000e5e:	2218      	movs	r2, #24
10000e60:	231f      	movs	r3, #31
10000e62:	4803      	ldr	r0, [pc, #12]	; (10000e70 <spin_lock_claim_unused+0x1c>)
10000e64:	f7ff ff86 	bl	10000d74 <hw_claim_unused_from_range>
10000e68:	b003      	add	sp, #12
10000e6a:	bd00      	pop	{pc}
10000e6c:	1000b5fc 	.word	0x1000b5fc
10000e70:	20001730 	.word	0x20001730

10000e74 <irq_set_enabled>:
10000e74:	2301      	movs	r3, #1
10000e76:	4083      	lsls	r3, r0
10000e78:	2900      	cmp	r1, #0
10000e7a:	d004      	beq.n	10000e86 <irq_set_enabled+0x12>
10000e7c:	4a03      	ldr	r2, [pc, #12]	; (10000e8c <irq_set_enabled+0x18>)
10000e7e:	6013      	str	r3, [r2, #0]
10000e80:	4a03      	ldr	r2, [pc, #12]	; (10000e90 <irq_set_enabled+0x1c>)
10000e82:	6013      	str	r3, [r2, #0]
10000e84:	4770      	bx	lr
10000e86:	4a03      	ldr	r2, [pc, #12]	; (10000e94 <irq_set_enabled+0x20>)
10000e88:	6013      	str	r3, [r2, #0]
10000e8a:	e7fb      	b.n	10000e84 <irq_set_enabled+0x10>
10000e8c:	e000e280 	.word	0xe000e280
10000e90:	e000e100 	.word	0xe000e100
10000e94:	e000e180 	.word	0xe000e180

10000e98 <irq_set_pending>:
10000e98:	2301      	movs	r3, #1
10000e9a:	4083      	lsls	r3, r0
10000e9c:	4a01      	ldr	r2, [pc, #4]	; (10000ea4 <irq_set_pending+0xc>)
10000e9e:	6013      	str	r3, [r2, #0]
10000ea0:	4770      	bx	lr
10000ea2:	46c0      	nop			; (mov r8, r8)
10000ea4:	e000e200 	.word	0xe000e200

10000ea8 <irq_has_shared_handler>:
10000ea8:	4b08      	ldr	r3, [pc, #32]	; (10000ecc <irq_has_shared_handler+0x24>)
10000eaa:	3010      	adds	r0, #16
10000eac:	689b      	ldr	r3, [r3, #8]
10000eae:	0080      	lsls	r0, r0, #2
10000eb0:	58c3      	ldr	r3, [r0, r3]
10000eb2:	2b00      	cmp	r3, #0
10000eb4:	d007      	beq.n	10000ec6 <irq_has_shared_handler+0x1e>
10000eb6:	4a06      	ldr	r2, [pc, #24]	; (10000ed0 <irq_has_shared_handler+0x28>)
10000eb8:	2000      	movs	r0, #0
10000eba:	1a9b      	subs	r3, r3, r2
10000ebc:	222f      	movs	r2, #47	; 0x2f
10000ebe:	429a      	cmp	r2, r3
10000ec0:	4140      	adcs	r0, r0
10000ec2:	b2c0      	uxtb	r0, r0
10000ec4:	4770      	bx	lr
10000ec6:	2000      	movs	r0, #0
10000ec8:	e7fc      	b.n	10000ec4 <irq_has_shared_handler+0x1c>
10000eca:	46c0      	nop			; (mov r8, r8)
10000ecc:	e000ed00 	.word	0xe000ed00
10000ed0:	2000038c 	.word	0x2000038c

10000ed4 <irq_get_vtable_handler>:
10000ed4:	4b02      	ldr	r3, [pc, #8]	; (10000ee0 <irq_get_vtable_handler+0xc>)
10000ed6:	3010      	adds	r0, #16
10000ed8:	689b      	ldr	r3, [r3, #8]
10000eda:	0080      	lsls	r0, r0, #2
10000edc:	58c0      	ldr	r0, [r0, r3]
10000ede:	4770      	bx	lr
10000ee0:	e000ed00 	.word	0xe000ed00

10000ee4 <irq_set_exclusive_handler>:
10000ee4:	b570      	push	{r4, r5, r6, lr}
10000ee6:	000d      	movs	r5, r1
10000ee8:	f3ef 8610 	mrs	r6, PRIMASK
10000eec:	b672      	cpsid	i
10000eee:	4a0f      	ldr	r2, [pc, #60]	; (10000f2c <irq_set_exclusive_handler+0x48>)
10000ef0:	6813      	ldr	r3, [r2, #0]
10000ef2:	2b00      	cmp	r3, #0
10000ef4:	d0fc      	beq.n	10000ef0 <irq_set_exclusive_handler+0xc>
10000ef6:	f3bf 8f5f 	dmb	sy
10000efa:	4b0d      	ldr	r3, [pc, #52]	; (10000f30 <irq_set_exclusive_handler+0x4c>)
10000efc:	3010      	adds	r0, #16
10000efe:	689b      	ldr	r3, [r3, #8]
10000f00:	0084      	lsls	r4, r0, #2
10000f02:	591b      	ldr	r3, [r3, r4]
10000f04:	4a0b      	ldr	r2, [pc, #44]	; (10000f34 <irq_set_exclusive_handler+0x50>)
10000f06:	4293      	cmp	r3, r2
10000f08:	d003      	beq.n	10000f12 <irq_set_exclusive_handler+0x2e>
10000f0a:	429d      	cmp	r5, r3
10000f0c:	d001      	beq.n	10000f12 <irq_set_exclusive_handler+0x2e>
10000f0e:	f001 f9e9 	bl	100022e4 <hard_assertion_failure>
10000f12:	4b07      	ldr	r3, [pc, #28]	; (10000f30 <irq_set_exclusive_handler+0x4c>)
10000f14:	689b      	ldr	r3, [r3, #8]
10000f16:	511d      	str	r5, [r3, r4]
10000f18:	f3bf 8f5f 	dmb	sy
10000f1c:	f3bf 8f5f 	dmb	sy
10000f20:	2200      	movs	r2, #0
10000f22:	4b02      	ldr	r3, [pc, #8]	; (10000f2c <irq_set_exclusive_handler+0x48>)
10000f24:	601a      	str	r2, [r3, #0]
10000f26:	f386 8810 	msr	PRIMASK, r6
10000f2a:	bd70      	pop	{r4, r5, r6, pc}
10000f2c:	d0000124 	.word	0xd0000124
10000f30:	e000ed00 	.word	0xe000ed00
10000f34:	100001cd 	.word	0x100001cd

10000f38 <irq_add_shared_handler>:
10000f38:	b5f0      	push	{r4, r5, r6, r7, lr}
10000f3a:	4657      	mov	r7, sl
10000f3c:	464e      	mov	r6, r9
10000f3e:	46de      	mov	lr, fp
10000f40:	4645      	mov	r5, r8
10000f42:	b5e0      	push	{r5, r6, r7, lr}
10000f44:	b085      	sub	sp, #20
10000f46:	0006      	movs	r6, r0
10000f48:	9102      	str	r1, [sp, #8]
10000f4a:	0017      	movs	r7, r2
10000f4c:	f3ef 8b10 	mrs	fp, PRIMASK
10000f50:	b672      	cpsid	i
10000f52:	4a67      	ldr	r2, [pc, #412]	; (100010f0 <irq_add_shared_handler+0x1b8>)
10000f54:	6813      	ldr	r3, [r2, #0]
10000f56:	2b00      	cmp	r3, #0
10000f58:	d0fc      	beq.n	10000f54 <irq_add_shared_handler+0x1c>
10000f5a:	f3bf 8f5f 	dmb	sy
10000f5e:	2500      	movs	r5, #0
10000f60:	4b64      	ldr	r3, [pc, #400]	; (100010f4 <irq_add_shared_handler+0x1bc>)
10000f62:	575d      	ldrsb	r5, [r3, r5]
10000f64:	469a      	mov	sl, r3
10000f66:	2d00      	cmp	r5, #0
10000f68:	da00      	bge.n	10000f6c <irq_add_shared_handler+0x34>
10000f6a:	e0a5      	b.n	100010b8 <irq_add_shared_handler+0x180>
10000f6c:	006b      	lsls	r3, r5, #1
10000f6e:	4c62      	ldr	r4, [pc, #392]	; (100010f8 <irq_add_shared_handler+0x1c0>)
10000f70:	9303      	str	r3, [sp, #12]
10000f72:	195b      	adds	r3, r3, r5
10000f74:	009b      	lsls	r3, r3, #2
10000f76:	4698      	mov	r8, r3
10000f78:	46a1      	mov	r9, r4
10000f7a:	44c1      	add	r9, r8
10000f7c:	464b      	mov	r3, r9
10000f7e:	4652      	mov	r2, sl
10000f80:	799b      	ldrb	r3, [r3, #6]
10000f82:	3610      	adds	r6, #16
10000f84:	7013      	strb	r3, [r2, #0]
10000f86:	4b5d      	ldr	r3, [pc, #372]	; (100010fc <irq_add_shared_handler+0x1c4>)
10000f88:	00b2      	lsls	r2, r6, #2
10000f8a:	689b      	ldr	r3, [r3, #8]
10000f8c:	9201      	str	r2, [sp, #4]
10000f8e:	5899      	ldr	r1, [r3, r2]
10000f90:	1b0b      	subs	r3, r1, r4
10000f92:	2b2f      	cmp	r3, #47	; 0x2f
10000f94:	d934      	bls.n	10001000 <irq_add_shared_handler+0xc8>
10000f96:	4b5a      	ldr	r3, [pc, #360]	; (10001100 <irq_add_shared_handler+0x1c8>)
10000f98:	4299      	cmp	r1, r3
10000f9a:	d000      	beq.n	10000f9e <irq_add_shared_handler+0x66>
10000f9c:	e0a5      	b.n	100010ea <irq_add_shared_handler+0x1b2>
10000f9e:	9b03      	ldr	r3, [sp, #12]
10000fa0:	4a58      	ldr	r2, [pc, #352]	; (10001104 <irq_add_shared_handler+0x1cc>)
10000fa2:	469c      	mov	ip, r3
10000fa4:	4b58      	ldr	r3, [pc, #352]	; (10001108 <irq_add_shared_handler+0x1d0>)
10000fa6:	4465      	add	r5, ip
10000fa8:	00ad      	lsls	r5, r5, #2
10000faa:	5363      	strh	r3, [r4, r5]
10000fac:	4643      	mov	r3, r8
10000fae:	3302      	adds	r3, #2
10000fb0:	1965      	adds	r5, r4, r5
10000fb2:	18e4      	adds	r4, r4, r3
10000fb4:	4b55      	ldr	r3, [pc, #340]	; (1000110c <irq_add_shared_handler+0x1d4>)
10000fb6:	2101      	movs	r1, #1
10000fb8:	3b04      	subs	r3, #4
10000fba:	1b1b      	subs	r3, r3, r4
10000fbc:	051b      	lsls	r3, r3, #20
10000fbe:	0d5b      	lsrs	r3, r3, #21
10000fc0:	4313      	orrs	r3, r2
10000fc2:	806b      	strh	r3, [r5, #2]
10000fc4:	4b52      	ldr	r3, [pc, #328]	; (10001110 <irq_add_shared_handler+0x1d8>)
10000fc6:	71ef      	strb	r7, [r5, #7]
10000fc8:	80ab      	strh	r3, [r5, #4]
10000fca:	23ff      	movs	r3, #255	; 0xff
10000fcc:	71ab      	strb	r3, [r5, #6]
10000fce:	9b02      	ldr	r3, [sp, #8]
10000fd0:	60ab      	str	r3, [r5, #8]
10000fd2:	464b      	mov	r3, r9
10000fd4:	430b      	orrs	r3, r1
10000fd6:	0019      	movs	r1, r3
10000fd8:	4b48      	ldr	r3, [pc, #288]	; (100010fc <irq_add_shared_handler+0x1c4>)
10000fda:	9a01      	ldr	r2, [sp, #4]
10000fdc:	689b      	ldr	r3, [r3, #8]
10000fde:	5099      	str	r1, [r3, r2]
10000fe0:	f3bf 8f5f 	dmb	sy
10000fe4:	f3bf 8f5f 	dmb	sy
10000fe8:	2200      	movs	r2, #0
10000fea:	4b41      	ldr	r3, [pc, #260]	; (100010f0 <irq_add_shared_handler+0x1b8>)
10000fec:	601a      	str	r2, [r3, #0]
10000fee:	f38b 8810 	msr	PRIMASK, fp
10000ff2:	b005      	add	sp, #20
10000ff4:	bcf0      	pop	{r4, r5, r6, r7}
10000ff6:	46bb      	mov	fp, r7
10000ff8:	46b2      	mov	sl, r6
10000ffa:	46a9      	mov	r9, r5
10000ffc:	46a0      	mov	r8, r4
10000ffe:	bdf0      	pop	{r4, r5, r6, r7, pc}
10001000:	2001      	movs	r0, #1
10001002:	000a      	movs	r2, r1
10001004:	4382      	bics	r2, r0
10001006:	79d3      	ldrb	r3, [r2, #7]
10001008:	42bb      	cmp	r3, r7
1000100a:	d82f      	bhi.n	1000106c <irq_add_shared_handler+0x134>
1000100c:	4645      	mov	r5, r8
1000100e:	464e      	mov	r6, r9
10001010:	0013      	movs	r3, r2
10001012:	4940      	ldr	r1, [pc, #256]	; (10001114 <irq_add_shared_handler+0x1dc>)
10001014:	1b1b      	subs	r3, r3, r4
10001016:	415b      	adcs	r3, r3
10001018:	4359      	muls	r1, r3
1000101a:	0d09      	lsrs	r1, r1, #20
1000101c:	4b3a      	ldr	r3, [pc, #232]	; (10001108 <irq_add_shared_handler+0x1d0>)
1000101e:	5363      	strh	r3, [r4, r5]
10001020:	4b3a      	ldr	r3, [pc, #232]	; (1000110c <irq_add_shared_handler+0x1d4>)
10001022:	3502      	adds	r5, #2
10001024:	1965      	adds	r5, r4, r5
10001026:	3b04      	subs	r3, #4
10001028:	1b5b      	subs	r3, r3, r5
1000102a:	051b      	lsls	r3, r3, #20
1000102c:	4d35      	ldr	r5, [pc, #212]	; (10001104 <irq_add_shared_handler+0x1cc>)
1000102e:	0d5b      	lsrs	r3, r3, #21
10001030:	432b      	orrs	r3, r5
10001032:	8073      	strh	r3, [r6, #2]
10001034:	2604      	movs	r6, #4
10001036:	46b4      	mov	ip, r6
10001038:	44e0      	add	r8, ip
1000103a:	4444      	add	r4, r8
1000103c:	1f13      	subs	r3, r2, #4
1000103e:	1b1b      	subs	r3, r3, r4
10001040:	464c      	mov	r4, r9
10001042:	71a1      	strb	r1, [r4, #6]
10001044:	9902      	ldr	r1, [sp, #8]
10001046:	051b      	lsls	r3, r3, #20
10001048:	60a1      	str	r1, [r4, #8]
1000104a:	4649      	mov	r1, r9
1000104c:	0d5b      	lsrs	r3, r3, #21
1000104e:	432b      	orrs	r3, r5
10001050:	80a3      	strh	r3, [r4, #4]
10001052:	4b31      	ldr	r3, [pc, #196]	; (10001118 <irq_add_shared_handler+0x1e0>)
10001054:	71e7      	strb	r7, [r4, #7]
10001056:	4301      	orrs	r1, r0
10001058:	6013      	str	r3, [r2, #0]
1000105a:	e7bd      	b.n	10000fd8 <irq_add_shared_handler+0xa0>
1000105c:	0058      	lsls	r0, r3, #1
1000105e:	18c0      	adds	r0, r0, r3
10001060:	0080      	lsls	r0, r0, #2
10001062:	1820      	adds	r0, r4, r0
10001064:	79c6      	ldrb	r6, [r0, #7]
10001066:	42be      	cmp	r6, r7
10001068:	d92c      	bls.n	100010c4 <irq_add_shared_handler+0x18c>
1000106a:	0002      	movs	r2, r0
1000106c:	2306      	movs	r3, #6
1000106e:	56d3      	ldrsb	r3, [r2, r3]
10001070:	2b00      	cmp	r3, #0
10001072:	daf3      	bge.n	1000105c <irq_add_shared_handler+0x124>
10001074:	1d10      	adds	r0, r2, #4
10001076:	4682      	mov	sl, r0
10001078:	20bd      	movs	r0, #189	; 0xbd
1000107a:	0200      	lsls	r0, r0, #8
1000107c:	4680      	mov	r8, r0
1000107e:	2604      	movs	r6, #4
10001080:	4276      	negs	r6, r6
10001082:	46b4      	mov	ip, r6
10001084:	44e1      	add	r9, ip
10001086:	4650      	mov	r0, sl
10001088:	464e      	mov	r6, r9
1000108a:	1a36      	subs	r6, r6, r0
1000108c:	0530      	lsls	r0, r6, #20
1000108e:	0d40      	lsrs	r0, r0, #21
10001090:	4682      	mov	sl, r0
10001092:	4656      	mov	r6, sl
10001094:	481b      	ldr	r0, [pc, #108]	; (10001104 <irq_add_shared_handler+0x1cc>)
10001096:	7195      	strb	r5, [r2, #6]
10001098:	4306      	orrs	r6, r0
1000109a:	8096      	strh	r6, [r2, #4]
1000109c:	9a03      	ldr	r2, [sp, #12]
1000109e:	4694      	mov	ip, r2
100010a0:	4465      	add	r5, ip
100010a2:	4a1d      	ldr	r2, [pc, #116]	; (10001118 <irq_add_shared_handler+0x1e0>)
100010a4:	00ad      	lsls	r5, r5, #2
100010a6:	1964      	adds	r4, r4, r5
100010a8:	6022      	str	r2, [r4, #0]
100010aa:	4642      	mov	r2, r8
100010ac:	71a3      	strb	r3, [r4, #6]
100010ae:	9b02      	ldr	r3, [sp, #8]
100010b0:	80a2      	strh	r2, [r4, #4]
100010b2:	71e7      	strb	r7, [r4, #7]
100010b4:	60a3      	str	r3, [r4, #8]
100010b6:	e78f      	b.n	10000fd8 <irq_add_shared_handler+0xa0>
100010b8:	f001 f914 	bl	100022e4 <hard_assertion_failure>
100010bc:	2500      	movs	r5, #0
100010be:	4653      	mov	r3, sl
100010c0:	575d      	ldrsb	r5, [r3, r5]
100010c2:	e753      	b.n	10000f6c <irq_add_shared_handler+0x34>
100010c4:	1d10      	adds	r0, r2, #4
100010c6:	4682      	mov	sl, r0
100010c8:	8890      	ldrh	r0, [r2, #4]
100010ca:	0540      	lsls	r0, r0, #21
100010cc:	1500      	asrs	r0, r0, #20
100010ce:	4684      	mov	ip, r0
100010d0:	4640      	mov	r0, r8
100010d2:	44d4      	add	ip, sl
100010d4:	4666      	mov	r6, ip
100010d6:	3004      	adds	r0, #4
100010d8:	1820      	adds	r0, r4, r0
100010da:	1a30      	subs	r0, r6, r0
100010dc:	26e0      	movs	r6, #224	; 0xe0
100010de:	0500      	lsls	r0, r0, #20
100010e0:	0d40      	lsrs	r0, r0, #21
100010e2:	0236      	lsls	r6, r6, #8
100010e4:	4330      	orrs	r0, r6
100010e6:	4680      	mov	r8, r0
100010e8:	e7c9      	b.n	1000107e <irq_add_shared_handler+0x146>
100010ea:	f001 f8fb 	bl	100022e4 <hard_assertion_failure>
100010ee:	e756      	b.n	10000f9e <irq_add_shared_handler+0x66>
100010f0:	d0000124 	.word	0xd0000124
100010f4:	20001c5f 	.word	0x20001c5f
100010f8:	2000038c 	.word	0x2000038c
100010fc:	e000ed00 	.word	0xe000ed00
10001100:	100001cd 	.word	0x100001cd
10001104:	ffffe000 	.word	0xffffe000
10001108:	ffffa100 	.word	0xffffa100
1000110c:	200003bc 	.word	0x200003bc
10001110:	ffffbd00 	.word	0xffffbd00
10001114:	0000aaaa 	.word	0x0000aaaa
10001118:	47804801 	.word	0x47804801

1000111c <irq_remove_handler>:
1000111c:	b5f0      	push	{r4, r5, r6, r7, lr}
1000111e:	46de      	mov	lr, fp
10001120:	4657      	mov	r7, sl
10001122:	464e      	mov	r6, r9
10001124:	4645      	mov	r5, r8
10001126:	b5e0      	push	{r5, r6, r7, lr}
10001128:	000c      	movs	r4, r1
1000112a:	b083      	sub	sp, #12
1000112c:	f3ef 8a10 	mrs	sl, PRIMASK
10001130:	b672      	cpsid	i
10001132:	4a5a      	ldr	r2, [pc, #360]	; (1000129c <irq_remove_handler+0x180>)
10001134:	6813      	ldr	r3, [r2, #0]
10001136:	2b00      	cmp	r3, #0
10001138:	d0fc      	beq.n	10001134 <irq_remove_handler+0x18>
1000113a:	f3bf 8f5f 	dmb	sy
1000113e:	2210      	movs	r2, #16
10001140:	4691      	mov	r9, r2
10001142:	4481      	add	r9, r0
10001144:	464a      	mov	r2, r9
10001146:	4b56      	ldr	r3, [pc, #344]	; (100012a0 <irq_remove_handler+0x184>)
10001148:	0096      	lsls	r6, r2, #2
1000114a:	689b      	ldr	r3, [r3, #8]
1000114c:	599d      	ldr	r5, [r3, r6]
1000114e:	4b55      	ldr	r3, [pc, #340]	; (100012a4 <irq_remove_handler+0x188>)
10001150:	4698      	mov	r8, r3
10001152:	429d      	cmp	r5, r3
10001154:	d005      	beq.n	10001162 <irq_remove_handler+0x46>
10001156:	42a5      	cmp	r5, r4
10001158:	d016      	beq.n	10001188 <irq_remove_handler+0x6c>
1000115a:	4f53      	ldr	r7, [pc, #332]	; (100012a8 <irq_remove_handler+0x18c>)
1000115c:	1beb      	subs	r3, r5, r7
1000115e:	2b2f      	cmp	r3, #47	; 0x2f
10001160:	d914      	bls.n	1000118c <irq_remove_handler+0x70>
10001162:	4b4f      	ldr	r3, [pc, #316]	; (100012a0 <irq_remove_handler+0x184>)
10001164:	689b      	ldr	r3, [r3, #8]
10001166:	519d      	str	r5, [r3, r6]
10001168:	f3bf 8f5f 	dmb	sy
1000116c:	f3bf 8f5f 	dmb	sy
10001170:	2200      	movs	r2, #0
10001172:	4b4a      	ldr	r3, [pc, #296]	; (1000129c <irq_remove_handler+0x180>)
10001174:	601a      	str	r2, [r3, #0]
10001176:	f38a 8810 	msr	PRIMASK, sl
1000117a:	b003      	add	sp, #12
1000117c:	bcf0      	pop	{r4, r5, r6, r7}
1000117e:	46bb      	mov	fp, r7
10001180:	46b2      	mov	sl, r6
10001182:	46a9      	mov	r9, r5
10001184:	46a0      	mov	r8, r4
10001186:	bdf0      	pop	{r4, r5, r6, r7, pc}
10001188:	001d      	movs	r5, r3
1000118a:	e7ea      	b.n	10001162 <irq_remove_handler+0x46>
1000118c:	2301      	movs	r3, #1
1000118e:	4083      	lsls	r3, r0
10001190:	469b      	mov	fp, r3
10001192:	465a      	mov	r2, fp
10001194:	4b45      	ldr	r3, [pc, #276]	; (100012ac <irq_remove_handler+0x190>)
10001196:	681b      	ldr	r3, [r3, #0]
10001198:	401a      	ands	r2, r3
1000119a:	9200      	str	r2, [sp, #0]
1000119c:	465a      	mov	r2, fp
1000119e:	4b44      	ldr	r3, [pc, #272]	; (100012b0 <irq_remove_handler+0x194>)
100011a0:	601a      	str	r2, [r3, #0]
100011a2:	f3bf 8f5f 	dmb	sy
100011a6:	f7ff f85e 	bl	10000266 <__get_current_exception>
100011aa:	9001      	str	r0, [sp, #4]
100011ac:	2800      	cmp	r0, #0
100011ae:	d003      	beq.n	100011b8 <irq_remove_handler+0x9c>
100011b0:	4581      	cmp	r9, r0
100011b2:	d001      	beq.n	100011b8 <irq_remove_handler+0x9c>
100011b4:	f001 f896 	bl	100022e4 <hard_assertion_failure>
100011b8:	2301      	movs	r3, #1
100011ba:	002a      	movs	r2, r5
100011bc:	439a      	bics	r2, r3
100011be:	6893      	ldr	r3, [r2, #8]
100011c0:	429c      	cmp	r4, r3
100011c2:	d108      	bne.n	100011d6 <irq_remove_handler+0xba>
100011c4:	e05f      	b.n	10001286 <irq_remove_handler+0x16a>
100011c6:	004b      	lsls	r3, r1, #1
100011c8:	185b      	adds	r3, r3, r1
100011ca:	009b      	lsls	r3, r3, #2
100011cc:	18fb      	adds	r3, r7, r3
100011ce:	6899      	ldr	r1, [r3, #8]
100011d0:	42a1      	cmp	r1, r4
100011d2:	d011      	beq.n	100011f8 <irq_remove_handler+0xdc>
100011d4:	001a      	movs	r2, r3
100011d6:	2106      	movs	r1, #6
100011d8:	5651      	ldrsb	r1, [r2, r1]
100011da:	2900      	cmp	r1, #0
100011dc:	daf3      	bge.n	100011c6 <irq_remove_handler+0xaa>
100011de:	9b00      	ldr	r3, [sp, #0]
100011e0:	2b00      	cmp	r3, #0
100011e2:	d005      	beq.n	100011f0 <irq_remove_handler+0xd4>
100011e4:	465a      	mov	r2, fp
100011e6:	4b33      	ldr	r3, [pc, #204]	; (100012b4 <irq_remove_handler+0x198>)
100011e8:	601a      	str	r2, [r3, #0]
100011ea:	4b30      	ldr	r3, [pc, #192]	; (100012ac <irq_remove_handler+0x190>)
100011ec:	601a      	str	r2, [r3, #0]
100011ee:	e7b8      	b.n	10001162 <irq_remove_handler+0x46>
100011f0:	465a      	mov	r2, fp
100011f2:	4b2f      	ldr	r3, [pc, #188]	; (100012b0 <irq_remove_handler+0x194>)
100011f4:	601a      	str	r2, [r3, #0]
100011f6:	e7b4      	b.n	10001162 <irq_remove_handler+0x46>
100011f8:	2106      	movs	r1, #6
100011fa:	5659      	ldrsb	r1, [r3, r1]
100011fc:	2900      	cmp	r1, #0
100011fe:	db21      	blt.n	10001244 <irq_remove_handler+0x128>
10001200:	004a      	lsls	r2, r1, #1
10001202:	1850      	adds	r0, r2, r1
10001204:	0080      	lsls	r0, r0, #2
10001206:	183c      	adds	r4, r7, r0
10001208:	4680      	mov	r8, r0
1000120a:	68a0      	ldr	r0, [r4, #8]
1000120c:	6098      	str	r0, [r3, #8]
1000120e:	79e0      	ldrb	r0, [r4, #7]
10001210:	71d8      	strb	r0, [r3, #7]
10001212:	2006      	movs	r0, #6
10001214:	5620      	ldrsb	r0, [r4, r0]
10001216:	7198      	strb	r0, [r3, #6]
10001218:	2800      	cmp	r0, #0
1000121a:	db24      	blt.n	10001266 <irq_remove_handler+0x14a>
1000121c:	88a4      	ldrh	r4, [r4, #4]
1000121e:	1af8      	subs	r0, r7, r3
10001220:	0564      	lsls	r4, r4, #21
10001222:	1524      	asrs	r4, r4, #20
10001224:	4444      	add	r4, r8
10001226:	1900      	adds	r0, r0, r4
10001228:	24e0      	movs	r4, #224	; 0xe0
1000122a:	0500      	lsls	r0, r0, #20
1000122c:	0d40      	lsrs	r0, r0, #21
1000122e:	0224      	lsls	r4, r4, #8
10001230:	4320      	orrs	r0, r4
10001232:	8098      	strh	r0, [r3, #4]
10001234:	1852      	adds	r2, r2, r1
10001236:	4b20      	ldr	r3, [pc, #128]	; (100012b8 <irq_remove_handler+0x19c>)
10001238:	0092      	lsls	r2, r2, #2
1000123a:	18bf      	adds	r7, r7, r2
1000123c:	781a      	ldrb	r2, [r3, #0]
1000123e:	7019      	strb	r1, [r3, #0]
10001240:	71ba      	strb	r2, [r7, #6]
10001242:	e7cc      	b.n	100011de <irq_remove_handler+0xc2>
10001244:	9901      	ldr	r1, [sp, #4]
10001246:	2900      	cmp	r1, #0
10001248:	d110      	bne.n	1000126c <irq_remove_handler+0x150>
1000124a:	31ff      	adds	r1, #255	; 0xff
1000124c:	7191      	strb	r1, [r2, #6]
1000124e:	491b      	ldr	r1, [pc, #108]	; (100012bc <irq_remove_handler+0x1a0>)
10001250:	8091      	strh	r1, [r2, #4]
10001252:	4919      	ldr	r1, [pc, #100]	; (100012b8 <irq_remove_handler+0x19c>)
10001254:	780a      	ldrb	r2, [r1, #0]
10001256:	719a      	strb	r2, [r3, #6]
10001258:	4a19      	ldr	r2, [pc, #100]	; (100012c0 <irq_remove_handler+0x1a4>)
1000125a:	1bdb      	subs	r3, r3, r7
1000125c:	415b      	adcs	r3, r3
1000125e:	435a      	muls	r2, r3
10001260:	0d12      	lsrs	r2, r2, #20
10001262:	700a      	strb	r2, [r1, #0]
10001264:	e7bb      	b.n	100011de <irq_remove_handler+0xc2>
10001266:	20bd      	movs	r0, #189	; 0xbd
10001268:	0200      	lsls	r0, r0, #8
1000126a:	e7e2      	b.n	10001232 <irq_remove_handler+0x116>
1000126c:	4a15      	ldr	r2, [pc, #84]	; (100012c4 <irq_remove_handler+0x1a8>)
1000126e:	4916      	ldr	r1, [pc, #88]	; (100012c8 <irq_remove_handler+0x1ac>)
10001270:	1ad2      	subs	r2, r2, r3
10001272:	3a08      	subs	r2, #8
10001274:	0250      	lsls	r0, r2, #9
10001276:	0d40      	lsrs	r0, r0, #21
10001278:	4301      	orrs	r1, r0
1000127a:	8099      	strh	r1, [r3, #4]
1000127c:	4913      	ldr	r1, [pc, #76]	; (100012cc <irq_remove_handler+0x1b0>)
1000127e:	0852      	lsrs	r2, r2, #1
10001280:	430a      	orrs	r2, r1
10001282:	80da      	strh	r2, [r3, #6]
10001284:	e7ab      	b.n	100011de <irq_remove_handler+0xc2>
10001286:	2106      	movs	r1, #6
10001288:	5651      	ldrsb	r1, [r2, r1]
1000128a:	0013      	movs	r3, r2
1000128c:	2900      	cmp	r1, #0
1000128e:	dab7      	bge.n	10001200 <irq_remove_handler+0xe4>
10001290:	9a01      	ldr	r2, [sp, #4]
10001292:	2a00      	cmp	r2, #0
10001294:	d1ea      	bne.n	1000126c <irq_remove_handler+0x150>
10001296:	4645      	mov	r5, r8
10001298:	e7db      	b.n	10001252 <irq_remove_handler+0x136>
1000129a:	46c0      	nop			; (mov r8, r8)
1000129c:	d0000124 	.word	0xd0000124
100012a0:	e000ed00 	.word	0xe000ed00
100012a4:	100001cd 	.word	0x100001cd
100012a8:	2000038c 	.word	0x2000038c
100012ac:	e000e100 	.word	0xe000e100
100012b0:	e000e180 	.word	0xe000e180
100012b4:	e000e280 	.word	0xe000e280
100012b8:	20001c5f 	.word	0x20001c5f
100012bc:	ffffbd00 	.word	0xffffbd00
100012c0:	0000aaaa 	.word	0x0000aaaa
100012c4:	200003c6 	.word	0x200003c6
100012c8:	fffff000 	.word	0xfffff000
100012cc:	fffff800 	.word	0xfffff800

100012d0 <irq_add_tail_to_free_list>:
100012d0:	b5f8      	push	{r3, r4, r5, r6, r7, lr}
100012d2:	2501      	movs	r5, #1
100012d4:	0004      	movs	r4, r0
100012d6:	4305      	orrs	r5, r0
100012d8:	f7fe ffc5 	bl	10000266 <__get_current_exception>
100012dc:	f3ef 8c10 	mrs	ip, PRIMASK
100012e0:	b672      	cpsid	i
100012e2:	4a21      	ldr	r2, [pc, #132]	; (10001368 <irq_add_tail_to_free_list+0x98>)
100012e4:	6813      	ldr	r3, [r2, #0]
100012e6:	2b00      	cmp	r3, #0
100012e8:	d0fc      	beq.n	100012e4 <irq_add_tail_to_free_list+0x14>
100012ea:	f3bf 8f5f 	dmb	sy
100012ee:	4e1f      	ldr	r6, [pc, #124]	; (1000136c <irq_add_tail_to_free_list+0x9c>)
100012f0:	0021      	movs	r1, r4
100012f2:	68b7      	ldr	r7, [r6, #8]
100012f4:	4a1e      	ldr	r2, [pc, #120]	; (10001370 <irq_add_tail_to_free_list+0xa0>)
100012f6:	4b1f      	ldr	r3, [pc, #124]	; (10001374 <irq_add_tail_to_free_list+0xa4>)
100012f8:	1a89      	subs	r1, r1, r2
100012fa:	4149      	adcs	r1, r1
100012fc:	434b      	muls	r3, r1
100012fe:	0d1b      	lsrs	r3, r3, #20
10001300:	b259      	sxtb	r1, r3
10001302:	0083      	lsls	r3, r0, #2
10001304:	58f8      	ldr	r0, [r7, r3]
10001306:	42a8      	cmp	r0, r5
10001308:	d01c      	beq.n	10001344 <irq_add_tail_to_free_list+0x74>
1000130a:	2306      	movs	r3, #6
1000130c:	56d3      	ldrsb	r3, [r2, r3]
1000130e:	428b      	cmp	r3, r1
10001310:	d01c      	beq.n	1000134c <irq_add_tail_to_free_list+0x7c>
10001312:	2312      	movs	r3, #18
10001314:	56d3      	ldrsb	r3, [r2, r3]
10001316:	428b      	cmp	r3, r1
10001318:	d022      	beq.n	10001360 <irq_add_tail_to_free_list+0x90>
1000131a:	231e      	movs	r3, #30
1000131c:	56d3      	ldrsb	r3, [r2, r3]
1000131e:	428b      	cmp	r3, r1
10001320:	d020      	beq.n	10001364 <irq_add_tail_to_free_list+0x94>
10001322:	232a      	movs	r3, #42	; 0x2a
10001324:	56d3      	ldrsb	r3, [r2, r3]
10001326:	2003      	movs	r0, #3
10001328:	428b      	cmp	r3, r1
1000132a:	d010      	beq.n	1000134e <irq_add_tail_to_free_list+0x7e>
1000132c:	4b12      	ldr	r3, [pc, #72]	; (10001378 <irq_add_tail_to_free_list+0xa8>)
1000132e:	781a      	ldrb	r2, [r3, #0]
10001330:	7019      	strb	r1, [r3, #0]
10001332:	71a2      	strb	r2, [r4, #6]
10001334:	f3bf 8f5f 	dmb	sy
10001338:	2200      	movs	r2, #0
1000133a:	4b0b      	ldr	r3, [pc, #44]	; (10001368 <irq_add_tail_to_free_list+0x98>)
1000133c:	601a      	str	r2, [r3, #0]
1000133e:	f38c 8810 	msr	PRIMASK, ip
10001342:	bdf8      	pop	{r3, r4, r5, r6, r7, pc}
10001344:	68b2      	ldr	r2, [r6, #8]
10001346:	480d      	ldr	r0, [pc, #52]	; (1000137c <irq_add_tail_to_free_list+0xac>)
10001348:	50d0      	str	r0, [r2, r3]
1000134a:	e7ef      	b.n	1000132c <irq_add_tail_to_free_list+0x5c>
1000134c:	2000      	movs	r0, #0
1000134e:	0043      	lsls	r3, r0, #1
10001350:	181b      	adds	r3, r3, r0
10001352:	009b      	lsls	r3, r3, #2
10001354:	18d2      	adds	r2, r2, r3
10001356:	23ff      	movs	r3, #255	; 0xff
10001358:	7193      	strb	r3, [r2, #6]
1000135a:	4b09      	ldr	r3, [pc, #36]	; (10001380 <irq_add_tail_to_free_list+0xb0>)
1000135c:	8093      	strh	r3, [r2, #4]
1000135e:	e7e5      	b.n	1000132c <irq_add_tail_to_free_list+0x5c>
10001360:	2001      	movs	r0, #1
10001362:	e7f4      	b.n	1000134e <irq_add_tail_to_free_list+0x7e>
10001364:	2002      	movs	r0, #2
10001366:	e7f2      	b.n	1000134e <irq_add_tail_to_free_list+0x7e>
10001368:	d0000124 	.word	0xd0000124
1000136c:	e000ed00 	.word	0xe000ed00
10001370:	2000038c 	.word	0x2000038c
10001374:	0000aaaa 	.word	0x0000aaaa
10001378:	20001c5f 	.word	0x20001c5f
1000137c:	100001cd 	.word	0x100001cd
10001380:	ffffbd00 	.word	0xffffbd00

10001384 <irq_init_priorities>:
10001384:	4b05      	ldr	r3, [pc, #20]	; (1000139c <irq_init_priorities+0x18>)
10001386:	4a06      	ldr	r2, [pc, #24]	; (100013a0 <irq_init_priorities+0x1c>)
10001388:	6013      	str	r3, [r2, #0]
1000138a:	4a06      	ldr	r2, [pc, #24]	; (100013a4 <irq_init_priorities+0x20>)
1000138c:	6013      	str	r3, [r2, #0]
1000138e:	6053      	str	r3, [r2, #4]
10001390:	6093      	str	r3, [r2, #8]
10001392:	60d3      	str	r3, [r2, #12]
10001394:	6113      	str	r3, [r2, #16]
10001396:	6153      	str	r3, [r2, #20]
10001398:	6193      	str	r3, [r2, #24]
1000139a:	4770      	bx	lr
1000139c:	80808080 	.word	0x80808080
100013a0:	e000e400 	.word	0xe000e400
100013a4:	e000e404 	.word	0xe000e404

100013a8 <user_irq_claim_unused>:
100013a8:	23d0      	movs	r3, #208	; 0xd0
100013aa:	b500      	push	{lr}
100013ac:	061b      	lsls	r3, r3, #24
100013ae:	681b      	ldr	r3, [r3, #0]
100013b0:	0001      	movs	r1, r0
100013b2:	4807      	ldr	r0, [pc, #28]	; (100013d0 <user_irq_claim_unused+0x28>)
100013b4:	b083      	sub	sp, #12
100013b6:	18c0      	adds	r0, r0, r3
100013b8:	4b06      	ldr	r3, [pc, #24]	; (100013d4 <user_irq_claim_unused+0x2c>)
100013ba:	2200      	movs	r2, #0
100013bc:	9300      	str	r3, [sp, #0]
100013be:	2305      	movs	r3, #5
100013c0:	f7ff fcd8 	bl	10000d74 <hw_claim_unused_from_range>
100013c4:	2800      	cmp	r0, #0
100013c6:	db01      	blt.n	100013cc <user_irq_claim_unused+0x24>
100013c8:	231f      	movs	r3, #31
100013ca:	1a18      	subs	r0, r3, r0
100013cc:	b003      	add	sp, #12
100013ce:	bd00      	pop	{pc}
100013d0:	20001c50 	.word	0x20001c50
100013d4:	1000b618 	.word	0x1000b618

100013d8 <lock_init>:
100013d8:	4b02      	ldr	r3, [pc, #8]	; (100013e4 <lock_init+0xc>)
100013da:	469c      	mov	ip, r3
100013dc:	4461      	add	r1, ip
100013de:	0089      	lsls	r1, r1, #2
100013e0:	6001      	str	r1, [r0, #0]
100013e2:	4770      	bx	lr
100013e4:	34000040 	.word	0x34000040

100013e8 <timer_pool_entry_comparator>:
100013e8:	6883      	ldr	r3, [r0, #8]
100013ea:	480b      	ldr	r0, [pc, #44]	; (10001418 <timer_pool_entry_comparator+0x30>)
100013ec:	b510      	push	{r4, lr}
100013ee:	4684      	mov	ip, r0
100013f0:	4461      	add	r1, ip
100013f2:	4462      	add	r2, ip
100013f4:	0109      	lsls	r1, r1, #4
100013f6:	0112      	lsls	r2, r2, #4
100013f8:	189a      	adds	r2, r3, r2
100013fa:	1859      	adds	r1, r3, r1
100013fc:	6854      	ldr	r4, [r2, #4]
100013fe:	684b      	ldr	r3, [r1, #4]
10001400:	2001      	movs	r0, #1
10001402:	429c      	cmp	r4, r3
10001404:	d801      	bhi.n	1000140a <timer_pool_entry_comparator+0x22>
10001406:	d002      	beq.n	1000140e <timer_pool_entry_comparator+0x26>
10001408:	2000      	movs	r0, #0
1000140a:	b2c0      	uxtb	r0, r0
1000140c:	bd10      	pop	{r4, pc}
1000140e:	6812      	ldr	r2, [r2, #0]
10001410:	680b      	ldr	r3, [r1, #0]
10001412:	429a      	cmp	r2, r3
10001414:	d8f9      	bhi.n	1000140a <timer_pool_entry_comparator+0x22>
10001416:	e7f7      	b.n	10001408 <timer_pool_entry_comparator+0x20>
10001418:	0fffffff 	.word	0x0fffffff

1000141c <sleep_until_callback>:
1000141c:	4b0a      	ldr	r3, [pc, #40]	; (10001448 <sleep_until_callback+0x2c>)
1000141e:	6819      	ldr	r1, [r3, #0]
10001420:	f3ef 8010 	mrs	r0, PRIMASK
10001424:	b672      	cpsid	i
10001426:	680a      	ldr	r2, [r1, #0]
10001428:	2a00      	cmp	r2, #0
1000142a:	d0fc      	beq.n	10001426 <sleep_until_callback+0xa>
1000142c:	f3bf 8f5f 	dmb	sy
10001430:	681b      	ldr	r3, [r3, #0]
10001432:	f3bf 8f5f 	dmb	sy
10001436:	2200      	movs	r2, #0
10001438:	601a      	str	r2, [r3, #0]
1000143a:	f380 8810 	msr	PRIMASK, r0
1000143e:	bf40      	sev
10001440:	2000      	movs	r0, #0
10001442:	2100      	movs	r1, #0
10001444:	4770      	bx	lr
10001446:	46c0      	nop			; (mov r8, r8)
10001448:	20001c18 	.word	0x20001c18

1000144c <add_alarm_under_lock.isra.0>:
1000144c:	b5f8      	push	{r3, r4, r5, r6, r7, lr}
1000144e:	4657      	mov	r7, sl
10001450:	464e      	mov	r6, r9
10001452:	4645      	mov	r5, r8
10001454:	46de      	mov	lr, fp
10001456:	b5e0      	push	{r5, r6, r7, lr}
10001458:	4699      	mov	r9, r3
1000145a:	ab0c      	add	r3, sp, #48	; 0x30
1000145c:	781c      	ldrb	r4, [r3, #0]
1000145e:	ab0d      	add	r3, sp, #52	; 0x34
10001460:	781b      	ldrb	r3, [r3, #0]
10001462:	0006      	movs	r6, r0
10001464:	4690      	mov	r8, r2
10001466:	469a      	mov	sl, r3
10001468:	6807      	ldr	r7, [r0, #0]
1000146a:	2c00      	cmp	r4, #0
1000146c:	d111      	bne.n	10001492 <add_alarm_under_lock.isra.0+0x46>
1000146e:	7bbc      	ldrb	r4, [r7, #14]
10001470:	2c00      	cmp	r4, #0
10001472:	d042      	beq.n	100014fa <add_alarm_under_lock.isra.0+0xae>
10001474:	0065      	lsls	r5, r4, #1
10001476:	683b      	ldr	r3, [r7, #0]
10001478:	192d      	adds	r5, r5, r4
1000147a:	3d03      	subs	r5, #3
1000147c:	1959      	adds	r1, r3, r5
1000147e:	784b      	ldrb	r3, [r1, #1]
10001480:	73bb      	strb	r3, [r7, #14]
10001482:	2b00      	cmp	r3, #0
10001484:	d100      	bne.n	10001488 <add_alarm_under_lock.isra.0+0x3c>
10001486:	73fb      	strb	r3, [r7, #15]
10001488:	2300      	movs	r3, #0
1000148a:	708b      	strb	r3, [r1, #2]
1000148c:	704b      	strb	r3, [r1, #1]
1000148e:	700b      	strb	r3, [r1, #0]
10001490:	e004      	b.n	1000149c <add_alarm_under_lock.isra.0+0x50>
10001492:	0065      	lsls	r5, r4, #1
10001494:	683b      	ldr	r3, [r7, #0]
10001496:	192d      	adds	r5, r5, r4
10001498:	3d03      	subs	r5, #3
1000149a:	1959      	adds	r1, r3, r5
1000149c:	68b2      	ldr	r2, [r6, #8]
1000149e:	4b2a      	ldr	r3, [pc, #168]	; (10001548 <add_alarm_under_lock.isra.0+0xfc>)
100014a0:	4694      	mov	ip, r2
100014a2:	4642      	mov	r2, r8
100014a4:	18e3      	adds	r3, r4, r3
100014a6:	011b      	lsls	r3, r3, #4
100014a8:	4463      	add	r3, ip
100014aa:	601a      	str	r2, [r3, #0]
100014ac:	464a      	mov	r2, r9
100014ae:	605a      	str	r2, [r3, #4]
100014b0:	9a0a      	ldr	r2, [sp, #40]	; 0x28
100014b2:	609a      	str	r2, [r3, #8]
100014b4:	9a0b      	ldr	r2, [sp, #44]	; 0x2c
100014b6:	60da      	str	r2, [r3, #12]
100014b8:	2300      	movs	r3, #0
100014ba:	708b      	strb	r3, [r1, #2]
100014bc:	704b      	strb	r3, [r1, #1]
100014be:	700b      	strb	r3, [r1, #0]
100014c0:	7b7b      	ldrb	r3, [r7, #13]
100014c2:	469b      	mov	fp, r3
100014c4:	2b00      	cmp	r3, #0
100014c6:	d02b      	beq.n	10001520 <add_alarm_under_lock.isra.0+0xd4>
100014c8:	0022      	movs	r2, r4
100014ca:	4659      	mov	r1, fp
100014cc:	68b8      	ldr	r0, [r7, #8]
100014ce:	687b      	ldr	r3, [r7, #4]
100014d0:	4798      	blx	r3
100014d2:	683a      	ldr	r2, [r7, #0]
100014d4:	2800      	cmp	r0, #0
100014d6:	d016      	beq.n	10001506 <add_alarm_under_lock.isra.0+0xba>
100014d8:	465b      	mov	r3, fp
100014da:	4658      	mov	r0, fp
100014dc:	005b      	lsls	r3, r3, #1
100014de:	445b      	add	r3, fp
100014e0:	1955      	adds	r5, r2, r5
100014e2:	3b03      	subs	r3, #3
100014e4:	70a8      	strb	r0, [r5, #2]
100014e6:	18d1      	adds	r1, r2, r3
100014e8:	5cd3      	ldrb	r3, [r2, r3]
100014ea:	2b00      	cmp	r3, #0
100014ec:	d000      	beq.n	100014f0 <add_alarm_under_lock.isra.0+0xa4>
100014ee:	706b      	strb	r3, [r5, #1]
100014f0:	465b      	mov	r3, fp
100014f2:	700c      	strb	r4, [r1, #0]
100014f4:	737b      	strb	r3, [r7, #13]
100014f6:	45a3      	cmp	fp, r4
100014f8:	d013      	beq.n	10001522 <add_alarm_under_lock.isra.0+0xd6>
100014fa:	bcf0      	pop	{r4, r5, r6, r7}
100014fc:	46bb      	mov	fp, r7
100014fe:	46b2      	mov	sl, r6
10001500:	46a9      	mov	r9, r5
10001502:	46a0      	mov	r8, r4
10001504:	bdf8      	pop	{r3, r4, r5, r6, r7, pc}
10001506:	465b      	mov	r3, fp
10001508:	005b      	lsls	r3, r3, #1
1000150a:	445b      	add	r3, fp
1000150c:	3b03      	subs	r3, #3
1000150e:	18d3      	adds	r3, r2, r3
10001510:	709c      	strb	r4, [r3, #2]
10001512:	1951      	adds	r1, r2, r5
10001514:	5d52      	ldrb	r2, [r2, r5]
10001516:	2a00      	cmp	r2, #0
10001518:	d000      	beq.n	1000151c <add_alarm_under_lock.isra.0+0xd0>
1000151a:	705a      	strb	r2, [r3, #1]
1000151c:	465b      	mov	r3, fp
1000151e:	700b      	strb	r3, [r1, #0]
10001520:	737c      	strb	r4, [r7, #13]
10001522:	4642      	mov	r2, r8
10001524:	464b      	mov	r3, r9
10001526:	7d30      	ldrb	r0, [r6, #20]
10001528:	f000 fba4 	bl	10001c74 <hardware_alarm_set_target>
1000152c:	1e05      	subs	r5, r0, #0
1000152e:	d006      	beq.n	1000153e <add_alarm_under_lock.isra.0+0xf2>
10001530:	4653      	mov	r3, sl
10001532:	2b00      	cmp	r3, #0
10001534:	d103      	bne.n	1000153e <add_alarm_under_lock.isra.0+0xf2>
10001536:	0021      	movs	r1, r4
10001538:	6830      	ldr	r0, [r6, #0]
1000153a:	f000 fdbd 	bl	100020b8 <ph_remove_and_free_node>
1000153e:	9b0e      	ldr	r3, [sp, #56]	; 0x38
10001540:	2b00      	cmp	r3, #0
10001542:	d0da      	beq.n	100014fa <add_alarm_under_lock.isra.0+0xae>
10001544:	701d      	strb	r5, [r3, #0]
10001546:	e7d8      	b.n	100014fa <add_alarm_under_lock.isra.0+0xae>
10001548:	0fffffff 	.word	0x0fffffff

1000154c <alarm_pool_alarm_callback>:
1000154c:	b5f0      	push	{r4, r5, r6, r7, lr}
1000154e:	46de      	mov	lr, fp
10001550:	464e      	mov	r6, r9
10001552:	4657      	mov	r7, sl
10001554:	4645      	mov	r5, r8
10001556:	2300      	movs	r3, #0
10001558:	b5e0      	push	{r5, r6, r7, lr}
1000155a:	b08d      	sub	sp, #52	; 0x34
1000155c:	930a      	str	r3, [sp, #40]	; 0x28
1000155e:	4b6b      	ldr	r3, [pc, #428]	; (1000170c <alarm_pool_alarm_callback+0x1c0>)
10001560:	0082      	lsls	r2, r0, #2
10001562:	58d3      	ldr	r3, [r2, r3]
10001564:	900b      	str	r0, [sp, #44]	; 0x2c
10001566:	4699      	mov	r9, r3
10001568:	2300      	movs	r3, #0
1000156a:	469b      	mov	fp, r3
1000156c:	464b      	mov	r3, r9
1000156e:	9307      	str	r3, [sp, #28]
10001570:	f000 fb30 	bl	10001bd4 <time_us_64>
10001574:	9c07      	ldr	r4, [sp, #28]
10001576:	0006      	movs	r6, r0
10001578:	000f      	movs	r7, r1
1000157a:	6862      	ldr	r2, [r4, #4]
1000157c:	f3ef 8510 	mrs	r5, PRIMASK
10001580:	b672      	cpsid	i
10001582:	6813      	ldr	r3, [r2, #0]
10001584:	2b00      	cmp	r3, #0
10001586:	d0fc      	beq.n	10001582 <alarm_pool_alarm_callback+0x36>
10001588:	0022      	movs	r2, r4
1000158a:	9407      	str	r4, [sp, #28]
1000158c:	f3bf 8f5f 	dmb	sy
10001590:	6824      	ldr	r4, [r4, #0]
10001592:	7b63      	ldrb	r3, [r4, #13]
10001594:	4699      	mov	r9, r3
10001596:	2b00      	cmp	r3, #0
10001598:	d067      	beq.n	1000166a <alarm_pool_alarm_callback+0x11e>
1000159a:	6892      	ldr	r2, [r2, #8]
1000159c:	4b5c      	ldr	r3, [pc, #368]	; (10001710 <alarm_pool_alarm_callback+0x1c4>)
1000159e:	4690      	mov	r8, r2
100015a0:	444b      	add	r3, r9
100015a2:	011b      	lsls	r3, r3, #4
100015a4:	4498      	add	r8, r3
100015a6:	4643      	mov	r3, r8
100015a8:	681a      	ldr	r2, [r3, #0]
100015aa:	685b      	ldr	r3, [r3, #4]
100015ac:	0010      	movs	r0, r2
100015ae:	0019      	movs	r1, r3
100015b0:	1b80      	subs	r0, r0, r6
100015b2:	41b9      	sbcs	r1, r7
100015b4:	2900      	cmp	r1, #0
100015b6:	dd5f      	ble.n	10001678 <alarm_pool_alarm_callback+0x12c>
100015b8:	980b      	ldr	r0, [sp, #44]	; 0x2c
100015ba:	f000 fb5b 	bl	10001c74 <hardware_alarm_set_target>
100015be:	2300      	movs	r3, #0
100015c0:	2600      	movs	r6, #0
100015c2:	4698      	mov	r8, r3
100015c4:	2700      	movs	r7, #0
100015c6:	469a      	mov	sl, r3
100015c8:	9c07      	ldr	r4, [sp, #28]
100015ca:	6863      	ldr	r3, [r4, #4]
100015cc:	f3bf 8f5f 	dmb	sy
100015d0:	465a      	mov	r2, fp
100015d2:	601a      	str	r2, [r3, #0]
100015d4:	f385 8810 	msr	PRIMASK, r5
100015d8:	4653      	mov	r3, sl
100015da:	2b00      	cmp	r3, #0
100015dc:	d108      	bne.n	100015f0 <alarm_pool_alarm_callback+0xa4>
100015de:	2800      	cmp	r0, #0
100015e0:	d1c6      	bne.n	10001570 <alarm_pool_alarm_callback+0x24>
100015e2:	b00d      	add	sp, #52	; 0x34
100015e4:	bcf0      	pop	{r4, r5, r6, r7}
100015e6:	46bb      	mov	fp, r7
100015e8:	46b2      	mov	sl, r6
100015ea:	46a9      	mov	r9, r5
100015ec:	46a0      	mov	r8, r4
100015ee:	bdf0      	pop	{r4, r5, r6, r7, pc}
100015f0:	9b0a      	ldr	r3, [sp, #40]	; 0x28
100015f2:	4641      	mov	r1, r8
100015f4:	0218      	lsls	r0, r3, #8
100015f6:	464b      	mov	r3, r9
100015f8:	4318      	orrs	r0, r3
100015fa:	47d0      	blx	sl
100015fc:	9008      	str	r0, [sp, #32]
100015fe:	9109      	str	r1, [sp, #36]	; 0x24
10001600:	6862      	ldr	r2, [r4, #4]
10001602:	f3ef 8510 	mrs	r5, PRIMASK
10001606:	b672      	cpsid	i
10001608:	6813      	ldr	r3, [r2, #0]
1000160a:	2b00      	cmp	r3, #0
1000160c:	d0fc      	beq.n	10001608 <alarm_pool_alarm_callback+0xbc>
1000160e:	9407      	str	r4, [sp, #28]
10001610:	f3bf 8f5f 	dmb	sy
10001614:	9908      	ldr	r1, [sp, #32]
10001616:	9a09      	ldr	r2, [sp, #36]	; 0x24
10001618:	2a00      	cmp	r2, #0
1000161a:	db48      	blt.n	100016ae <alarm_pool_alarm_callback+0x162>
1000161c:	4311      	orrs	r1, r2
1000161e:	d003      	beq.n	10001628 <alarm_pool_alarm_callback+0xdc>
10001620:	9b07      	ldr	r3, [sp, #28]
10001622:	691b      	ldr	r3, [r3, #16]
10001624:	2b00      	cmp	r3, #0
10001626:	d15d      	bne.n	100016e4 <alarm_pool_alarm_callback+0x198>
10001628:	9b07      	ldr	r3, [sp, #28]
1000162a:	681b      	ldr	r3, [r3, #0]
1000162c:	7bd9      	ldrb	r1, [r3, #15]
1000162e:	2900      	cmp	r1, #0
10001630:	d007      	beq.n	10001642 <alarm_pool_alarm_callback+0xf6>
10001632:	004a      	lsls	r2, r1, #1
10001634:	1852      	adds	r2, r2, r1
10001636:	6819      	ldr	r1, [r3, #0]
10001638:	468c      	mov	ip, r1
1000163a:	4649      	mov	r1, r9
1000163c:	4462      	add	r2, ip
1000163e:	3a03      	subs	r2, #3
10001640:	7051      	strb	r1, [r2, #1]
10001642:	464a      	mov	r2, r9
10001644:	73da      	strb	r2, [r3, #15]
10001646:	464b      	mov	r3, r9
10001648:	9a07      	ldr	r2, [sp, #28]
1000164a:	3b01      	subs	r3, #1
1000164c:	68d1      	ldr	r1, [r2, #12]
1000164e:	5cca      	ldrb	r2, [r1, r3]
10001650:	3201      	adds	r2, #1
10001652:	54ca      	strb	r2, [r1, r3]
10001654:	465b      	mov	r3, fp
10001656:	9a07      	ldr	r2, [sp, #28]
10001658:	6113      	str	r3, [r2, #16]
1000165a:	6853      	ldr	r3, [r2, #4]
1000165c:	f3bf 8f5f 	dmb	sy
10001660:	465a      	mov	r2, fp
10001662:	601a      	str	r2, [r3, #0]
10001664:	f385 8810 	msr	PRIMASK, r5
10001668:	e782      	b.n	10001570 <alarm_pool_alarm_callback+0x24>
1000166a:	2300      	movs	r3, #0
1000166c:	2600      	movs	r6, #0
1000166e:	4698      	mov	r8, r3
10001670:	2700      	movs	r7, #0
10001672:	469a      	mov	sl, r3
10001674:	2000      	movs	r0, #0
10001676:	e7a7      	b.n	100015c8 <alarm_pool_alarm_callback+0x7c>
10001678:	2900      	cmp	r1, #0
1000167a:	d101      	bne.n	10001680 <alarm_pool_alarm_callback+0x134>
1000167c:	2800      	cmp	r0, #0
1000167e:	d19b      	bne.n	100015b8 <alarm_pool_alarm_callback+0x6c>
10001680:	2100      	movs	r1, #0
10001682:	0020      	movs	r0, r4
10001684:	f000 fc9a 	bl	10001fbc <ph_remove_head>
10001688:	4643      	mov	r3, r8
1000168a:	681e      	ldr	r6, [r3, #0]
1000168c:	685f      	ldr	r7, [r3, #4]
1000168e:	689b      	ldr	r3, [r3, #8]
10001690:	9a07      	ldr	r2, [sp, #28]
10001692:	469a      	mov	sl, r3
10001694:	4643      	mov	r3, r8
10001696:	68db      	ldr	r3, [r3, #12]
10001698:	4698      	mov	r8, r3
1000169a:	68d3      	ldr	r3, [r2, #12]
1000169c:	444b      	add	r3, r9
1000169e:	3b01      	subs	r3, #1
100016a0:	781b      	ldrb	r3, [r3, #0]
100016a2:	930a      	str	r3, [sp, #40]	; 0x28
100016a4:	021b      	lsls	r3, r3, #8
100016a6:	4303      	orrs	r3, r0
100016a8:	6113      	str	r3, [r2, #16]
100016aa:	2000      	movs	r0, #0
100016ac:	e78c      	b.n	100015c8 <alarm_pool_alarm_callback+0x7c>
100016ae:	6923      	ldr	r3, [r4, #16]
100016b0:	2b00      	cmp	r3, #0
100016b2:	d0b9      	beq.n	10001628 <alarm_pool_alarm_callback+0xdc>
100016b4:	0033      	movs	r3, r6
100016b6:	003c      	movs	r4, r7
100016b8:	1a5b      	subs	r3, r3, r1
100016ba:	4194      	sbcs	r4, r2
100016bc:	001a      	movs	r2, r3
100016be:	0023      	movs	r3, r4
100016c0:	42a7      	cmp	r7, r4
100016c2:	d819      	bhi.n	100016f8 <alarm_pool_alarm_callback+0x1ac>
100016c4:	429f      	cmp	r7, r3
100016c6:	d01b      	beq.n	10001700 <alarm_pool_alarm_callback+0x1b4>
100016c8:	4659      	mov	r1, fp
100016ca:	9104      	str	r1, [sp, #16]
100016cc:	2101      	movs	r1, #1
100016ce:	9103      	str	r1, [sp, #12]
100016d0:	4649      	mov	r1, r9
100016d2:	9102      	str	r1, [sp, #8]
100016d4:	4641      	mov	r1, r8
100016d6:	9101      	str	r1, [sp, #4]
100016d8:	4651      	mov	r1, sl
100016da:	9807      	ldr	r0, [sp, #28]
100016dc:	9100      	str	r1, [sp, #0]
100016de:	f7ff feb5 	bl	1000144c <add_alarm_under_lock.isra.0>
100016e2:	e7b7      	b.n	10001654 <alarm_pool_alarm_callback+0x108>
100016e4:	f000 fa76 	bl	10001bd4 <time_us_64>
100016e8:	9a08      	ldr	r2, [sp, #32]
100016ea:	9b09      	ldr	r3, [sp, #36]	; 0x24
100016ec:	0006      	movs	r6, r0
100016ee:	000f      	movs	r7, r1
100016f0:	1992      	adds	r2, r2, r6
100016f2:	417b      	adcs	r3, r7
100016f4:	4299      	cmp	r1, r3
100016f6:	d9e5      	bls.n	100016c4 <alarm_pool_alarm_callback+0x178>
100016f8:	2201      	movs	r2, #1
100016fa:	4252      	negs	r2, r2
100016fc:	17d3      	asrs	r3, r2, #31
100016fe:	e7e3      	b.n	100016c8 <alarm_pool_alarm_callback+0x17c>
10001700:	4296      	cmp	r6, r2
10001702:	d9e1      	bls.n	100016c8 <alarm_pool_alarm_callback+0x17c>
10001704:	2201      	movs	r2, #1
10001706:	4252      	negs	r2, r2
10001708:	17d3      	asrs	r3, r2, #31
1000170a:	e7dd      	b.n	100016c8 <alarm_pool_alarm_callback+0x17c>
1000170c:	20001bf4 	.word	0x20001bf4
10001710:	0fffffff 	.word	0x0fffffff

10001714 <alarm_pool_add_alarm_at.constprop.0>:
10001714:	b5f8      	push	{r3, r4, r5, r6, r7, lr}
10001716:	4657      	mov	r7, sl
10001718:	464e      	mov	r6, r9
1000171a:	4645      	mov	r5, r8
1000171c:	46de      	mov	lr, fp
1000171e:	b5e0      	push	{r5, r6, r7, lr}
10001720:	4d40      	ldr	r5, [pc, #256]	; (10001824 <alarm_pool_add_alarm_at.constprop.0+0x110>)
10001722:	4681      	mov	r9, r0
10001724:	468a      	mov	sl, r1
10001726:	686a      	ldr	r2, [r5, #4]
10001728:	f3ef 8810 	mrs	r8, PRIMASK
1000172c:	b672      	cpsid	i
1000172e:	6813      	ldr	r3, [r2, #0]
10001730:	2b00      	cmp	r3, #0
10001732:	d0fc      	beq.n	1000172e <alarm_pool_add_alarm_at.constprop.0+0x1a>
10001734:	f3bf 8f5f 	dmb	sy
10001738:	682e      	ldr	r6, [r5, #0]
1000173a:	7bb4      	ldrb	r4, [r6, #14]
1000173c:	2c00      	cmp	r4, #0
1000173e:	d039      	beq.n	100017b4 <alarm_pool_add_alarm_at.constprop.0+0xa0>
10001740:	0067      	lsls	r7, r4, #1
10001742:	6833      	ldr	r3, [r6, #0]
10001744:	193f      	adds	r7, r7, r4
10001746:	3f03      	subs	r7, #3
10001748:	19db      	adds	r3, r3, r7
1000174a:	785a      	ldrb	r2, [r3, #1]
1000174c:	73b2      	strb	r2, [r6, #14]
1000174e:	2a00      	cmp	r2, #0
10001750:	d100      	bne.n	10001754 <alarm_pool_add_alarm_at.constprop.0+0x40>
10001752:	73f2      	strb	r2, [r6, #15]
10001754:	68a9      	ldr	r1, [r5, #8]
10001756:	4a34      	ldr	r2, [pc, #208]	; (10001828 <alarm_pool_add_alarm_at.constprop.0+0x114>)
10001758:	468c      	mov	ip, r1
1000175a:	4649      	mov	r1, r9
1000175c:	18a2      	adds	r2, r4, r2
1000175e:	0112      	lsls	r2, r2, #4
10001760:	4462      	add	r2, ip
10001762:	6011      	str	r1, [r2, #0]
10001764:	4651      	mov	r1, sl
10001766:	6051      	str	r1, [r2, #4]
10001768:	4930      	ldr	r1, [pc, #192]	; (1000182c <alarm_pool_add_alarm_at.constprop.0+0x118>)
1000176a:	6091      	str	r1, [r2, #8]
1000176c:	2100      	movs	r1, #0
1000176e:	60d1      	str	r1, [r2, #12]
10001770:	7099      	strb	r1, [r3, #2]
10001772:	7059      	strb	r1, [r3, #1]
10001774:	7019      	strb	r1, [r3, #0]
10001776:	7b73      	ldrb	r3, [r6, #13]
10001778:	469b      	mov	fp, r3
1000177a:	2b00      	cmp	r3, #0
1000177c:	d035      	beq.n	100017ea <alarm_pool_add_alarm_at.constprop.0+0xd6>
1000177e:	0022      	movs	r2, r4
10001780:	0019      	movs	r1, r3
10001782:	68b0      	ldr	r0, [r6, #8]
10001784:	6873      	ldr	r3, [r6, #4]
10001786:	4798      	blx	r3
10001788:	6832      	ldr	r2, [r6, #0]
1000178a:	2800      	cmp	r0, #0
1000178c:	d020      	beq.n	100017d0 <alarm_pool_add_alarm_at.constprop.0+0xbc>
1000178e:	465b      	mov	r3, fp
10001790:	4658      	mov	r0, fp
10001792:	005b      	lsls	r3, r3, #1
10001794:	445b      	add	r3, fp
10001796:	19d7      	adds	r7, r2, r7
10001798:	3b03      	subs	r3, #3
1000179a:	70b8      	strb	r0, [r7, #2]
1000179c:	18d1      	adds	r1, r2, r3
1000179e:	5cd3      	ldrb	r3, [r2, r3]
100017a0:	2b00      	cmp	r3, #0
100017a2:	d000      	beq.n	100017a6 <alarm_pool_add_alarm_at.constprop.0+0x92>
100017a4:	707b      	strb	r3, [r7, #1]
100017a6:	465b      	mov	r3, fp
100017a8:	700c      	strb	r4, [r1, #0]
100017aa:	7373      	strb	r3, [r6, #13]
100017ac:	455c      	cmp	r4, fp
100017ae:	d01d      	beq.n	100017ec <alarm_pool_add_alarm_at.constprop.0+0xd8>
100017b0:	2600      	movs	r6, #0
100017b2:	e026      	b.n	10001802 <alarm_pool_add_alarm_at.constprop.0+0xee>
100017b4:	686b      	ldr	r3, [r5, #4]
100017b6:	f3bf 8f5f 	dmb	sy
100017ba:	601c      	str	r4, [r3, #0]
100017bc:	f388 8810 	msr	PRIMASK, r8
100017c0:	2001      	movs	r0, #1
100017c2:	4240      	negs	r0, r0
100017c4:	bcf0      	pop	{r4, r5, r6, r7}
100017c6:	46bb      	mov	fp, r7
100017c8:	46b2      	mov	sl, r6
100017ca:	46a9      	mov	r9, r5
100017cc:	46a0      	mov	r8, r4
100017ce:	bdf8      	pop	{r3, r4, r5, r6, r7, pc}
100017d0:	465b      	mov	r3, fp
100017d2:	005b      	lsls	r3, r3, #1
100017d4:	445b      	add	r3, fp
100017d6:	3b03      	subs	r3, #3
100017d8:	18d3      	adds	r3, r2, r3
100017da:	709c      	strb	r4, [r3, #2]
100017dc:	19d1      	adds	r1, r2, r7
100017de:	5dd2      	ldrb	r2, [r2, r7]
100017e0:	2a00      	cmp	r2, #0
100017e2:	d000      	beq.n	100017e6 <alarm_pool_add_alarm_at.constprop.0+0xd2>
100017e4:	705a      	strb	r2, [r3, #1]
100017e6:	465b      	mov	r3, fp
100017e8:	700b      	strb	r3, [r1, #0]
100017ea:	7374      	strb	r4, [r6, #13]
100017ec:	464a      	mov	r2, r9
100017ee:	4653      	mov	r3, sl
100017f0:	7d28      	ldrb	r0, [r5, #20]
100017f2:	f000 fa3f 	bl	10001c74 <hardware_alarm_set_target>
100017f6:	1e06      	subs	r6, r0, #0
100017f8:	d0da      	beq.n	100017b0 <alarm_pool_add_alarm_at.constprop.0+0x9c>
100017fa:	0021      	movs	r1, r4
100017fc:	6828      	ldr	r0, [r5, #0]
100017fe:	f000 fc5b 	bl	100020b8 <ph_remove_and_free_node>
10001802:	68eb      	ldr	r3, [r5, #12]
10001804:	191b      	adds	r3, r3, r4
10001806:	3b01      	subs	r3, #1
10001808:	7819      	ldrb	r1, [r3, #0]
1000180a:	686b      	ldr	r3, [r5, #4]
1000180c:	f3bf 8f5f 	dmb	sy
10001810:	2200      	movs	r2, #0
10001812:	601a      	str	r2, [r3, #0]
10001814:	f388 8810 	msr	PRIMASK, r8
10001818:	2000      	movs	r0, #0
1000181a:	2e00      	cmp	r6, #0
1000181c:	d1d2      	bne.n	100017c4 <alarm_pool_add_alarm_at.constprop.0+0xb0>
1000181e:	0208      	lsls	r0, r1, #8
10001820:	4320      	orrs	r0, r4
10001822:	e7cf      	b.n	100017c4 <alarm_pool_add_alarm_at.constprop.0+0xb0>
10001824:	200003d4 	.word	0x200003d4
10001828:	0fffffff 	.word	0x0fffffff
1000182c:	1000141d 	.word	0x1000141d

10001830 <alarm_pool_init_default>:
10001830:	b510      	push	{r4, lr}
10001832:	4c12      	ldr	r4, [pc, #72]	; (1000187c <alarm_pool_init_default+0x4c>)
10001834:	6863      	ldr	r3, [r4, #4]
10001836:	2b00      	cmp	r3, #0
10001838:	d004      	beq.n	10001844 <alarm_pool_init_default+0x14>
1000183a:	210a      	movs	r1, #10
1000183c:	4810      	ldr	r0, [pc, #64]	; (10001880 <alarm_pool_init_default+0x50>)
1000183e:	f7ff fdcb 	bl	100013d8 <lock_init>
10001842:	bd10      	pop	{r4, pc}
10001844:	0023      	movs	r3, r4
10001846:	4a0f      	ldr	r2, [pc, #60]	; (10001884 <alarm_pool_init_default+0x54>)
10001848:	2110      	movs	r1, #16
1000184a:	6820      	ldr	r0, [r4, #0]
1000184c:	f000 fad4 	bl	10001df8 <ph_post_alloc_init>
10001850:	2003      	movs	r0, #3
10001852:	f000 f9b3 	bl	10001bbc <hardware_alarm_claim>
10001856:	2003      	movs	r0, #3
10001858:	f000 fa7c 	bl	10001d54 <hardware_alarm_cancel>
1000185c:	2003      	movs	r0, #3
1000185e:	490a      	ldr	r1, [pc, #40]	; (10001888 <alarm_pool_init_default+0x58>)
10001860:	f000 f9c2 	bl	10001be8 <hardware_alarm_set_callback>
10001864:	f7ff faea 	bl	10000e3c <next_striped_spin_lock_num>
10001868:	4b08      	ldr	r3, [pc, #32]	; (1000188c <alarm_pool_init_default+0x5c>)
1000186a:	469c      	mov	ip, r3
1000186c:	2303      	movs	r3, #3
1000186e:	4460      	add	r0, ip
10001870:	7523      	strb	r3, [r4, #20]
10001872:	4b07      	ldr	r3, [pc, #28]	; (10001890 <alarm_pool_init_default+0x60>)
10001874:	0080      	lsls	r0, r0, #2
10001876:	6060      	str	r0, [r4, #4]
10001878:	60dc      	str	r4, [r3, #12]
1000187a:	e7de      	b.n	1000183a <alarm_pool_init_default+0xa>
1000187c:	200003d4 	.word	0x200003d4
10001880:	20001c18 	.word	0x20001c18
10001884:	100013e9 	.word	0x100013e9
10001888:	1000154d 	.word	0x1000154d
1000188c:	34000040 	.word	0x34000040
10001890:	20001bf4 	.word	0x20001bf4

10001894 <alarm_pool_get_default>:
10001894:	4800      	ldr	r0, [pc, #0]	; (10001898 <alarm_pool_get_default+0x4>)
10001896:	4770      	bx	lr
10001898:	200003d4 	.word	0x200003d4

1000189c <alarm_pool_add_alarm_at>:
1000189c:	b5f0      	push	{r4, r5, r6, r7, lr}
1000189e:	4657      	mov	r7, sl
100018a0:	464e      	mov	r6, r9
100018a2:	4645      	mov	r5, r8
100018a4:	46de      	mov	lr, fp
100018a6:	b5e0      	push	{r5, r6, r7, lr}
100018a8:	b085      	sub	sp, #20
100018aa:	9301      	str	r3, [sp, #4]
100018ac:	ab10      	add	r3, sp, #64	; 0x40
100018ae:	781b      	ldrb	r3, [r3, #0]
100018b0:	0006      	movs	r6, r0
100018b2:	9303      	str	r3, [sp, #12]
100018b4:	2300      	movs	r3, #0
100018b6:	469a      	mov	sl, r3
100018b8:	4698      	mov	r8, r3
100018ba:	9200      	str	r2, [sp, #0]
100018bc:	6872      	ldr	r2, [r6, #4]
100018be:	f3ef 8910 	mrs	r9, PRIMASK
100018c2:	b672      	cpsid	i
100018c4:	6813      	ldr	r3, [r2, #0]
100018c6:	2b00      	cmp	r3, #0
100018c8:	d0fc      	beq.n	100018c4 <alarm_pool_add_alarm_at+0x28>
100018ca:	f3bf 8f5f 	dmb	sy
100018ce:	6835      	ldr	r5, [r6, #0]
100018d0:	7bac      	ldrb	r4, [r5, #14]
100018d2:	2c00      	cmp	r4, #0
100018d4:	d049      	beq.n	1000196a <alarm_pool_add_alarm_at+0xce>
100018d6:	0067      	lsls	r7, r4, #1
100018d8:	682b      	ldr	r3, [r5, #0]
100018da:	193f      	adds	r7, r7, r4
100018dc:	3f03      	subs	r7, #3
100018de:	19db      	adds	r3, r3, r7
100018e0:	785a      	ldrb	r2, [r3, #1]
100018e2:	73aa      	strb	r2, [r5, #14]
100018e4:	2a00      	cmp	r2, #0
100018e6:	d100      	bne.n	100018ea <alarm_pool_add_alarm_at+0x4e>
100018e8:	73ea      	strb	r2, [r5, #15]
100018ea:	68b1      	ldr	r1, [r6, #8]
100018ec:	4a4f      	ldr	r2, [pc, #316]	; (10001a2c <alarm_pool_add_alarm_at+0x190>)
100018ee:	468c      	mov	ip, r1
100018f0:	9800      	ldr	r0, [sp, #0]
100018f2:	9901      	ldr	r1, [sp, #4]
100018f4:	18a2      	adds	r2, r4, r2
100018f6:	0112      	lsls	r2, r2, #4
100018f8:	4462      	add	r2, ip
100018fa:	6010      	str	r0, [r2, #0]
100018fc:	6051      	str	r1, [r2, #4]
100018fe:	990e      	ldr	r1, [sp, #56]	; 0x38
10001900:	6091      	str	r1, [r2, #8]
10001902:	990f      	ldr	r1, [sp, #60]	; 0x3c
10001904:	60d1      	str	r1, [r2, #12]
10001906:	4642      	mov	r2, r8
10001908:	709a      	strb	r2, [r3, #2]
1000190a:	705a      	strb	r2, [r3, #1]
1000190c:	701a      	strb	r2, [r3, #0]
1000190e:	7b6b      	ldrb	r3, [r5, #13]
10001910:	469b      	mov	fp, r3
10001912:	2b00      	cmp	r3, #0
10001914:	d045      	beq.n	100019a2 <alarm_pool_add_alarm_at+0x106>
10001916:	0022      	movs	r2, r4
10001918:	0019      	movs	r1, r3
1000191a:	68a8      	ldr	r0, [r5, #8]
1000191c:	686b      	ldr	r3, [r5, #4]
1000191e:	4798      	blx	r3
10001920:	682a      	ldr	r2, [r5, #0]
10001922:	2800      	cmp	r0, #0
10001924:	d030      	beq.n	10001988 <alarm_pool_add_alarm_at+0xec>
10001926:	465b      	mov	r3, fp
10001928:	4658      	mov	r0, fp
1000192a:	005b      	lsls	r3, r3, #1
1000192c:	445b      	add	r3, fp
1000192e:	19d7      	adds	r7, r2, r7
10001930:	3b03      	subs	r3, #3
10001932:	70b8      	strb	r0, [r7, #2]
10001934:	18d1      	adds	r1, r2, r3
10001936:	5cd3      	ldrb	r3, [r2, r3]
10001938:	2b00      	cmp	r3, #0
1000193a:	d000      	beq.n	1000193e <alarm_pool_add_alarm_at+0xa2>
1000193c:	707b      	strb	r3, [r7, #1]
1000193e:	465b      	mov	r3, fp
10001940:	700c      	strb	r4, [r1, #0]
10001942:	736b      	strb	r3, [r5, #13]
10001944:	455c      	cmp	r4, fp
10001946:	d02d      	beq.n	100019a4 <alarm_pool_add_alarm_at+0x108>
10001948:	68f3      	ldr	r3, [r6, #12]
1000194a:	191b      	adds	r3, r3, r4
1000194c:	3b01      	subs	r3, #1
1000194e:	7818      	ldrb	r0, [r3, #0]
10001950:	6873      	ldr	r3, [r6, #4]
10001952:	f3bf 8f5f 	dmb	sy
10001956:	4642      	mov	r2, r8
10001958:	601a      	str	r2, [r3, #0]
1000195a:	f389 8810 	msr	PRIMASK, r9
1000195e:	4653      	mov	r3, sl
10001960:	2b00      	cmp	r3, #0
10001962:	d12c      	bne.n	100019be <alarm_pool_add_alarm_at+0x122>
10001964:	0200      	lsls	r0, r0, #8
10001966:	4320      	orrs	r0, r4
10001968:	e007      	b.n	1000197a <alarm_pool_add_alarm_at+0xde>
1000196a:	6873      	ldr	r3, [r6, #4]
1000196c:	f3bf 8f5f 	dmb	sy
10001970:	601c      	str	r4, [r3, #0]
10001972:	f389 8810 	msr	PRIMASK, r9
10001976:	2001      	movs	r0, #1
10001978:	4240      	negs	r0, r0
1000197a:	b005      	add	sp, #20
1000197c:	bcf0      	pop	{r4, r5, r6, r7}
1000197e:	46bb      	mov	fp, r7
10001980:	46b2      	mov	sl, r6
10001982:	46a9      	mov	r9, r5
10001984:	46a0      	mov	r8, r4
10001986:	bdf0      	pop	{r4, r5, r6, r7, pc}
10001988:	465b      	mov	r3, fp
1000198a:	005b      	lsls	r3, r3, #1
1000198c:	445b      	add	r3, fp
1000198e:	3b03      	subs	r3, #3
10001990:	18d3      	adds	r3, r2, r3
10001992:	709c      	strb	r4, [r3, #2]
10001994:	19d1      	adds	r1, r2, r7
10001996:	5dd2      	ldrb	r2, [r2, r7]
10001998:	2a00      	cmp	r2, #0
1000199a:	d000      	beq.n	1000199e <alarm_pool_add_alarm_at+0x102>
1000199c:	705a      	strb	r2, [r3, #1]
1000199e:	465b      	mov	r3, fp
100019a0:	700b      	strb	r3, [r1, #0]
100019a2:	736c      	strb	r4, [r5, #13]
100019a4:	7d30      	ldrb	r0, [r6, #20]
100019a6:	9a00      	ldr	r2, [sp, #0]
100019a8:	9b01      	ldr	r3, [sp, #4]
100019aa:	f000 f963 	bl	10001c74 <hardware_alarm_set_target>
100019ae:	4682      	mov	sl, r0
100019b0:	2800      	cmp	r0, #0
100019b2:	d0c9      	beq.n	10001948 <alarm_pool_add_alarm_at+0xac>
100019b4:	0021      	movs	r1, r4
100019b6:	6830      	ldr	r0, [r6, #0]
100019b8:	f000 fb7e 	bl	100020b8 <ph_remove_and_free_node>
100019bc:	e7c4      	b.n	10001948 <alarm_pool_add_alarm_at+0xac>
100019be:	9b03      	ldr	r3, [sp, #12]
100019c0:	2b00      	cmp	r3, #0
100019c2:	d030      	beq.n	10001a26 <alarm_pool_add_alarm_at+0x18a>
100019c4:	9b0e      	ldr	r3, [sp, #56]	; 0x38
100019c6:	2000      	movs	r0, #0
100019c8:	990f      	ldr	r1, [sp, #60]	; 0x3c
100019ca:	4798      	blx	r3
100019cc:	0003      	movs	r3, r0
100019ce:	0004      	movs	r4, r0
100019d0:	000d      	movs	r5, r1
100019d2:	430b      	orrs	r3, r1
100019d4:	d027      	beq.n	10001a26 <alarm_pool_add_alarm_at+0x18a>
100019d6:	2900      	cmp	r1, #0
100019d8:	da0d      	bge.n	100019f6 <alarm_pool_add_alarm_at+0x15a>
100019da:	9800      	ldr	r0, [sp, #0]
100019dc:	9901      	ldr	r1, [sp, #4]
100019de:	0002      	movs	r2, r0
100019e0:	000b      	movs	r3, r1
100019e2:	1b12      	subs	r2, r2, r4
100019e4:	41ab      	sbcs	r3, r5
100019e6:	4299      	cmp	r1, r3
100019e8:	d813      	bhi.n	10001a12 <alarm_pool_add_alarm_at+0x176>
100019ea:	d018      	beq.n	10001a1e <alarm_pool_add_alarm_at+0x182>
100019ec:	9200      	str	r2, [sp, #0]
100019ee:	9301      	str	r3, [sp, #4]
100019f0:	9b03      	ldr	r3, [sp, #12]
100019f2:	469a      	mov	sl, r3
100019f4:	e762      	b.n	100018bc <alarm_pool_add_alarm_at+0x20>
100019f6:	f000 f8ed 	bl	10001bd4 <time_us_64>
100019fa:	0002      	movs	r2, r0
100019fc:	000b      	movs	r3, r1
100019fe:	18a4      	adds	r4, r4, r2
10001a00:	415d      	adcs	r5, r3
10001a02:	9400      	str	r4, [sp, #0]
10001a04:	9501      	str	r5, [sp, #4]
10001a06:	42a9      	cmp	r1, r5
10001a08:	d803      	bhi.n	10001a12 <alarm_pool_add_alarm_at+0x176>
10001a0a:	d1f1      	bne.n	100019f0 <alarm_pool_add_alarm_at+0x154>
10001a0c:	9900      	ldr	r1, [sp, #0]
10001a0e:	428a      	cmp	r2, r1
10001a10:	d9ee      	bls.n	100019f0 <alarm_pool_add_alarm_at+0x154>
10001a12:	2301      	movs	r3, #1
10001a14:	425b      	negs	r3, r3
10001a16:	17dc      	asrs	r4, r3, #31
10001a18:	9300      	str	r3, [sp, #0]
10001a1a:	9401      	str	r4, [sp, #4]
10001a1c:	e7e8      	b.n	100019f0 <alarm_pool_add_alarm_at+0x154>
10001a1e:	9900      	ldr	r1, [sp, #0]
10001a20:	4291      	cmp	r1, r2
10001a22:	d9e3      	bls.n	100019ec <alarm_pool_add_alarm_at+0x150>
10001a24:	e7f5      	b.n	10001a12 <alarm_pool_add_alarm_at+0x176>
10001a26:	2000      	movs	r0, #0
10001a28:	e7a7      	b.n	1000197a <alarm_pool_add_alarm_at+0xde>
10001a2a:	46c0      	nop			; (mov r8, r8)
10001a2c:	0fffffff 	.word	0x0fffffff

10001a30 <best_effort_wfe_or_timeout>:
10001a30:	b5f8      	push	{r3, r4, r5, r6, r7, lr}
10001a32:	46ce      	mov	lr, r9
10001a34:	4647      	mov	r7, r8
10001a36:	b580      	push	{r7, lr}
10001a38:	0006      	movs	r6, r0
10001a3a:	000c      	movs	r4, r1
10001a3c:	f7ff fe6a 	bl	10001714 <alarm_pool_add_alarm_at.constprop.0>
10001a40:	2800      	cmp	r0, #0
10001a42:	dc0c      	bgt.n	10001a5e <best_effort_wfe_or_timeout+0x2e>
10001a44:	4b2d      	ldr	r3, [pc, #180]	; (10001afc <best_effort_wfe_or_timeout+0xcc>)
10001a46:	2000      	movs	r0, #0
10001a48:	6a59      	ldr	r1, [r3, #36]	; 0x24
10001a4a:	428c      	cmp	r4, r1
10001a4c:	d803      	bhi.n	10001a56 <best_effort_wfe_or_timeout+0x26>
10001a4e:	6a9b      	ldr	r3, [r3, #40]	; 0x28
10001a50:	3001      	adds	r0, #1
10001a52:	42b3      	cmp	r3, r6
10001a54:	d345      	bcc.n	10001ae2 <best_effort_wfe_or_timeout+0xb2>
10001a56:	bcc0      	pop	{r6, r7}
10001a58:	46b9      	mov	r9, r7
10001a5a:	46b0      	mov	r8, r6
10001a5c:	bdf8      	pop	{r3, r4, r5, r6, r7, pc}
10001a5e:	bf20      	wfe
10001a60:	4d27      	ldr	r5, [pc, #156]	; (10001b00 <best_effort_wfe_or_timeout+0xd0>)
10001a62:	686a      	ldr	r2, [r5, #4]
10001a64:	f3ef 8710 	mrs	r7, PRIMASK
10001a68:	b672      	cpsid	i
10001a6a:	6813      	ldr	r3, [r2, #0]
10001a6c:	2b00      	cmp	r3, #0
10001a6e:	d0fc      	beq.n	10001a6a <best_effort_wfe_or_timeout+0x3a>
10001a70:	f3bf 8f5f 	dmb	sy
10001a74:	682b      	ldr	r3, [r5, #0]
10001a76:	b2c1      	uxtb	r1, r0
10001a78:	469c      	mov	ip, r3
10001a7a:	7b5b      	ldrb	r3, [r3, #13]
10001a7c:	428b      	cmp	r3, r1
10001a7e:	d035      	beq.n	10001aec <best_effort_wfe_or_timeout+0xbc>
10001a80:	23ff      	movs	r3, #255	; 0xff
10001a82:	4003      	ands	r3, r0
10001a84:	005a      	lsls	r2, r3, #1
10001a86:	4691      	mov	r9, r2
10001a88:	4662      	mov	r2, ip
10001a8a:	6812      	ldr	r2, [r2, #0]
10001a8c:	4499      	add	r9, r3
10001a8e:	4690      	mov	r8, r2
10001a90:	464a      	mov	r2, r9
10001a92:	4442      	add	r2, r8
10001a94:	3a03      	subs	r2, #3
10001a96:	7892      	ldrb	r2, [r2, #2]
10001a98:	2a00      	cmp	r2, #0
10001a9a:	d01d      	beq.n	10001ad8 <best_effort_wfe_or_timeout+0xa8>
10001a9c:	68ea      	ldr	r2, [r5, #12]
10001a9e:	0a00      	lsrs	r0, r0, #8
10001aa0:	4690      	mov	r8, r2
10001aa2:	4443      	add	r3, r8
10001aa4:	3b01      	subs	r3, #1
10001aa6:	781b      	ldrb	r3, [r3, #0]
10001aa8:	b2c0      	uxtb	r0, r0
10001aaa:	4283      	cmp	r3, r0
10001aac:	d021      	beq.n	10001af2 <best_effort_wfe_or_timeout+0xc2>
10001aae:	686b      	ldr	r3, [r5, #4]
10001ab0:	f3bf 8f5f 	dmb	sy
10001ab4:	2200      	movs	r2, #0
10001ab6:	601a      	str	r2, [r3, #0]
10001ab8:	f387 8810 	msr	PRIMASK, r7
10001abc:	4a0f      	ldr	r2, [pc, #60]	; (10001afc <best_effort_wfe_or_timeout+0xcc>)
10001abe:	2000      	movs	r0, #0
10001ac0:	6a53      	ldr	r3, [r2, #36]	; 0x24
10001ac2:	429c      	cmp	r4, r3
10001ac4:	d8c7      	bhi.n	10001a56 <best_effort_wfe_or_timeout+0x26>
10001ac6:	6a92      	ldr	r2, [r2, #40]	; 0x28
10001ac8:	3001      	adds	r0, #1
10001aca:	42b2      	cmp	r2, r6
10001acc:	d2c3      	bcs.n	10001a56 <best_effort_wfe_or_timeout+0x26>
10001ace:	1ae0      	subs	r0, r4, r3
10001ad0:	1e42      	subs	r2, r0, #1
10001ad2:	4190      	sbcs	r0, r2
10001ad4:	b2c0      	uxtb	r0, r0
10001ad6:	e7be      	b.n	10001a56 <best_effort_wfe_or_timeout+0x26>
10001ad8:	692b      	ldr	r3, [r5, #16]
10001ada:	4298      	cmp	r0, r3
10001adc:	d1e7      	bne.n	10001aae <best_effort_wfe_or_timeout+0x7e>
10001ade:	612a      	str	r2, [r5, #16]
10001ae0:	e7e5      	b.n	10001aae <best_effort_wfe_or_timeout+0x7e>
10001ae2:	1a60      	subs	r0, r4, r1
10001ae4:	1e43      	subs	r3, r0, #1
10001ae6:	4198      	sbcs	r0, r3
10001ae8:	b2c0      	uxtb	r0, r0
10001aea:	e7b4      	b.n	10001a56 <best_effort_wfe_or_timeout+0x26>
10001aec:	23ff      	movs	r3, #255	; 0xff
10001aee:	4003      	ands	r3, r0
10001af0:	e7d4      	b.n	10001a9c <best_effort_wfe_or_timeout+0x6c>
10001af2:	4660      	mov	r0, ip
10001af4:	f000 fae0 	bl	100020b8 <ph_remove_and_free_node>
10001af8:	e7d9      	b.n	10001aae <best_effort_wfe_or_timeout+0x7e>
10001afa:	46c0      	nop			; (mov r8, r8)
10001afc:	40054000 	.word	0x40054000
10001b00:	200003d4 	.word	0x200003d4

10001b04 <hardware_alarm_irq_handler>:
10001b04:	b5f0      	push	{r4, r5, r6, r7, lr}
10001b06:	46d6      	mov	lr, sl
10001b08:	464f      	mov	r7, r9
10001b0a:	4646      	mov	r6, r8
10001b0c:	b5c0      	push	{r6, r7, lr}
10001b0e:	f3ef 8305 	mrs	r3, IPSR
10001b12:	223f      	movs	r2, #63	; 0x3f
10001b14:	4013      	ands	r3, r2
10001b16:	0018      	movs	r0, r3
10001b18:	3810      	subs	r0, #16
10001b1a:	f3ef 8c10 	mrs	ip, PRIMASK
10001b1e:	b672      	cpsid	i
10001b20:	4d20      	ldr	r5, [pc, #128]	; (10001ba4 <hardware_alarm_irq_handler+0xa0>)
10001b22:	682a      	ldr	r2, [r5, #0]
10001b24:	2a00      	cmp	r2, #0
10001b26:	d0fc      	beq.n	10001b22 <hardware_alarm_irq_handler+0x1e>
10001b28:	f3bf 8f5f 	dmb	sy
10001b2c:	2201      	movs	r2, #1
10001b2e:	0011      	movs	r1, r2
10001b30:	4081      	lsls	r1, r0
10001b32:	4c1d      	ldr	r4, [pc, #116]	; (10001ba8 <hardware_alarm_irq_handler+0xa4>)
10001b34:	4688      	mov	r8, r1
10001b36:	6361      	str	r1, [r4, #52]	; 0x34
10001b38:	491c      	ldr	r1, [pc, #112]	; (10001bac <hardware_alarm_irq_handler+0xa8>)
10001b3a:	0017      	movs	r7, r2
10001b3c:	780e      	ldrb	r6, [r1, #0]
10001b3e:	468a      	mov	sl, r1
10001b40:	0031      	movs	r1, r6
10001b42:	40c1      	lsrs	r1, r0
10001b44:	400f      	ands	r7, r1
10001b46:	420a      	tst	r2, r1
10001b48:	d109      	bne.n	10001b5e <hardware_alarm_irq_handler+0x5a>
10001b4a:	f3bf 8f5f 	dmb	sy
10001b4e:	602f      	str	r7, [r5, #0]
10001b50:	f38c 8810 	msr	PRIMASK, ip
10001b54:	bce0      	pop	{r5, r6, r7}
10001b56:	46ba      	mov	sl, r7
10001b58:	46b1      	mov	r9, r6
10001b5a:	46a8      	mov	r8, r5
10001b5c:	bdf0      	pop	{r4, r5, r6, r7, pc}
10001b5e:	4914      	ldr	r1, [pc, #80]	; (10001bb0 <hardware_alarm_irq_handler+0xac>)
10001b60:	0082      	lsls	r2, r0, #2
10001b62:	6a64      	ldr	r4, [r4, #36]	; 0x24
10001b64:	5851      	ldr	r1, [r2, r1]
10001b66:	428c      	cmp	r4, r1
10001b68:	d30f      	bcc.n	10001b8a <hardware_alarm_irq_handler+0x86>
10001b6a:	4b12      	ldr	r3, [pc, #72]	; (10001bb4 <hardware_alarm_irq_handler+0xb0>)
10001b6c:	58d2      	ldr	r2, [r2, r3]
10001b6e:	4643      	mov	r3, r8
10001b70:	439e      	bics	r6, r3
10001b72:	4653      	mov	r3, sl
10001b74:	701e      	strb	r6, [r3, #0]
10001b76:	f3bf 8f5f 	dmb	sy
10001b7a:	2300      	movs	r3, #0
10001b7c:	602b      	str	r3, [r5, #0]
10001b7e:	f38c 8810 	msr	PRIMASK, ip
10001b82:	2a00      	cmp	r2, #0
10001b84:	d0e6      	beq.n	10001b54 <hardware_alarm_irq_handler+0x50>
10001b86:	4790      	blx	r2
10001b88:	e7e4      	b.n	10001b54 <hardware_alarm_irq_handler+0x50>
10001b8a:	4a0b      	ldr	r2, [pc, #44]	; (10001bb8 <hardware_alarm_irq_handler+0xb4>)
10001b8c:	009b      	lsls	r3, r3, #2
10001b8e:	4690      	mov	r8, r2
10001b90:	4443      	add	r3, r8
10001b92:	681a      	ldr	r2, [r3, #0]
10001b94:	601a      	str	r2, [r3, #0]
10001b96:	f3bf 8f5f 	dmb	sy
10001b9a:	2300      	movs	r3, #0
10001b9c:	602b      	str	r3, [r5, #0]
10001b9e:	f38c 8810 	msr	PRIMASK, ip
10001ba2:	e7d7      	b.n	10001b54 <hardware_alarm_irq_handler+0x50>
10001ba4:	d0000128 	.word	0xd0000128
10001ba8:	40054000 	.word	0x40054000
10001bac:	20001c62 	.word	0x20001c62
10001bb0:	20001c24 	.word	0x20001c24
10001bb4:	20001620 	.word	0x20001620
10001bb8:	40053fd0 	.word	0x40053fd0

10001bbc <hardware_alarm_claim>:
10001bbc:	b510      	push	{r4, lr}
10001bbe:	0001      	movs	r1, r0
10001bc0:	4a02      	ldr	r2, [pc, #8]	; (10001bcc <hardware_alarm_claim+0x10>)
10001bc2:	4803      	ldr	r0, [pc, #12]	; (10001bd0 <hardware_alarm_claim+0x14>)
10001bc4:	f7ff f8b4 	bl	10000d30 <hw_claim_or_assert>
10001bc8:	bd10      	pop	{r4, pc}
10001bca:	46c0      	nop			; (mov r8, r8)
10001bcc:	1000b634 	.word	0x1000b634
10001bd0:	20001c5b 	.word	0x20001c5b

10001bd4 <time_us_64>:
10001bd4:	4b03      	ldr	r3, [pc, #12]	; (10001be4 <time_us_64+0x10>)
10001bd6:	6a59      	ldr	r1, [r3, #36]	; 0x24
10001bd8:	000a      	movs	r2, r1
10001bda:	6a98      	ldr	r0, [r3, #40]	; 0x28
10001bdc:	6a59      	ldr	r1, [r3, #36]	; 0x24
10001bde:	428a      	cmp	r2, r1
10001be0:	d1fa      	bne.n	10001bd8 <time_us_64+0x4>
10001be2:	4770      	bx	lr
10001be4:	40054000 	.word	0x40054000

10001be8 <hardware_alarm_set_callback>:
10001be8:	b570      	push	{r4, r5, r6, lr}
10001bea:	0004      	movs	r4, r0
10001bec:	000d      	movs	r5, r1
10001bee:	f3ef 8610 	mrs	r6, PRIMASK
10001bf2:	b672      	cpsid	i
10001bf4:	4a1a      	ldr	r2, [pc, #104]	; (10001c60 <hardware_alarm_set_callback+0x78>)
10001bf6:	6813      	ldr	r3, [r2, #0]
10001bf8:	2b00      	cmp	r3, #0
10001bfa:	d0fc      	beq.n	10001bf6 <hardware_alarm_set_callback+0xe>
10001bfc:	f3bf 8f5f 	dmb	sy
10001c00:	2d00      	cmp	r5, #0
10001c02:	d01b      	beq.n	10001c3c <hardware_alarm_set_callback+0x54>
10001c04:	0020      	movs	r0, r4
10001c06:	f7ff f965 	bl	10000ed4 <irq_get_vtable_handler>
10001c0a:	4916      	ldr	r1, [pc, #88]	; (10001c64 <hardware_alarm_set_callback+0x7c>)
10001c0c:	4281      	cmp	r1, r0
10001c0e:	d00a      	beq.n	10001c26 <hardware_alarm_set_callback+0x3e>
10001c10:	0020      	movs	r0, r4
10001c12:	f7ff f967 	bl	10000ee4 <irq_set_exclusive_handler>
10001c16:	2101      	movs	r1, #1
10001c18:	0020      	movs	r0, r4
10001c1a:	f7ff f92b 	bl	10000e74 <irq_set_enabled>
10001c1e:	2301      	movs	r3, #1
10001c20:	40a3      	lsls	r3, r4
10001c22:	4a11      	ldr	r2, [pc, #68]	; (10001c68 <hardware_alarm_set_callback+0x80>)
10001c24:	6013      	str	r3, [r2, #0]
10001c26:	4b11      	ldr	r3, [pc, #68]	; (10001c6c <hardware_alarm_set_callback+0x84>)
10001c28:	00a4      	lsls	r4, r4, #2
10001c2a:	50e5      	str	r5, [r4, r3]
10001c2c:	f3bf 8f5f 	dmb	sy
10001c30:	2200      	movs	r2, #0
10001c32:	4b0b      	ldr	r3, [pc, #44]	; (10001c60 <hardware_alarm_set_callback+0x78>)
10001c34:	601a      	str	r2, [r3, #0]
10001c36:	f386 8810 	msr	PRIMASK, r6
10001c3a:	bd70      	pop	{r4, r5, r6, pc}
10001c3c:	4b0b      	ldr	r3, [pc, #44]	; (10001c6c <hardware_alarm_set_callback+0x84>)
10001c3e:	00a2      	lsls	r2, r4, #2
10001c40:	50d5      	str	r5, [r2, r3]
10001c42:	2201      	movs	r2, #1
10001c44:	40a2      	lsls	r2, r4
10001c46:	490a      	ldr	r1, [pc, #40]	; (10001c70 <hardware_alarm_set_callback+0x88>)
10001c48:	0020      	movs	r0, r4
10001c4a:	780b      	ldrb	r3, [r1, #0]
10001c4c:	4393      	bics	r3, r2
10001c4e:	700b      	strb	r3, [r1, #0]
10001c50:	4904      	ldr	r1, [pc, #16]	; (10001c64 <hardware_alarm_set_callback+0x7c>)
10001c52:	f7ff fa63 	bl	1000111c <irq_remove_handler>
10001c56:	2100      	movs	r1, #0
10001c58:	0020      	movs	r0, r4
10001c5a:	f7ff f90b 	bl	10000e74 <irq_set_enabled>
10001c5e:	e7e5      	b.n	10001c2c <hardware_alarm_set_callback+0x44>
10001c60:	d0000128 	.word	0xd0000128
10001c64:	10001b05 	.word	0x10001b05
10001c68:	40056038 	.word	0x40056038
10001c6c:	20001620 	.word	0x20001620
10001c70:	20001c62 	.word	0x20001c62

10001c74 <hardware_alarm_set_target>:
10001c74:	b5f0      	push	{r4, r5, r6, r7, lr}
10001c76:	464f      	mov	r7, r9
10001c78:	46d6      	mov	lr, sl
10001c7a:	4646      	mov	r6, r8
10001c7c:	b5c0      	push	{r6, r7, lr}
10001c7e:	0007      	movs	r7, r0
10001c80:	4c2f      	ldr	r4, [pc, #188]	; (10001d40 <hardware_alarm_set_target+0xcc>)
10001c82:	6a61      	ldr	r1, [r4, #36]	; 0x24
10001c84:	000d      	movs	r5, r1
10001c86:	6aa6      	ldr	r6, [r4, #40]	; 0x28
10001c88:	6a61      	ldr	r1, [r4, #36]	; 0x24
10001c8a:	42a9      	cmp	r1, r5
10001c8c:	d1fa      	bne.n	10001c84 <hardware_alarm_set_target+0x10>
10001c8e:	428b      	cmp	r3, r1
10001c90:	d808      	bhi.n	10001ca4 <hardware_alarm_set_target+0x30>
10001c92:	d005      	beq.n	10001ca0 <hardware_alarm_set_target+0x2c>
10001c94:	2001      	movs	r0, #1
10001c96:	bce0      	pop	{r5, r6, r7}
10001c98:	46ba      	mov	sl, r7
10001c9a:	46b1      	mov	r9, r6
10001c9c:	46a8      	mov	r8, r5
10001c9e:	bdf0      	pop	{r4, r5, r6, r7, pc}
10001ca0:	42b2      	cmp	r2, r6
10001ca2:	d9f7      	bls.n	10001c94 <hardware_alarm_set_target+0x20>
10001ca4:	f3ef 8a10 	mrs	sl, PRIMASK
10001ca8:	b672      	cpsid	i
10001caa:	4826      	ldr	r0, [pc, #152]	; (10001d44 <hardware_alarm_set_target+0xd0>)
10001cac:	6801      	ldr	r1, [r0, #0]
10001cae:	2900      	cmp	r1, #0
10001cb0:	d0fc      	beq.n	10001cac <hardware_alarm_set_target+0x38>
10001cb2:	f3bf 8f5f 	dmb	sy
10001cb6:	2501      	movs	r5, #1
10001cb8:	40bd      	lsls	r5, r7
10001cba:	4923      	ldr	r1, [pc, #140]	; (10001d48 <hardware_alarm_set_target+0xd4>)
10001cbc:	4c20      	ldr	r4, [pc, #128]	; (10001d40 <hardware_alarm_set_target+0xcc>)
10001cbe:	4688      	mov	r8, r1
10001cc0:	7809      	ldrb	r1, [r1, #0]
10001cc2:	4689      	mov	r9, r1
10001cc4:	4329      	orrs	r1, r5
10001cc6:	b2c9      	uxtb	r1, r1
10001cc8:	468c      	mov	ip, r1
10001cca:	4641      	mov	r1, r8
10001ccc:	4660      	mov	r0, ip
10001cce:	7008      	strb	r0, [r1, #0]
10001cd0:	1d39      	adds	r1, r7, #4
10001cd2:	481e      	ldr	r0, [pc, #120]	; (10001d4c <hardware_alarm_set_target+0xd8>)
10001cd4:	0089      	lsls	r1, r1, #2
10001cd6:	6365      	str	r5, [r4, #52]	; 0x34
10001cd8:	510a      	str	r2, [r1, r4]
10001cda:	00b9      	lsls	r1, r7, #2
10001cdc:	500b      	str	r3, [r1, r0]
10001cde:	6a21      	ldr	r1, [r4, #32]
10001ce0:	2000      	movs	r0, #0
10001ce2:	4229      	tst	r1, r5
10001ce4:	d019      	beq.n	10001d1a <hardware_alarm_set_target+0xa6>
10001ce6:	6a61      	ldr	r1, [r4, #36]	; 0x24
10001ce8:	0008      	movs	r0, r1
10001cea:	6aa6      	ldr	r6, [r4, #40]	; 0x28
10001cec:	6a61      	ldr	r1, [r4, #36]	; 0x24
10001cee:	4281      	cmp	r1, r0
10001cf0:	d1fa      	bne.n	10001ce8 <hardware_alarm_set_target+0x74>
10001cf2:	428b      	cmp	r3, r1
10001cf4:	d819      	bhi.n	10001d2a <hardware_alarm_set_target+0xb6>
10001cf6:	d101      	bne.n	10001cfc <hardware_alarm_set_target+0x88>
10001cf8:	42b2      	cmp	r2, r6
10001cfa:	d816      	bhi.n	10001d2a <hardware_alarm_set_target+0xb6>
10001cfc:	45cc      	cmp	ip, r9
10001cfe:	d01d      	beq.n	10001d3c <hardware_alarm_set_target+0xc8>
10001d00:	4b0f      	ldr	r3, [pc, #60]	; (10001d40 <hardware_alarm_set_target+0xcc>)
10001d02:	201f      	movs	r0, #31
10001d04:	621d      	str	r5, [r3, #32]
10001d06:	635d      	str	r5, [r3, #52]	; 0x34
10001d08:	2301      	movs	r3, #1
10001d0a:	4007      	ands	r7, r0
10001d0c:	40bb      	lsls	r3, r7
10001d0e:	4a10      	ldr	r2, [pc, #64]	; (10001d50 <hardware_alarm_set_target+0xdc>)
10001d10:	381e      	subs	r0, #30
10001d12:	6013      	str	r3, [r2, #0]
10001d14:	4643      	mov	r3, r8
10001d16:	464a      	mov	r2, r9
10001d18:	701a      	strb	r2, [r3, #0]
10001d1a:	f3bf 8f5f 	dmb	sy
10001d1e:	2200      	movs	r2, #0
10001d20:	4b08      	ldr	r3, [pc, #32]	; (10001d44 <hardware_alarm_set_target+0xd0>)
10001d22:	601a      	str	r2, [r3, #0]
10001d24:	f38a 8810 	msr	PRIMASK, sl
10001d28:	e7b5      	b.n	10001c96 <hardware_alarm_set_target+0x22>
10001d2a:	2000      	movs	r0, #0
10001d2c:	f3bf 8f5f 	dmb	sy
10001d30:	2200      	movs	r2, #0
10001d32:	4b04      	ldr	r3, [pc, #16]	; (10001d44 <hardware_alarm_set_target+0xd0>)
10001d34:	601a      	str	r2, [r3, #0]
10001d36:	f38a 8810 	msr	PRIMASK, sl
10001d3a:	e7ac      	b.n	10001c96 <hardware_alarm_set_target+0x22>
10001d3c:	2001      	movs	r0, #1
10001d3e:	e7ec      	b.n	10001d1a <hardware_alarm_set_target+0xa6>
10001d40:	40054000 	.word	0x40054000
10001d44:	d0000128 	.word	0xd0000128
10001d48:	20001c62 	.word	0x20001c62
10001d4c:	20001c24 	.word	0x20001c24
10001d50:	e000e280 	.word	0xe000e280

10001d54 <hardware_alarm_cancel>:
10001d54:	f3ef 8c10 	mrs	ip, PRIMASK
10001d58:	b672      	cpsid	i
10001d5a:	490a      	ldr	r1, [pc, #40]	; (10001d84 <hardware_alarm_cancel+0x30>)
10001d5c:	680b      	ldr	r3, [r1, #0]
10001d5e:	2b00      	cmp	r3, #0
10001d60:	d0fc      	beq.n	10001d5c <hardware_alarm_cancel+0x8>
10001d62:	f3bf 8f5f 	dmb	sy
10001d66:	2301      	movs	r3, #1
10001d68:	4083      	lsls	r3, r0
10001d6a:	4a07      	ldr	r2, [pc, #28]	; (10001d88 <hardware_alarm_cancel+0x34>)
10001d6c:	4807      	ldr	r0, [pc, #28]	; (10001d8c <hardware_alarm_cancel+0x38>)
10001d6e:	6213      	str	r3, [r2, #32]
10001d70:	7802      	ldrb	r2, [r0, #0]
10001d72:	439a      	bics	r2, r3
10001d74:	7002      	strb	r2, [r0, #0]
10001d76:	f3bf 8f5f 	dmb	sy
10001d7a:	2300      	movs	r3, #0
10001d7c:	600b      	str	r3, [r1, #0]
10001d7e:	f38c 8810 	msr	PRIMASK, ip
10001d82:	4770      	bx	lr
10001d84:	d0000128 	.word	0xd0000128
10001d88:	40054000 	.word	0x40054000
10001d8c:	20001c62 	.word	0x20001c62

10001d90 <ph_merge_nodes>:
10001d90:	b570      	push	{r4, r5, r6, lr}
10001d92:	0005      	movs	r5, r0
10001d94:	0014      	movs	r4, r2
10001d96:	0016      	movs	r6, r2
10001d98:	2900      	cmp	r1, #0
10001d9a:	d015      	beq.n	10001dc8 <ph_merge_nodes+0x38>
10001d9c:	000c      	movs	r4, r1
10001d9e:	2a00      	cmp	r2, #0
10001da0:	d012      	beq.n	10001dc8 <ph_merge_nodes+0x38>
10001da2:	6880      	ldr	r0, [r0, #8]
10001da4:	686b      	ldr	r3, [r5, #4]
10001da6:	4798      	blx	r3
10001da8:	6829      	ldr	r1, [r5, #0]
10001daa:	2800      	cmp	r0, #0
10001dac:	d00e      	beq.n	10001dcc <ph_merge_nodes+0x3c>
10001dae:	0073      	lsls	r3, r6, #1
10001db0:	199b      	adds	r3, r3, r6
10001db2:	0062      	lsls	r2, r4, #1
10001db4:	3b03      	subs	r3, #3
10001db6:	1912      	adds	r2, r2, r4
10001db8:	18cb      	adds	r3, r1, r3
10001dba:	3a03      	subs	r2, #3
10001dbc:	709c      	strb	r4, [r3, #2]
10001dbe:	1888      	adds	r0, r1, r2
10001dc0:	5c8a      	ldrb	r2, [r1, r2]
10001dc2:	2a00      	cmp	r2, #0
10001dc4:	d115      	bne.n	10001df2 <ph_merge_nodes+0x62>
10001dc6:	7006      	strb	r6, [r0, #0]
10001dc8:	0020      	movs	r0, r4
10001dca:	bd70      	pop	{r4, r5, r6, pc}
10001dcc:	0063      	lsls	r3, r4, #1
10001dce:	191b      	adds	r3, r3, r4
10001dd0:	0072      	lsls	r2, r6, #1
10001dd2:	3b03      	subs	r3, #3
10001dd4:	1992      	adds	r2, r2, r6
10001dd6:	18cb      	adds	r3, r1, r3
10001dd8:	3a03      	subs	r2, #3
10001dda:	709e      	strb	r6, [r3, #2]
10001ddc:	1888      	adds	r0, r1, r2
10001dde:	5c8a      	ldrb	r2, [r1, r2]
10001de0:	2a00      	cmp	r2, #0
10001de2:	d102      	bne.n	10001dea <ph_merge_nodes+0x5a>
10001de4:	7004      	strb	r4, [r0, #0]
10001de6:	0034      	movs	r4, r6
10001de8:	e7ee      	b.n	10001dc8 <ph_merge_nodes+0x38>
10001dea:	705a      	strb	r2, [r3, #1]
10001dec:	7004      	strb	r4, [r0, #0]
10001dee:	0034      	movs	r4, r6
10001df0:	e7ea      	b.n	10001dc8 <ph_merge_nodes+0x38>
10001df2:	705a      	strb	r2, [r3, #1]
10001df4:	7006      	strb	r6, [r0, #0]
10001df6:	e7e7      	b.n	10001dc8 <ph_merge_nodes+0x38>

10001df8 <ph_post_alloc_init>:
10001df8:	b530      	push	{r4, r5, lr}
10001dfa:	6083      	str	r3, [r0, #8]
10001dfc:	2300      	movs	r3, #0
10001dfe:	b2cc      	uxtb	r4, r1
10001e00:	7343      	strb	r3, [r0, #13]
10001e02:	3301      	adds	r3, #1
10001e04:	7304      	strb	r4, [r0, #12]
10001e06:	6042      	str	r2, [r0, #4]
10001e08:	7383      	strb	r3, [r0, #14]
10001e0a:	73c4      	strb	r4, [r0, #15]
10001e0c:	000d      	movs	r5, r1
10001e0e:	6800      	ldr	r0, [r0, #0]
10001e10:	2c01      	cmp	r4, #1
10001e12:	d906      	bls.n	10001e22 <ph_post_alloc_init+0x2a>
10001e14:	1c42      	adds	r2, r0, #1
10001e16:	3301      	adds	r3, #1
10001e18:	b2db      	uxtb	r3, r3
10001e1a:	7013      	strb	r3, [r2, #0]
10001e1c:	3203      	adds	r2, #3
10001e1e:	429c      	cmp	r4, r3
10001e20:	d1f9      	bne.n	10001e16 <ph_post_alloc_init+0x1e>
10001e22:	21ff      	movs	r1, #255	; 0xff
10001e24:	4029      	ands	r1, r5
10001e26:	004b      	lsls	r3, r1, #1
10001e28:	1859      	adds	r1, r3, r1
10001e2a:	2300      	movs	r3, #0
10001e2c:	1840      	adds	r0, r0, r1
10001e2e:	3803      	subs	r0, #3
10001e30:	7043      	strb	r3, [r0, #1]
10001e32:	bd30      	pop	{r4, r5, pc}

10001e34 <ph_merge_two_pass>:
10001e34:	b5f8      	push	{r3, r4, r5, r6, r7, lr}
10001e36:	46ce      	mov	lr, r9
10001e38:	4647      	mov	r7, r8
10001e3a:	0006      	movs	r6, r0
10001e3c:	000c      	movs	r4, r1
10001e3e:	b580      	push	{r7, lr}
10001e40:	2900      	cmp	r1, #0
10001e42:	d007      	beq.n	10001e54 <ph_merge_two_pass+0x20>
10001e44:	004d      	lsls	r5, r1, #1
10001e46:	6803      	ldr	r3, [r0, #0]
10001e48:	186d      	adds	r5, r5, r1
10001e4a:	3d03      	subs	r5, #3
10001e4c:	195a      	adds	r2, r3, r5
10001e4e:	7857      	ldrb	r7, [r2, #1]
10001e50:	2f00      	cmp	r7, #0
10001e52:	d104      	bne.n	10001e5e <ph_merge_two_pass+0x2a>
10001e54:	0020      	movs	r0, r4
10001e56:	bcc0      	pop	{r6, r7}
10001e58:	46b9      	mov	r9, r7
10001e5a:	46b0      	mov	r8, r6
10001e5c:	bdf8      	pop	{r3, r4, r5, r6, r7, pc}
10001e5e:	0079      	lsls	r1, r7, #1
10001e60:	19c9      	adds	r1, r1, r7
10001e62:	3903      	subs	r1, #3
10001e64:	4688      	mov	r8, r1
10001e66:	4443      	add	r3, r8
10001e68:	7859      	ldrb	r1, [r3, #1]
10001e6a:	4689      	mov	r9, r1
10001e6c:	2100      	movs	r1, #0
10001e6e:	7059      	strb	r1, [r3, #1]
10001e70:	7051      	strb	r1, [r2, #1]
10001e72:	6873      	ldr	r3, [r6, #4]
10001e74:	003a      	movs	r2, r7
10001e76:	0021      	movs	r1, r4
10001e78:	6880      	ldr	r0, [r0, #8]
10001e7a:	4798      	blx	r3
10001e7c:	6833      	ldr	r3, [r6, #0]
10001e7e:	2800      	cmp	r0, #0
10001e80:	d014      	beq.n	10001eac <ph_merge_two_pass+0x78>
10001e82:	4642      	mov	r2, r8
10001e84:	189a      	adds	r2, r3, r2
10001e86:	7094      	strb	r4, [r2, #2]
10001e88:	1959      	adds	r1, r3, r5
10001e8a:	5d5b      	ldrb	r3, [r3, r5]
10001e8c:	2b00      	cmp	r3, #0
10001e8e:	d000      	beq.n	10001e92 <ph_merge_two_pass+0x5e>
10001e90:	7053      	strb	r3, [r2, #1]
10001e92:	700f      	strb	r7, [r1, #0]
10001e94:	0027      	movs	r7, r4
10001e96:	4649      	mov	r1, r9
10001e98:	0030      	movs	r0, r6
10001e9a:	f7ff ffcb 	bl	10001e34 <ph_merge_two_pass>
10001e9e:	0039      	movs	r1, r7
10001ea0:	0002      	movs	r2, r0
10001ea2:	0030      	movs	r0, r6
10001ea4:	f7ff ff74 	bl	10001d90 <ph_merge_nodes>
10001ea8:	0004      	movs	r4, r0
10001eaa:	e7d3      	b.n	10001e54 <ph_merge_two_pass+0x20>
10001eac:	4642      	mov	r2, r8
10001eae:	4641      	mov	r1, r8
10001eb0:	195d      	adds	r5, r3, r5
10001eb2:	70af      	strb	r7, [r5, #2]
10001eb4:	189a      	adds	r2, r3, r2
10001eb6:	5c5b      	ldrb	r3, [r3, r1]
10001eb8:	2b00      	cmp	r3, #0
10001eba:	d000      	beq.n	10001ebe <ph_merge_two_pass+0x8a>
10001ebc:	706b      	strb	r3, [r5, #1]
10001ebe:	7014      	strb	r4, [r2, #0]
10001ec0:	e7e9      	b.n	10001e96 <ph_merge_two_pass+0x62>
10001ec2:	46c0      	nop			; (mov r8, r8)

10001ec4 <ph_remove_any_head>:
10001ec4:	b5f0      	push	{r4, r5, r6, r7, lr}
10001ec6:	4657      	mov	r7, sl
10001ec8:	4645      	mov	r5, r8
10001eca:	46de      	mov	lr, fp
10001ecc:	464e      	mov	r6, r9
10001ece:	b5e0      	push	{r5, r6, r7, lr}
10001ed0:	000d      	movs	r5, r1
10001ed2:	006b      	lsls	r3, r5, #1
10001ed4:	6801      	ldr	r1, [r0, #0]
10001ed6:	195b      	adds	r3, r3, r5
10001ed8:	1edf      	subs	r7, r3, #3
10001eda:	0004      	movs	r4, r0
10001edc:	5dc8      	ldrb	r0, [r1, r7]
10001ede:	b083      	sub	sp, #12
10001ee0:	9201      	str	r2, [sp, #4]
10001ee2:	19ca      	adds	r2, r1, r7
10001ee4:	2800      	cmp	r0, #0
10001ee6:	d04c      	beq.n	10001f82 <ph_remove_any_head+0xbe>
10001ee8:	0043      	lsls	r3, r0, #1
10001eea:	181b      	adds	r3, r3, r0
10001eec:	3b03      	subs	r3, #3
10001eee:	18cb      	adds	r3, r1, r3
10001ef0:	785e      	ldrb	r6, [r3, #1]
10001ef2:	46b4      	mov	ip, r6
10001ef4:	2e00      	cmp	r6, #0
10001ef6:	d116      	bne.n	10001f26 <ph_remove_any_head+0x62>
10001ef8:	9e01      	ldr	r6, [sp, #4]
10001efa:	2e00      	cmp	r6, #0
10001efc:	d03e      	beq.n	10001f7c <ph_remove_any_head+0xb8>
10001efe:	7be6      	ldrb	r6, [r4, #15]
10001f00:	2e00      	cmp	r6, #0
10001f02:	d004      	beq.n	10001f0e <ph_remove_any_head+0x4a>
10001f04:	0073      	lsls	r3, r6, #1
10001f06:	199b      	adds	r3, r3, r6
10001f08:	18cb      	adds	r3, r1, r3
10001f0a:	3b03      	subs	r3, #3
10001f0c:	705d      	strb	r5, [r3, #1]
10001f0e:	73e5      	strb	r5, [r4, #15]
10001f10:	2800      	cmp	r0, #0
10001f12:	d12f      	bne.n	10001f74 <ph_remove_any_head+0xb0>
10001f14:	2300      	movs	r3, #0
10001f16:	7053      	strb	r3, [r2, #1]
10001f18:	b003      	add	sp, #12
10001f1a:	bcf0      	pop	{r4, r5, r6, r7}
10001f1c:	46bb      	mov	fp, r7
10001f1e:	46b2      	mov	sl, r6
10001f20:	46a9      	mov	r9, r5
10001f22:	46a0      	mov	r8, r4
10001f24:	bdf0      	pop	{r4, r5, r6, r7, pc}
10001f26:	0072      	lsls	r2, r6, #1
10001f28:	4462      	add	r2, ip
10001f2a:	3a03      	subs	r2, #3
10001f2c:	1889      	adds	r1, r1, r2
10001f2e:	784a      	ldrb	r2, [r1, #1]
10001f30:	4690      	mov	r8, r2
10001f32:	2200      	movs	r2, #0
10001f34:	704a      	strb	r2, [r1, #1]
10001f36:	4691      	mov	r9, r2
10001f38:	705a      	strb	r2, [r3, #1]
10001f3a:	0001      	movs	r1, r0
10001f3c:	0032      	movs	r2, r6
10001f3e:	0020      	movs	r0, r4
10001f40:	f7ff ff26 	bl	10001d90 <ph_merge_nodes>
10001f44:	4643      	mov	r3, r8
10001f46:	4682      	mov	sl, r0
10001f48:	2b00      	cmp	r3, #0
10001f4a:	d007      	beq.n	10001f5c <ph_remove_any_head+0x98>
10001f4c:	005b      	lsls	r3, r3, #1
10001f4e:	6821      	ldr	r1, [r4, #0]
10001f50:	4443      	add	r3, r8
10001f52:	3b03      	subs	r3, #3
10001f54:	18cb      	adds	r3, r1, r3
10001f56:	785a      	ldrb	r2, [r3, #1]
10001f58:	2a00      	cmp	r2, #0
10001f5a:	d116      	bne.n	10001f8a <ph_remove_any_head+0xc6>
10001f5c:	4642      	mov	r2, r8
10001f5e:	4651      	mov	r1, sl
10001f60:	0020      	movs	r0, r4
10001f62:	f7ff ff15 	bl	10001d90 <ph_merge_nodes>
10001f66:	6821      	ldr	r1, [r4, #0]
10001f68:	9b01      	ldr	r3, [sp, #4]
10001f6a:	19ca      	adds	r2, r1, r7
10001f6c:	2b00      	cmp	r3, #0
10001f6e:	d1c6      	bne.n	10001efe <ph_remove_any_head+0x3a>
10001f70:	2800      	cmp	r0, #0
10001f72:	d0cf      	beq.n	10001f14 <ph_remove_any_head+0x50>
10001f74:	0043      	lsls	r3, r0, #1
10001f76:	181b      	adds	r3, r3, r0
10001f78:	3b03      	subs	r3, #3
10001f7a:	18cb      	adds	r3, r1, r3
10001f7c:	2100      	movs	r1, #0
10001f7e:	7099      	strb	r1, [r3, #2]
10001f80:	e7c8      	b.n	10001f14 <ph_remove_any_head+0x50>
10001f82:	9b01      	ldr	r3, [sp, #4]
10001f84:	2b00      	cmp	r3, #0
10001f86:	d1ba      	bne.n	10001efe <ph_remove_any_head+0x3a>
10001f88:	e7c4      	b.n	10001f14 <ph_remove_any_head+0x50>
10001f8a:	0050      	lsls	r0, r2, #1
10001f8c:	1880      	adds	r0, r0, r2
10001f8e:	3803      	subs	r0, #3
10001f90:	1809      	adds	r1, r1, r0
10001f92:	7848      	ldrb	r0, [r1, #1]
10001f94:	4683      	mov	fp, r0
10001f96:	4648      	mov	r0, r9
10001f98:	7048      	strb	r0, [r1, #1]
10001f9a:	7058      	strb	r0, [r3, #1]
10001f9c:	4641      	mov	r1, r8
10001f9e:	0020      	movs	r0, r4
10001fa0:	f7ff fef6 	bl	10001d90 <ph_merge_nodes>
10001fa4:	4659      	mov	r1, fp
10001fa6:	4680      	mov	r8, r0
10001fa8:	0020      	movs	r0, r4
10001faa:	f7ff ff43 	bl	10001e34 <ph_merge_two_pass>
10001fae:	4641      	mov	r1, r8
10001fb0:	0002      	movs	r2, r0
10001fb2:	0020      	movs	r0, r4
10001fb4:	f7ff feec 	bl	10001d90 <ph_merge_nodes>
10001fb8:	4680      	mov	r8, r0
10001fba:	e7cf      	b.n	10001f5c <ph_remove_any_head+0x98>

10001fbc <ph_remove_head>:
10001fbc:	b5f0      	push	{r4, r5, r6, r7, lr}
10001fbe:	4657      	mov	r7, sl
10001fc0:	4645      	mov	r5, r8
10001fc2:	46de      	mov	lr, fp
10001fc4:	464e      	mov	r6, r9
10001fc6:	b5e0      	push	{r5, r6, r7, lr}
10001fc8:	b083      	sub	sp, #12
10001fca:	9101      	str	r1, [sp, #4]
10001fcc:	7b45      	ldrb	r5, [r0, #13]
10001fce:	0004      	movs	r4, r0
10001fd0:	006b      	lsls	r3, r5, #1
10001fd2:	6800      	ldr	r0, [r0, #0]
10001fd4:	195b      	adds	r3, r3, r5
10001fd6:	1edf      	subs	r7, r3, #3
10001fd8:	5dc1      	ldrb	r1, [r0, r7]
10001fda:	19c2      	adds	r2, r0, r7
10001fdc:	2900      	cmp	r1, #0
10001fde:	d04e      	beq.n	1000207e <ph_remove_head+0xc2>
10001fe0:	004b      	lsls	r3, r1, #1
10001fe2:	185b      	adds	r3, r3, r1
10001fe4:	3b03      	subs	r3, #3
10001fe6:	18c3      	adds	r3, r0, r3
10001fe8:	785e      	ldrb	r6, [r3, #1]
10001fea:	46b4      	mov	ip, r6
10001fec:	2e00      	cmp	r6, #0
10001fee:	d118      	bne.n	10002022 <ph_remove_head+0x66>
10001ff0:	9e01      	ldr	r6, [sp, #4]
10001ff2:	2e00      	cmp	r6, #0
10001ff4:	d040      	beq.n	10002078 <ph_remove_head+0xbc>
10001ff6:	7be6      	ldrb	r6, [r4, #15]
10001ff8:	2e00      	cmp	r6, #0
10001ffa:	d004      	beq.n	10002006 <ph_remove_head+0x4a>
10001ffc:	0073      	lsls	r3, r6, #1
10001ffe:	199b      	adds	r3, r3, r6
10002000:	18c3      	adds	r3, r0, r3
10002002:	3b03      	subs	r3, #3
10002004:	705d      	strb	r5, [r3, #1]
10002006:	73e5      	strb	r5, [r4, #15]
10002008:	2900      	cmp	r1, #0
1000200a:	d131      	bne.n	10002070 <ph_remove_head+0xb4>
1000200c:	2300      	movs	r3, #0
1000200e:	0028      	movs	r0, r5
10002010:	7053      	strb	r3, [r2, #1]
10002012:	7361      	strb	r1, [r4, #13]
10002014:	b003      	add	sp, #12
10002016:	bcf0      	pop	{r4, r5, r6, r7}
10002018:	46bb      	mov	fp, r7
1000201a:	46b2      	mov	sl, r6
1000201c:	46a9      	mov	r9, r5
1000201e:	46a0      	mov	r8, r4
10002020:	bdf0      	pop	{r4, r5, r6, r7, pc}
10002022:	0072      	lsls	r2, r6, #1
10002024:	4462      	add	r2, ip
10002026:	3a03      	subs	r2, #3
10002028:	1880      	adds	r0, r0, r2
1000202a:	7842      	ldrb	r2, [r0, #1]
1000202c:	4690      	mov	r8, r2
1000202e:	2200      	movs	r2, #0
10002030:	7042      	strb	r2, [r0, #1]
10002032:	4691      	mov	r9, r2
10002034:	705a      	strb	r2, [r3, #1]
10002036:	0020      	movs	r0, r4
10002038:	0032      	movs	r2, r6
1000203a:	f7ff fea9 	bl	10001d90 <ph_merge_nodes>
1000203e:	4643      	mov	r3, r8
10002040:	4682      	mov	sl, r0
10002042:	2b00      	cmp	r3, #0
10002044:	d007      	beq.n	10002056 <ph_remove_head+0x9a>
10002046:	005b      	lsls	r3, r3, #1
10002048:	6821      	ldr	r1, [r4, #0]
1000204a:	4443      	add	r3, r8
1000204c:	3b03      	subs	r3, #3
1000204e:	18cb      	adds	r3, r1, r3
10002050:	785a      	ldrb	r2, [r3, #1]
10002052:	2a00      	cmp	r2, #0
10002054:	d117      	bne.n	10002086 <ph_remove_head+0xca>
10002056:	4642      	mov	r2, r8
10002058:	4651      	mov	r1, sl
1000205a:	0020      	movs	r0, r4
1000205c:	f7ff fe98 	bl	10001d90 <ph_merge_nodes>
10002060:	9b01      	ldr	r3, [sp, #4]
10002062:	0001      	movs	r1, r0
10002064:	6820      	ldr	r0, [r4, #0]
10002066:	19c2      	adds	r2, r0, r7
10002068:	2b00      	cmp	r3, #0
1000206a:	d1c4      	bne.n	10001ff6 <ph_remove_head+0x3a>
1000206c:	2900      	cmp	r1, #0
1000206e:	d0cd      	beq.n	1000200c <ph_remove_head+0x50>
10002070:	004b      	lsls	r3, r1, #1
10002072:	185b      	adds	r3, r3, r1
10002074:	3b03      	subs	r3, #3
10002076:	18c3      	adds	r3, r0, r3
10002078:	2000      	movs	r0, #0
1000207a:	7098      	strb	r0, [r3, #2]
1000207c:	e7c6      	b.n	1000200c <ph_remove_head+0x50>
1000207e:	9b01      	ldr	r3, [sp, #4]
10002080:	2b00      	cmp	r3, #0
10002082:	d1b8      	bne.n	10001ff6 <ph_remove_head+0x3a>
10002084:	e7c2      	b.n	1000200c <ph_remove_head+0x50>
10002086:	0050      	lsls	r0, r2, #1
10002088:	1880      	adds	r0, r0, r2
1000208a:	3803      	subs	r0, #3
1000208c:	1809      	adds	r1, r1, r0
1000208e:	7848      	ldrb	r0, [r1, #1]
10002090:	4683      	mov	fp, r0
10002092:	4648      	mov	r0, r9
10002094:	7048      	strb	r0, [r1, #1]
10002096:	7058      	strb	r0, [r3, #1]
10002098:	4641      	mov	r1, r8
1000209a:	0020      	movs	r0, r4
1000209c:	f7ff fe78 	bl	10001d90 <ph_merge_nodes>
100020a0:	4659      	mov	r1, fp
100020a2:	4680      	mov	r8, r0
100020a4:	0020      	movs	r0, r4
100020a6:	f7ff fec5 	bl	10001e34 <ph_merge_two_pass>
100020aa:	4641      	mov	r1, r8
100020ac:	0002      	movs	r2, r0
100020ae:	0020      	movs	r0, r4
100020b0:	f7ff fe6e 	bl	10001d90 <ph_merge_nodes>
100020b4:	4680      	mov	r8, r0
100020b6:	e7ce      	b.n	10002056 <ph_remove_head+0x9a>

100020b8 <ph_remove_and_free_node>:
100020b8:	b570      	push	{r4, r5, r6, lr}
100020ba:	0004      	movs	r4, r0
100020bc:	2900      	cmp	r1, #0
100020be:	d02c      	beq.n	1000211a <ph_remove_and_free_node+0x62>
100020c0:	7b43      	ldrb	r3, [r0, #13]
100020c2:	428b      	cmp	r3, r1
100020c4:	d02e      	beq.n	10002124 <ph_remove_and_free_node+0x6c>
100020c6:	6805      	ldr	r5, [r0, #0]
100020c8:	0048      	lsls	r0, r1, #1
100020ca:	1840      	adds	r0, r0, r1
100020cc:	3803      	subs	r0, #3
100020ce:	1828      	adds	r0, r5, r0
100020d0:	7882      	ldrb	r2, [r0, #2]
100020d2:	2a00      	cmp	r2, #0
100020d4:	d021      	beq.n	1000211a <ph_remove_and_free_node+0x62>
100020d6:	0053      	lsls	r3, r2, #1
100020d8:	189b      	adds	r3, r3, r2
100020da:	3b03      	subs	r3, #3
100020dc:	5cea      	ldrb	r2, [r5, r3]
100020de:	18ee      	adds	r6, r5, r3
100020e0:	428a      	cmp	r2, r1
100020e2:	d102      	bne.n	100020ea <ph_remove_and_free_node+0x32>
100020e4:	e01b      	b.n	1000211e <ph_remove_and_free_node+0x66>
100020e6:	2a00      	cmp	r2, #0
100020e8:	d008      	beq.n	100020fc <ph_remove_and_free_node+0x44>
100020ea:	0053      	lsls	r3, r2, #1
100020ec:	189b      	adds	r3, r3, r2
100020ee:	3b03      	subs	r3, #3
100020f0:	18eb      	adds	r3, r5, r3
100020f2:	785a      	ldrb	r2, [r3, #1]
100020f4:	428a      	cmp	r2, r1
100020f6:	d1f6      	bne.n	100020e6 <ph_remove_and_free_node+0x2e>
100020f8:	7842      	ldrb	r2, [r0, #1]
100020fa:	705a      	strb	r2, [r3, #1]
100020fc:	2300      	movs	r3, #0
100020fe:	2201      	movs	r2, #1
10002100:	7083      	strb	r3, [r0, #2]
10002102:	7043      	strb	r3, [r0, #1]
10002104:	0020      	movs	r0, r4
10002106:	f7ff fedd 	bl	10001ec4 <ph_remove_any_head>
1000210a:	7b61      	ldrb	r1, [r4, #13]
1000210c:	0002      	movs	r2, r0
1000210e:	0020      	movs	r0, r4
10002110:	f7ff fe3e 	bl	10001d90 <ph_merge_nodes>
10002114:	7360      	strb	r0, [r4, #13]
10002116:	2001      	movs	r0, #1
10002118:	e000      	b.n	1000211c <ph_remove_and_free_node+0x64>
1000211a:	2000      	movs	r0, #0
1000211c:	bd70      	pop	{r4, r5, r6, pc}
1000211e:	7843      	ldrb	r3, [r0, #1]
10002120:	7033      	strb	r3, [r6, #0]
10002122:	e7eb      	b.n	100020fc <ph_remove_and_free_node+0x44>
10002124:	2201      	movs	r2, #1
10002126:	0019      	movs	r1, r3
10002128:	f7ff fecc 	bl	10001ec4 <ph_remove_any_head>
1000212c:	7360      	strb	r0, [r4, #13]
1000212e:	2001      	movs	r0, #1
10002130:	e7f4      	b.n	1000211c <ph_remove_and_free_node+0x64>
10002132:	46c0      	nop			; (mov r8, r8)

10002134 <mutex_init>:
10002134:	b510      	push	{r4, lr}
10002136:	0004      	movs	r4, r0
10002138:	f7fe fe80 	bl	10000e3c <next_striped_spin_lock_num>
1000213c:	0001      	movs	r1, r0
1000213e:	0020      	movs	r0, r4
10002140:	f7ff f94a 	bl	100013d8 <lock_init>
10002144:	23ff      	movs	r3, #255	; 0xff
10002146:	7123      	strb	r3, [r4, #4]
10002148:	f3bf 8f5f 	dmb	sy
1000214c:	bd10      	pop	{r4, pc}
1000214e:	46c0      	nop			; (mov r8, r8)

10002150 <recursive_mutex_init>:
10002150:	b510      	push	{r4, lr}
10002152:	0004      	movs	r4, r0
10002154:	f7fe fe72 	bl	10000e3c <next_striped_spin_lock_num>
10002158:	0001      	movs	r1, r0
1000215a:	0020      	movs	r0, r4
1000215c:	f7ff f93c 	bl	100013d8 <lock_init>
10002160:	23ff      	movs	r3, #255	; 0xff
10002162:	80a3      	strh	r3, [r4, #4]
10002164:	f3bf 8f5f 	dmb	sy
10002168:	bd10      	pop	{r4, pc}
1000216a:	46c0      	nop			; (mov r8, r8)

1000216c <critical_section_init>:
1000216c:	b510      	push	{r4, lr}
1000216e:	0004      	movs	r4, r0
10002170:	2001      	movs	r0, #1
10002172:	f7fe fe6f 	bl	10000e54 <spin_lock_claim_unused>
10002176:	4b04      	ldr	r3, [pc, #16]	; (10002188 <critical_section_init+0x1c>)
10002178:	469c      	mov	ip, r3
1000217a:	4460      	add	r0, ip
1000217c:	0080      	lsls	r0, r0, #2
1000217e:	6020      	str	r0, [r4, #0]
10002180:	f3bf 8f5f 	dmb	sy
10002184:	bd10      	pop	{r4, pc}
10002186:	46c0      	nop			; (mov r8, r8)
10002188:	34000040 	.word	0x34000040

1000218c <runtime_init>:
1000218c:	4b2c      	ldr	r3, [pc, #176]	; (10002240 <runtime_init+0xb4>)
1000218e:	4a2d      	ldr	r2, [pc, #180]	; (10002244 <runtime_init+0xb8>)
10002190:	b570      	push	{r4, r5, r6, lr}
10002192:	601a      	str	r2, [r3, #0]
10002194:	4a2c      	ldr	r2, [pc, #176]	; (10002248 <runtime_init+0xbc>)
10002196:	4b2d      	ldr	r3, [pc, #180]	; (1000224c <runtime_init+0xc0>)
10002198:	492d      	ldr	r1, [pc, #180]	; (10002250 <runtime_init+0xc4>)
1000219a:	601a      	str	r2, [r3, #0]
1000219c:	0014      	movs	r4, r2
1000219e:	688b      	ldr	r3, [r1, #8]
100021a0:	439c      	bics	r4, r3
100021a2:	d1fb      	bne.n	1000219c <runtime_init+0x10>
100021a4:	4d2b      	ldr	r5, [pc, #172]	; (10002254 <runtime_init+0xc8>)
100021a6:	4e2c      	ldr	r6, [pc, #176]	; (10002258 <runtime_init+0xcc>)
100021a8:	42b5      	cmp	r5, r6
100021aa:	d208      	bcs.n	100021be <runtime_init+0x32>
100021ac:	3e01      	subs	r6, #1
100021ae:	1b76      	subs	r6, r6, r5
100021b0:	08b6      	lsrs	r6, r6, #2
100021b2:	cd08      	ldmia	r5!, {r3}
100021b4:	4798      	blx	r3
100021b6:	0023      	movs	r3, r4
100021b8:	3401      	adds	r4, #1
100021ba:	42b3      	cmp	r3, r6
100021bc:	d1f9      	bne.n	100021b2 <runtime_init+0x26>
100021be:	f000 f897 	bl	100022f0 <clocks_init>
100021c2:	4a26      	ldr	r2, [pc, #152]	; (1000225c <runtime_init+0xd0>)
100021c4:	4b21      	ldr	r3, [pc, #132]	; (1000224c <runtime_init+0xc0>)
100021c6:	601a      	str	r2, [r3, #0]
100021c8:	4a21      	ldr	r2, [pc, #132]	; (10002250 <runtime_init+0xc4>)
100021ca:	6893      	ldr	r3, [r2, #8]
100021cc:	43db      	mvns	r3, r3
100021ce:	01db      	lsls	r3, r3, #7
100021d0:	09dd      	lsrs	r5, r3, #7
100021d2:	2b00      	cmp	r3, #0
100021d4:	d1f9      	bne.n	100021ca <runtime_init+0x3e>
100021d6:	2240      	movs	r2, #64	; 0x40
100021d8:	4b21      	ldr	r3, [pc, #132]	; (10002260 <runtime_init+0xd4>)
100021da:	4c22      	ldr	r4, [pc, #136]	; (10002264 <runtime_init+0xd8>)
100021dc:	4e22      	ldr	r6, [pc, #136]	; (10002268 <runtime_init+0xdc>)
100021de:	679a      	str	r2, [r3, #120]	; 0x78
100021e0:	675a      	str	r2, [r3, #116]	; 0x74
100021e2:	671a      	str	r2, [r3, #112]	; 0x70
100021e4:	66da      	str	r2, [r3, #108]	; 0x6c
100021e6:	42b4      	cmp	r4, r6
100021e8:	d208      	bcs.n	100021fc <runtime_init+0x70>
100021ea:	6823      	ldr	r3, [r4, #0]
100021ec:	0020      	movs	r0, r4
100021ee:	2b00      	cmp	r3, #0
100021f0:	d020      	beq.n	10002234 <runtime_init+0xa8>
100021f2:	3408      	adds	r4, #8
100021f4:	f7ff ffac 	bl	10002150 <recursive_mutex_init>
100021f8:	42b4      	cmp	r4, r6
100021fa:	d3f6      	bcc.n	100021ea <runtime_init+0x5e>
100021fc:	4e1b      	ldr	r6, [pc, #108]	; (1000226c <runtime_init+0xe0>)
100021fe:	4c1c      	ldr	r4, [pc, #112]	; (10002270 <runtime_init+0xe4>)
10002200:	22c0      	movs	r2, #192	; 0xc0
10002202:	68a1      	ldr	r1, [r4, #8]
10002204:	0030      	movs	r0, r6
10002206:	f002 fd73 	bl	10004cf0 <__wrap___aeabi_memcpy>
1000220a:	60a6      	str	r6, [r4, #8]
1000220c:	f7fe fe08 	bl	10000e20 <spin_locks_reset>
10002210:	f7ff f8b8 	bl	10001384 <irq_init_priorities>
10002214:	f7ff fb0c 	bl	10001830 <alarm_pool_init_default>
10002218:	4c16      	ldr	r4, [pc, #88]	; (10002274 <runtime_init+0xe8>)
1000221a:	4e17      	ldr	r6, [pc, #92]	; (10002278 <runtime_init+0xec>)
1000221c:	42b4      	cmp	r4, r6
1000221e:	d208      	bcs.n	10002232 <runtime_init+0xa6>
10002220:	3e01      	subs	r6, #1
10002222:	1b36      	subs	r6, r6, r4
10002224:	08b6      	lsrs	r6, r6, #2
10002226:	cc08      	ldmia	r4!, {r3}
10002228:	4798      	blx	r3
1000222a:	002b      	movs	r3, r5
1000222c:	3501      	adds	r5, #1
1000222e:	429e      	cmp	r6, r3
10002230:	d1f9      	bne.n	10002226 <runtime_init+0x9a>
10002232:	bd70      	pop	{r4, r5, r6, pc}
10002234:	3408      	adds	r4, #8
10002236:	f7ff ff7d 	bl	10002134 <mutex_init>
1000223a:	42b4      	cmp	r4, r6
1000223c:	d3d5      	bcc.n	100021ea <runtime_init+0x5e>
1000223e:	e7dd      	b.n	100021fc <runtime_init+0x70>
10002240:	4000e000 	.word	0x4000e000
10002244:	fefbcdbf 	.word	0xfefbcdbf
10002248:	003c7ffe 	.word	0x003c7ffe
1000224c:	4000f000 	.word	0x4000f000
10002250:	4000c000 	.word	0x4000c000
10002254:	20000cb8 	.word	0x20000cb8
10002258:	20000cc8 	.word	0x20000cc8
1000225c:	01ffffff 	.word	0x01ffffff
10002260:	4001f000 	.word	0x4001f000
10002264:	20000cb0 	.word	0x20000cb0
10002268:	20000cb8 	.word	0x20000cb8
1000226c:	20000000 	.word	0x20000000
10002270:	e000ed00 	.word	0xe000ed00
10002274:	20000cc8 	.word	0x20000cc8
10002278:	20000cd0 	.word	0x20000cd0

1000227c <_sbrk>:
1000227c:	4a09      	ldr	r2, [pc, #36]	; (100022a4 <_sbrk+0x28>)
1000227e:	0003      	movs	r3, r0
10002280:	6810      	ldr	r0, [r2, #0]
10002282:	2800      	cmp	r0, #0
10002284:	d005      	beq.n	10002292 <_sbrk+0x16>
10002286:	4908      	ldr	r1, [pc, #32]	; (100022a8 <_sbrk+0x2c>)
10002288:	18c3      	adds	r3, r0, r3
1000228a:	428b      	cmp	r3, r1
1000228c:	d807      	bhi.n	1000229e <_sbrk+0x22>
1000228e:	6013      	str	r3, [r2, #0]
10002290:	4770      	bx	lr
10002292:	4806      	ldr	r0, [pc, #24]	; (100022ac <_sbrk+0x30>)
10002294:	4904      	ldr	r1, [pc, #16]	; (100022a8 <_sbrk+0x2c>)
10002296:	18c3      	adds	r3, r0, r3
10002298:	6010      	str	r0, [r2, #0]
1000229a:	428b      	cmp	r3, r1
1000229c:	d9f7      	bls.n	1000228e <_sbrk+0x12>
1000229e:	2001      	movs	r0, #1
100022a0:	4240      	negs	r0, r0
100022a2:	e7f5      	b.n	10002290 <_sbrk+0x14>
100022a4:	200017e0 	.word	0x200017e0
100022a8:	20040000 	.word	0x20040000
100022ac:	20001c64 	.word	0x20001c64

100022b0 <exit>:
100022b0:	be00      	bkpt	0x0000
100022b2:	e7fd      	b.n	100022b0 <exit>

100022b4 <panic>:
100022b4:	b40f      	push	{r0, r1, r2, r3}
100022b6:	b500      	push	{lr}
100022b8:	4808      	ldr	r0, [pc, #32]	; (100022dc <panic+0x28>)
100022ba:	b083      	sub	sp, #12
100022bc:	f002 fe80 	bl	10004fc0 <__wrap_puts>
100022c0:	9b04      	ldr	r3, [sp, #16]
100022c2:	2b00      	cmp	r3, #0
100022c4:	d007      	beq.n	100022d6 <panic+0x22>
100022c6:	a905      	add	r1, sp, #20
100022c8:	0018      	movs	r0, r3
100022ca:	9101      	str	r1, [sp, #4]
100022cc:	f001 fcfe 	bl	10003ccc <weak_raw_vprintf>
100022d0:	4803      	ldr	r0, [pc, #12]	; (100022e0 <panic+0x2c>)
100022d2:	f002 fe75 	bl	10004fc0 <__wrap_puts>
100022d6:	be00      	bkpt	0x0000
100022d8:	e7fd      	b.n	100022d6 <panic+0x22>
100022da:	46c0      	nop			; (mov r8, r8)
100022dc:	1000b658 	.word	0x1000b658
100022e0:	1000b548 	.word	0x1000b548

100022e4 <hard_assertion_failure>:
100022e4:	b510      	push	{r4, lr}
100022e6:	4801      	ldr	r0, [pc, #4]	; (100022ec <hard_assertion_failure+0x8>)
100022e8:	f7ff ffe4 	bl	100022b4 <panic>
100022ec:	1000b668 	.word	0x1000b668

100022f0 <clocks_init>:
100022f0:	b530      	push	{r4, r5, lr}
100022f2:	200c      	movs	r0, #12
100022f4:	b083      	sub	sp, #12
100022f6:	f000 f9b7 	bl	10002668 <watchdog_start_tick>
100022fa:	f7fe fd89 	bl	10000e10 <running_on_fpga>
100022fe:	2800      	cmp	r0, #0
10002300:	d00e      	beq.n	10002320 <clocks_init+0x30>
10002302:	4b94      	ldr	r3, [pc, #592]	; (10002554 <clocks_init+0x264>)
10002304:	4a94      	ldr	r2, [pc, #592]	; (10002558 <clocks_init+0x268>)
10002306:	601a      	str	r2, [r3, #0]
10002308:	605a      	str	r2, [r3, #4]
1000230a:	609a      	str	r2, [r3, #8]
1000230c:	60da      	str	r2, [r3, #12]
1000230e:	611a      	str	r2, [r3, #16]
10002310:	615a      	str	r2, [r3, #20]
10002312:	619a      	str	r2, [r3, #24]
10002314:	61da      	str	r2, [r3, #28]
10002316:	621a      	str	r2, [r3, #32]
10002318:	4a90      	ldr	r2, [pc, #576]	; (1000255c <clocks_init+0x26c>)
1000231a:	625a      	str	r2, [r3, #36]	; 0x24
1000231c:	b003      	add	sp, #12
1000231e:	bd30      	pop	{r4, r5, pc}
10002320:	4c8f      	ldr	r4, [pc, #572]	; (10002560 <clocks_init+0x270>)
10002322:	67a0      	str	r0, [r4, #120]	; 0x78
10002324:	f000 f9f4 	bl	10002710 <xosc_init>
10002328:	2201      	movs	r2, #1
1000232a:	4b8e      	ldr	r3, [pc, #568]	; (10002564 <clocks_init+0x274>)
1000232c:	601a      	str	r2, [r3, #0]
1000232e:	6c63      	ldr	r3, [r4, #68]	; 0x44
10002330:	2b01      	cmp	r3, #1
10002332:	d1fc      	bne.n	1000232e <clocks_init+0x3e>
10002334:	2203      	movs	r2, #3
10002336:	4b8c      	ldr	r3, [pc, #560]	; (10002568 <clocks_init+0x278>)
10002338:	601a      	str	r2, [r3, #0]
1000233a:	4a89      	ldr	r2, [pc, #548]	; (10002560 <clocks_init+0x270>)
1000233c:	6b93      	ldr	r3, [r2, #56]	; 0x38
1000233e:	2b01      	cmp	r3, #1
10002340:	d1fc      	bne.n	1000233c <clocks_init+0x4c>
10002342:	3301      	adds	r3, #1
10002344:	2101      	movs	r1, #1
10002346:	4a89      	ldr	r2, [pc, #548]	; (1000256c <clocks_init+0x27c>)
10002348:	4889      	ldr	r0, [pc, #548]	; (10002570 <clocks_init+0x280>)
1000234a:	9300      	str	r3, [sp, #0]
1000234c:	3304      	adds	r3, #4
1000234e:	f000 f933 	bl	100025b8 <pll_init>
10002352:	2305      	movs	r3, #5
10002354:	4a87      	ldr	r2, [pc, #540]	; (10002574 <clocks_init+0x284>)
10002356:	9300      	str	r3, [sp, #0]
10002358:	2101      	movs	r1, #1
1000235a:	4887      	ldr	r0, [pc, #540]	; (10002578 <clocks_init+0x288>)
1000235c:	f000 f92c 	bl	100025b8 <pll_init>
10002360:	4b86      	ldr	r3, [pc, #536]	; (1000257c <clocks_init+0x28c>)
10002362:	685a      	ldr	r2, [r3, #4]
10002364:	2aff      	cmp	r2, #255	; 0xff
10002366:	d802      	bhi.n	1000236e <clocks_init+0x7e>
10002368:	2280      	movs	r2, #128	; 0x80
1000236a:	0052      	lsls	r2, r2, #1
1000236c:	605a      	str	r2, [r3, #4]
1000236e:	2280      	movs	r2, #128	; 0x80
10002370:	4c78      	ldr	r4, [pc, #480]	; (10002554 <clocks_init+0x264>)
10002372:	4b7d      	ldr	r3, [pc, #500]	; (10002568 <clocks_init+0x278>)
10002374:	6921      	ldr	r1, [r4, #16]
10002376:	0112      	lsls	r2, r2, #4
10002378:	4d80      	ldr	r5, [pc, #512]	; (1000257c <clocks_init+0x28c>)
1000237a:	601a      	str	r2, [r3, #0]
1000237c:	2900      	cmp	r1, #0
1000237e:	d005      	beq.n	1000238c <clocks_init+0x9c>
10002380:	6960      	ldr	r0, [r4, #20]
10002382:	f001 fd1d 	bl	10003dc0 <__wrap___aeabi_uidiv>
10002386:	3001      	adds	r0, #1
10002388:	3801      	subs	r0, #1
1000238a:	d1fd      	bne.n	10002388 <clocks_init+0x98>
1000238c:	21e0      	movs	r1, #224	; 0xe0
1000238e:	4b7b      	ldr	r3, [pc, #492]	; (1000257c <clocks_init+0x28c>)
10002390:	2002      	movs	r0, #2
10002392:	681a      	ldr	r2, [r3, #0]
10002394:	4011      	ands	r1, r2
10002396:	2280      	movs	r2, #128	; 0x80
10002398:	0152      	lsls	r2, r2, #5
1000239a:	432a      	orrs	r2, r5
1000239c:	6011      	str	r1, [r2, #0]
1000239e:	6819      	ldr	r1, [r3, #0]
100023a0:	4048      	eors	r0, r1
100023a2:	2103      	movs	r1, #3
100023a4:	4001      	ands	r1, r0
100023a6:	6011      	str	r1, [r2, #0]
100023a8:	2104      	movs	r1, #4
100023aa:	689a      	ldr	r2, [r3, #8]
100023ac:	4211      	tst	r1, r2
100023ae:	d0fc      	beq.n	100023aa <clocks_init+0xba>
100023b0:	2280      	movs	r2, #128	; 0x80
100023b2:	2180      	movs	r1, #128	; 0x80
100023b4:	0192      	lsls	r2, r2, #6
100023b6:	432a      	orrs	r2, r5
100023b8:	0109      	lsls	r1, r1, #4
100023ba:	6011      	str	r1, [r2, #0]
100023bc:	2280      	movs	r2, #128	; 0x80
100023be:	0052      	lsls	r2, r2, #1
100023c0:	605a      	str	r2, [r3, #4]
100023c2:	4b6f      	ldr	r3, [pc, #444]	; (10002580 <clocks_init+0x290>)
100023c4:	6123      	str	r3, [r4, #16]
100023c6:	4b6f      	ldr	r3, [pc, #444]	; (10002584 <clocks_init+0x294>)
100023c8:	6859      	ldr	r1, [r3, #4]
100023ca:	29ff      	cmp	r1, #255	; 0xff
100023cc:	d800      	bhi.n	100023d0 <clocks_init+0xe0>
100023ce:	605a      	str	r2, [r3, #4]
100023d0:	2103      	movs	r1, #3
100023d2:	4a64      	ldr	r2, [pc, #400]	; (10002564 <clocks_init+0x274>)
100023d4:	4b6b      	ldr	r3, [pc, #428]	; (10002584 <clocks_init+0x294>)
100023d6:	6011      	str	r1, [r2, #0]
100023d8:	3902      	subs	r1, #2
100023da:	689a      	ldr	r2, [r3, #8]
100023dc:	4211      	tst	r1, r2
100023de:	d0fc      	beq.n	100023da <clocks_init+0xea>
100023e0:	20e0      	movs	r0, #224	; 0xe0
100023e2:	681a      	ldr	r2, [r3, #0]
100023e4:	4010      	ands	r0, r2
100023e6:	2280      	movs	r2, #128	; 0x80
100023e8:	0152      	lsls	r2, r2, #5
100023ea:	431a      	orrs	r2, r3
100023ec:	6010      	str	r0, [r2, #0]
100023ee:	6818      	ldr	r0, [r3, #0]
100023f0:	4048      	eors	r0, r1
100023f2:	2103      	movs	r1, #3
100023f4:	4001      	ands	r1, r0
100023f6:	2002      	movs	r0, #2
100023f8:	6011      	str	r1, [r2, #0]
100023fa:	4962      	ldr	r1, [pc, #392]	; (10002584 <clocks_init+0x294>)
100023fc:	688a      	ldr	r2, [r1, #8]
100023fe:	4210      	tst	r0, r2
10002400:	d0fc      	beq.n	100023fc <clocks_init+0x10c>
10002402:	2280      	movs	r2, #128	; 0x80
10002404:	0192      	lsls	r2, r2, #6
10002406:	4313      	orrs	r3, r2
10002408:	2280      	movs	r2, #128	; 0x80
1000240a:	0112      	lsls	r2, r2, #4
1000240c:	601a      	str	r2, [r3, #0]
1000240e:	2280      	movs	r2, #128	; 0x80
10002410:	4b5d      	ldr	r3, [pc, #372]	; (10002588 <clocks_init+0x298>)
10002412:	0052      	lsls	r2, r2, #1
10002414:	604a      	str	r2, [r1, #4]
10002416:	6163      	str	r3, [r4, #20]
10002418:	4b5c      	ldr	r3, [pc, #368]	; (1000258c <clocks_init+0x29c>)
1000241a:	6859      	ldr	r1, [r3, #4]
1000241c:	29ff      	cmp	r1, #255	; 0xff
1000241e:	d800      	bhi.n	10002422 <clocks_init+0x132>
10002420:	605a      	str	r2, [r3, #4]
10002422:	2280      	movs	r2, #128	; 0x80
10002424:	4b5a      	ldr	r3, [pc, #360]	; (10002590 <clocks_init+0x2a0>)
10002426:	69e1      	ldr	r1, [r4, #28]
10002428:	0112      	lsls	r2, r2, #4
1000242a:	4d58      	ldr	r5, [pc, #352]	; (1000258c <clocks_init+0x29c>)
1000242c:	601a      	str	r2, [r3, #0]
1000242e:	2900      	cmp	r1, #0
10002430:	d005      	beq.n	1000243e <clocks_init+0x14e>
10002432:	6960      	ldr	r0, [r4, #20]
10002434:	f001 fcc4 	bl	10003dc0 <__wrap___aeabi_uidiv>
10002438:	3001      	adds	r0, #1
1000243a:	3801      	subs	r0, #1
1000243c:	d1fd      	bne.n	1000243a <clocks_init+0x14a>
1000243e:	22e0      	movs	r2, #224	; 0xe0
10002440:	4952      	ldr	r1, [pc, #328]	; (1000258c <clocks_init+0x29c>)
10002442:	680b      	ldr	r3, [r1, #0]
10002444:	401a      	ands	r2, r3
10002446:	2380      	movs	r3, #128	; 0x80
10002448:	015b      	lsls	r3, r3, #5
1000244a:	432b      	orrs	r3, r5
1000244c:	601a      	str	r2, [r3, #0]
1000244e:	2380      	movs	r3, #128	; 0x80
10002450:	2280      	movs	r2, #128	; 0x80
10002452:	019b      	lsls	r3, r3, #6
10002454:	432b      	orrs	r3, r5
10002456:	0112      	lsls	r2, r2, #4
10002458:	601a      	str	r2, [r3, #0]
1000245a:	2280      	movs	r2, #128	; 0x80
1000245c:	4b3e      	ldr	r3, [pc, #248]	; (10002558 <clocks_init+0x268>)
1000245e:	0052      	lsls	r2, r2, #1
10002460:	604a      	str	r2, [r1, #4]
10002462:	61e3      	str	r3, [r4, #28]
10002464:	4b4b      	ldr	r3, [pc, #300]	; (10002594 <clocks_init+0x2a4>)
10002466:	6859      	ldr	r1, [r3, #4]
10002468:	29ff      	cmp	r1, #255	; 0xff
1000246a:	d800      	bhi.n	1000246e <clocks_init+0x17e>
1000246c:	605a      	str	r2, [r3, #4]
1000246e:	2280      	movs	r2, #128	; 0x80
10002470:	4b49      	ldr	r3, [pc, #292]	; (10002598 <clocks_init+0x2a8>)
10002472:	6a21      	ldr	r1, [r4, #32]
10002474:	0112      	lsls	r2, r2, #4
10002476:	4d47      	ldr	r5, [pc, #284]	; (10002594 <clocks_init+0x2a4>)
10002478:	601a      	str	r2, [r3, #0]
1000247a:	2900      	cmp	r1, #0
1000247c:	d005      	beq.n	1000248a <clocks_init+0x19a>
1000247e:	6960      	ldr	r0, [r4, #20]
10002480:	f001 fc9e 	bl	10003dc0 <__wrap___aeabi_uidiv>
10002484:	3001      	adds	r0, #1
10002486:	3801      	subs	r0, #1
10002488:	d1fd      	bne.n	10002486 <clocks_init+0x196>
1000248a:	22e0      	movs	r2, #224	; 0xe0
1000248c:	4941      	ldr	r1, [pc, #260]	; (10002594 <clocks_init+0x2a4>)
1000248e:	680b      	ldr	r3, [r1, #0]
10002490:	401a      	ands	r2, r3
10002492:	2380      	movs	r3, #128	; 0x80
10002494:	015b      	lsls	r3, r3, #5
10002496:	432b      	orrs	r3, r5
10002498:	601a      	str	r2, [r3, #0]
1000249a:	2380      	movs	r3, #128	; 0x80
1000249c:	2280      	movs	r2, #128	; 0x80
1000249e:	019b      	lsls	r3, r3, #6
100024a0:	432b      	orrs	r3, r5
100024a2:	0112      	lsls	r2, r2, #4
100024a4:	601a      	str	r2, [r3, #0]
100024a6:	2380      	movs	r3, #128	; 0x80
100024a8:	2280      	movs	r2, #128	; 0x80
100024aa:	005b      	lsls	r3, r3, #1
100024ac:	604b      	str	r3, [r1, #4]
100024ae:	4b2a      	ldr	r3, [pc, #168]	; (10002558 <clocks_init+0x268>)
100024b0:	02d2      	lsls	r2, r2, #11
100024b2:	6223      	str	r3, [r4, #32]
100024b4:	4b39      	ldr	r3, [pc, #228]	; (1000259c <clocks_init+0x2ac>)
100024b6:	6859      	ldr	r1, [r3, #4]
100024b8:	4291      	cmp	r1, r2
100024ba:	d200      	bcs.n	100024be <clocks_init+0x1ce>
100024bc:	605a      	str	r2, [r3, #4]
100024be:	2280      	movs	r2, #128	; 0x80
100024c0:	4b37      	ldr	r3, [pc, #220]	; (100025a0 <clocks_init+0x2b0>)
100024c2:	6a61      	ldr	r1, [r4, #36]	; 0x24
100024c4:	0112      	lsls	r2, r2, #4
100024c6:	4d35      	ldr	r5, [pc, #212]	; (1000259c <clocks_init+0x2ac>)
100024c8:	601a      	str	r2, [r3, #0]
100024ca:	2900      	cmp	r1, #0
100024cc:	d005      	beq.n	100024da <clocks_init+0x1ea>
100024ce:	6960      	ldr	r0, [r4, #20]
100024d0:	f001 fc76 	bl	10003dc0 <__wrap___aeabi_uidiv>
100024d4:	3001      	adds	r0, #1
100024d6:	3801      	subs	r0, #1
100024d8:	d1fd      	bne.n	100024d6 <clocks_init+0x1e6>
100024da:	22e0      	movs	r2, #224	; 0xe0
100024dc:	492f      	ldr	r1, [pc, #188]	; (1000259c <clocks_init+0x2ac>)
100024de:	680b      	ldr	r3, [r1, #0]
100024e0:	401a      	ands	r2, r3
100024e2:	2380      	movs	r3, #128	; 0x80
100024e4:	015b      	lsls	r3, r3, #5
100024e6:	432b      	orrs	r3, r5
100024e8:	601a      	str	r2, [r3, #0]
100024ea:	2380      	movs	r3, #128	; 0x80
100024ec:	2280      	movs	r2, #128	; 0x80
100024ee:	019b      	lsls	r3, r3, #6
100024f0:	432b      	orrs	r3, r5
100024f2:	0112      	lsls	r2, r2, #4
100024f4:	601a      	str	r2, [r3, #0]
100024f6:	2380      	movs	r3, #128	; 0x80
100024f8:	02db      	lsls	r3, r3, #11
100024fa:	604b      	str	r3, [r1, #4]
100024fc:	4b17      	ldr	r3, [pc, #92]	; (1000255c <clocks_init+0x26c>)
100024fe:	6263      	str	r3, [r4, #36]	; 0x24
10002500:	4b28      	ldr	r3, [pc, #160]	; (100025a4 <clocks_init+0x2b4>)
10002502:	685a      	ldr	r2, [r3, #4]
10002504:	2aff      	cmp	r2, #255	; 0xff
10002506:	d802      	bhi.n	1000250e <clocks_init+0x21e>
10002508:	2280      	movs	r2, #128	; 0x80
1000250a:	0052      	lsls	r2, r2, #1
1000250c:	605a      	str	r2, [r3, #4]
1000250e:	2280      	movs	r2, #128	; 0x80
10002510:	4b25      	ldr	r3, [pc, #148]	; (100025a8 <clocks_init+0x2b8>)
10002512:	69a1      	ldr	r1, [r4, #24]
10002514:	0112      	lsls	r2, r2, #4
10002516:	4d23      	ldr	r5, [pc, #140]	; (100025a4 <clocks_init+0x2b4>)
10002518:	601a      	str	r2, [r3, #0]
1000251a:	2900      	cmp	r1, #0
1000251c:	d005      	beq.n	1000252a <clocks_init+0x23a>
1000251e:	6960      	ldr	r0, [r4, #20]
10002520:	f001 fc4e 	bl	10003dc0 <__wrap___aeabi_uidiv>
10002524:	3001      	adds	r0, #1
10002526:	3801      	subs	r0, #1
10002528:	d1fd      	bne.n	10002526 <clocks_init+0x236>
1000252a:	22e0      	movs	r2, #224	; 0xe0
1000252c:	491d      	ldr	r1, [pc, #116]	; (100025a4 <clocks_init+0x2b4>)
1000252e:	680b      	ldr	r3, [r1, #0]
10002530:	401a      	ands	r2, r3
10002532:	2380      	movs	r3, #128	; 0x80
10002534:	015b      	lsls	r3, r3, #5
10002536:	432b      	orrs	r3, r5
10002538:	601a      	str	r2, [r3, #0]
1000253a:	2380      	movs	r3, #128	; 0x80
1000253c:	2280      	movs	r2, #128	; 0x80
1000253e:	019b      	lsls	r3, r3, #6
10002540:	432b      	orrs	r3, r5
10002542:	0112      	lsls	r2, r2, #4
10002544:	601a      	str	r2, [r3, #0]
10002546:	2380      	movs	r3, #128	; 0x80
10002548:	005b      	lsls	r3, r3, #1
1000254a:	604b      	str	r3, [r1, #4]
1000254c:	4b0e      	ldr	r3, [pc, #56]	; (10002588 <clocks_init+0x298>)
1000254e:	61a3      	str	r3, [r4, #24]
10002550:	e6e4      	b.n	1000231c <clocks_init+0x2c>
10002552:	46c0      	nop			; (mov r8, r8)
10002554:	20001734 	.word	0x20001734
10002558:	02dc6c00 	.word	0x02dc6c00
1000255c:	0000b71b 	.word	0x0000b71b
10002560:	40008000 	.word	0x40008000
10002564:	4000b03c 	.word	0x4000b03c
10002568:	4000b030 	.word	0x4000b030
1000256c:	59682f00 	.word	0x59682f00
10002570:	40028000 	.word	0x40028000
10002574:	47868c00 	.word	0x47868c00
10002578:	4002c000 	.word	0x4002c000
1000257c:	40008030 	.word	0x40008030
10002580:	00b71b00 	.word	0x00b71b00
10002584:	4000803c 	.word	0x4000803c
10002588:	07735940 	.word	0x07735940
1000258c:	40008054 	.word	0x40008054
10002590:	4000b054 	.word	0x4000b054
10002594:	40008060 	.word	0x40008060
10002598:	4000b060 	.word	0x4000b060
1000259c:	4000806c 	.word	0x4000806c
100025a0:	4000b06c 	.word	0x4000b06c
100025a4:	40008048 	.word	0x40008048
100025a8:	4000b048 	.word	0x4000b048

100025ac <clock_get_hz>:
100025ac:	4b01      	ldr	r3, [pc, #4]	; (100025b4 <clock_get_hz+0x8>)
100025ae:	0080      	lsls	r0, r0, #2
100025b0:	58c0      	ldr	r0, [r0, r3]
100025b2:	4770      	bx	lr
100025b4:	20001734 	.word	0x20001734

100025b8 <pll_init>:
100025b8:	b5f0      	push	{r4, r5, r6, r7, lr}
100025ba:	46c6      	mov	lr, r8
100025bc:	0004      	movs	r4, r0
100025be:	b500      	push	{lr}
100025c0:	200c      	movs	r0, #12
100025c2:	4690      	mov	r8, r2
100025c4:	001f      	movs	r7, r3
100025c6:	000e      	movs	r6, r1
100025c8:	f001 fbfa 	bl	10003dc0 <__wrap___aeabi_uidiv>
100025cc:	0141      	lsls	r1, r0, #5
100025ce:	1a09      	subs	r1, r1, r0
100025d0:	018d      	lsls	r5, r1, #6
100025d2:	1a69      	subs	r1, r5, r1
100025d4:	00c9      	lsls	r1, r1, #3
100025d6:	1809      	adds	r1, r1, r0
100025d8:	0189      	lsls	r1, r1, #6
100025da:	4640      	mov	r0, r8
100025dc:	f001 fbf0 	bl	10003dc0 <__wrap___aeabi_uidiv>
100025e0:	9b06      	ldr	r3, [sp, #24]
100025e2:	043f      	lsls	r7, r7, #16
100025e4:	031a      	lsls	r2, r3, #12
100025e6:	6823      	ldr	r3, [r4, #0]
100025e8:	4317      	orrs	r7, r2
100025ea:	2b00      	cmp	r3, #0
100025ec:	db22      	blt.n	10002634 <pll_init+0x7c>
100025ee:	4b1a      	ldr	r3, [pc, #104]	; (10002658 <pll_init+0xa0>)
100025f0:	4d1a      	ldr	r5, [pc, #104]	; (1000265c <pll_init+0xa4>)
100025f2:	18e2      	adds	r2, r4, r3
100025f4:	4253      	negs	r3, r2
100025f6:	415a      	adcs	r2, r3
100025f8:	2380      	movs	r3, #128	; 0x80
100025fa:	015b      	lsls	r3, r3, #5
100025fc:	469c      	mov	ip, r3
100025fe:	0312      	lsls	r2, r2, #12
10002600:	4b17      	ldr	r3, [pc, #92]	; (10002660 <pll_init+0xa8>)
10002602:	4462      	add	r2, ip
10002604:	601a      	str	r2, [r3, #0]
10002606:	4b17      	ldr	r3, [pc, #92]	; (10002664 <pll_init+0xac>)
10002608:	601a      	str	r2, [r3, #0]
1000260a:	0011      	movs	r1, r2
1000260c:	68ab      	ldr	r3, [r5, #8]
1000260e:	4399      	bics	r1, r3
10002610:	d1fb      	bne.n	1000260a <pll_init+0x52>
10002612:	22c0      	movs	r2, #192	; 0xc0
10002614:	1d23      	adds	r3, r4, #4
10002616:	0192      	lsls	r2, r2, #6
10002618:	431a      	orrs	r2, r3
1000261a:	2321      	movs	r3, #33	; 0x21
1000261c:	6026      	str	r6, [r4, #0]
1000261e:	60a0      	str	r0, [r4, #8]
10002620:	6013      	str	r3, [r2, #0]
10002622:	6823      	ldr	r3, [r4, #0]
10002624:	2b00      	cmp	r3, #0
10002626:	dafc      	bge.n	10002622 <pll_init+0x6a>
10002628:	2308      	movs	r3, #8
1000262a:	60e7      	str	r7, [r4, #12]
1000262c:	6013      	str	r3, [r2, #0]
1000262e:	bc80      	pop	{r7}
10002630:	46b8      	mov	r8, r7
10002632:	bdf0      	pop	{r4, r5, r6, r7, pc}
10002634:	233f      	movs	r3, #63	; 0x3f
10002636:	6822      	ldr	r2, [r4, #0]
10002638:	4013      	ands	r3, r2
1000263a:	42b3      	cmp	r3, r6
1000263c:	d1d7      	bne.n	100025ee <pll_init+0x36>
1000263e:	68a3      	ldr	r3, [r4, #8]
10002640:	051b      	lsls	r3, r3, #20
10002642:	0d1b      	lsrs	r3, r3, #20
10002644:	4283      	cmp	r3, r0
10002646:	d1d2      	bne.n	100025ee <pll_init+0x36>
10002648:	22ee      	movs	r2, #238	; 0xee
1000264a:	68e3      	ldr	r3, [r4, #12]
1000264c:	02d2      	lsls	r2, r2, #11
1000264e:	4013      	ands	r3, r2
10002650:	42bb      	cmp	r3, r7
10002652:	d1cc      	bne.n	100025ee <pll_init+0x36>
10002654:	e7eb      	b.n	1000262e <pll_init+0x76>
10002656:	46c0      	nop			; (mov r8, r8)
10002658:	bffd4000 	.word	0xbffd4000
1000265c:	4000c000 	.word	0x4000c000
10002660:	4000e000 	.word	0x4000e000
10002664:	4000f000 	.word	0x4000f000

10002668 <watchdog_start_tick>:
10002668:	2380      	movs	r3, #128	; 0x80
1000266a:	4a02      	ldr	r2, [pc, #8]	; (10002674 <watchdog_start_tick+0xc>)
1000266c:	009b      	lsls	r3, r3, #2
1000266e:	4303      	orrs	r3, r0
10002670:	62d3      	str	r3, [r2, #44]	; 0x2c
10002672:	4770      	bx	lr
10002674:	40058000 	.word	0x40058000

10002678 <watchdog_reboot>:
10002678:	b510      	push	{r4, lr}
1000267a:	0014      	movs	r4, r2
1000267c:	2280      	movs	r2, #128	; 0x80
1000267e:	4b1b      	ldr	r3, [pc, #108]	; (100026ec <watchdog_reboot+0x74>)
10002680:	05d2      	lsls	r2, r2, #23
10002682:	601a      	str	r2, [r3, #0]
10002684:	2800      	cmp	r0, #0
10002686:	d01a      	beq.n	100026be <watchdog_reboot+0x46>
10002688:	2301      	movs	r3, #1
1000268a:	4a19      	ldr	r2, [pc, #100]	; (100026f0 <watchdog_reboot+0x78>)
1000268c:	4318      	orrs	r0, r3
1000268e:	4b19      	ldr	r3, [pc, #100]	; (100026f4 <watchdog_reboot+0x7c>)
10002690:	61da      	str	r2, [r3, #28]
10002692:	4a19      	ldr	r2, [pc, #100]	; (100026f8 <watchdog_reboot+0x80>)
10002694:	4042      	eors	r2, r0
10002696:	621a      	str	r2, [r3, #32]
10002698:	6259      	str	r1, [r3, #36]	; 0x24
1000269a:	6298      	str	r0, [r3, #40]	; 0x28
1000269c:	2280      	movs	r2, #128	; 0x80
1000269e:	4b13      	ldr	r3, [pc, #76]	; (100026ec <watchdog_reboot+0x74>)
100026a0:	05d2      	lsls	r2, r2, #23
100026a2:	601a      	str	r2, [r3, #0]
100026a4:	4915      	ldr	r1, [pc, #84]	; (100026fc <watchdog_reboot+0x84>)
100026a6:	4a16      	ldr	r2, [pc, #88]	; (10002700 <watchdog_reboot+0x88>)
100026a8:	6011      	str	r1, [r2, #0]
100026aa:	22e0      	movs	r2, #224	; 0xe0
100026ac:	04d2      	lsls	r2, r2, #19
100026ae:	601a      	str	r2, [r3, #0]
100026b0:	2c00      	cmp	r4, #0
100026b2:	d107      	bne.n	100026c4 <watchdog_reboot+0x4c>
100026b4:	2280      	movs	r2, #128	; 0x80
100026b6:	4b13      	ldr	r3, [pc, #76]	; (10002704 <watchdog_reboot+0x8c>)
100026b8:	0612      	lsls	r2, r2, #24
100026ba:	601a      	str	r2, [r3, #0]
100026bc:	bd10      	pop	{r4, pc}
100026be:	4b0d      	ldr	r3, [pc, #52]	; (100026f4 <watchdog_reboot+0x7c>)
100026c0:	61d8      	str	r0, [r3, #28]
100026c2:	e7eb      	b.n	1000269c <watchdog_reboot+0x24>
100026c4:	0163      	lsls	r3, r4, #5
100026c6:	1b1b      	subs	r3, r3, r4
100026c8:	009a      	lsls	r2, r3, #2
100026ca:	2380      	movs	r3, #128	; 0x80
100026cc:	1912      	adds	r2, r2, r4
100026ce:	0112      	lsls	r2, r2, #4
100026d0:	045b      	lsls	r3, r3, #17
100026d2:	429a      	cmp	r2, r3
100026d4:	d300      	bcc.n	100026d8 <watchdog_reboot+0x60>
100026d6:	4a0c      	ldr	r2, [pc, #48]	; (10002708 <watchdog_reboot+0x90>)
100026d8:	4b0c      	ldr	r3, [pc, #48]	; (1000270c <watchdog_reboot+0x94>)
100026da:	601a      	str	r2, [r3, #0]
100026dc:	4b05      	ldr	r3, [pc, #20]	; (100026f4 <watchdog_reboot+0x7c>)
100026de:	605a      	str	r2, [r3, #4]
100026e0:	2280      	movs	r2, #128	; 0x80
100026e2:	4b08      	ldr	r3, [pc, #32]	; (10002704 <watchdog_reboot+0x8c>)
100026e4:	05d2      	lsls	r2, r2, #23
100026e6:	601a      	str	r2, [r3, #0]
100026e8:	e7e8      	b.n	100026bc <watchdog_reboot+0x44>
100026ea:	46c0      	nop			; (mov r8, r8)
100026ec:	4005b000 	.word	0x4005b000
100026f0:	b007c0d3 	.word	0xb007c0d3
100026f4:	40058000 	.word	0x40058000
100026f8:	4ff83f2d 	.word	0x4ff83f2d
100026fc:	0001fffc 	.word	0x0001fffc
10002700:	40012008 	.word	0x40012008
10002704:	4005a000 	.word	0x4005a000
10002708:	00ffffff 	.word	0x00ffffff
1000270c:	20001bec 	.word	0x20001bec

10002710 <xosc_init>:
10002710:	23aa      	movs	r3, #170	; 0xaa
10002712:	4a06      	ldr	r2, [pc, #24]	; (1000272c <xosc_init+0x1c>)
10002714:	011b      	lsls	r3, r3, #4
10002716:	6013      	str	r3, [r2, #0]
10002718:	232f      	movs	r3, #47	; 0x2f
1000271a:	4905      	ldr	r1, [pc, #20]	; (10002730 <xosc_init+0x20>)
1000271c:	60d3      	str	r3, [r2, #12]
1000271e:	4b05      	ldr	r3, [pc, #20]	; (10002734 <xosc_init+0x24>)
10002720:	6019      	str	r1, [r3, #0]
10002722:	6853      	ldr	r3, [r2, #4]
10002724:	2b00      	cmp	r3, #0
10002726:	dafc      	bge.n	10002722 <xosc_init+0x12>
10002728:	4770      	bx	lr
1000272a:	46c0      	nop			; (mov r8, r8)
1000272c:	40024000 	.word	0x40024000
10002730:	00fab000 	.word	0x00fab000
10002734:	40026000 	.word	0x40026000

10002738 <_out_null>:
10002738:	4770      	bx	lr
1000273a:	46c0      	nop			; (mov r8, r8)

1000273c <_out_rev>:
1000273c:	b5f8      	push	{r3, r4, r5, r6, r7, lr}
1000273e:	4657      	mov	r7, sl
10002740:	464e      	mov	r6, r9
10002742:	4645      	mov	r5, r8
10002744:	46de      	mov	lr, fp
10002746:	b5e0      	push	{r5, r6, r7, lr}
10002748:	4699      	mov	r9, r3
1000274a:	9b0a      	ldr	r3, [sp, #40]	; 0x28
1000274c:	0007      	movs	r7, r0
1000274e:	469a      	mov	sl, r3
10002750:	9b0d      	ldr	r3, [sp, #52]	; 0x34
10002752:	4688      	mov	r8, r1
10002754:	4693      	mov	fp, r2
10002756:	0015      	movs	r5, r2
10002758:	9e0b      	ldr	r6, [sp, #44]	; 0x2c
1000275a:	079b      	lsls	r3, r3, #30
1000275c:	d110      	bne.n	10002780 <_out_rev+0x44>
1000275e:	9b0c      	ldr	r3, [sp, #48]	; 0x30
10002760:	429e      	cmp	r6, r3
10002762:	d20d      	bcs.n	10002780 <_out_rev+0x44>
10002764:	1b9d      	subs	r5, r3, r6
10002766:	0014      	movs	r4, r2
10002768:	000e      	movs	r6, r1
1000276a:	445d      	add	r5, fp
1000276c:	0022      	movs	r2, r4
1000276e:	464b      	mov	r3, r9
10002770:	3401      	adds	r4, #1
10002772:	0031      	movs	r1, r6
10002774:	2020      	movs	r0, #32
10002776:	47b8      	blx	r7
10002778:	42a5      	cmp	r5, r4
1000277a:	d1f7      	bne.n	1000276c <_out_rev+0x30>
1000277c:	46b0      	mov	r8, r6
1000277e:	9e0b      	ldr	r6, [sp, #44]	; 0x2c
10002780:	2e00      	cmp	r6, #0
10002782:	d027      	beq.n	100027d4 <_out_rev+0x98>
10002784:	4644      	mov	r4, r8
10002786:	1975      	adds	r5, r6, r5
10002788:	4653      	mov	r3, sl
1000278a:	1baa      	subs	r2, r5, r6
1000278c:	3e01      	subs	r6, #1
1000278e:	5d98      	ldrb	r0, [r3, r6]
10002790:	0021      	movs	r1, r4
10002792:	464b      	mov	r3, r9
10002794:	47b8      	blx	r7
10002796:	2e00      	cmp	r6, #0
10002798:	d1f6      	bne.n	10002788 <_out_rev+0x4c>
1000279a:	0023      	movs	r3, r4
1000279c:	002c      	movs	r4, r5
1000279e:	4698      	mov	r8, r3
100027a0:	9b0d      	ldr	r3, [sp, #52]	; 0x34
100027a2:	079b      	lsls	r3, r3, #30
100027a4:	d50f      	bpl.n	100027c6 <_out_rev+0x8a>
100027a6:	465b      	mov	r3, fp
100027a8:	1ae5      	subs	r5, r4, r3
100027aa:	9b0c      	ldr	r3, [sp, #48]	; 0x30
100027ac:	42ab      	cmp	r3, r5
100027ae:	d90a      	bls.n	100027c6 <_out_rev+0x8a>
100027b0:	4646      	mov	r6, r8
100027b2:	4698      	mov	r8, r3
100027b4:	0022      	movs	r2, r4
100027b6:	464b      	mov	r3, r9
100027b8:	0031      	movs	r1, r6
100027ba:	2020      	movs	r0, #32
100027bc:	3501      	adds	r5, #1
100027be:	47b8      	blx	r7
100027c0:	3401      	adds	r4, #1
100027c2:	45a8      	cmp	r8, r5
100027c4:	d8f6      	bhi.n	100027b4 <_out_rev+0x78>
100027c6:	0020      	movs	r0, r4
100027c8:	bcf0      	pop	{r4, r5, r6, r7}
100027ca:	46bb      	mov	fp, r7
100027cc:	46b2      	mov	sl, r6
100027ce:	46a9      	mov	r9, r5
100027d0:	46a0      	mov	r8, r4
100027d2:	bdf8      	pop	{r3, r4, r5, r6, r7, pc}
100027d4:	002c      	movs	r4, r5
100027d6:	e7e3      	b.n	100027a0 <_out_rev+0x64>

100027d8 <_ntoa_format>:
100027d8:	b5f0      	push	{r4, r5, r6, r7, lr}
100027da:	464f      	mov	r7, r9
100027dc:	4646      	mov	r6, r8
100027de:	46d6      	mov	lr, sl
100027e0:	b5c0      	push	{r6, r7, lr}
100027e2:	b084      	sub	sp, #16
100027e4:	4698      	mov	r8, r3
100027e6:	ab0e      	add	r3, sp, #56	; 0x38
100027e8:	781b      	ldrb	r3, [r3, #0]
100027ea:	9f12      	ldr	r7, [sp, #72]	; 0x48
100027ec:	4699      	mov	r9, r3
100027ee:	4694      	mov	ip, r2
100027f0:	9c0d      	ldr	r4, [sp, #52]	; 0x34
100027f2:	9b10      	ldr	r3, [sp, #64]	; 0x40
100027f4:	9e11      	ldr	r6, [sp, #68]	; 0x44
100027f6:	07ba      	lsls	r2, r7, #30
100027f8:	d425      	bmi.n	10002846 <_ntoa_format+0x6e>
100027fa:	2e00      	cmp	r6, #0
100027fc:	d14b      	bne.n	10002896 <_ntoa_format+0xbe>
100027fe:	429c      	cmp	r4, r3
10002800:	d300      	bcc.n	10002804 <_ntoa_format+0x2c>
10002802:	e0bf      	b.n	10002984 <_ntoa_format+0x1ac>
10002804:	2201      	movs	r2, #1
10002806:	403a      	ands	r2, r7
10002808:	4692      	mov	sl, r2
1000280a:	2c1f      	cmp	r4, #31
1000280c:	d900      	bls.n	10002810 <_ntoa_format+0x38>
1000280e:	e0b8      	b.n	10002982 <_ntoa_format+0x1aa>
10002810:	9a0c      	ldr	r2, [sp, #48]	; 0x30
10002812:	1e55      	subs	r5, r2, #1
10002814:	2230      	movs	r2, #48	; 0x30
10002816:	e001      	b.n	1000281c <_ntoa_format+0x44>
10002818:	2c20      	cmp	r4, #32
1000281a:	d003      	beq.n	10002824 <_ntoa_format+0x4c>
1000281c:	3401      	adds	r4, #1
1000281e:	552a      	strb	r2, [r5, r4]
10002820:	42a3      	cmp	r3, r4
10002822:	d8f9      	bhi.n	10002818 <_ntoa_format+0x40>
10002824:	4652      	mov	r2, sl
10002826:	2a00      	cmp	r2, #0
10002828:	d00d      	beq.n	10002846 <_ntoa_format+0x6e>
1000282a:	42a6      	cmp	r6, r4
1000282c:	d90b      	bls.n	10002846 <_ntoa_format+0x6e>
1000282e:	2c20      	cmp	r4, #32
10002830:	d044      	beq.n	100028bc <_ntoa_format+0xe4>
10002832:	9a0c      	ldr	r2, [sp, #48]	; 0x30
10002834:	1e55      	subs	r5, r2, #1
10002836:	2230      	movs	r2, #48	; 0x30
10002838:	e001      	b.n	1000283e <_ntoa_format+0x66>
1000283a:	2c20      	cmp	r4, #32
1000283c:	d03e      	beq.n	100028bc <_ntoa_format+0xe4>
1000283e:	3401      	adds	r4, #1
10002840:	552a      	strb	r2, [r5, r4]
10002842:	42b4      	cmp	r4, r6
10002844:	d1f9      	bne.n	1000283a <_ntoa_format+0x62>
10002846:	06fa      	lsls	r2, r7, #27
10002848:	d54d      	bpl.n	100028e6 <_ntoa_format+0x10e>
1000284a:	057a      	lsls	r2, r7, #21
1000284c:	d43f      	bmi.n	100028ce <_ntoa_format+0xf6>
1000284e:	2c00      	cmp	r4, #0
10002850:	d139      	bne.n	100028c6 <_ntoa_format+0xee>
10002852:	9b0f      	ldr	r3, [sp, #60]	; 0x3c
10002854:	2b10      	cmp	r3, #16
10002856:	d100      	bne.n	1000285a <_ntoa_format+0x82>
10002858:	e079      	b.n	1000294e <_ntoa_format+0x176>
1000285a:	9b0f      	ldr	r3, [sp, #60]	; 0x3c
1000285c:	2b02      	cmp	r3, #2
1000285e:	d100      	bne.n	10002862 <_ntoa_format+0x8a>
10002860:	e08a      	b.n	10002978 <_ntoa_format+0x1a0>
10002862:	2330      	movs	r3, #48	; 0x30
10002864:	9a0c      	ldr	r2, [sp, #48]	; 0x30
10002866:	2401      	movs	r4, #1
10002868:	7013      	strb	r3, [r2, #0]
1000286a:	464b      	mov	r3, r9
1000286c:	2b00      	cmp	r3, #0
1000286e:	d03f      	beq.n	100028f0 <_ntoa_format+0x118>
10002870:	232d      	movs	r3, #45	; 0x2d
10002872:	9a0c      	ldr	r2, [sp, #48]	; 0x30
10002874:	5513      	strb	r3, [r2, r4]
10002876:	3401      	adds	r4, #1
10002878:	9b0c      	ldr	r3, [sp, #48]	; 0x30
1000287a:	4662      	mov	r2, ip
1000287c:	9300      	str	r3, [sp, #0]
1000287e:	9703      	str	r7, [sp, #12]
10002880:	4643      	mov	r3, r8
10002882:	9602      	str	r6, [sp, #8]
10002884:	9401      	str	r4, [sp, #4]
10002886:	f7ff ff59 	bl	1000273c <_out_rev>
1000288a:	b004      	add	sp, #16
1000288c:	bce0      	pop	{r5, r6, r7}
1000288e:	46ba      	mov	sl, r7
10002890:	46b1      	mov	r9, r6
10002892:	46a8      	mov	r8, r5
10002894:	bdf0      	pop	{r4, r5, r6, r7, pc}
10002896:	2201      	movs	r2, #1
10002898:	0015      	movs	r5, r2
1000289a:	403d      	ands	r5, r7
1000289c:	46aa      	mov	sl, r5
1000289e:	423a      	tst	r2, r7
100028a0:	d02f      	beq.n	10002902 <_ntoa_format+0x12a>
100028a2:	464a      	mov	r2, r9
100028a4:	2a00      	cmp	r2, #0
100028a6:	d102      	bne.n	100028ae <_ntoa_format+0xd6>
100028a8:	320c      	adds	r2, #12
100028aa:	423a      	tst	r2, r7
100028ac:	d000      	beq.n	100028b0 <_ntoa_format+0xd8>
100028ae:	3e01      	subs	r6, #1
100028b0:	429c      	cmp	r4, r3
100028b2:	d2ba      	bcs.n	1000282a <_ntoa_format+0x52>
100028b4:	2c1f      	cmp	r4, #31
100028b6:	d9ab      	bls.n	10002810 <_ntoa_format+0x38>
100028b8:	2e20      	cmp	r6, #32
100028ba:	d927      	bls.n	1000290c <_ntoa_format+0x134>
100028bc:	2420      	movs	r4, #32
100028be:	06fa      	lsls	r2, r7, #27
100028c0:	d5da      	bpl.n	10002878 <_ntoa_format+0xa0>
100028c2:	057a      	lsls	r2, r7, #21
100028c4:	d403      	bmi.n	100028ce <_ntoa_format+0xf6>
100028c6:	42a3      	cmp	r3, r4
100028c8:	d02d      	beq.n	10002926 <_ntoa_format+0x14e>
100028ca:	42a6      	cmp	r6, r4
100028cc:	d02b      	beq.n	10002926 <_ntoa_format+0x14e>
100028ce:	9b0f      	ldr	r3, [sp, #60]	; 0x3c
100028d0:	2b10      	cmp	r3, #16
100028d2:	d032      	beq.n	1000293a <_ntoa_format+0x162>
100028d4:	2b02      	cmp	r3, #2
100028d6:	d020      	beq.n	1000291a <_ntoa_format+0x142>
100028d8:	2c20      	cmp	r4, #32
100028da:	d0cd      	beq.n	10002878 <_ntoa_format+0xa0>
100028dc:	2230      	movs	r2, #48	; 0x30
100028de:	9b0c      	ldr	r3, [sp, #48]	; 0x30
100028e0:	191b      	adds	r3, r3, r4
100028e2:	701a      	strb	r2, [r3, #0]
100028e4:	3401      	adds	r4, #1
100028e6:	2c20      	cmp	r4, #32
100028e8:	d0c6      	beq.n	10002878 <_ntoa_format+0xa0>
100028ea:	464b      	mov	r3, r9
100028ec:	2b00      	cmp	r3, #0
100028ee:	d1bf      	bne.n	10002870 <_ntoa_format+0x98>
100028f0:	077b      	lsls	r3, r7, #29
100028f2:	d40d      	bmi.n	10002910 <_ntoa_format+0x138>
100028f4:	073b      	lsls	r3, r7, #28
100028f6:	d5bf      	bpl.n	10002878 <_ntoa_format+0xa0>
100028f8:	2320      	movs	r3, #32
100028fa:	9a0c      	ldr	r2, [sp, #48]	; 0x30
100028fc:	5513      	strb	r3, [r2, r4]
100028fe:	3401      	adds	r4, #1
10002900:	e7ba      	b.n	10002878 <_ntoa_format+0xa0>
10002902:	429c      	cmp	r4, r3
10002904:	d29f      	bcs.n	10002846 <_ntoa_format+0x6e>
10002906:	2c1f      	cmp	r4, #31
10002908:	d800      	bhi.n	1000290c <_ntoa_format+0x134>
1000290a:	e781      	b.n	10002810 <_ntoa_format+0x38>
1000290c:	2420      	movs	r4, #32
1000290e:	e79a      	b.n	10002846 <_ntoa_format+0x6e>
10002910:	232b      	movs	r3, #43	; 0x2b
10002912:	9a0c      	ldr	r2, [sp, #48]	; 0x30
10002914:	5513      	strb	r3, [r2, r4]
10002916:	3401      	adds	r4, #1
10002918:	e7ae      	b.n	10002878 <_ntoa_format+0xa0>
1000291a:	2c20      	cmp	r4, #32
1000291c:	d0ac      	beq.n	10002878 <_ntoa_format+0xa0>
1000291e:	9b0c      	ldr	r3, [sp, #48]	; 0x30
10002920:	191b      	adds	r3, r3, r4
10002922:	3401      	adds	r4, #1
10002924:	e03a      	b.n	1000299c <_ntoa_format+0x1c4>
10002926:	1e63      	subs	r3, r4, #1
10002928:	2c01      	cmp	r4, #1
1000292a:	d092      	beq.n	10002852 <_ntoa_format+0x7a>
1000292c:	9a0f      	ldr	r2, [sp, #60]	; 0x3c
1000292e:	2a10      	cmp	r2, #16
10002930:	d02a      	beq.n	10002988 <_ntoa_format+0x1b0>
10002932:	2a02      	cmp	r2, #2
10002934:	d02f      	beq.n	10002996 <_ntoa_format+0x1be>
10002936:	001c      	movs	r4, r3
10002938:	e7d0      	b.n	100028dc <_ntoa_format+0x104>
1000293a:	06bb      	lsls	r3, r7, #26
1000293c:	d40e      	bmi.n	1000295c <_ntoa_format+0x184>
1000293e:	2c20      	cmp	r4, #32
10002940:	d09a      	beq.n	10002878 <_ntoa_format+0xa0>
10002942:	9b0c      	ldr	r3, [sp, #48]	; 0x30
10002944:	191a      	adds	r2, r3, r4
10002946:	3401      	adds	r4, #1
10002948:	2378      	movs	r3, #120	; 0x78
1000294a:	7013      	strb	r3, [r2, #0]
1000294c:	e7c4      	b.n	100028d8 <_ntoa_format+0x100>
1000294e:	06bb      	lsls	r3, r7, #26
10002950:	d40d      	bmi.n	1000296e <_ntoa_format+0x196>
10002952:	2378      	movs	r3, #120	; 0x78
10002954:	9a0c      	ldr	r2, [sp, #48]	; 0x30
10002956:	2401      	movs	r4, #1
10002958:	7013      	strb	r3, [r2, #0]
1000295a:	e7bf      	b.n	100028dc <_ntoa_format+0x104>
1000295c:	2c20      	cmp	r4, #32
1000295e:	d100      	bne.n	10002962 <_ntoa_format+0x18a>
10002960:	e78a      	b.n	10002878 <_ntoa_format+0xa0>
10002962:	2258      	movs	r2, #88	; 0x58
10002964:	9b0c      	ldr	r3, [sp, #48]	; 0x30
10002966:	191b      	adds	r3, r3, r4
10002968:	701a      	strb	r2, [r3, #0]
1000296a:	3401      	adds	r4, #1
1000296c:	e7b4      	b.n	100028d8 <_ntoa_format+0x100>
1000296e:	2358      	movs	r3, #88	; 0x58
10002970:	9a0c      	ldr	r2, [sp, #48]	; 0x30
10002972:	2401      	movs	r4, #1
10002974:	7013      	strb	r3, [r2, #0]
10002976:	e7b1      	b.n	100028dc <_ntoa_format+0x104>
10002978:	9a0c      	ldr	r2, [sp, #48]	; 0x30
1000297a:	3360      	adds	r3, #96	; 0x60
1000297c:	2401      	movs	r4, #1
1000297e:	7013      	strb	r3, [r2, #0]
10002980:	e7ac      	b.n	100028dc <_ntoa_format+0x104>
10002982:	2420      	movs	r4, #32
10002984:	2600      	movs	r6, #0
10002986:	e75e      	b.n	10002846 <_ntoa_format+0x6e>
10002988:	3c02      	subs	r4, #2
1000298a:	06ba      	lsls	r2, r7, #26
1000298c:	d4e9      	bmi.n	10002962 <_ntoa_format+0x18a>
1000298e:	9a0c      	ldr	r2, [sp, #48]	; 0x30
10002990:	1912      	adds	r2, r2, r4
10002992:	001c      	movs	r4, r3
10002994:	e7d8      	b.n	10002948 <_ntoa_format+0x170>
10002996:	9a0c      	ldr	r2, [sp, #48]	; 0x30
10002998:	4692      	mov	sl, r2
1000299a:	4453      	add	r3, sl
1000299c:	2262      	movs	r2, #98	; 0x62
1000299e:	701a      	strb	r2, [r3, #0]
100029a0:	e79a      	b.n	100028d8 <_ntoa_format+0x100>
100029a2:	46c0      	nop			; (mov r8, r8)

100029a4 <_out_char>:
100029a4:	b510      	push	{r4, lr}
100029a6:	2800      	cmp	r0, #0
100029a8:	d100      	bne.n	100029ac <_out_char+0x8>
100029aa:	bd10      	pop	{r4, pc}
100029ac:	f002 fab8 	bl	10004f20 <__wrap_putchar>
100029b0:	e7fb      	b.n	100029aa <_out_char+0x6>
100029b2:	46c0      	nop			; (mov r8, r8)

100029b4 <_out_fct>:
100029b4:	000b      	movs	r3, r1
100029b6:	b510      	push	{r4, lr}
100029b8:	2800      	cmp	r0, #0
100029ba:	d002      	beq.n	100029c2 <_out_fct+0xe>
100029bc:	6849      	ldr	r1, [r1, #4]
100029be:	681b      	ldr	r3, [r3, #0]
100029c0:	4798      	blx	r3
100029c2:	bd10      	pop	{r4, pc}

100029c4 <_etoa>:
100029c4:	b5f0      	push	{r4, r5, r6, r7, lr}
100029c6:	46de      	mov	lr, fp
100029c8:	4657      	mov	r7, sl
100029ca:	464e      	mov	r6, r9
100029cc:	4645      	mov	r5, r8
100029ce:	b5e0      	push	{r5, r6, r7, lr}
100029d0:	b09b      	sub	sp, #108	; 0x6c
100029d2:	469b      	mov	fp, r3
100029d4:	9b24      	ldr	r3, [sp, #144]	; 0x90
100029d6:	4689      	mov	r9, r1
100029d8:	4698      	mov	r8, r3
100029da:	9b25      	ldr	r3, [sp, #148]	; 0x94
100029dc:	900b      	str	r0, [sp, #44]	; 0x2c
100029de:	920c      	str	r2, [sp, #48]	; 0x30
100029e0:	4640      	mov	r0, r8
100029e2:	4642      	mov	r2, r8
100029e4:	0019      	movs	r1, r3
100029e6:	469a      	mov	sl, r3
100029e8:	f001 fcbb 	bl	10004362 <__wrap___aeabi_dcmpun>
100029ec:	2800      	cmp	r0, #0
100029ee:	d000      	beq.n	100029f2 <_etoa+0x2e>
100029f0:	e0d8      	b.n	10002ba4 <_etoa+0x1e0>
100029f2:	2201      	movs	r2, #1
100029f4:	4640      	mov	r0, r8
100029f6:	4651      	mov	r1, sl
100029f8:	4b77      	ldr	r3, [pc, #476]	; (10002bd8 <_etoa+0x214>)
100029fa:	4252      	negs	r2, r2
100029fc:	f001 fcac 	bl	10004358 <__wrap___aeabi_dcmpgt>
10002a00:	2800      	cmp	r0, #0
10002a02:	d000      	beq.n	10002a06 <_etoa+0x42>
10002a04:	e0ce      	b.n	10002ba4 <_etoa+0x1e0>
10002a06:	2201      	movs	r2, #1
10002a08:	4640      	mov	r0, r8
10002a0a:	4651      	mov	r1, sl
10002a0c:	4b73      	ldr	r3, [pc, #460]	; (10002bdc <_etoa+0x218>)
10002a0e:	4252      	negs	r2, r2
10002a10:	f001 fc8c 	bl	1000432c <__wrap___aeabi_dcmplt>
10002a14:	2800      	cmp	r0, #0
10002a16:	d000      	beq.n	10002a1a <_etoa+0x56>
10002a18:	e0c4      	b.n	10002ba4 <_etoa+0x1e0>
10002a1a:	2200      	movs	r2, #0
10002a1c:	2300      	movs	r3, #0
10002a1e:	4640      	mov	r0, r8
10002a20:	4651      	mov	r1, sl
10002a22:	f001 fc83 	bl	1000432c <__wrap___aeabi_dcmplt>
10002a26:	2800      	cmp	r0, #0
10002a28:	d000      	beq.n	10002a2c <_etoa+0x68>
10002a2a:	e1b9      	b.n	10002da0 <_etoa+0x3dc>
10002a2c:	4642      	mov	r2, r8
10002a2e:	4653      	mov	r3, sl
10002a30:	920a      	str	r2, [sp, #40]	; 0x28
10002a32:	9309      	str	r3, [sp, #36]	; 0x24
10002a34:	2380      	movs	r3, #128	; 0x80
10002a36:	9a28      	ldr	r2, [sp, #160]	; 0xa0
10002a38:	00db      	lsls	r3, r3, #3
10002a3a:	401a      	ands	r2, r3
10002a3c:	920e      	str	r2, [sp, #56]	; 0x38
10002a3e:	9a28      	ldr	r2, [sp, #160]	; 0xa0
10002a40:	421a      	tst	r2, r3
10002a42:	d101      	bne.n	10002a48 <_etoa+0x84>
10002a44:	2306      	movs	r3, #6
10002a46:	9326      	str	r3, [sp, #152]	; 0x98
10002a48:	9a0a      	ldr	r2, [sp, #40]	; 0x28
10002a4a:	9b09      	ldr	r3, [sp, #36]	; 0x24
10002a4c:	0016      	movs	r6, r2
10002a4e:	4313      	orrs	r3, r2
10002a50:	d000      	beq.n	10002a54 <_etoa+0x90>
10002a52:	e0c7      	b.n	10002be4 <_etoa+0x220>
10002a54:	9b28      	ldr	r3, [sp, #160]	; 0xa0
10002a56:	2500      	movs	r5, #0
10002a58:	2600      	movs	r6, #0
10002a5a:	051b      	lsls	r3, r3, #20
10002a5c:	d400      	bmi.n	10002a60 <_etoa+0x9c>
10002a5e:	e19b      	b.n	10002d98 <_etoa+0x3d4>
10002a60:	2300      	movs	r3, #0
10002a62:	930d      	str	r3, [sp, #52]	; 0x34
10002a64:	9a26      	ldr	r2, [sp, #152]	; 0x98
10002a66:	9b0d      	ldr	r3, [sp, #52]	; 0x34
10002a68:	429a      	cmp	r2, r3
10002a6a:	dc00      	bgt.n	10002a6e <_etoa+0xaa>
10002a6c:	e19f      	b.n	10002dae <_etoa+0x3ea>
10002a6e:	1ad0      	subs	r0, r2, r3
10002a70:	1e43      	subs	r3, r0, #1
10002a72:	9326      	str	r3, [sp, #152]	; 0x98
10002a74:	2380      	movs	r3, #128	; 0x80
10002a76:	9a28      	ldr	r2, [sp, #160]	; 0xa0
10002a78:	00db      	lsls	r3, r3, #3
10002a7a:	431a      	orrs	r2, r3
10002a7c:	2300      	movs	r3, #0
10002a7e:	2700      	movs	r7, #0
10002a80:	9228      	str	r2, [sp, #160]	; 0xa0
10002a82:	930d      	str	r3, [sp, #52]	; 0x34
10002a84:	9b27      	ldr	r3, [sp, #156]	; 0x9c
10002a86:	2400      	movs	r4, #0
10002a88:	42bb      	cmp	r3, r7
10002a8a:	d900      	bls.n	10002a8e <_etoa+0xca>
10002a8c:	1bdc      	subs	r4, r3, r7
10002a8e:	2302      	movs	r3, #2
10002a90:	9a28      	ldr	r2, [sp, #160]	; 0xa0
10002a92:	401a      	ands	r2, r3
10002a94:	920e      	str	r2, [sp, #56]	; 0x38
10002a96:	9a28      	ldr	r2, [sp, #160]	; 0xa0
10002a98:	4213      	tst	r3, r2
10002a9a:	d003      	beq.n	10002aa4 <_etoa+0xe0>
10002a9c:	427b      	negs	r3, r7
10002a9e:	417b      	adcs	r3, r7
10002aa0:	425b      	negs	r3, r3
10002aa2:	401c      	ands	r4, r3
10002aa4:	9b0d      	ldr	r3, [sp, #52]	; 0x34
10002aa6:	2b00      	cmp	r3, #0
10002aa8:	d007      	beq.n	10002aba <_etoa+0xf6>
10002aaa:	980a      	ldr	r0, [sp, #40]	; 0x28
10002aac:	9909      	ldr	r1, [sp, #36]	; 0x24
10002aae:	002a      	movs	r2, r5
10002ab0:	0033      	movs	r3, r6
10002ab2:	f001 fbda 	bl	1000426a <__wrap___aeabi_ddiv>
10002ab6:	900a      	str	r0, [sp, #40]	; 0x28
10002ab8:	9109      	str	r1, [sp, #36]	; 0x24
10002aba:	2200      	movs	r2, #0
10002abc:	2300      	movs	r3, #0
10002abe:	4640      	mov	r0, r8
10002ac0:	4651      	mov	r1, sl
10002ac2:	f001 fc33 	bl	1000432c <__wrap___aeabi_dcmplt>
10002ac6:	2800      	cmp	r0, #0
10002ac8:	d005      	beq.n	10002ad6 <_etoa+0x112>
10002aca:	2080      	movs	r0, #128	; 0x80
10002acc:	0600      	lsls	r0, r0, #24
10002ace:	4684      	mov	ip, r0
10002ad0:	9909      	ldr	r1, [sp, #36]	; 0x24
10002ad2:	4461      	add	r1, ip
10002ad4:	9109      	str	r1, [sp, #36]	; 0x24
10002ad6:	9a28      	ldr	r2, [sp, #160]	; 0xa0
10002ad8:	4b41      	ldr	r3, [pc, #260]	; (10002be0 <_etoa+0x21c>)
10002ada:	9d0b      	ldr	r5, [sp, #44]	; 0x2c
10002adc:	4013      	ands	r3, r2
10002ade:	9304      	str	r3, [sp, #16]
10002ae0:	9b26      	ldr	r3, [sp, #152]	; 0x98
10002ae2:	9a0a      	ldr	r2, [sp, #40]	; 0x28
10002ae4:	9302      	str	r3, [sp, #8]
10002ae6:	9b09      	ldr	r3, [sp, #36]	; 0x24
10002ae8:	9403      	str	r4, [sp, #12]
10002aea:	9200      	str	r2, [sp, #0]
10002aec:	9301      	str	r3, [sp, #4]
10002aee:	4649      	mov	r1, r9
10002af0:	465b      	mov	r3, fp
10002af2:	0028      	movs	r0, r5
10002af4:	9a0c      	ldr	r2, [sp, #48]	; 0x30
10002af6:	f000 f98b 	bl	10002e10 <_ftoa>
10002afa:	0004      	movs	r4, r0
10002afc:	2f00      	cmp	r7, #0
10002afe:	d062      	beq.n	10002bc6 <_etoa+0x202>
10002b00:	9b28      	ldr	r3, [sp, #160]	; 0xa0
10002b02:	0022      	movs	r2, r4
10002b04:	0698      	lsls	r0, r3, #26
10002b06:	231f      	movs	r3, #31
10002b08:	17c0      	asrs	r0, r0, #31
10002b0a:	4398      	bics	r0, r3
10002b0c:	1c63      	adds	r3, r4, #1
10002b0e:	4698      	mov	r8, r3
10002b10:	4649      	mov	r1, r9
10002b12:	465b      	mov	r3, fp
10002b14:	3065      	adds	r0, #101	; 0x65
10002b16:	47a8      	blx	r5
10002b18:	9b0d      	ldr	r3, [sp, #52]	; 0x34
10002b1a:	2500      	movs	r5, #0
10002b1c:	17da      	asrs	r2, r3, #31
10002b1e:	189c      	adds	r4, r3, r2
10002b20:	0fdb      	lsrs	r3, r3, #31
10002b22:	469a      	mov	sl, r3
10002b24:	4054      	eors	r4, r2
10002b26:	3f01      	subs	r7, #1
10002b28:	e001      	b.n	10002b2e <_etoa+0x16a>
10002b2a:	2d20      	cmp	r5, #32
10002b2c:	d013      	beq.n	10002b56 <_etoa+0x192>
10002b2e:	aa0a      	add	r2, sp, #40	; 0x28
10002b30:	4694      	mov	ip, r2
10002b32:	231f      	movs	r3, #31
10002b34:	0020      	movs	r0, r4
10002b36:	4463      	add	r3, ip
10002b38:	210a      	movs	r1, #10
10002b3a:	3501      	adds	r5, #1
10002b3c:	195e      	adds	r6, r3, r5
10002b3e:	f001 f93f 	bl	10003dc0 <__wrap___aeabi_uidiv>
10002b42:	3130      	adds	r1, #48	; 0x30
10002b44:	7031      	strb	r1, [r6, #0]
10002b46:	0020      	movs	r0, r4
10002b48:	210a      	movs	r1, #10
10002b4a:	f001 f939 	bl	10003dc0 <__wrap___aeabi_uidiv>
10002b4e:	0026      	movs	r6, r4
10002b50:	0004      	movs	r4, r0
10002b52:	2e09      	cmp	r6, #9
10002b54:	d8e9      	bhi.n	10002b2a <_etoa+0x166>
10002b56:	2305      	movs	r3, #5
10002b58:	9306      	str	r3, [sp, #24]
10002b5a:	2300      	movs	r3, #0
10002b5c:	9304      	str	r3, [sp, #16]
10002b5e:	330a      	adds	r3, #10
10002b60:	9303      	str	r3, [sp, #12]
10002b62:	4653      	mov	r3, sl
10002b64:	9705      	str	r7, [sp, #20]
10002b66:	9f0b      	ldr	r7, [sp, #44]	; 0x2c
10002b68:	9302      	str	r3, [sp, #8]
10002b6a:	ab12      	add	r3, sp, #72	; 0x48
10002b6c:	9300      	str	r3, [sp, #0]
10002b6e:	4642      	mov	r2, r8
10002b70:	465b      	mov	r3, fp
10002b72:	4649      	mov	r1, r9
10002b74:	0038      	movs	r0, r7
10002b76:	9501      	str	r5, [sp, #4]
10002b78:	f7ff fe2e 	bl	100027d8 <_ntoa_format>
10002b7c:	9b0e      	ldr	r3, [sp, #56]	; 0x38
10002b7e:	0004      	movs	r4, r0
10002b80:	2b00      	cmp	r3, #0
10002b82:	d020      	beq.n	10002bc6 <_etoa+0x202>
10002b84:	9b0c      	ldr	r3, [sp, #48]	; 0x30
10002b86:	1ac5      	subs	r5, r0, r3
10002b88:	9b27      	ldr	r3, [sp, #156]	; 0x9c
10002b8a:	42ab      	cmp	r3, r5
10002b8c:	d91b      	bls.n	10002bc6 <_etoa+0x202>
10002b8e:	001e      	movs	r6, r3
10002b90:	0022      	movs	r2, r4
10002b92:	465b      	mov	r3, fp
10002b94:	4649      	mov	r1, r9
10002b96:	2020      	movs	r0, #32
10002b98:	3501      	adds	r5, #1
10002b9a:	47b8      	blx	r7
10002b9c:	3401      	adds	r4, #1
10002b9e:	42ae      	cmp	r6, r5
10002ba0:	d8f6      	bhi.n	10002b90 <_etoa+0x1cc>
10002ba2:	e010      	b.n	10002bc6 <_etoa+0x202>
10002ba4:	9b28      	ldr	r3, [sp, #160]	; 0xa0
10002ba6:	4642      	mov	r2, r8
10002ba8:	9304      	str	r3, [sp, #16]
10002baa:	9b27      	ldr	r3, [sp, #156]	; 0x9c
10002bac:	4649      	mov	r1, r9
10002bae:	9303      	str	r3, [sp, #12]
10002bb0:	9b26      	ldr	r3, [sp, #152]	; 0x98
10002bb2:	980b      	ldr	r0, [sp, #44]	; 0x2c
10002bb4:	9302      	str	r3, [sp, #8]
10002bb6:	4653      	mov	r3, sl
10002bb8:	9200      	str	r2, [sp, #0]
10002bba:	9301      	str	r3, [sp, #4]
10002bbc:	465b      	mov	r3, fp
10002bbe:	9a0c      	ldr	r2, [sp, #48]	; 0x30
10002bc0:	f000 f926 	bl	10002e10 <_ftoa>
10002bc4:	0004      	movs	r4, r0
10002bc6:	0020      	movs	r0, r4
10002bc8:	b01b      	add	sp, #108	; 0x6c
10002bca:	bcf0      	pop	{r4, r5, r6, r7}
10002bcc:	46bb      	mov	fp, r7
10002bce:	46b2      	mov	sl, r6
10002bd0:	46a9      	mov	r9, r5
10002bd2:	46a0      	mov	r8, r4
10002bd4:	bdf0      	pop	{r4, r5, r6, r7, pc}
10002bd6:	46c0      	nop			; (mov r8, r8)
10002bd8:	7fefffff 	.word	0x7fefffff
10002bdc:	ffefffff 	.word	0xffefffff
10002be0:	fffff7ff 	.word	0xfffff7ff
10002be4:	4b73      	ldr	r3, [pc, #460]	; (10002db4 <_etoa+0x3f0>)
10002be6:	9f09      	ldr	r7, [sp, #36]	; 0x24
10002be8:	469c      	mov	ip, r3
10002bea:	0078      	lsls	r0, r7, #1
10002bec:	0d40      	lsrs	r0, r0, #21
10002bee:	4460      	add	r0, ip
10002bf0:	f001 fbca 	bl	10004388 <__wrap___aeabi_i2d>
10002bf4:	4a70      	ldr	r2, [pc, #448]	; (10002db8 <_etoa+0x3f4>)
10002bf6:	4b71      	ldr	r3, [pc, #452]	; (10002dbc <_etoa+0x3f8>)
10002bf8:	f001 fb55 	bl	100042a6 <__wrap___aeabi_dmul>
10002bfc:	4a70      	ldr	r2, [pc, #448]	; (10002dc0 <_etoa+0x3fc>)
10002bfe:	4b71      	ldr	r3, [pc, #452]	; (10002dc4 <_etoa+0x400>)
10002c00:	f001 fb2a 	bl	10004258 <__wrap___aeabi_dadd>
10002c04:	033b      	lsls	r3, r7, #12
10002c06:	4a70      	ldr	r2, [pc, #448]	; (10002dc8 <_etoa+0x404>)
10002c08:	0b1b      	lsrs	r3, r3, #12
10002c0a:	431a      	orrs	r2, r3
10002c0c:	0004      	movs	r4, r0
10002c0e:	000d      	movs	r5, r1
10002c10:	0030      	movs	r0, r6
10002c12:	0011      	movs	r1, r2
10002c14:	4b6d      	ldr	r3, [pc, #436]	; (10002dcc <_etoa+0x408>)
10002c16:	2200      	movs	r2, #0
10002c18:	f001 fb15 	bl	10004246 <__wrap___aeabi_dsub>
10002c1c:	4a6c      	ldr	r2, [pc, #432]	; (10002dd0 <_etoa+0x40c>)
10002c1e:	4b6d      	ldr	r3, [pc, #436]	; (10002dd4 <_etoa+0x410>)
10002c20:	f001 fb41 	bl	100042a6 <__wrap___aeabi_dmul>
10002c24:	0002      	movs	r2, r0
10002c26:	000b      	movs	r3, r1
10002c28:	0020      	movs	r0, r4
10002c2a:	0029      	movs	r1, r5
10002c2c:	f001 fb14 	bl	10004258 <__wrap___aeabi_dadd>
10002c30:	f001 fbc2 	bl	100043b8 <__wrap___aeabi_d2iz>
10002c34:	900d      	str	r0, [sp, #52]	; 0x34
10002c36:	f001 fba7 	bl	10004388 <__wrap___aeabi_i2d>
10002c3a:	4a67      	ldr	r2, [pc, #412]	; (10002dd8 <_etoa+0x414>)
10002c3c:	4b67      	ldr	r3, [pc, #412]	; (10002ddc <_etoa+0x418>)
10002c3e:	0004      	movs	r4, r0
10002c40:	000d      	movs	r5, r1
10002c42:	f001 fb30 	bl	100042a6 <__wrap___aeabi_dmul>
10002c46:	2200      	movs	r2, #0
10002c48:	4b65      	ldr	r3, [pc, #404]	; (10002de0 <_etoa+0x41c>)
10002c4a:	f001 fb05 	bl	10004258 <__wrap___aeabi_dadd>
10002c4e:	f001 fbb3 	bl	100043b8 <__wrap___aeabi_d2iz>
10002c52:	4a64      	ldr	r2, [pc, #400]	; (10002de4 <_etoa+0x420>)
10002c54:	0006      	movs	r6, r0
10002c56:	4b64      	ldr	r3, [pc, #400]	; (10002de8 <_etoa+0x424>)
10002c58:	0020      	movs	r0, r4
10002c5a:	0029      	movs	r1, r5
10002c5c:	f001 fb23 	bl	100042a6 <__wrap___aeabi_dmul>
10002c60:	0004      	movs	r4, r0
10002c62:	0030      	movs	r0, r6
10002c64:	000d      	movs	r5, r1
10002c66:	960f      	str	r6, [sp, #60]	; 0x3c
10002c68:	f001 fb8e 	bl	10004388 <__wrap___aeabi_i2d>
10002c6c:	4a5f      	ldr	r2, [pc, #380]	; (10002dec <_etoa+0x428>)
10002c6e:	4b60      	ldr	r3, [pc, #384]	; (10002df0 <_etoa+0x42c>)
10002c70:	f001 fb19 	bl	100042a6 <__wrap___aeabi_dmul>
10002c74:	0002      	movs	r2, r0
10002c76:	000b      	movs	r3, r1
10002c78:	0020      	movs	r0, r4
10002c7a:	0029      	movs	r1, r5
10002c7c:	f001 fae3 	bl	10004246 <__wrap___aeabi_dsub>
10002c80:	0002      	movs	r2, r0
10002c82:	000b      	movs	r3, r1
10002c84:	0006      	movs	r6, r0
10002c86:	000f      	movs	r7, r1
10002c88:	f001 fb0d 	bl	100042a6 <__wrap___aeabi_dmul>
10002c8c:	0032      	movs	r2, r6
10002c8e:	0004      	movs	r4, r0
10002c90:	000d      	movs	r5, r1
10002c92:	003b      	movs	r3, r7
10002c94:	0030      	movs	r0, r6
10002c96:	0039      	movs	r1, r7
10002c98:	f001 fade 	bl	10004258 <__wrap___aeabi_dadd>
10002c9c:	2200      	movs	r2, #0
10002c9e:	9010      	str	r0, [sp, #64]	; 0x40
10002ca0:	9111      	str	r1, [sp, #68]	; 0x44
10002ca2:	4b54      	ldr	r3, [pc, #336]	; (10002df4 <_etoa+0x430>)
10002ca4:	0020      	movs	r0, r4
10002ca6:	0029      	movs	r1, r5
10002ca8:	f001 fadf 	bl	1000426a <__wrap___aeabi_ddiv>
10002cac:	2200      	movs	r2, #0
10002cae:	4b52      	ldr	r3, [pc, #328]	; (10002df8 <_etoa+0x434>)
10002cb0:	f001 fad2 	bl	10004258 <__wrap___aeabi_dadd>
10002cb4:	0002      	movs	r2, r0
10002cb6:	000b      	movs	r3, r1
10002cb8:	0020      	movs	r0, r4
10002cba:	0029      	movs	r1, r5
10002cbc:	f001 fad5 	bl	1000426a <__wrap___aeabi_ddiv>
10002cc0:	2200      	movs	r2, #0
10002cc2:	4b4e      	ldr	r3, [pc, #312]	; (10002dfc <_etoa+0x438>)
10002cc4:	f001 fac8 	bl	10004258 <__wrap___aeabi_dadd>
10002cc8:	0002      	movs	r2, r0
10002cca:	000b      	movs	r3, r1
10002ccc:	0020      	movs	r0, r4
10002cce:	0029      	movs	r1, r5
10002cd0:	f001 facb 	bl	1000426a <__wrap___aeabi_ddiv>
10002cd4:	000d      	movs	r5, r1
10002cd6:	2180      	movs	r1, #128	; 0x80
10002cd8:	0004      	movs	r4, r0
10002cda:	0032      	movs	r2, r6
10002cdc:	003b      	movs	r3, r7
10002cde:	2000      	movs	r0, #0
10002ce0:	05c9      	lsls	r1, r1, #23
10002ce2:	f001 fab0 	bl	10004246 <__wrap___aeabi_dsub>
10002ce6:	0002      	movs	r2, r0
10002ce8:	000b      	movs	r3, r1
10002cea:	0020      	movs	r0, r4
10002cec:	0029      	movs	r1, r5
10002cee:	f001 fab3 	bl	10004258 <__wrap___aeabi_dadd>
10002cf2:	0002      	movs	r2, r0
10002cf4:	000b      	movs	r3, r1
10002cf6:	9810      	ldr	r0, [sp, #64]	; 0x40
10002cf8:	9911      	ldr	r1, [sp, #68]	; 0x44
10002cfa:	f001 fab6 	bl	1000426a <__wrap___aeabi_ddiv>
10002cfe:	2200      	movs	r2, #0
10002d00:	4b31      	ldr	r3, [pc, #196]	; (10002dc8 <_etoa+0x404>)
10002d02:	f001 faa9 	bl	10004258 <__wrap___aeabi_dadd>
10002d06:	4b3e      	ldr	r3, [pc, #248]	; (10002e00 <_etoa+0x43c>)
10002d08:	9c0f      	ldr	r4, [sp, #60]	; 0x3c
10002d0a:	469c      	mov	ip, r3
10002d0c:	4464      	add	r4, ip
10002d0e:	2200      	movs	r2, #0
10002d10:	0523      	lsls	r3, r4, #20
10002d12:	f001 fac8 	bl	100042a6 <__wrap___aeabi_dmul>
10002d16:	0005      	movs	r5, r0
10002d18:	000e      	movs	r6, r1
10002d1a:	0002      	movs	r2, r0
10002d1c:	000b      	movs	r3, r1
10002d1e:	980a      	ldr	r0, [sp, #40]	; 0x28
10002d20:	9909      	ldr	r1, [sp, #36]	; 0x24
10002d22:	f001 fb03 	bl	1000432c <__wrap___aeabi_dcmplt>
10002d26:	2800      	cmp	r0, #0
10002d28:	d00a      	beq.n	10002d40 <_etoa+0x37c>
10002d2a:	9b0d      	ldr	r3, [sp, #52]	; 0x34
10002d2c:	0028      	movs	r0, r5
10002d2e:	3b01      	subs	r3, #1
10002d30:	0031      	movs	r1, r6
10002d32:	930d      	str	r3, [sp, #52]	; 0x34
10002d34:	2200      	movs	r2, #0
10002d36:	4b30      	ldr	r3, [pc, #192]	; (10002df8 <_etoa+0x434>)
10002d38:	f001 fa97 	bl	1000426a <__wrap___aeabi_ddiv>
10002d3c:	0005      	movs	r5, r0
10002d3e:	000e      	movs	r6, r1
10002d40:	27c6      	movs	r7, #198	; 0xc6
10002d42:	990d      	ldr	r1, [sp, #52]	; 0x34
10002d44:	002b      	movs	r3, r5
10002d46:	3163      	adds	r1, #99	; 0x63
10002d48:	428f      	cmp	r7, r1
10002d4a:	41bf      	sbcs	r7, r7
10002d4c:	9928      	ldr	r1, [sp, #160]	; 0xa0
10002d4e:	427f      	negs	r7, r7
10002d50:	3704      	adds	r7, #4
10002d52:	0509      	lsls	r1, r1, #20
10002d54:	d400      	bmi.n	10002d58 <_etoa+0x394>
10002d56:	e695      	b.n	10002a84 <_etoa+0xc0>
10002d58:	4333      	orrs	r3, r6
10002d5a:	d100      	bne.n	10002d5e <_etoa+0x39a>
10002d5c:	e682      	b.n	10002a64 <_etoa+0xa0>
10002d5e:	9c09      	ldr	r4, [sp, #36]	; 0x24
10002d60:	4a28      	ldr	r2, [pc, #160]	; (10002e04 <_etoa+0x440>)
10002d62:	0021      	movs	r1, r4
10002d64:	4b28      	ldr	r3, [pc, #160]	; (10002e08 <_etoa+0x444>)
10002d66:	980a      	ldr	r0, [sp, #40]	; 0x28
10002d68:	f001 faee 	bl	10004348 <__wrap___aeabi_dcmpge>
10002d6c:	2800      	cmp	r0, #0
10002d6e:	d008      	beq.n	10002d82 <_etoa+0x3be>
10002d70:	2200      	movs	r2, #0
10002d72:	0021      	movs	r1, r4
10002d74:	4b25      	ldr	r3, [pc, #148]	; (10002e0c <_etoa+0x448>)
10002d76:	980a      	ldr	r0, [sp, #40]	; 0x28
10002d78:	f001 fad8 	bl	1000432c <__wrap___aeabi_dcmplt>
10002d7c:	2800      	cmp	r0, #0
10002d7e:	d000      	beq.n	10002d82 <_etoa+0x3be>
10002d80:	e670      	b.n	10002a64 <_etoa+0xa0>
10002d82:	9b26      	ldr	r3, [sp, #152]	; 0x98
10002d84:	2b00      	cmp	r3, #0
10002d86:	d100      	bne.n	10002d8a <_etoa+0x3c6>
10002d88:	e67c      	b.n	10002a84 <_etoa+0xc0>
10002d8a:	9b0e      	ldr	r3, [sp, #56]	; 0x38
10002d8c:	1e5a      	subs	r2, r3, #1
10002d8e:	4193      	sbcs	r3, r2
10002d90:	9a26      	ldr	r2, [sp, #152]	; 0x98
10002d92:	1ad3      	subs	r3, r2, r3
10002d94:	9326      	str	r3, [sp, #152]	; 0x98
10002d96:	e675      	b.n	10002a84 <_etoa+0xc0>
10002d98:	2300      	movs	r3, #0
10002d9a:	2704      	movs	r7, #4
10002d9c:	930d      	str	r3, [sp, #52]	; 0x34
10002d9e:	e671      	b.n	10002a84 <_etoa+0xc0>
10002da0:	4643      	mov	r3, r8
10002da2:	930a      	str	r3, [sp, #40]	; 0x28
10002da4:	2380      	movs	r3, #128	; 0x80
10002da6:	061b      	lsls	r3, r3, #24
10002da8:	4453      	add	r3, sl
10002daa:	9309      	str	r3, [sp, #36]	; 0x24
10002dac:	e642      	b.n	10002a34 <_etoa+0x70>
10002dae:	2300      	movs	r3, #0
10002db0:	9326      	str	r3, [sp, #152]	; 0x98
10002db2:	e65f      	b.n	10002a74 <_etoa+0xb0>
10002db4:	fffffc01 	.word	0xfffffc01
10002db8:	509f79fb 	.word	0x509f79fb
10002dbc:	3fd34413 	.word	0x3fd34413
10002dc0:	8b60c8b3 	.word	0x8b60c8b3
10002dc4:	3fc68a28 	.word	0x3fc68a28
10002dc8:	3ff00000 	.word	0x3ff00000
10002dcc:	3ff80000 	.word	0x3ff80000
10002dd0:	636f4361 	.word	0x636f4361
10002dd4:	3fd287a7 	.word	0x3fd287a7
10002dd8:	0979a371 	.word	0x0979a371
10002ddc:	400a934f 	.word	0x400a934f
10002de0:	3fe00000 	.word	0x3fe00000
10002de4:	bbb55516 	.word	0xbbb55516
10002de8:	40026bb1 	.word	0x40026bb1
10002dec:	fefa39ef 	.word	0xfefa39ef
10002df0:	3fe62e42 	.word	0x3fe62e42
10002df4:	402c0000 	.word	0x402c0000
10002df8:	40240000 	.word	0x40240000
10002dfc:	40180000 	.word	0x40180000
10002e00:	000003ff 	.word	0x000003ff
10002e04:	eb1c432d 	.word	0xeb1c432d
10002e08:	3f1a36e2 	.word	0x3f1a36e2
10002e0c:	412e8480 	.word	0x412e8480

10002e10 <_ftoa>:
10002e10:	b5f0      	push	{r4, r5, r6, r7, lr}
10002e12:	464e      	mov	r6, r9
10002e14:	46de      	mov	lr, fp
10002e16:	4657      	mov	r7, sl
10002e18:	4645      	mov	r5, r8
10002e1a:	b5e0      	push	{r5, r6, r7, lr}
10002e1c:	b097      	sub	sp, #92	; 0x5c
10002e1e:	4699      	mov	r9, r3
10002e20:	9e20      	ldr	r6, [sp, #128]	; 0x80
10002e22:	9f21      	ldr	r7, [sp, #132]	; 0x84
10002e24:	9b22      	ldr	r3, [sp, #136]	; 0x88
10002e26:	4683      	mov	fp, r0
10002e28:	4698      	mov	r8, r3
10002e2a:	9107      	str	r1, [sp, #28]
10002e2c:	920c      	str	r2, [sp, #48]	; 0x30
10002e2e:	003b      	movs	r3, r7
10002e30:	0032      	movs	r2, r6
10002e32:	0030      	movs	r0, r6
10002e34:	0039      	movs	r1, r7
10002e36:	f001 fa94 	bl	10004362 <__wrap___aeabi_dcmpun>
10002e3a:	2800      	cmp	r0, #0
10002e3c:	d000      	beq.n	10002e40 <_ftoa+0x30>
10002e3e:	e1a9      	b.n	10003194 <_ftoa+0x384>
10002e40:	2201      	movs	r2, #1
10002e42:	0030      	movs	r0, r6
10002e44:	0039      	movs	r1, r7
10002e46:	4bca      	ldr	r3, [pc, #808]	; (10003170 <_ftoa+0x360>)
10002e48:	4252      	negs	r2, r2
10002e4a:	f001 fa6f 	bl	1000432c <__wrap___aeabi_dcmplt>
10002e4e:	2800      	cmp	r0, #0
10002e50:	d000      	beq.n	10002e54 <_ftoa+0x44>
10002e52:	e0e1      	b.n	10003018 <_ftoa+0x208>
10002e54:	2201      	movs	r2, #1
10002e56:	0030      	movs	r0, r6
10002e58:	0039      	movs	r1, r7
10002e5a:	4bc6      	ldr	r3, [pc, #792]	; (10003174 <_ftoa+0x364>)
10002e5c:	4252      	negs	r2, r2
10002e5e:	f001 fa7b 	bl	10004358 <__wrap___aeabi_dcmpgt>
10002e62:	2800      	cmp	r0, #0
10002e64:	d000      	beq.n	10002e68 <_ftoa+0x58>
10002e66:	e0b7      	b.n	10002fd8 <_ftoa+0x1c8>
10002e68:	2200      	movs	r2, #0
10002e6a:	0030      	movs	r0, r6
10002e6c:	0039      	movs	r1, r7
10002e6e:	4bc2      	ldr	r3, [pc, #776]	; (10003178 <_ftoa+0x368>)
10002e70:	f001 fa72 	bl	10004358 <__wrap___aeabi_dcmpgt>
10002e74:	2800      	cmp	r0, #0
10002e76:	d000      	beq.n	10002e7a <_ftoa+0x6a>
10002e78:	e099      	b.n	10002fae <_ftoa+0x19e>
10002e7a:	2200      	movs	r2, #0
10002e7c:	0030      	movs	r0, r6
10002e7e:	0039      	movs	r1, r7
10002e80:	4bbe      	ldr	r3, [pc, #760]	; (1000317c <_ftoa+0x36c>)
10002e82:	f001 fa53 	bl	1000432c <__wrap___aeabi_dcmplt>
10002e86:	2800      	cmp	r0, #0
10002e88:	d000      	beq.n	10002e8c <_ftoa+0x7c>
10002e8a:	e090      	b.n	10002fae <_ftoa+0x19e>
10002e8c:	2200      	movs	r2, #0
10002e8e:	2300      	movs	r3, #0
10002e90:	0030      	movs	r0, r6
10002e92:	0039      	movs	r1, r7
10002e94:	f001 fa4a 	bl	1000432c <__wrap___aeabi_dcmplt>
10002e98:	2800      	cmp	r0, #0
10002e9a:	d000      	beq.n	10002e9e <_ftoa+0x8e>
10002e9c:	e0b1      	b.n	10003002 <_ftoa+0x1f2>
10002e9e:	2300      	movs	r3, #0
10002ea0:	930d      	str	r3, [sp, #52]	; 0x34
10002ea2:	9b24      	ldr	r3, [sp, #144]	; 0x90
10002ea4:	055b      	lsls	r3, r3, #21
10002ea6:	d401      	bmi.n	10002eac <_ftoa+0x9c>
10002ea8:	2306      	movs	r3, #6
10002eaa:	4698      	mov	r8, r3
10002eac:	ab08      	add	r3, sp, #32
10002eae:	469c      	mov	ip, r3
10002eb0:	2217      	movs	r2, #23
10002eb2:	2400      	movs	r4, #0
10002eb4:	2330      	movs	r3, #48	; 0x30
10002eb6:	4641      	mov	r1, r8
10002eb8:	4462      	add	r2, ip
10002eba:	e004      	b.n	10002ec6 <_ftoa+0xb6>
10002ebc:	3401      	adds	r4, #1
10002ebe:	5513      	strb	r3, [r2, r4]
10002ec0:	3901      	subs	r1, #1
10002ec2:	2c20      	cmp	r4, #32
10002ec4:	d001      	beq.n	10002eca <_ftoa+0xba>
10002ec6:	2909      	cmp	r1, #9
10002ec8:	d8f8      	bhi.n	10002ebc <_ftoa+0xac>
10002eca:	4688      	mov	r8, r1
10002ecc:	0030      	movs	r0, r6
10002ece:	0039      	movs	r1, r7
10002ed0:	f001 fa72 	bl	100043b8 <__wrap___aeabi_d2iz>
10002ed4:	4643      	mov	r3, r8
10002ed6:	00da      	lsls	r2, r3, #3
10002ed8:	4ba9      	ldr	r3, [pc, #676]	; (10003180 <_ftoa+0x370>)
10002eda:	0005      	movs	r5, r0
10002edc:	189b      	adds	r3, r3, r2
10002ede:	681a      	ldr	r2, [r3, #0]
10002ee0:	685b      	ldr	r3, [r3, #4]
10002ee2:	9208      	str	r2, [sp, #32]
10002ee4:	9309      	str	r3, [sp, #36]	; 0x24
10002ee6:	f001 fa4f 	bl	10004388 <__wrap___aeabi_i2d>
10002eea:	0002      	movs	r2, r0
10002eec:	000b      	movs	r3, r1
10002eee:	0030      	movs	r0, r6
10002ef0:	0039      	movs	r1, r7
10002ef2:	f001 f9a8 	bl	10004246 <__wrap___aeabi_dsub>
10002ef6:	9a08      	ldr	r2, [sp, #32]
10002ef8:	9b09      	ldr	r3, [sp, #36]	; 0x24
10002efa:	f001 f9d4 	bl	100042a6 <__wrap___aeabi_dmul>
10002efe:	900a      	str	r0, [sp, #40]	; 0x28
10002f00:	910b      	str	r1, [sp, #44]	; 0x2c
10002f02:	f001 fa7d 	bl	10004400 <__wrap___aeabi_d2uiz>
10002f06:	4682      	mov	sl, r0
10002f08:	f001 fa3a 	bl	10004380 <__wrap___aeabi_ui2d>
10002f0c:	0002      	movs	r2, r0
10002f0e:	000b      	movs	r3, r1
10002f10:	980a      	ldr	r0, [sp, #40]	; 0x28
10002f12:	990b      	ldr	r1, [sp, #44]	; 0x2c
10002f14:	f001 f997 	bl	10004246 <__wrap___aeabi_dsub>
10002f18:	2200      	movs	r2, #0
10002f1a:	4b9a      	ldr	r3, [pc, #616]	; (10003184 <_ftoa+0x374>)
10002f1c:	900a      	str	r0, [sp, #40]	; 0x28
10002f1e:	910b      	str	r1, [sp, #44]	; 0x2c
10002f20:	f001 fa1a 	bl	10004358 <__wrap___aeabi_dcmpgt>
10002f24:	2800      	cmp	r0, #0
10002f26:	d100      	bne.n	10002f2a <_ftoa+0x11a>
10002f28:	e0c0      	b.n	100030ac <_ftoa+0x29c>
10002f2a:	2301      	movs	r3, #1
10002f2c:	469c      	mov	ip, r3
10002f2e:	44e2      	add	sl, ip
10002f30:	4650      	mov	r0, sl
10002f32:	f001 fa25 	bl	10004380 <__wrap___aeabi_ui2d>
10002f36:	0002      	movs	r2, r0
10002f38:	000b      	movs	r3, r1
10002f3a:	9808      	ldr	r0, [sp, #32]
10002f3c:	9909      	ldr	r1, [sp, #36]	; 0x24
10002f3e:	f001 f9fb 	bl	10004338 <__wrap___aeabi_dcmple>
10002f42:	2800      	cmp	r0, #0
10002f44:	d002      	beq.n	10002f4c <_ftoa+0x13c>
10002f46:	2300      	movs	r3, #0
10002f48:	469a      	mov	sl, r3
10002f4a:	3501      	adds	r5, #1
10002f4c:	4643      	mov	r3, r8
10002f4e:	2b00      	cmp	r3, #0
10002f50:	d06a      	beq.n	10003028 <_ftoa+0x218>
10002f52:	ab08      	add	r3, sp, #32
10002f54:	2617      	movs	r6, #23
10002f56:	469c      	mov	ip, r3
10002f58:	9508      	str	r5, [sp, #32]
10002f5a:	4466      	add	r6, ip
10002f5c:	4655      	mov	r5, sl
10002f5e:	e014      	b.n	10002f8a <_ftoa+0x17a>
10002f60:	2301      	movs	r3, #1
10002f62:	425b      	negs	r3, r3
10002f64:	4443      	add	r3, r8
10002f66:	210a      	movs	r1, #10
10002f68:	0028      	movs	r0, r5
10002f6a:	469a      	mov	sl, r3
10002f6c:	f000 ff28 	bl	10003dc0 <__wrap___aeabi_uidiv>
10002f70:	3401      	adds	r4, #1
10002f72:	3130      	adds	r1, #48	; 0x30
10002f74:	1937      	adds	r7, r6, r4
10002f76:	7039      	strb	r1, [r7, #0]
10002f78:	0028      	movs	r0, r5
10002f7a:	210a      	movs	r1, #10
10002f7c:	f000 ff20 	bl	10003dc0 <__wrap___aeabi_uidiv>
10002f80:	2d09      	cmp	r5, #9
10002f82:	d800      	bhi.n	10002f86 <_ftoa+0x176>
10002f84:	e0d0      	b.n	10003128 <_ftoa+0x318>
10002f86:	46d0      	mov	r8, sl
10002f88:	0005      	movs	r5, r0
10002f8a:	2c20      	cmp	r4, #32
10002f8c:	d1e8      	bne.n	10002f60 <_ftoa+0x150>
10002f8e:	ab0e      	add	r3, sp, #56	; 0x38
10002f90:	4698      	mov	r8, r3
10002f92:	2303      	movs	r3, #3
10002f94:	9a24      	ldr	r2, [sp, #144]	; 0x90
10002f96:	4013      	ands	r3, r2
10002f98:	2b01      	cmp	r3, #1
10002f9a:	d100      	bne.n	10002f9e <_ftoa+0x18e>
10002f9c:	e096      	b.n	100030cc <_ftoa+0x2bc>
10002f9e:	2320      	movs	r3, #32
10002fa0:	9a24      	ldr	r2, [sp, #144]	; 0x90
10002fa2:	9301      	str	r3, [sp, #4]
10002fa4:	9203      	str	r2, [sp, #12]
10002fa6:	9a23      	ldr	r2, [sp, #140]	; 0x8c
10002fa8:	4643      	mov	r3, r8
10002faa:	9202      	str	r2, [sp, #8]
10002fac:	e01e      	b.n	10002fec <_ftoa+0x1dc>
10002fae:	9b24      	ldr	r3, [sp, #144]	; 0x90
10002fb0:	4658      	mov	r0, fp
10002fb2:	9304      	str	r3, [sp, #16]
10002fb4:	9b23      	ldr	r3, [sp, #140]	; 0x8c
10002fb6:	9600      	str	r6, [sp, #0]
10002fb8:	9701      	str	r7, [sp, #4]
10002fba:	9303      	str	r3, [sp, #12]
10002fbc:	4643      	mov	r3, r8
10002fbe:	9a0c      	ldr	r2, [sp, #48]	; 0x30
10002fc0:	9302      	str	r3, [sp, #8]
10002fc2:	9907      	ldr	r1, [sp, #28]
10002fc4:	464b      	mov	r3, r9
10002fc6:	f7ff fcfd 	bl	100029c4 <_etoa>
10002fca:	b017      	add	sp, #92	; 0x5c
10002fcc:	bcf0      	pop	{r4, r5, r6, r7}
10002fce:	46bb      	mov	fp, r7
10002fd0:	46b2      	mov	sl, r6
10002fd2:	46a9      	mov	r9, r5
10002fd4:	46a0      	mov	r8, r4
10002fd6:	bdf0      	pop	{r4, r5, r6, r7, pc}
10002fd8:	9b24      	ldr	r3, [sp, #144]	; 0x90
10002fda:	075b      	lsls	r3, r3, #29
10002fdc:	d40e      	bmi.n	10002ffc <_ftoa+0x1ec>
10002fde:	2203      	movs	r2, #3
10002fe0:	4b69      	ldr	r3, [pc, #420]	; (10003188 <_ftoa+0x378>)
10002fe2:	9924      	ldr	r1, [sp, #144]	; 0x90
10002fe4:	9201      	str	r2, [sp, #4]
10002fe6:	9103      	str	r1, [sp, #12]
10002fe8:	9923      	ldr	r1, [sp, #140]	; 0x8c
10002fea:	9102      	str	r1, [sp, #8]
10002fec:	9300      	str	r3, [sp, #0]
10002fee:	4658      	mov	r0, fp
10002ff0:	464b      	mov	r3, r9
10002ff2:	9a0c      	ldr	r2, [sp, #48]	; 0x30
10002ff4:	9907      	ldr	r1, [sp, #28]
10002ff6:	f7ff fba1 	bl	1000273c <_out_rev>
10002ffa:	e7e6      	b.n	10002fca <_ftoa+0x1ba>
10002ffc:	2204      	movs	r2, #4
10002ffe:	4b63      	ldr	r3, [pc, #396]	; (1000318c <_ftoa+0x37c>)
10003000:	e7ef      	b.n	10002fe2 <_ftoa+0x1d2>
10003002:	003b      	movs	r3, r7
10003004:	0032      	movs	r2, r6
10003006:	2000      	movs	r0, #0
10003008:	2100      	movs	r1, #0
1000300a:	f001 f91c 	bl	10004246 <__wrap___aeabi_dsub>
1000300e:	2301      	movs	r3, #1
10003010:	0006      	movs	r6, r0
10003012:	000f      	movs	r7, r1
10003014:	930d      	str	r3, [sp, #52]	; 0x34
10003016:	e744      	b.n	10002ea2 <_ftoa+0x92>
10003018:	9b24      	ldr	r3, [sp, #144]	; 0x90
1000301a:	9303      	str	r3, [sp, #12]
1000301c:	9b23      	ldr	r3, [sp, #140]	; 0x8c
1000301e:	9302      	str	r3, [sp, #8]
10003020:	2304      	movs	r3, #4
10003022:	9301      	str	r3, [sp, #4]
10003024:	4b5a      	ldr	r3, [pc, #360]	; (10003190 <_ftoa+0x380>)
10003026:	e7e1      	b.n	10002fec <_ftoa+0x1dc>
10003028:	0028      	movs	r0, r5
1000302a:	f001 f9ad 	bl	10004388 <__wrap___aeabi_i2d>
1000302e:	0002      	movs	r2, r0
10003030:	000b      	movs	r3, r1
10003032:	0030      	movs	r0, r6
10003034:	0039      	movs	r1, r7
10003036:	f001 f906 	bl	10004246 <__wrap___aeabi_dsub>
1000303a:	4b52      	ldr	r3, [pc, #328]	; (10003184 <_ftoa+0x374>)
1000303c:	2200      	movs	r2, #0
1000303e:	0006      	movs	r6, r0
10003040:	000f      	movs	r7, r1
10003042:	f001 f973 	bl	1000432c <__wrap___aeabi_dcmplt>
10003046:	ab0e      	add	r3, sp, #56	; 0x38
10003048:	4698      	mov	r8, r3
1000304a:	2800      	cmp	r0, #0
1000304c:	d10a      	bne.n	10003064 <_ftoa+0x254>
1000304e:	2200      	movs	r2, #0
10003050:	0030      	movs	r0, r6
10003052:	0039      	movs	r1, r7
10003054:	4b4b      	ldr	r3, [pc, #300]	; (10003184 <_ftoa+0x374>)
10003056:	f001 f97f 	bl	10004358 <__wrap___aeabi_dcmpgt>
1000305a:	2800      	cmp	r0, #0
1000305c:	d102      	bne.n	10003064 <_ftoa+0x254>
1000305e:	07eb      	lsls	r3, r5, #31
10003060:	d500      	bpl.n	10003064 <_ftoa+0x254>
10003062:	3501      	adds	r5, #1
10003064:	2c20      	cmp	r4, #32
10003066:	d094      	beq.n	10002f92 <_ftoa+0x182>
10003068:	aa08      	add	r2, sp, #32
1000306a:	4694      	mov	ip, r2
1000306c:	2317      	movs	r3, #23
1000306e:	0028      	movs	r0, r5
10003070:	4463      	add	r3, ip
10003072:	210a      	movs	r1, #10
10003074:	3401      	adds	r4, #1
10003076:	191e      	adds	r6, r3, r4
10003078:	f000 fe7a 	bl	10003d70 <__wrap___aeabi_idiv>
1000307c:	3130      	adds	r1, #48	; 0x30
1000307e:	0028      	movs	r0, r5
10003080:	7031      	strb	r1, [r6, #0]
10003082:	210a      	movs	r1, #10
10003084:	f000 fe74 	bl	10003d70 <__wrap___aeabi_idiv>
10003088:	1e05      	subs	r5, r0, #0
1000308a:	d1eb      	bne.n	10003064 <_ftoa+0x254>
1000308c:	2303      	movs	r3, #3
1000308e:	9a24      	ldr	r2, [sp, #144]	; 0x90
10003090:	4013      	ands	r3, r2
10003092:	2b01      	cmp	r3, #1
10003094:	d01b      	beq.n	100030ce <_ftoa+0x2be>
10003096:	2c20      	cmp	r4, #32
10003098:	d100      	bne.n	1000309c <_ftoa+0x28c>
1000309a:	e780      	b.n	10002f9e <_ftoa+0x18e>
1000309c:	9b0d      	ldr	r3, [sp, #52]	; 0x34
1000309e:	2b00      	cmp	r3, #0
100030a0:	d035      	beq.n	1000310e <_ftoa+0x2fe>
100030a2:	222d      	movs	r2, #45	; 0x2d
100030a4:	4641      	mov	r1, r8
100030a6:	1c63      	adds	r3, r4, #1
100030a8:	550a      	strb	r2, [r1, r4]
100030aa:	e779      	b.n	10002fa0 <_ftoa+0x190>
100030ac:	2200      	movs	r2, #0
100030ae:	980a      	ldr	r0, [sp, #40]	; 0x28
100030b0:	990b      	ldr	r1, [sp, #44]	; 0x2c
100030b2:	4b34      	ldr	r3, [pc, #208]	; (10003184 <_ftoa+0x374>)
100030b4:	f001 f93a 	bl	1000432c <__wrap___aeabi_dcmplt>
100030b8:	2800      	cmp	r0, #0
100030ba:	d000      	beq.n	100030be <_ftoa+0x2ae>
100030bc:	e746      	b.n	10002f4c <_ftoa+0x13c>
100030be:	4653      	mov	r3, sl
100030c0:	2b00      	cmp	r3, #0
100030c2:	d151      	bne.n	10003168 <_ftoa+0x358>
100030c4:	2301      	movs	r3, #1
100030c6:	469c      	mov	ip, r3
100030c8:	44e2      	add	sl, ip
100030ca:	e73f      	b.n	10002f4c <_ftoa+0x13c>
100030cc:	2420      	movs	r4, #32
100030ce:	9b23      	ldr	r3, [sp, #140]	; 0x8c
100030d0:	2b00      	cmp	r3, #0
100030d2:	d0e0      	beq.n	10003096 <_ftoa+0x286>
100030d4:	9b0d      	ldr	r3, [sp, #52]	; 0x34
100030d6:	2b00      	cmp	r3, #0
100030d8:	d103      	bne.n	100030e2 <_ftoa+0x2d2>
100030da:	9a24      	ldr	r2, [sp, #144]	; 0x90
100030dc:	330c      	adds	r3, #12
100030de:	4213      	tst	r3, r2
100030e0:	d002      	beq.n	100030e8 <_ftoa+0x2d8>
100030e2:	9b23      	ldr	r3, [sp, #140]	; 0x8c
100030e4:	3b01      	subs	r3, #1
100030e6:	9323      	str	r3, [sp, #140]	; 0x8c
100030e8:	9b23      	ldr	r3, [sp, #140]	; 0x8c
100030ea:	42a3      	cmp	r3, r4
100030ec:	d9d3      	bls.n	10003096 <_ftoa+0x286>
100030ee:	ab08      	add	r3, sp, #32
100030f0:	469c      	mov	ip, r3
100030f2:	2217      	movs	r2, #23
100030f4:	2330      	movs	r3, #48	; 0x30
100030f6:	4462      	add	r2, ip
100030f8:	2c20      	cmp	r4, #32
100030fa:	d100      	bne.n	100030fe <_ftoa+0x2ee>
100030fc:	e74f      	b.n	10002f9e <_ftoa+0x18e>
100030fe:	9923      	ldr	r1, [sp, #140]	; 0x8c
10003100:	3401      	adds	r4, #1
10003102:	5513      	strb	r3, [r2, r4]
10003104:	428c      	cmp	r4, r1
10003106:	d0c6      	beq.n	10003096 <_ftoa+0x286>
10003108:	2c20      	cmp	r4, #32
1000310a:	d1f8      	bne.n	100030fe <_ftoa+0x2ee>
1000310c:	e747      	b.n	10002f9e <_ftoa+0x18e>
1000310e:	9b24      	ldr	r3, [sp, #144]	; 0x90
10003110:	075b      	lsls	r3, r3, #29
10003112:	d424      	bmi.n	1000315e <_ftoa+0x34e>
10003114:	9a24      	ldr	r2, [sp, #144]	; 0x90
10003116:	0023      	movs	r3, r4
10003118:	0712      	lsls	r2, r2, #28
1000311a:	d400      	bmi.n	1000311e <_ftoa+0x30e>
1000311c:	e740      	b.n	10002fa0 <_ftoa+0x190>
1000311e:	2220      	movs	r2, #32
10003120:	4641      	mov	r1, r8
10003122:	3301      	adds	r3, #1
10003124:	550a      	strb	r2, [r1, r4]
10003126:	e73b      	b.n	10002fa0 <_ftoa+0x190>
10003128:	4657      	mov	r7, sl
1000312a:	9d08      	ldr	r5, [sp, #32]
1000312c:	2c20      	cmp	r4, #32
1000312e:	d100      	bne.n	10003132 <_ftoa+0x322>
10003130:	e72d      	b.n	10002f8e <_ftoa+0x17e>
10003132:	0022      	movs	r2, r4
10003134:	2130      	movs	r1, #48	; 0x30
10003136:	4640      	mov	r0, r8
10003138:	2f00      	cmp	r7, #0
1000313a:	d009      	beq.n	10003150 <_ftoa+0x340>
1000313c:	3201      	adds	r2, #1
1000313e:	54b1      	strb	r1, [r6, r2]
10003140:	2a20      	cmp	r2, #32
10003142:	d100      	bne.n	10003146 <_ftoa+0x336>
10003144:	e723      	b.n	10002f8e <_ftoa+0x17e>
10003146:	43d3      	mvns	r3, r2
10003148:	191b      	adds	r3, r3, r4
1000314a:	181b      	adds	r3, r3, r0
1000314c:	2b00      	cmp	r3, #0
1000314e:	d1f5      	bne.n	1000313c <_ftoa+0x32c>
10003150:	ab0e      	add	r3, sp, #56	; 0x38
10003152:	4698      	mov	r8, r3
10003154:	232e      	movs	r3, #46	; 0x2e
10003156:	4641      	mov	r1, r8
10003158:	1c54      	adds	r4, r2, #1
1000315a:	548b      	strb	r3, [r1, r2]
1000315c:	e782      	b.n	10003064 <_ftoa+0x254>
1000315e:	222b      	movs	r2, #43	; 0x2b
10003160:	4641      	mov	r1, r8
10003162:	1c63      	adds	r3, r4, #1
10003164:	550a      	strb	r2, [r1, r4]
10003166:	e71b      	b.n	10002fa0 <_ftoa+0x190>
10003168:	07db      	lsls	r3, r3, #31
1000316a:	d400      	bmi.n	1000316e <_ftoa+0x35e>
1000316c:	e6ee      	b.n	10002f4c <_ftoa+0x13c>
1000316e:	e7a9      	b.n	100030c4 <_ftoa+0x2b4>
10003170:	ffefffff 	.word	0xffefffff
10003174:	7fefffff 	.word	0x7fefffff
10003178:	41cdcd65 	.word	0x41cdcd65
1000317c:	c1cdcd65 	.word	0xc1cdcd65
10003180:	1000b870 	.word	0x1000b870
10003184:	3fe00000 	.word	0x3fe00000
10003188:	1000b674 	.word	0x1000b674
1000318c:	1000b678 	.word	0x1000b678
10003190:	1000b684 	.word	0x1000b684
10003194:	9b24      	ldr	r3, [sp, #144]	; 0x90
10003196:	9303      	str	r3, [sp, #12]
10003198:	9b23      	ldr	r3, [sp, #140]	; 0x8c
1000319a:	9302      	str	r3, [sp, #8]
1000319c:	2303      	movs	r3, #3
1000319e:	9301      	str	r3, [sp, #4]
100031a0:	4b00      	ldr	r3, [pc, #0]	; (100031a4 <_ftoa+0x394>)
100031a2:	e723      	b.n	10002fec <_ftoa+0x1dc>
100031a4:	1000b680 	.word	0x1000b680

100031a8 <_vsnprintf>:
100031a8:	b5f0      	push	{r4, r5, r6, r7, lr}
100031aa:	46de      	mov	lr, fp
100031ac:	464e      	mov	r6, r9
100031ae:	4657      	mov	r7, sl
100031b0:	4645      	mov	r5, r8
100031b2:	b5e0      	push	{r5, r6, r7, lr}
100031b4:	b09f      	sub	sp, #124	; 0x7c
100031b6:	001c      	movs	r4, r3
100031b8:	9b28      	ldr	r3, [sp, #160]	; 0xa0
100031ba:	4691      	mov	r9, r2
100031bc:	9309      	str	r3, [sp, #36]	; 0x24
100031be:	4ac9      	ldr	r2, [pc, #804]	; (100034e4 <_vsnprintf+0x33c>)
100031c0:	4bc9      	ldr	r3, [pc, #804]	; (100034e8 <_vsnprintf+0x340>)
100031c2:	468b      	mov	fp, r1
100031c4:	9008      	str	r0, [sp, #32]
100031c6:	601a      	str	r2, [r3, #0]
100031c8:	2900      	cmp	r1, #0
100031ca:	d100      	bne.n	100031ce <_vsnprintf+0x26>
100031cc:	e218      	b.n	10003600 <_vsnprintf+0x458>
100031ce:	2300      	movs	r3, #0
100031d0:	7820      	ldrb	r0, [r4, #0]
100031d2:	469a      	mov	sl, r3
100031d4:	2800      	cmp	r0, #0
100031d6:	d100      	bne.n	100031da <_vsnprintf+0x32>
100031d8:	e21a      	b.n	10003610 <_vsnprintf+0x468>
100031da:	0026      	movs	r6, r4
100031dc:	001d      	movs	r5, r3
100031de:	465c      	mov	r4, fp
100031e0:	e00a      	b.n	100031f8 <_vsnprintf+0x50>
100031e2:	002a      	movs	r2, r5
100031e4:	1c6f      	adds	r7, r5, #1
100031e6:	464b      	mov	r3, r9
100031e8:	9d08      	ldr	r5, [sp, #32]
100031ea:	0021      	movs	r1, r4
100031ec:	47a8      	blx	r5
100031ee:	003d      	movs	r5, r7
100031f0:	3601      	adds	r6, #1
100031f2:	7830      	ldrb	r0, [r6, #0]
100031f4:	2800      	cmp	r0, #0
100031f6:	d070      	beq.n	100032da <_vsnprintf+0x132>
100031f8:	2825      	cmp	r0, #37	; 0x25
100031fa:	d1f2      	bne.n	100031e2 <_vsnprintf+0x3a>
100031fc:	2310      	movs	r3, #16
100031fe:	469b      	mov	fp, r3
10003200:	3b08      	subs	r3, #8
10003202:	469a      	mov	sl, r3
10003204:	3b04      	subs	r3, #4
10003206:	4698      	mov	r8, r3
10003208:	3b02      	subs	r3, #2
1000320a:	2100      	movs	r1, #0
1000320c:	469c      	mov	ip, r3
1000320e:	1c72      	adds	r2, r6, #1
10003210:	7810      	ldrb	r0, [r2, #0]
10003212:	0016      	movs	r6, r2
10003214:	0003      	movs	r3, r0
10003216:	3b20      	subs	r3, #32
10003218:	b2db      	uxtb	r3, r3
1000321a:	2b10      	cmp	r3, #16
1000321c:	d803      	bhi.n	10003226 <_vsnprintf+0x7e>
1000321e:	4fb3      	ldr	r7, [pc, #716]	; (100034ec <_vsnprintf+0x344>)
10003220:	009b      	lsls	r3, r3, #2
10003222:	58fb      	ldr	r3, [r7, r3]
10003224:	469f      	mov	pc, r3
10003226:	0003      	movs	r3, r0
10003228:	3b30      	subs	r3, #48	; 0x30
1000322a:	2b09      	cmp	r3, #9
1000322c:	d932      	bls.n	10003294 <_vsnprintf+0xec>
1000322e:	2300      	movs	r3, #0
10003230:	930a      	str	r3, [sp, #40]	; 0x28
10003232:	282a      	cmp	r0, #42	; 0x2a
10003234:	d068      	beq.n	10003308 <_vsnprintf+0x160>
10003236:	2300      	movs	r3, #0
10003238:	4698      	mov	r8, r3
1000323a:	282e      	cmp	r0, #46	; 0x2e
1000323c:	d03e      	beq.n	100032bc <_vsnprintf+0x114>
1000323e:	0003      	movs	r3, r0
10003240:	3b68      	subs	r3, #104	; 0x68
10003242:	b2db      	uxtb	r3, r3
10003244:	2b12      	cmp	r3, #18
10003246:	d81c      	bhi.n	10003282 <_vsnprintf+0xda>
10003248:	4aa9      	ldr	r2, [pc, #676]	; (100034f0 <_vsnprintf+0x348>)
1000324a:	009b      	lsls	r3, r3, #2
1000324c:	58d3      	ldr	r3, [r2, r3]
1000324e:	469f      	mov	pc, r3
10003250:	2301      	movs	r3, #1
10003252:	3201      	adds	r2, #1
10003254:	4319      	orrs	r1, r3
10003256:	e7db      	b.n	10003210 <_vsnprintf+0x68>
10003258:	4663      	mov	r3, ip
1000325a:	3201      	adds	r2, #1
1000325c:	4319      	orrs	r1, r3
1000325e:	e7d7      	b.n	10003210 <_vsnprintf+0x68>
10003260:	4643      	mov	r3, r8
10003262:	3201      	adds	r2, #1
10003264:	4319      	orrs	r1, r3
10003266:	e7d3      	b.n	10003210 <_vsnprintf+0x68>
10003268:	465b      	mov	r3, fp
1000326a:	3201      	adds	r2, #1
1000326c:	4319      	orrs	r1, r3
1000326e:	e7cf      	b.n	10003210 <_vsnprintf+0x68>
10003270:	4653      	mov	r3, sl
10003272:	3201      	adds	r2, #1
10003274:	4319      	orrs	r1, r3
10003276:	e7cb      	b.n	10003210 <_vsnprintf+0x68>
10003278:	2380      	movs	r3, #128	; 0x80
1000327a:	005b      	lsls	r3, r3, #1
1000327c:	7870      	ldrb	r0, [r6, #1]
1000327e:	4319      	orrs	r1, r3
10003280:	3601      	adds	r6, #1
10003282:	0003      	movs	r3, r0
10003284:	3b25      	subs	r3, #37	; 0x25
10003286:	b2db      	uxtb	r3, r3
10003288:	2b53      	cmp	r3, #83	; 0x53
1000328a:	d8aa      	bhi.n	100031e2 <_vsnprintf+0x3a>
1000328c:	4a99      	ldr	r2, [pc, #612]	; (100034f4 <_vsnprintf+0x34c>)
1000328e:	009b      	lsls	r3, r3, #2
10003290:	58d3      	ldr	r3, [r2, r3]
10003292:	469f      	mov	pc, r3
10003294:	2700      	movs	r7, #0
10003296:	0003      	movs	r3, r0
10003298:	00b8      	lsls	r0, r7, #2
1000329a:	19c0      	adds	r0, r0, r7
1000329c:	3601      	adds	r6, #1
1000329e:	0040      	lsls	r0, r0, #1
100032a0:	18c0      	adds	r0, r0, r3
100032a2:	7833      	ldrb	r3, [r6, #0]
100032a4:	3830      	subs	r0, #48	; 0x30
100032a6:	001a      	movs	r2, r3
100032a8:	3a30      	subs	r2, #48	; 0x30
100032aa:	0007      	movs	r7, r0
100032ac:	2a09      	cmp	r2, #9
100032ae:	d9f3      	bls.n	10003298 <_vsnprintf+0xf0>
100032b0:	900a      	str	r0, [sp, #40]	; 0x28
100032b2:	0018      	movs	r0, r3
100032b4:	2300      	movs	r3, #0
100032b6:	4698      	mov	r8, r3
100032b8:	282e      	cmp	r0, #46	; 0x2e
100032ba:	d1c0      	bne.n	1000323e <_vsnprintf+0x96>
100032bc:	2380      	movs	r3, #128	; 0x80
100032be:	7870      	ldrb	r0, [r6, #1]
100032c0:	00db      	lsls	r3, r3, #3
100032c2:	4319      	orrs	r1, r3
100032c4:	0003      	movs	r3, r0
100032c6:	3b30      	subs	r3, #48	; 0x30
100032c8:	1c72      	adds	r2, r6, #1
100032ca:	2b09      	cmp	r3, #9
100032cc:	d800      	bhi.n	100032d0 <_vsnprintf+0x128>
100032ce:	e1a1      	b.n	10003614 <_vsnprintf+0x46c>
100032d0:	282a      	cmp	r0, #42	; 0x2a
100032d2:	d100      	bne.n	100032d6 <_vsnprintf+0x12e>
100032d4:	e1b2      	b.n	1000363c <_vsnprintf+0x494>
100032d6:	0016      	movs	r6, r2
100032d8:	e7b1      	b.n	1000323e <_vsnprintf+0x96>
100032da:	46a3      	mov	fp, r4
100032dc:	46aa      	mov	sl, r5
100032de:	002c      	movs	r4, r5
100032e0:	45d1      	cmp	r9, sl
100032e2:	d803      	bhi.n	100032ec <_vsnprintf+0x144>
100032e4:	2301      	movs	r3, #1
100032e6:	425b      	negs	r3, r3
100032e8:	444b      	add	r3, r9
100032ea:	469a      	mov	sl, r3
100032ec:	464b      	mov	r3, r9
100032ee:	4652      	mov	r2, sl
100032f0:	4659      	mov	r1, fp
100032f2:	2000      	movs	r0, #0
100032f4:	9d08      	ldr	r5, [sp, #32]
100032f6:	47a8      	blx	r5
100032f8:	0020      	movs	r0, r4
100032fa:	b01f      	add	sp, #124	; 0x7c
100032fc:	bcf0      	pop	{r4, r5, r6, r7}
100032fe:	46bb      	mov	fp, r7
10003300:	46b2      	mov	sl, r6
10003302:	46a9      	mov	r9, r5
10003304:	46a0      	mov	r8, r4
10003306:	bdf0      	pop	{r4, r5, r6, r7, pc}
10003308:	9b09      	ldr	r3, [sp, #36]	; 0x24
1000330a:	cb40      	ldmia	r3!, {r6}
1000330c:	960a      	str	r6, [sp, #40]	; 0x28
1000330e:	2e00      	cmp	r6, #0
10003310:	db03      	blt.n	1000331a <_vsnprintf+0x172>
10003312:	7850      	ldrb	r0, [r2, #1]
10003314:	9309      	str	r3, [sp, #36]	; 0x24
10003316:	1c56      	adds	r6, r2, #1
10003318:	e78d      	b.n	10003236 <_vsnprintf+0x8e>
1000331a:	3828      	subs	r0, #40	; 0x28
1000331c:	4301      	orrs	r1, r0
1000331e:	4270      	negs	r0, r6
10003320:	900a      	str	r0, [sp, #40]	; 0x28
10003322:	9309      	str	r3, [sp, #36]	; 0x24
10003324:	7850      	ldrb	r0, [r2, #1]
10003326:	1c56      	adds	r6, r2, #1
10003328:	e785      	b.n	10003236 <_vsnprintf+0x8e>
1000332a:	2878      	cmp	r0, #120	; 0x78
1000332c:	d100      	bne.n	10003330 <_vsnprintf+0x188>
1000332e:	e1df      	b.n	100036f0 <_vsnprintf+0x548>
10003330:	2858      	cmp	r0, #88	; 0x58
10003332:	d100      	bne.n	10003336 <_vsnprintf+0x18e>
10003334:	e24c      	b.n	100037d0 <_vsnprintf+0x628>
10003336:	286f      	cmp	r0, #111	; 0x6f
10003338:	d100      	bne.n	1000333c <_vsnprintf+0x194>
1000333a:	e34f      	b.n	100039dc <_vsnprintf+0x834>
1000333c:	2862      	cmp	r0, #98	; 0x62
1000333e:	d101      	bne.n	10003344 <_vsnprintf+0x19c>
10003340:	f000 fc30 	bl	10003ba4 <_vsnprintf+0x9fc>
10003344:	2310      	movs	r3, #16
10003346:	000a      	movs	r2, r1
10003348:	439a      	bics	r2, r3
1000334a:	920b      	str	r2, [sp, #44]	; 0x2c
1000334c:	2869      	cmp	r0, #105	; 0x69
1000334e:	d001      	beq.n	10003354 <_vsnprintf+0x1ac>
10003350:	f000 fca9 	bl	10003ca6 <_vsnprintf+0xafe>
10003354:	230a      	movs	r3, #10
10003356:	930c      	str	r3, [sp, #48]	; 0x30
10003358:	054b      	lsls	r3, r1, #21
1000335a:	d500      	bpl.n	1000335e <_vsnprintf+0x1b6>
1000335c:	e1d0      	b.n	10003700 <_vsnprintf+0x558>
1000335e:	9a0b      	ldr	r2, [sp, #44]	; 0x2c
10003360:	2380      	movs	r3, #128	; 0x80
10003362:	0011      	movs	r1, r2
10003364:	009b      	lsls	r3, r3, #2
10003366:	4019      	ands	r1, r3
10003368:	468b      	mov	fp, r1
1000336a:	421a      	tst	r2, r3
1000336c:	d000      	beq.n	10003370 <_vsnprintf+0x1c8>
1000336e:	e2a1      	b.n	100038b4 <_vsnprintf+0x70c>
10003370:	2380      	movs	r3, #128	; 0x80
10003372:	0011      	movs	r1, r2
10003374:	005b      	lsls	r3, r3, #1
10003376:	4019      	ands	r1, r3
10003378:	468a      	mov	sl, r1
1000337a:	421a      	tst	r2, r3
1000337c:	d000      	beq.n	10003380 <_vsnprintf+0x1d8>
1000337e:	e3b6      	b.n	10003aee <_vsnprintf+0x946>
10003380:	0013      	movs	r3, r2
10003382:	065b      	lsls	r3, r3, #25
10003384:	d500      	bpl.n	10003388 <_vsnprintf+0x1e0>
10003386:	e2ed      	b.n	10003964 <_vsnprintf+0x7bc>
10003388:	0013      	movs	r3, r2
1000338a:	9909      	ldr	r1, [sp, #36]	; 0x24
1000338c:	061b      	lsls	r3, r3, #24
1000338e:	d401      	bmi.n	10003394 <_vsnprintf+0x1ec>
10003390:	f000 fc76 	bl	10003c80 <_vsnprintf+0xad8>
10003394:	c908      	ldmia	r1!, {r3}
10003396:	b21b      	sxth	r3, r3
10003398:	17d8      	asrs	r0, r3, #31
1000339a:	181a      	adds	r2, r3, r0
1000339c:	4042      	eors	r2, r0
1000339e:	b292      	uxth	r2, r2
100033a0:	9109      	str	r1, [sp, #36]	; 0x24
100033a2:	4693      	mov	fp, r2
100033a4:	0fda      	lsrs	r2, r3, #31
100033a6:	9212      	str	r2, [sp, #72]	; 0x48
100033a8:	2b00      	cmp	r3, #0
100033aa:	d109      	bne.n	100033c0 <_vsnprintf+0x218>
100033ac:	2380      	movs	r3, #128	; 0x80
100033ae:	2210      	movs	r2, #16
100033b0:	990b      	ldr	r1, [sp, #44]	; 0x2c
100033b2:	00db      	lsls	r3, r3, #3
100033b4:	400b      	ands	r3, r1
100033b6:	4391      	bics	r1, r2
100033b8:	910b      	str	r1, [sp, #44]	; 0x2c
100033ba:	2b00      	cmp	r3, #0
100033bc:	d000      	beq.n	100033c0 <_vsnprintf+0x218>
100033be:	e2e4      	b.n	1000398a <_vsnprintf+0x7e2>
100033c0:	9a0b      	ldr	r2, [sp, #44]	; 0x2c
100033c2:	2361      	movs	r3, #97	; 0x61
100033c4:	0692      	lsls	r2, r2, #26
100033c6:	d500      	bpl.n	100033ca <_vsnprintf+0x222>
100033c8:	2341      	movs	r3, #65	; 0x41
100033ca:	a90e      	add	r1, sp, #56	; 0x38
100033cc:	221f      	movs	r2, #31
100033ce:	468c      	mov	ip, r1
100033d0:	b2db      	uxtb	r3, r3
100033d2:	4462      	add	r2, ip
100033d4:	3b0a      	subs	r3, #10
100033d6:	465f      	mov	r7, fp
100033d8:	9513      	str	r5, [sp, #76]	; 0x4c
100033da:	46a3      	mov	fp, r4
100033dc:	4655      	mov	r5, sl
100033de:	9c0c      	ldr	r4, [sp, #48]	; 0x30
100033e0:	46b2      	mov	sl, r6
100033e2:	930d      	str	r3, [sp, #52]	; 0x34
100033e4:	0016      	movs	r6, r2
100033e6:	e00a      	b.n	100033fe <_vsnprintf+0x256>
100033e8:	3330      	adds	r3, #48	; 0x30
100033ea:	b2db      	uxtb	r3, r3
100033ec:	3501      	adds	r5, #1
100033ee:	5573      	strb	r3, [r6, r5]
100033f0:	42a7      	cmp	r7, r4
100033f2:	d200      	bcs.n	100033f6 <_vsnprintf+0x24e>
100033f4:	e2ed      	b.n	100039d2 <_vsnprintf+0x82a>
100033f6:	2d20      	cmp	r5, #32
100033f8:	d100      	bne.n	100033fc <_vsnprintf+0x254>
100033fa:	e2ea      	b.n	100039d2 <_vsnprintf+0x82a>
100033fc:	0007      	movs	r7, r0
100033fe:	0021      	movs	r1, r4
10003400:	0038      	movs	r0, r7
10003402:	f000 fcdd 	bl	10003dc0 <__wrap___aeabi_uidiv>
10003406:	b2cb      	uxtb	r3, r1
10003408:	2909      	cmp	r1, #9
1000340a:	d9ed      	bls.n	100033e8 <_vsnprintf+0x240>
1000340c:	9a0d      	ldr	r2, [sp, #52]	; 0x34
1000340e:	4694      	mov	ip, r2
10003410:	4463      	add	r3, ip
10003412:	b2db      	uxtb	r3, r3
10003414:	e7ea      	b.n	100033ec <_vsnprintf+0x244>
10003416:	2380      	movs	r3, #128	; 0x80
10003418:	009b      	lsls	r3, r3, #2
1000341a:	7870      	ldrb	r0, [r6, #1]
1000341c:	4319      	orrs	r1, r3
1000341e:	3601      	adds	r6, #1
10003420:	e72f      	b.n	10003282 <_vsnprintf+0xda>
10003422:	7870      	ldrb	r0, [r6, #1]
10003424:	2868      	cmp	r0, #104	; 0x68
10003426:	d100      	bne.n	1000342a <_vsnprintf+0x282>
10003428:	e1cd      	b.n	100037c6 <_vsnprintf+0x61e>
1000342a:	2380      	movs	r3, #128	; 0x80
1000342c:	3601      	adds	r6, #1
1000342e:	4319      	orrs	r1, r3
10003430:	e727      	b.n	10003282 <_vsnprintf+0xda>
10003432:	7870      	ldrb	r0, [r6, #1]
10003434:	286c      	cmp	r0, #108	; 0x6c
10003436:	d100      	bne.n	1000343a <_vsnprintf+0x292>
10003438:	e1bf      	b.n	100037ba <_vsnprintf+0x612>
1000343a:	2380      	movs	r3, #128	; 0x80
1000343c:	005b      	lsls	r3, r3, #1
1000343e:	4319      	orrs	r1, r3
10003440:	3601      	adds	r6, #1
10003442:	e71e      	b.n	10003282 <_vsnprintf+0xda>
10003444:	2846      	cmp	r0, #70	; 0x46
10003446:	d100      	bne.n	1000344a <_vsnprintf+0x2a2>
10003448:	e19b      	b.n	10003782 <_vsnprintf+0x5da>
1000344a:	2207      	movs	r2, #7
1000344c:	9b09      	ldr	r3, [sp, #36]	; 0x24
1000344e:	9104      	str	r1, [sp, #16]
10003450:	3307      	adds	r3, #7
10003452:	4393      	bics	r3, r2
10003454:	9a0a      	ldr	r2, [sp, #40]	; 0x28
10003456:	0019      	movs	r1, r3
10003458:	9203      	str	r2, [sp, #12]
1000345a:	4642      	mov	r2, r8
1000345c:	9202      	str	r2, [sp, #8]
1000345e:	c90c      	ldmia	r1!, {r2, r3}
10003460:	9808      	ldr	r0, [sp, #32]
10003462:	9200      	str	r2, [sp, #0]
10003464:	9301      	str	r3, [sp, #4]
10003466:	9109      	str	r1, [sp, #36]	; 0x24
10003468:	002a      	movs	r2, r5
1000346a:	464b      	mov	r3, r9
1000346c:	0021      	movs	r1, r4
1000346e:	f7ff fccf 	bl	10002e10 <_ftoa>
10003472:	3601      	adds	r6, #1
10003474:	0005      	movs	r5, r0
10003476:	e6bc      	b.n	100031f2 <_vsnprintf+0x4a>
10003478:	002a      	movs	r2, r5
1000347a:	1c6f      	adds	r7, r5, #1
1000347c:	464b      	mov	r3, r9
1000347e:	9d08      	ldr	r5, [sp, #32]
10003480:	0021      	movs	r1, r4
10003482:	2025      	movs	r0, #37	; 0x25
10003484:	47a8      	blx	r5
10003486:	3601      	adds	r6, #1
10003488:	003d      	movs	r5, r7
1000348a:	e6b2      	b.n	100031f2 <_vsnprintf+0x4a>
1000348c:	078b      	lsls	r3, r1, #30
1000348e:	d400      	bmi.n	10003492 <_vsnprintf+0x2ea>
10003490:	e1ad      	b.n	100037ee <_vsnprintf+0x646>
10003492:	9b09      	ldr	r3, [sp, #36]	; 0x24
10003494:	002a      	movs	r2, r5
10003496:	469a      	mov	sl, r3
10003498:	1c6b      	adds	r3, r5, #1
1000349a:	4698      	mov	r8, r3
1000349c:	4653      	mov	r3, sl
1000349e:	cb01      	ldmia	r3!, {r0}
100034a0:	0021      	movs	r1, r4
100034a2:	469a      	mov	sl, r3
100034a4:	9f08      	ldr	r7, [sp, #32]
100034a6:	464b      	mov	r3, r9
100034a8:	b2c0      	uxtb	r0, r0
100034aa:	47b8      	blx	r7
100034ac:	9b0a      	ldr	r3, [sp, #40]	; 0x28
100034ae:	469c      	mov	ip, r3
100034b0:	4465      	add	r5, ip
100034b2:	2b01      	cmp	r3, #1
100034b4:	d800      	bhi.n	100034b8 <_vsnprintf+0x310>
100034b6:	e286      	b.n	100039c6 <_vsnprintf+0x81e>
100034b8:	9b08      	ldr	r3, [sp, #32]
100034ba:	4647      	mov	r7, r8
100034bc:	46b0      	mov	r8, r6
100034be:	0026      	movs	r6, r4
100034c0:	464c      	mov	r4, r9
100034c2:	4699      	mov	r9, r3
100034c4:	003a      	movs	r2, r7
100034c6:	0023      	movs	r3, r4
100034c8:	3701      	adds	r7, #1
100034ca:	0031      	movs	r1, r6
100034cc:	2020      	movs	r0, #32
100034ce:	47c8      	blx	r9
100034d0:	42af      	cmp	r7, r5
100034d2:	d1f7      	bne.n	100034c4 <_vsnprintf+0x31c>
100034d4:	46a1      	mov	r9, r4
100034d6:	4653      	mov	r3, sl
100034d8:	0034      	movs	r4, r6
100034da:	4646      	mov	r6, r8
100034dc:	9309      	str	r3, [sp, #36]	; 0x24
100034de:	3601      	adds	r6, #1
100034e0:	e687      	b.n	100031f2 <_vsnprintf+0x4a>
100034e2:	46c0      	nop			; (mov r8, r8)
100034e4:	100031a9 	.word	0x100031a9
100034e8:	20001be8 	.word	0x20001be8
100034ec:	1000b68c 	.word	0x1000b68c
100034f0:	1000b6d0 	.word	0x1000b6d0
100034f4:	1000b71c 	.word	0x1000b71c
100034f8:	9b09      	ldr	r3, [sp, #36]	; 0x24
100034fa:	cb04      	ldmia	r3!, {r2}
100034fc:	469b      	mov	fp, r3
100034fe:	4643      	mov	r3, r8
10003500:	9209      	str	r2, [sp, #36]	; 0x24
10003502:	2b00      	cmp	r3, #0
10003504:	d100      	bne.n	10003508 <_vsnprintf+0x360>
10003506:	e0c6      	b.n	10003696 <_vsnprintf+0x4ee>
10003508:	7813      	ldrb	r3, [r2, #0]
1000350a:	469c      	mov	ip, r3
1000350c:	2b00      	cmp	r3, #0
1000350e:	d100      	bne.n	10003512 <_vsnprintf+0x36a>
10003510:	e3bd      	b.n	10003c8e <_vsnprintf+0xae6>
10003512:	4643      	mov	r3, r8
10003514:	3b01      	subs	r3, #1
10003516:	9a09      	ldr	r2, [sp, #36]	; 0x24
10003518:	3301      	adds	r3, #1
1000351a:	18d0      	adds	r0, r2, r3
1000351c:	9f0a      	ldr	r7, [sp, #40]	; 0x28
1000351e:	0013      	movs	r3, r2
10003520:	e001      	b.n	10003526 <_vsnprintf+0x37e>
10003522:	4283      	cmp	r3, r0
10003524:	d003      	beq.n	1000352e <_vsnprintf+0x386>
10003526:	785a      	ldrb	r2, [r3, #1]
10003528:	3301      	adds	r3, #1
1000352a:	2a00      	cmp	r2, #0
1000352c:	d1f9      	bne.n	10003522 <_vsnprintf+0x37a>
1000352e:	9a09      	ldr	r2, [sp, #36]	; 0x24
10003530:	970a      	str	r7, [sp, #40]	; 0x28
10003532:	1a9b      	subs	r3, r3, r2
10003534:	930b      	str	r3, [sp, #44]	; 0x2c
10003536:	2380      	movs	r3, #128	; 0x80
10003538:	000a      	movs	r2, r1
1000353a:	00db      	lsls	r3, r3, #3
1000353c:	401a      	ands	r2, r3
1000353e:	920c      	str	r2, [sp, #48]	; 0x30
10003540:	4219      	tst	r1, r3
10003542:	d004      	beq.n	1000354e <_vsnprintf+0x3a6>
10003544:	9b0b      	ldr	r3, [sp, #44]	; 0x2c
10003546:	4543      	cmp	r3, r8
10003548:	d901      	bls.n	1000354e <_vsnprintf+0x3a6>
1000354a:	4643      	mov	r3, r8
1000354c:	930b      	str	r3, [sp, #44]	; 0x2c
1000354e:	2302      	movs	r3, #2
10003550:	001a      	movs	r2, r3
10003552:	400a      	ands	r2, r1
10003554:	920d      	str	r2, [sp, #52]	; 0x34
10003556:	420b      	tst	r3, r1
10003558:	d100      	bne.n	1000355c <_vsnprintf+0x3b4>
1000355a:	e187      	b.n	1000386c <_vsnprintf+0x6c4>
1000355c:	4660      	mov	r0, ip
1000355e:	2800      	cmp	r0, #0
10003560:	d100      	bne.n	10003564 <_vsnprintf+0x3bc>
10003562:	e168      	b.n	10003836 <_vsnprintf+0x68e>
10003564:	9b0c      	ldr	r3, [sp, #48]	; 0x30
10003566:	2b00      	cmp	r3, #0
10003568:	d100      	bne.n	1000356c <_vsnprintf+0x3c4>
1000356a:	e10d      	b.n	10003788 <_vsnprintf+0x5e0>
1000356c:	44a8      	add	r8, r5
1000356e:	46c2      	mov	sl, r8
10003570:	9b09      	ldr	r3, [sp, #36]	; 0x24
10003572:	4657      	mov	r7, sl
10003574:	1b5b      	subs	r3, r3, r5
10003576:	4698      	mov	r8, r3
10003578:	9b08      	ldr	r3, [sp, #32]
1000357a:	46b2      	mov	sl, r6
1000357c:	002a      	movs	r2, r5
1000357e:	0026      	movs	r6, r4
10003580:	464c      	mov	r4, r9
10003582:	4699      	mov	r9, r3
10003584:	e009      	b.n	1000359a <_vsnprintf+0x3f2>
10003586:	0023      	movs	r3, r4
10003588:	0031      	movs	r1, r6
1000358a:	1c55      	adds	r5, r2, #1
1000358c:	47c8      	blx	r9
1000358e:	4643      	mov	r3, r8
10003590:	5d58      	ldrb	r0, [r3, r5]
10003592:	2800      	cmp	r0, #0
10003594:	d100      	bne.n	10003598 <_vsnprintf+0x3f0>
10003596:	e126      	b.n	100037e6 <_vsnprintf+0x63e>
10003598:	002a      	movs	r2, r5
1000359a:	4297      	cmp	r7, r2
1000359c:	d1f3      	bne.n	10003586 <_vsnprintf+0x3de>
1000359e:	46a1      	mov	r9, r4
100035a0:	003d      	movs	r5, r7
100035a2:	0034      	movs	r4, r6
100035a4:	4656      	mov	r6, sl
100035a6:	9b0d      	ldr	r3, [sp, #52]	; 0x34
100035a8:	2b00      	cmp	r3, #0
100035aa:	d000      	beq.n	100035ae <_vsnprintf+0x406>
100035ac:	e143      	b.n	10003836 <_vsnprintf+0x68e>
100035ae:	465b      	mov	r3, fp
100035b0:	3601      	adds	r6, #1
100035b2:	9309      	str	r3, [sp, #36]	; 0x24
100035b4:	e61d      	b.n	100031f2 <_vsnprintf+0x4a>
100035b6:	9b09      	ldr	r3, [sp, #36]	; 0x24
100035b8:	001a      	movs	r2, r3
100035ba:	ca08      	ldmia	r2!, {r3}
100035bc:	4692      	mov	sl, r2
100035be:	2b00      	cmp	r3, #0
100035c0:	d048      	beq.n	10003654 <_vsnprintf+0x4ac>
100035c2:	2221      	movs	r2, #33	; 0x21
100035c4:	4311      	orrs	r1, r2
100035c6:	468b      	mov	fp, r1
100035c8:	a80e      	add	r0, sp, #56	; 0x38
100035ca:	4684      	mov	ip, r0
100035cc:	211f      	movs	r1, #31
100035ce:	4461      	add	r1, ip
100035d0:	9509      	str	r5, [sp, #36]	; 0x24
100035d2:	2200      	movs	r2, #0
100035d4:	270f      	movs	r7, #15
100035d6:	46a4      	mov	ip, r4
100035d8:	000d      	movs	r5, r1
100035da:	e002      	b.n	100035e2 <_vsnprintf+0x43a>
100035dc:	2a20      	cmp	r2, #32
100035de:	d00c      	beq.n	100035fa <_vsnprintf+0x452>
100035e0:	000b      	movs	r3, r1
100035e2:	003c      	movs	r4, r7
100035e4:	401c      	ands	r4, r3
100035e6:	0020      	movs	r0, r4
100035e8:	3037      	adds	r0, #55	; 0x37
100035ea:	2c09      	cmp	r4, #9
100035ec:	d800      	bhi.n	100035f0 <_vsnprintf+0x448>
100035ee:	3807      	subs	r0, #7
100035f0:	3201      	adds	r2, #1
100035f2:	54a8      	strb	r0, [r5, r2]
100035f4:	0919      	lsrs	r1, r3, #4
100035f6:	2b0f      	cmp	r3, #15
100035f8:	d8f0      	bhi.n	100035dc <_vsnprintf+0x434>
100035fa:	4664      	mov	r4, ip
100035fc:	9d09      	ldr	r5, [sp, #36]	; 0x24
100035fe:	e032      	b.n	10003666 <_vsnprintf+0x4be>
10003600:	4bdc      	ldr	r3, [pc, #880]	; (10003974 <_vsnprintf+0x7cc>)
10003602:	7820      	ldrb	r0, [r4, #0]
10003604:	9308      	str	r3, [sp, #32]
10003606:	2300      	movs	r3, #0
10003608:	469a      	mov	sl, r3
1000360a:	2800      	cmp	r0, #0
1000360c:	d000      	beq.n	10003610 <_vsnprintf+0x468>
1000360e:	e5e4      	b.n	100031da <_vsnprintf+0x32>
10003610:	2400      	movs	r4, #0
10003612:	e665      	b.n	100032e0 <_vsnprintf+0x138>
10003614:	4643      	mov	r3, r8
10003616:	0006      	movs	r6, r0
10003618:	9f0a      	ldr	r7, [sp, #40]	; 0x28
1000361a:	0098      	lsls	r0, r3, #2
1000361c:	18c0      	adds	r0, r0, r3
1000361e:	3201      	adds	r2, #1
10003620:	0040      	lsls	r0, r0, #1
10003622:	1980      	adds	r0, r0, r6
10003624:	7816      	ldrb	r6, [r2, #0]
10003626:	0003      	movs	r3, r0
10003628:	0030      	movs	r0, r6
1000362a:	3830      	subs	r0, #48	; 0x30
1000362c:	3b30      	subs	r3, #48	; 0x30
1000362e:	2809      	cmp	r0, #9
10003630:	d9f3      	bls.n	1000361a <_vsnprintf+0x472>
10003632:	0030      	movs	r0, r6
10003634:	4698      	mov	r8, r3
10003636:	0016      	movs	r6, r2
10003638:	970a      	str	r7, [sp, #40]	; 0x28
1000363a:	e600      	b.n	1000323e <_vsnprintf+0x96>
1000363c:	9b09      	ldr	r3, [sp, #36]	; 0x24
1000363e:	3602      	adds	r6, #2
10003640:	cb04      	ldmia	r3!, {r2}
10003642:	4690      	mov	r8, r2
10003644:	43d2      	mvns	r2, r2
10003646:	4640      	mov	r0, r8
10003648:	17d2      	asrs	r2, r2, #31
1000364a:	4010      	ands	r0, r2
1000364c:	4680      	mov	r8, r0
1000364e:	9309      	str	r3, [sp, #36]	; 0x24
10003650:	7830      	ldrb	r0, [r6, #0]
10003652:	e5f4      	b.n	1000323e <_vsnprintf+0x96>
10003654:	2210      	movs	r2, #16
10003656:	0008      	movs	r0, r1
10003658:	4390      	bics	r0, r2
1000365a:	3211      	adds	r2, #17
1000365c:	4310      	orrs	r0, r2
1000365e:	4683      	mov	fp, r0
10003660:	2200      	movs	r2, #0
10003662:	0549      	lsls	r1, r1, #21
10003664:	d5b0      	bpl.n	100035c8 <_vsnprintf+0x420>
10003666:	465b      	mov	r3, fp
10003668:	9306      	str	r3, [sp, #24]
1000366a:	2308      	movs	r3, #8
1000366c:	9305      	str	r3, [sp, #20]
1000366e:	4643      	mov	r3, r8
10003670:	9304      	str	r3, [sp, #16]
10003672:	2310      	movs	r3, #16
10003674:	9303      	str	r3, [sp, #12]
10003676:	2300      	movs	r3, #0
10003678:	9302      	str	r3, [sp, #8]
1000367a:	ab16      	add	r3, sp, #88	; 0x58
1000367c:	9201      	str	r2, [sp, #4]
1000367e:	9300      	str	r3, [sp, #0]
10003680:	002a      	movs	r2, r5
10003682:	464b      	mov	r3, r9
10003684:	0021      	movs	r1, r4
10003686:	9808      	ldr	r0, [sp, #32]
10003688:	f7ff f8a6 	bl	100027d8 <_ntoa_format>
1000368c:	4653      	mov	r3, sl
1000368e:	0005      	movs	r5, r0
10003690:	3601      	adds	r6, #1
10003692:	9309      	str	r3, [sp, #36]	; 0x24
10003694:	e5ad      	b.n	100031f2 <_vsnprintf+0x4a>
10003696:	7813      	ldrb	r3, [r2, #0]
10003698:	469c      	mov	ip, r3
1000369a:	2b00      	cmp	r3, #0
1000369c:	d100      	bne.n	100036a0 <_vsnprintf+0x4f8>
1000369e:	e2f7      	b.n	10003c90 <_vsnprintf+0xae8>
100036a0:	2302      	movs	r3, #2
100036a2:	425b      	negs	r3, r3
100036a4:	e737      	b.n	10003516 <_vsnprintf+0x36e>
100036a6:	2320      	movs	r3, #32
100036a8:	0002      	movs	r2, r0
100036aa:	439a      	bics	r2, r3
100036ac:	2a47      	cmp	r2, #71	; 0x47
100036ae:	d104      	bne.n	100036ba <_vsnprintf+0x512>
100036b0:	2380      	movs	r3, #128	; 0x80
100036b2:	011b      	lsls	r3, r3, #4
100036b4:	4319      	orrs	r1, r3
100036b6:	2302      	movs	r3, #2
100036b8:	4398      	bics	r0, r3
100036ba:	2845      	cmp	r0, #69	; 0x45
100036bc:	d101      	bne.n	100036c2 <_vsnprintf+0x51a>
100036be:	2320      	movs	r3, #32
100036c0:	4319      	orrs	r1, r3
100036c2:	2207      	movs	r2, #7
100036c4:	9b09      	ldr	r3, [sp, #36]	; 0x24
100036c6:	9104      	str	r1, [sp, #16]
100036c8:	3307      	adds	r3, #7
100036ca:	4393      	bics	r3, r2
100036cc:	9a0a      	ldr	r2, [sp, #40]	; 0x28
100036ce:	0019      	movs	r1, r3
100036d0:	9203      	str	r2, [sp, #12]
100036d2:	4642      	mov	r2, r8
100036d4:	9202      	str	r2, [sp, #8]
100036d6:	c90c      	ldmia	r1!, {r2, r3}
100036d8:	9808      	ldr	r0, [sp, #32]
100036da:	9200      	str	r2, [sp, #0]
100036dc:	9301      	str	r3, [sp, #4]
100036de:	9109      	str	r1, [sp, #36]	; 0x24
100036e0:	002a      	movs	r2, r5
100036e2:	464b      	mov	r3, r9
100036e4:	0021      	movs	r1, r4
100036e6:	f7ff f96d 	bl	100029c4 <_etoa>
100036ea:	3601      	adds	r6, #1
100036ec:	0005      	movs	r5, r0
100036ee:	e580      	b.n	100031f2 <_vsnprintf+0x4a>
100036f0:	2310      	movs	r3, #16
100036f2:	930c      	str	r3, [sp, #48]	; 0x30
100036f4:	230c      	movs	r3, #12
100036f6:	000a      	movs	r2, r1
100036f8:	439a      	bics	r2, r3
100036fa:	920b      	str	r2, [sp, #44]	; 0x2c
100036fc:	054b      	lsls	r3, r1, #21
100036fe:	d503      	bpl.n	10003708 <_vsnprintf+0x560>
10003700:	2301      	movs	r3, #1
10003702:	9a0b      	ldr	r2, [sp, #44]	; 0x2c
10003704:	439a      	bics	r2, r3
10003706:	920b      	str	r2, [sp, #44]	; 0x2c
10003708:	2869      	cmp	r0, #105	; 0x69
1000370a:	d100      	bne.n	1000370e <_vsnprintf+0x566>
1000370c:	e627      	b.n	1000335e <_vsnprintf+0x1b6>
1000370e:	2864      	cmp	r0, #100	; 0x64
10003710:	d100      	bne.n	10003714 <_vsnprintf+0x56c>
10003712:	e624      	b.n	1000335e <_vsnprintf+0x1b6>
10003714:	9a0b      	ldr	r2, [sp, #44]	; 0x2c
10003716:	2380      	movs	r3, #128	; 0x80
10003718:	0011      	movs	r1, r2
1000371a:	009b      	lsls	r3, r3, #2
1000371c:	4019      	ands	r1, r3
1000371e:	468b      	mov	fp, r1
10003720:	421a      	tst	r2, r3
10003722:	d000      	beq.n	10003726 <_vsnprintf+0x57e>
10003724:	e166      	b.n	100039f4 <_vsnprintf+0x84c>
10003726:	2380      	movs	r3, #128	; 0x80
10003728:	0011      	movs	r1, r2
1000372a:	005b      	lsls	r3, r3, #1
1000372c:	4019      	ands	r1, r3
1000372e:	468a      	mov	sl, r1
10003730:	421a      	tst	r2, r3
10003732:	d000      	beq.n	10003736 <_vsnprintf+0x58e>
10003734:	e239      	b.n	10003baa <_vsnprintf+0xa02>
10003736:	0013      	movs	r3, r2
10003738:	065b      	lsls	r3, r3, #25
1000373a:	d500      	bpl.n	1000373e <_vsnprintf+0x596>
1000373c:	e13c      	b.n	100039b8 <_vsnprintf+0x810>
1000373e:	0013      	movs	r3, r2
10003740:	061b      	lsls	r3, r3, #24
10003742:	d400      	bmi.n	10003746 <_vsnprintf+0x59e>
10003744:	e2a6      	b.n	10003c94 <_vsnprintf+0xaec>
10003746:	9b09      	ldr	r3, [sp, #36]	; 0x24
10003748:	cb04      	ldmia	r3!, {r2}
1000374a:	0412      	lsls	r2, r2, #16
1000374c:	0c12      	lsrs	r2, r2, #16
1000374e:	4693      	mov	fp, r2
10003750:	9309      	str	r3, [sp, #36]	; 0x24
10003752:	465b      	mov	r3, fp
10003754:	2b00      	cmp	r3, #0
10003756:	d000      	beq.n	1000375a <_vsnprintf+0x5b2>
10003758:	e19a      	b.n	10003a90 <_vsnprintf+0x8e8>
1000375a:	9a0b      	ldr	r2, [sp, #44]	; 0x2c
1000375c:	3310      	adds	r3, #16
1000375e:	0011      	movs	r1, r2
10003760:	4399      	bics	r1, r3
10003762:	910b      	str	r1, [sp, #44]	; 0x2c
10003764:	0552      	lsls	r2, r2, #21
10003766:	d400      	bmi.n	1000376a <_vsnprintf+0x5c2>
10003768:	e192      	b.n	10003a90 <_vsnprintf+0x8e8>
1000376a:	2300      	movs	r3, #0
1000376c:	469a      	mov	sl, r3
1000376e:	9b0b      	ldr	r3, [sp, #44]	; 0x2c
10003770:	9306      	str	r3, [sp, #24]
10003772:	9b0a      	ldr	r3, [sp, #40]	; 0x28
10003774:	9305      	str	r3, [sp, #20]
10003776:	4643      	mov	r3, r8
10003778:	9304      	str	r3, [sp, #16]
1000377a:	9b0c      	ldr	r3, [sp, #48]	; 0x30
1000377c:	9303      	str	r3, [sp, #12]
1000377e:	2300      	movs	r3, #0
10003780:	e10c      	b.n	1000399c <_vsnprintf+0x7f4>
10003782:	2320      	movs	r3, #32
10003784:	4319      	orrs	r1, r3
10003786:	e660      	b.n	1000344a <_vsnprintf+0x2a2>
10003788:	9b09      	ldr	r3, [sp, #36]	; 0x24
1000378a:	9a0a      	ldr	r2, [sp, #40]	; 0x28
1000378c:	1b5b      	subs	r3, r3, r5
1000378e:	4698      	mov	r8, r3
10003790:	464b      	mov	r3, r9
10003792:	4691      	mov	r9, r2
10003794:	001f      	movs	r7, r3
10003796:	46b2      	mov	sl, r6
10003798:	0026      	movs	r6, r4
1000379a:	9c08      	ldr	r4, [sp, #32]
1000379c:	002a      	movs	r2, r5
1000379e:	003b      	movs	r3, r7
100037a0:	0031      	movs	r1, r6
100037a2:	47a0      	blx	r4
100037a4:	4643      	mov	r3, r8
100037a6:	3501      	adds	r5, #1
100037a8:	5d58      	ldrb	r0, [r3, r5]
100037aa:	2800      	cmp	r0, #0
100037ac:	d1f6      	bne.n	1000379c <_vsnprintf+0x5f4>
100037ae:	464a      	mov	r2, r9
100037b0:	0034      	movs	r4, r6
100037b2:	46b9      	mov	r9, r7
100037b4:	4656      	mov	r6, sl
100037b6:	920a      	str	r2, [sp, #40]	; 0x28
100037b8:	e6f5      	b.n	100035a6 <_vsnprintf+0x3fe>
100037ba:	23c0      	movs	r3, #192	; 0xc0
100037bc:	009b      	lsls	r3, r3, #2
100037be:	78b0      	ldrb	r0, [r6, #2]
100037c0:	4319      	orrs	r1, r3
100037c2:	3602      	adds	r6, #2
100037c4:	e55d      	b.n	10003282 <_vsnprintf+0xda>
100037c6:	23c0      	movs	r3, #192	; 0xc0
100037c8:	78b0      	ldrb	r0, [r6, #2]
100037ca:	4319      	orrs	r1, r3
100037cc:	3602      	adds	r6, #2
100037ce:	e558      	b.n	10003282 <_vsnprintf+0xda>
100037d0:	230c      	movs	r3, #12
100037d2:	000a      	movs	r2, r1
100037d4:	439a      	bics	r2, r3
100037d6:	3314      	adds	r3, #20
100037d8:	431a      	orrs	r2, r3
100037da:	3b10      	subs	r3, #16
100037dc:	920b      	str	r2, [sp, #44]	; 0x2c
100037de:	930c      	str	r3, [sp, #48]	; 0x30
100037e0:	054b      	lsls	r3, r1, #21
100037e2:	d48d      	bmi.n	10003700 <_vsnprintf+0x558>
100037e4:	e796      	b.n	10003714 <_vsnprintf+0x56c>
100037e6:	46a1      	mov	r9, r4
100037e8:	0034      	movs	r4, r6
100037ea:	4656      	mov	r6, sl
100037ec:	e6db      	b.n	100035a6 <_vsnprintf+0x3fe>
100037ee:	9a0a      	ldr	r2, [sp, #40]	; 0x28
100037f0:	2a01      	cmp	r2, #1
100037f2:	d800      	bhi.n	100037f6 <_vsnprintf+0x64e>
100037f4:	e253      	b.n	10003c9e <_vsnprintf+0xaf6>
100037f6:	1e6b      	subs	r3, r5, #1
100037f8:	189f      	adds	r7, r3, r2
100037fa:	9b08      	ldr	r3, [sp, #32]
100037fc:	46b0      	mov	r8, r6
100037fe:	0026      	movs	r6, r4
10003800:	464c      	mov	r4, r9
10003802:	4699      	mov	r9, r3
10003804:	002a      	movs	r2, r5
10003806:	0023      	movs	r3, r4
10003808:	3501      	adds	r5, #1
1000380a:	0031      	movs	r1, r6
1000380c:	2020      	movs	r0, #32
1000380e:	47c8      	blx	r9
10003810:	42bd      	cmp	r5, r7
10003812:	d1f7      	bne.n	10003804 <_vsnprintf+0x65c>
10003814:	46a1      	mov	r9, r4
10003816:	0034      	movs	r4, r6
10003818:	4646      	mov	r6, r8
1000381a:	9b09      	ldr	r3, [sp, #36]	; 0x24
1000381c:	003a      	movs	r2, r7
1000381e:	cb01      	ldmia	r3!, {r0}
10003820:	0021      	movs	r1, r4
10003822:	4698      	mov	r8, r3
10003824:	1c7d      	adds	r5, r7, #1
10003826:	464b      	mov	r3, r9
10003828:	9f08      	ldr	r7, [sp, #32]
1000382a:	b2c0      	uxtb	r0, r0
1000382c:	47b8      	blx	r7
1000382e:	4643      	mov	r3, r8
10003830:	3601      	adds	r6, #1
10003832:	9309      	str	r3, [sp, #36]	; 0x24
10003834:	e4dd      	b.n	100031f2 <_vsnprintf+0x4a>
10003836:	9b0b      	ldr	r3, [sp, #44]	; 0x2c
10003838:	9a0a      	ldr	r2, [sp, #40]	; 0x28
1000383a:	46a8      	mov	r8, r5
1000383c:	429a      	cmp	r2, r3
1000383e:	d800      	bhi.n	10003842 <_vsnprintf+0x69a>
10003840:	e6b5      	b.n	100035ae <_vsnprintf+0x406>
10003842:	4694      	mov	ip, r2
10003844:	4465      	add	r5, ip
10003846:	1aed      	subs	r5, r5, r3
10003848:	9b08      	ldr	r3, [sp, #32]
1000384a:	4647      	mov	r7, r8
1000384c:	46b0      	mov	r8, r6
1000384e:	0026      	movs	r6, r4
10003850:	464c      	mov	r4, r9
10003852:	4699      	mov	r9, r3
10003854:	003a      	movs	r2, r7
10003856:	0023      	movs	r3, r4
10003858:	3701      	adds	r7, #1
1000385a:	0031      	movs	r1, r6
1000385c:	2020      	movs	r0, #32
1000385e:	47c8      	blx	r9
10003860:	42af      	cmp	r7, r5
10003862:	d1f7      	bne.n	10003854 <_vsnprintf+0x6ac>
10003864:	46a1      	mov	r9, r4
10003866:	0034      	movs	r4, r6
10003868:	4646      	mov	r6, r8
1000386a:	e6a0      	b.n	100035ae <_vsnprintf+0x406>
1000386c:	9a0b      	ldr	r2, [sp, #44]	; 0x2c
1000386e:	990a      	ldr	r1, [sp, #40]	; 0x28
10003870:	1c53      	adds	r3, r2, #1
10003872:	4291      	cmp	r1, r2
10003874:	d800      	bhi.n	10003878 <_vsnprintf+0x6d0>
10003876:	e214      	b.n	10003ca2 <_vsnprintf+0xafa>
10003878:	194b      	adds	r3, r1, r5
1000387a:	1a9b      	subs	r3, r3, r2
1000387c:	001f      	movs	r7, r3
1000387e:	9b08      	ldr	r3, [sp, #32]
10003880:	46b2      	mov	sl, r6
10003882:	0026      	movs	r6, r4
10003884:	464c      	mov	r4, r9
10003886:	4699      	mov	r9, r3
10003888:	002a      	movs	r2, r5
1000388a:	0023      	movs	r3, r4
1000388c:	3501      	adds	r5, #1
1000388e:	0031      	movs	r1, r6
10003890:	2020      	movs	r0, #32
10003892:	47c8      	blx	r9
10003894:	42bd      	cmp	r5, r7
10003896:	d1f7      	bne.n	10003888 <_vsnprintf+0x6e0>
10003898:	9b0a      	ldr	r3, [sp, #40]	; 0x28
1000389a:	46a1      	mov	r9, r4
1000389c:	3301      	adds	r3, #1
1000389e:	930b      	str	r3, [sp, #44]	; 0x2c
100038a0:	9b09      	ldr	r3, [sp, #36]	; 0x24
100038a2:	0034      	movs	r4, r6
100038a4:	781b      	ldrb	r3, [r3, #0]
100038a6:	4656      	mov	r6, sl
100038a8:	469c      	mov	ip, r3
100038aa:	4660      	mov	r0, ip
100038ac:	2800      	cmp	r0, #0
100038ae:	d000      	beq.n	100038b2 <_vsnprintf+0x70a>
100038b0:	e658      	b.n	10003564 <_vsnprintf+0x3bc>
100038b2:	e67c      	b.n	100035ae <_vsnprintf+0x406>
100038b4:	2207      	movs	r2, #7
100038b6:	9b09      	ldr	r3, [sp, #36]	; 0x24
100038b8:	3307      	adds	r3, #7
100038ba:	4393      	bics	r3, r2
100038bc:	3201      	adds	r2, #1
100038be:	4694      	mov	ip, r2
100038c0:	449c      	add	ip, r3
100038c2:	4662      	mov	r2, ip
100038c4:	685f      	ldr	r7, [r3, #4]
100038c6:	9209      	str	r2, [sp, #36]	; 0x24
100038c8:	681a      	ldr	r2, [r3, #0]
100038ca:	17fb      	asrs	r3, r7, #31
100038cc:	9310      	str	r3, [sp, #64]	; 0x40
100038ce:	9311      	str	r3, [sp, #68]	; 0x44
100038d0:	9810      	ldr	r0, [sp, #64]	; 0x40
100038d2:	9911      	ldr	r1, [sp, #68]	; 0x44
100038d4:	0003      	movs	r3, r0
100038d6:	4053      	eors	r3, r2
100038d8:	930e      	str	r3, [sp, #56]	; 0x38
100038da:	000b      	movs	r3, r1
100038dc:	407b      	eors	r3, r7
100038de:	930f      	str	r3, [sp, #60]	; 0x3c
100038e0:	4694      	mov	ip, r2
100038e2:	9a0e      	ldr	r2, [sp, #56]	; 0x38
100038e4:	9b0f      	ldr	r3, [sp, #60]	; 0x3c
100038e6:	1a12      	subs	r2, r2, r0
100038e8:	418b      	sbcs	r3, r1
100038ea:	920e      	str	r2, [sp, #56]	; 0x38
100038ec:	930f      	str	r3, [sp, #60]	; 0x3c
100038ee:	0ffb      	lsrs	r3, r7, #31
100038f0:	4662      	mov	r2, ip
100038f2:	9312      	str	r3, [sp, #72]	; 0x48
100038f4:	2300      	movs	r3, #0
100038f6:	433a      	orrs	r2, r7
100038f8:	469b      	mov	fp, r3
100038fa:	d03d      	beq.n	10003978 <_vsnprintf+0x7d0>
100038fc:	9a0b      	ldr	r2, [sp, #44]	; 0x2c
100038fe:	2361      	movs	r3, #97	; 0x61
10003900:	0692      	lsls	r2, r2, #26
10003902:	d500      	bpl.n	10003906 <_vsnprintf+0x75e>
10003904:	2341      	movs	r3, #65	; 0x41
10003906:	2200      	movs	r2, #0
10003908:	b2db      	uxtb	r3, r3
1000390a:	a90e      	add	r1, sp, #56	; 0x38
1000390c:	3b0a      	subs	r3, #10
1000390e:	468c      	mov	ip, r1
10003910:	4692      	mov	sl, r2
10003912:	930d      	str	r3, [sp, #52]	; 0x34
10003914:	4643      	mov	r3, r8
10003916:	321f      	adds	r2, #31
10003918:	4462      	add	r2, ip
1000391a:	9513      	str	r5, [sp, #76]	; 0x4c
1000391c:	9615      	str	r6, [sp, #84]	; 0x54
1000391e:	4655      	mov	r5, sl
10003920:	9e0e      	ldr	r6, [sp, #56]	; 0x38
10003922:	9f0f      	ldr	r7, [sp, #60]	; 0x3c
10003924:	46a2      	mov	sl, r4
10003926:	4690      	mov	r8, r2
10003928:	9c0c      	ldr	r4, [sp, #48]	; 0x30
1000392a:	9314      	str	r3, [sp, #80]	; 0x50
1000392c:	e00c      	b.n	10003948 <_vsnprintf+0x7a0>
1000392e:	3230      	adds	r2, #48	; 0x30
10003930:	b2d2      	uxtb	r2, r2
10003932:	4643      	mov	r3, r8
10003934:	3501      	adds	r5, #1
10003936:	555a      	strb	r2, [r3, r5]
10003938:	45bb      	cmp	fp, r7
1000393a:	d100      	bne.n	1000393e <_vsnprintf+0x796>
1000393c:	e18a      	b.n	10003c54 <_vsnprintf+0xaac>
1000393e:	2d20      	cmp	r5, #32
10003940:	d100      	bne.n	10003944 <_vsnprintf+0x79c>
10003942:	e18a      	b.n	10003c5a <_vsnprintf+0xab2>
10003944:	0006      	movs	r6, r0
10003946:	000f      	movs	r7, r1
10003948:	0022      	movs	r2, r4
1000394a:	2300      	movs	r3, #0
1000394c:	0030      	movs	r0, r6
1000394e:	0039      	movs	r1, r7
10003950:	f000 fa78 	bl	10003e44 <__wrap___aeabi_uldivmod>
10003954:	b2d2      	uxtb	r2, r2
10003956:	2a09      	cmp	r2, #9
10003958:	d9e9      	bls.n	1000392e <_vsnprintf+0x786>
1000395a:	9b0d      	ldr	r3, [sp, #52]	; 0x34
1000395c:	469c      	mov	ip, r3
1000395e:	4462      	add	r2, ip
10003960:	b2d2      	uxtb	r2, r2
10003962:	e7e6      	b.n	10003932 <_vsnprintf+0x78a>
10003964:	23ff      	movs	r3, #255	; 0xff
10003966:	9909      	ldr	r1, [sp, #36]	; 0x24
10003968:	c904      	ldmia	r1!, {r2}
1000396a:	4013      	ands	r3, r2
1000396c:	001a      	movs	r2, r3
1000396e:	9109      	str	r1, [sp, #36]	; 0x24
10003970:	e517      	b.n	100033a2 <_vsnprintf+0x1fa>
10003972:	46c0      	nop			; (mov r8, r8)
10003974:	10002739 	.word	0x10002739
10003978:	9a0b      	ldr	r2, [sp, #44]	; 0x2c
1000397a:	3310      	adds	r3, #16
1000397c:	0011      	movs	r1, r2
1000397e:	4399      	bics	r1, r3
10003980:	910b      	str	r1, [sp, #44]	; 0x2c
10003982:	0552      	lsls	r2, r2, #21
10003984:	d5ba      	bpl.n	100038fc <_vsnprintf+0x754>
10003986:	2300      	movs	r3, #0
10003988:	469a      	mov	sl, r3
1000398a:	9b0b      	ldr	r3, [sp, #44]	; 0x2c
1000398c:	9306      	str	r3, [sp, #24]
1000398e:	9b0a      	ldr	r3, [sp, #40]	; 0x28
10003990:	9305      	str	r3, [sp, #20]
10003992:	4643      	mov	r3, r8
10003994:	9304      	str	r3, [sp, #16]
10003996:	9b0c      	ldr	r3, [sp, #48]	; 0x30
10003998:	9303      	str	r3, [sp, #12]
1000399a:	9b12      	ldr	r3, [sp, #72]	; 0x48
1000399c:	9302      	str	r3, [sp, #8]
1000399e:	4653      	mov	r3, sl
100039a0:	9301      	str	r3, [sp, #4]
100039a2:	ab16      	add	r3, sp, #88	; 0x58
100039a4:	002a      	movs	r2, r5
100039a6:	9300      	str	r3, [sp, #0]
100039a8:	0021      	movs	r1, r4
100039aa:	464b      	mov	r3, r9
100039ac:	9808      	ldr	r0, [sp, #32]
100039ae:	f7fe ff13 	bl	100027d8 <_ntoa_format>
100039b2:	3601      	adds	r6, #1
100039b4:	0005      	movs	r5, r0
100039b6:	e41c      	b.n	100031f2 <_vsnprintf+0x4a>
100039b8:	22ff      	movs	r2, #255	; 0xff
100039ba:	9b09      	ldr	r3, [sp, #36]	; 0x24
100039bc:	cb02      	ldmia	r3!, {r1}
100039be:	4011      	ands	r1, r2
100039c0:	468b      	mov	fp, r1
100039c2:	9309      	str	r3, [sp, #36]	; 0x24
100039c4:	e6c5      	b.n	10003752 <_vsnprintf+0x5aa>
100039c6:	4653      	mov	r3, sl
100039c8:	4645      	mov	r5, r8
100039ca:	9309      	str	r3, [sp, #36]	; 0x24
100039cc:	3601      	adds	r6, #1
100039ce:	f7ff fc10 	bl	100031f2 <_vsnprintf+0x4a>
100039d2:	4656      	mov	r6, sl
100039d4:	465c      	mov	r4, fp
100039d6:	46aa      	mov	sl, r5
100039d8:	9d13      	ldr	r5, [sp, #76]	; 0x4c
100039da:	e7d6      	b.n	1000398a <_vsnprintf+0x7e2>
100039dc:	2308      	movs	r3, #8
100039de:	930c      	str	r3, [sp, #48]	; 0x30
100039e0:	910b      	str	r1, [sp, #44]	; 0x2c
100039e2:	990b      	ldr	r1, [sp, #44]	; 0x2c
100039e4:	2864      	cmp	r0, #100	; 0x64
100039e6:	d000      	beq.n	100039ea <_vsnprintf+0x842>
100039e8:	e684      	b.n	100036f4 <_vsnprintf+0x54c>
100039ea:	9b0b      	ldr	r3, [sp, #44]	; 0x2c
100039ec:	055b      	lsls	r3, r3, #21
100039ee:	d500      	bpl.n	100039f2 <_vsnprintf+0x84a>
100039f0:	e686      	b.n	10003700 <_vsnprintf+0x558>
100039f2:	e4b4      	b.n	1000335e <_vsnprintf+0x1b6>
100039f4:	2207      	movs	r2, #7
100039f6:	9b09      	ldr	r3, [sp, #36]	; 0x24
100039f8:	3307      	adds	r3, #7
100039fa:	4393      	bics	r3, r2
100039fc:	3201      	adds	r2, #1
100039fe:	4694      	mov	ip, r2
10003a00:	449c      	add	ip, r3
10003a02:	4662      	mov	r2, ip
10003a04:	9209      	str	r2, [sp, #36]	; 0x24
10003a06:	681a      	ldr	r2, [r3, #0]
10003a08:	685b      	ldr	r3, [r3, #4]
10003a0a:	0010      	movs	r0, r2
10003a0c:	469b      	mov	fp, r3
10003a0e:	0013      	movs	r3, r2
10003a10:	465a      	mov	r2, fp
10003a12:	4313      	orrs	r3, r2
10003a14:	d107      	bne.n	10003a26 <_vsnprintf+0x87e>
10003a16:	9a0b      	ldr	r2, [sp, #44]	; 0x2c
10003a18:	3310      	adds	r3, #16
10003a1a:	0011      	movs	r1, r2
10003a1c:	4399      	bics	r1, r3
10003a1e:	910b      	str	r1, [sp, #44]	; 0x2c
10003a20:	0552      	lsls	r2, r2, #21
10003a22:	d500      	bpl.n	10003a26 <_vsnprintf+0x87e>
10003a24:	e6a1      	b.n	1000376a <_vsnprintf+0x5c2>
10003a26:	9a0b      	ldr	r2, [sp, #44]	; 0x2c
10003a28:	2361      	movs	r3, #97	; 0x61
10003a2a:	0692      	lsls	r2, r2, #26
10003a2c:	d500      	bpl.n	10003a30 <_vsnprintf+0x888>
10003a2e:	2341      	movs	r3, #65	; 0x41
10003a30:	2200      	movs	r2, #0
10003a32:	b2db      	uxtb	r3, r3
10003a34:	a90e      	add	r1, sp, #56	; 0x38
10003a36:	3b0a      	subs	r3, #10
10003a38:	468c      	mov	ip, r1
10003a3a:	4692      	mov	sl, r2
10003a3c:	930d      	str	r3, [sp, #52]	; 0x34
10003a3e:	4643      	mov	r3, r8
10003a40:	321f      	adds	r2, #31
10003a42:	4462      	add	r2, ip
10003a44:	465f      	mov	r7, fp
10003a46:	9512      	str	r5, [sp, #72]	; 0x48
10003a48:	46a3      	mov	fp, r4
10003a4a:	4655      	mov	r5, sl
10003a4c:	0004      	movs	r4, r0
10003a4e:	46b2      	mov	sl, r6
10003a50:	4690      	mov	r8, r2
10003a52:	9e0c      	ldr	r6, [sp, #48]	; 0x30
10003a54:	9313      	str	r3, [sp, #76]	; 0x4c
10003a56:	e00d      	b.n	10003a74 <_vsnprintf+0x8cc>
10003a58:	3230      	adds	r2, #48	; 0x30
10003a5a:	b2d2      	uxtb	r2, r2
10003a5c:	4643      	mov	r3, r8
10003a5e:	3501      	adds	r5, #1
10003a60:	555a      	strb	r2, [r3, r5]
10003a62:	2300      	movs	r3, #0
10003a64:	42bb      	cmp	r3, r7
10003a66:	d100      	bne.n	10003a6a <_vsnprintf+0x8c2>
10003a68:	e100      	b.n	10003c6c <_vsnprintf+0xac4>
10003a6a:	2d20      	cmp	r5, #32
10003a6c:	d100      	bne.n	10003a70 <_vsnprintf+0x8c8>
10003a6e:	e100      	b.n	10003c72 <_vsnprintf+0xaca>
10003a70:	0004      	movs	r4, r0
10003a72:	000f      	movs	r7, r1
10003a74:	0032      	movs	r2, r6
10003a76:	2300      	movs	r3, #0
10003a78:	0020      	movs	r0, r4
10003a7a:	0039      	movs	r1, r7
10003a7c:	f000 f9e2 	bl	10003e44 <__wrap___aeabi_uldivmod>
10003a80:	b2d2      	uxtb	r2, r2
10003a82:	2a09      	cmp	r2, #9
10003a84:	d9e8      	bls.n	10003a58 <_vsnprintf+0x8b0>
10003a86:	9b0d      	ldr	r3, [sp, #52]	; 0x34
10003a88:	469c      	mov	ip, r3
10003a8a:	4462      	add	r2, ip
10003a8c:	b2d2      	uxtb	r2, r2
10003a8e:	e7e5      	b.n	10003a5c <_vsnprintf+0x8b4>
10003a90:	9a0b      	ldr	r2, [sp, #44]	; 0x2c
10003a92:	2361      	movs	r3, #97	; 0x61
10003a94:	0692      	lsls	r2, r2, #26
10003a96:	d500      	bpl.n	10003a9a <_vsnprintf+0x8f2>
10003a98:	2341      	movs	r3, #65	; 0x41
10003a9a:	b2db      	uxtb	r3, r3
10003a9c:	a90e      	add	r1, sp, #56	; 0x38
10003a9e:	3b0a      	subs	r3, #10
10003aa0:	221f      	movs	r2, #31
10003aa2:	468c      	mov	ip, r1
10003aa4:	930d      	str	r3, [sp, #52]	; 0x34
10003aa6:	0023      	movs	r3, r4
10003aa8:	4462      	add	r2, ip
10003aaa:	465c      	mov	r4, fp
10003aac:	9512      	str	r5, [sp, #72]	; 0x48
10003aae:	0017      	movs	r7, r2
10003ab0:	4655      	mov	r5, sl
10003ab2:	469b      	mov	fp, r3
10003ab4:	46b2      	mov	sl, r6
10003ab6:	9e0c      	ldr	r6, [sp, #48]	; 0x30
10003ab8:	e008      	b.n	10003acc <_vsnprintf+0x924>
10003aba:	3330      	adds	r3, #48	; 0x30
10003abc:	b2db      	uxtb	r3, r3
10003abe:	3501      	adds	r5, #1
10003ac0:	557b      	strb	r3, [r7, r5]
10003ac2:	42b4      	cmp	r4, r6
10003ac4:	d30e      	bcc.n	10003ae4 <_vsnprintf+0x93c>
10003ac6:	2d20      	cmp	r5, #32
10003ac8:	d00c      	beq.n	10003ae4 <_vsnprintf+0x93c>
10003aca:	0004      	movs	r4, r0
10003acc:	0031      	movs	r1, r6
10003ace:	0020      	movs	r0, r4
10003ad0:	f000 f976 	bl	10003dc0 <__wrap___aeabi_uidiv>
10003ad4:	b2cb      	uxtb	r3, r1
10003ad6:	2909      	cmp	r1, #9
10003ad8:	d9ef      	bls.n	10003aba <_vsnprintf+0x912>
10003ada:	9a0d      	ldr	r2, [sp, #52]	; 0x34
10003adc:	4694      	mov	ip, r2
10003ade:	4463      	add	r3, ip
10003ae0:	b2db      	uxtb	r3, r3
10003ae2:	e7ec      	b.n	10003abe <_vsnprintf+0x916>
10003ae4:	4656      	mov	r6, sl
10003ae6:	465c      	mov	r4, fp
10003ae8:	46aa      	mov	sl, r5
10003aea:	9d12      	ldr	r5, [sp, #72]	; 0x48
10003aec:	e63f      	b.n	1000376e <_vsnprintf+0x5c6>
10003aee:	9b09      	ldr	r3, [sp, #36]	; 0x24
10003af0:	001a      	movs	r2, r3
10003af2:	ca08      	ldmia	r2!, {r3}
10003af4:	17d9      	asrs	r1, r3, #31
10003af6:	9213      	str	r2, [sp, #76]	; 0x4c
10003af8:	185a      	adds	r2, r3, r1
10003afa:	404a      	eors	r2, r1
10003afc:	4692      	mov	sl, r2
10003afe:	0fda      	lsrs	r2, r3, #31
10003b00:	9212      	str	r2, [sp, #72]	; 0x48
10003b02:	2b00      	cmp	r3, #0
10003b04:	d108      	bne.n	10003b18 <_vsnprintf+0x970>
10003b06:	2380      	movs	r3, #128	; 0x80
10003b08:	2210      	movs	r2, #16
10003b0a:	990b      	ldr	r1, [sp, #44]	; 0x2c
10003b0c:	00db      	lsls	r3, r3, #3
10003b0e:	400b      	ands	r3, r1
10003b10:	4391      	bics	r1, r2
10003b12:	910b      	str	r1, [sp, #44]	; 0x2c
10003b14:	2b00      	cmp	r3, #0
10003b16:	d12b      	bne.n	10003b70 <_vsnprintf+0x9c8>
10003b18:	9a0b      	ldr	r2, [sp, #44]	; 0x2c
10003b1a:	2361      	movs	r3, #97	; 0x61
10003b1c:	0692      	lsls	r2, r2, #26
10003b1e:	d500      	bpl.n	10003b22 <_vsnprintf+0x97a>
10003b20:	2341      	movs	r3, #65	; 0x41
10003b22:	aa0e      	add	r2, sp, #56	; 0x38
10003b24:	271f      	movs	r7, #31
10003b26:	4694      	mov	ip, r2
10003b28:	b2db      	uxtb	r3, r3
10003b2a:	3b0a      	subs	r3, #10
10003b2c:	950d      	str	r5, [sp, #52]	; 0x34
10003b2e:	4467      	add	r7, ip
10003b30:	465d      	mov	r5, fp
10003b32:	9309      	str	r3, [sp, #36]	; 0x24
10003b34:	46a3      	mov	fp, r4
10003b36:	4654      	mov	r4, sl
10003b38:	46b2      	mov	sl, r6
10003b3a:	9e0c      	ldr	r6, [sp, #48]	; 0x30
10003b3c:	e008      	b.n	10003b50 <_vsnprintf+0x9a8>
10003b3e:	3330      	adds	r3, #48	; 0x30
10003b40:	b2db      	uxtb	r3, r3
10003b42:	3501      	adds	r5, #1
10003b44:	557b      	strb	r3, [r7, r5]
10003b46:	42b4      	cmp	r4, r6
10003b48:	d30e      	bcc.n	10003b68 <_vsnprintf+0x9c0>
10003b4a:	2d20      	cmp	r5, #32
10003b4c:	d00c      	beq.n	10003b68 <_vsnprintf+0x9c0>
10003b4e:	0004      	movs	r4, r0
10003b50:	0031      	movs	r1, r6
10003b52:	0020      	movs	r0, r4
10003b54:	f000 f934 	bl	10003dc0 <__wrap___aeabi_uidiv>
10003b58:	b2cb      	uxtb	r3, r1
10003b5a:	2909      	cmp	r1, #9
10003b5c:	d9ef      	bls.n	10003b3e <_vsnprintf+0x996>
10003b5e:	9a09      	ldr	r2, [sp, #36]	; 0x24
10003b60:	4694      	mov	ip, r2
10003b62:	4463      	add	r3, ip
10003b64:	b2db      	uxtb	r3, r3
10003b66:	e7ec      	b.n	10003b42 <_vsnprintf+0x99a>
10003b68:	4656      	mov	r6, sl
10003b6a:	465c      	mov	r4, fp
10003b6c:	46ab      	mov	fp, r5
10003b6e:	9d0d      	ldr	r5, [sp, #52]	; 0x34
10003b70:	9b0b      	ldr	r3, [sp, #44]	; 0x2c
10003b72:	002a      	movs	r2, r5
10003b74:	9306      	str	r3, [sp, #24]
10003b76:	9b0a      	ldr	r3, [sp, #40]	; 0x28
10003b78:	0021      	movs	r1, r4
10003b7a:	9305      	str	r3, [sp, #20]
10003b7c:	4643      	mov	r3, r8
10003b7e:	9304      	str	r3, [sp, #16]
10003b80:	9b0c      	ldr	r3, [sp, #48]	; 0x30
10003b82:	9808      	ldr	r0, [sp, #32]
10003b84:	9303      	str	r3, [sp, #12]
10003b86:	9b12      	ldr	r3, [sp, #72]	; 0x48
10003b88:	3601      	adds	r6, #1
10003b8a:	9302      	str	r3, [sp, #8]
10003b8c:	465b      	mov	r3, fp
10003b8e:	9301      	str	r3, [sp, #4]
10003b90:	ab16      	add	r3, sp, #88	; 0x58
10003b92:	9300      	str	r3, [sp, #0]
10003b94:	464b      	mov	r3, r9
10003b96:	f7fe fe1f 	bl	100027d8 <_ntoa_format>
10003b9a:	9b13      	ldr	r3, [sp, #76]	; 0x4c
10003b9c:	0005      	movs	r5, r0
10003b9e:	9309      	str	r3, [sp, #36]	; 0x24
10003ba0:	f7ff fb27 	bl	100031f2 <_vsnprintf+0x4a>
10003ba4:	2302      	movs	r3, #2
10003ba6:	930c      	str	r3, [sp, #48]	; 0x30
10003ba8:	e71a      	b.n	100039e0 <_vsnprintf+0x838>
10003baa:	9b09      	ldr	r3, [sp, #36]	; 0x24
10003bac:	cb04      	ldmia	r3!, {r2}
10003bae:	4692      	mov	sl, r2
10003bb0:	9312      	str	r3, [sp, #72]	; 0x48
10003bb2:	2a00      	cmp	r2, #0
10003bb4:	d108      	bne.n	10003bc8 <_vsnprintf+0xa20>
10003bb6:	2380      	movs	r3, #128	; 0x80
10003bb8:	2210      	movs	r2, #16
10003bba:	990b      	ldr	r1, [sp, #44]	; 0x2c
10003bbc:	00db      	lsls	r3, r3, #3
10003bbe:	400b      	ands	r3, r1
10003bc0:	4391      	bics	r1, r2
10003bc2:	910b      	str	r1, [sp, #44]	; 0x2c
10003bc4:	2b00      	cmp	r3, #0
10003bc6:	d12b      	bne.n	10003c20 <_vsnprintf+0xa78>
10003bc8:	9a0b      	ldr	r2, [sp, #44]	; 0x2c
10003bca:	2361      	movs	r3, #97	; 0x61
10003bcc:	0692      	lsls	r2, r2, #26
10003bce:	d500      	bpl.n	10003bd2 <_vsnprintf+0xa2a>
10003bd0:	2341      	movs	r3, #65	; 0x41
10003bd2:	aa0e      	add	r2, sp, #56	; 0x38
10003bd4:	271f      	movs	r7, #31
10003bd6:	4694      	mov	ip, r2
10003bd8:	b2db      	uxtb	r3, r3
10003bda:	3b0a      	subs	r3, #10
10003bdc:	950d      	str	r5, [sp, #52]	; 0x34
10003bde:	4467      	add	r7, ip
10003be0:	465d      	mov	r5, fp
10003be2:	9309      	str	r3, [sp, #36]	; 0x24
10003be4:	46a3      	mov	fp, r4
10003be6:	4654      	mov	r4, sl
10003be8:	46b2      	mov	sl, r6
10003bea:	9e0c      	ldr	r6, [sp, #48]	; 0x30
10003bec:	e008      	b.n	10003c00 <_vsnprintf+0xa58>
10003bee:	3330      	adds	r3, #48	; 0x30
10003bf0:	b2db      	uxtb	r3, r3
10003bf2:	3501      	adds	r5, #1
10003bf4:	557b      	strb	r3, [r7, r5]
10003bf6:	42b4      	cmp	r4, r6
10003bf8:	d30e      	bcc.n	10003c18 <_vsnprintf+0xa70>
10003bfa:	2d20      	cmp	r5, #32
10003bfc:	d00c      	beq.n	10003c18 <_vsnprintf+0xa70>
10003bfe:	0004      	movs	r4, r0
10003c00:	0031      	movs	r1, r6
10003c02:	0020      	movs	r0, r4
10003c04:	f000 f8dc 	bl	10003dc0 <__wrap___aeabi_uidiv>
10003c08:	b2cb      	uxtb	r3, r1
10003c0a:	2909      	cmp	r1, #9
10003c0c:	d9ef      	bls.n	10003bee <_vsnprintf+0xa46>
10003c0e:	9a09      	ldr	r2, [sp, #36]	; 0x24
10003c10:	4694      	mov	ip, r2
10003c12:	4463      	add	r3, ip
10003c14:	b2db      	uxtb	r3, r3
10003c16:	e7ec      	b.n	10003bf2 <_vsnprintf+0xa4a>
10003c18:	4656      	mov	r6, sl
10003c1a:	465c      	mov	r4, fp
10003c1c:	46ab      	mov	fp, r5
10003c1e:	9d0d      	ldr	r5, [sp, #52]	; 0x34
10003c20:	9b0b      	ldr	r3, [sp, #44]	; 0x2c
10003c22:	002a      	movs	r2, r5
10003c24:	9306      	str	r3, [sp, #24]
10003c26:	9b0a      	ldr	r3, [sp, #40]	; 0x28
10003c28:	0021      	movs	r1, r4
10003c2a:	9305      	str	r3, [sp, #20]
10003c2c:	4643      	mov	r3, r8
10003c2e:	9304      	str	r3, [sp, #16]
10003c30:	9b0c      	ldr	r3, [sp, #48]	; 0x30
10003c32:	9808      	ldr	r0, [sp, #32]
10003c34:	9303      	str	r3, [sp, #12]
10003c36:	2300      	movs	r3, #0
10003c38:	9302      	str	r3, [sp, #8]
10003c3a:	465b      	mov	r3, fp
10003c3c:	9301      	str	r3, [sp, #4]
10003c3e:	ab16      	add	r3, sp, #88	; 0x58
10003c40:	9300      	str	r3, [sp, #0]
10003c42:	464b      	mov	r3, r9
10003c44:	f7fe fdc8 	bl	100027d8 <_ntoa_format>
10003c48:	9b12      	ldr	r3, [sp, #72]	; 0x48
10003c4a:	0005      	movs	r5, r0
10003c4c:	9309      	str	r3, [sp, #36]	; 0x24
10003c4e:	3601      	adds	r6, #1
10003c50:	f7ff facf 	bl	100031f2 <_vsnprintf+0x4a>
10003c54:	42b4      	cmp	r4, r6
10003c56:	d800      	bhi.n	10003c5a <_vsnprintf+0xab2>
10003c58:	e671      	b.n	1000393e <_vsnprintf+0x796>
10003c5a:	9b14      	ldr	r3, [sp, #80]	; 0x50
10003c5c:	4654      	mov	r4, sl
10003c5e:	960e      	str	r6, [sp, #56]	; 0x38
10003c60:	970f      	str	r7, [sp, #60]	; 0x3c
10003c62:	46aa      	mov	sl, r5
10003c64:	4698      	mov	r8, r3
10003c66:	9e15      	ldr	r6, [sp, #84]	; 0x54
10003c68:	9d13      	ldr	r5, [sp, #76]	; 0x4c
10003c6a:	e68e      	b.n	1000398a <_vsnprintf+0x7e2>
10003c6c:	42a6      	cmp	r6, r4
10003c6e:	d800      	bhi.n	10003c72 <_vsnprintf+0xaca>
10003c70:	e6fb      	b.n	10003a6a <_vsnprintf+0x8c2>
10003c72:	9b13      	ldr	r3, [sp, #76]	; 0x4c
10003c74:	4656      	mov	r6, sl
10003c76:	4698      	mov	r8, r3
10003c78:	46aa      	mov	sl, r5
10003c7a:	465c      	mov	r4, fp
10003c7c:	9d12      	ldr	r5, [sp, #72]	; 0x48
10003c7e:	e576      	b.n	1000376e <_vsnprintf+0x5c6>
10003c80:	c908      	ldmia	r1!, {r3}
10003c82:	17d8      	asrs	r0, r3, #31
10003c84:	181a      	adds	r2, r3, r0
10003c86:	4042      	eors	r2, r0
10003c88:	9109      	str	r1, [sp, #36]	; 0x24
10003c8a:	f7ff fb8a 	bl	100033a2 <_vsnprintf+0x1fa>
10003c8e:	2300      	movs	r3, #0
10003c90:	930b      	str	r3, [sp, #44]	; 0x2c
10003c92:	e450      	b.n	10003536 <_vsnprintf+0x38e>
10003c94:	9b09      	ldr	r3, [sp, #36]	; 0x24
10003c96:	cb04      	ldmia	r3!, {r2}
10003c98:	4693      	mov	fp, r2
10003c9a:	9309      	str	r3, [sp, #36]	; 0x24
10003c9c:	e559      	b.n	10003752 <_vsnprintf+0x5aa>
10003c9e:	002f      	movs	r7, r5
10003ca0:	e5bb      	b.n	1000381a <_vsnprintf+0x672>
10003ca2:	930b      	str	r3, [sp, #44]	; 0x2c
10003ca4:	e601      	b.n	100038aa <_vsnprintf+0x702>
10003ca6:	3b06      	subs	r3, #6
10003ca8:	930c      	str	r3, [sp, #48]	; 0x30
10003caa:	e69a      	b.n	100039e2 <_vsnprintf+0x83a>

10003cac <vfctprintf>:
10003cac:	b500      	push	{lr}
10003cae:	b085      	sub	sp, #20
10003cb0:	9103      	str	r1, [sp, #12]
10003cb2:	2101      	movs	r1, #1
10003cb4:	9002      	str	r0, [sp, #8]
10003cb6:	9300      	str	r3, [sp, #0]
10003cb8:	4803      	ldr	r0, [pc, #12]	; (10003cc8 <vfctprintf+0x1c>)
10003cba:	0013      	movs	r3, r2
10003cbc:	424a      	negs	r2, r1
10003cbe:	a902      	add	r1, sp, #8
10003cc0:	f7ff fa72 	bl	100031a8 <_vsnprintf>
10003cc4:	b005      	add	sp, #20
10003cc6:	bd00      	pop	{pc}
10003cc8:	100029b5 	.word	0x100029b5

10003ccc <weak_raw_vprintf>:
10003ccc:	b510      	push	{r4, lr}
10003cce:	4a09      	ldr	r2, [pc, #36]	; (10003cf4 <weak_raw_vprintf+0x28>)
10003cd0:	0003      	movs	r3, r0
10003cd2:	6814      	ldr	r4, [r2, #0]
10003cd4:	b084      	sub	sp, #16
10003cd6:	2c00      	cmp	r4, #0
10003cd8:	d008      	beq.n	10003cec <weak_raw_vprintf+0x20>
10003cda:	2201      	movs	r2, #1
10003cdc:	9100      	str	r1, [sp, #0]
10003cde:	4806      	ldr	r0, [pc, #24]	; (10003cf8 <weak_raw_vprintf+0x2c>)
10003ce0:	4252      	negs	r2, r2
10003ce2:	a903      	add	r1, sp, #12
10003ce4:	47a0      	blx	r4
10003ce6:	2001      	movs	r0, #1
10003ce8:	b004      	add	sp, #16
10003cea:	bd10      	pop	{r4, pc}
10003cec:	f001 f968 	bl	10004fc0 <__wrap_puts>
10003cf0:	2000      	movs	r0, #0
10003cf2:	e7f9      	b.n	10003ce8 <weak_raw_vprintf+0x1c>
10003cf4:	20001be8 	.word	0x20001be8
10003cf8:	100029a5 	.word	0x100029a5

10003cfc <__aeabi_bits_init>:
10003cfc:	4801      	ldr	r0, [pc, #4]	; (10003d04 <__aeabi_bits_init+0x8>)
10003cfe:	2104      	movs	r1, #4
10003d00:	4b01      	ldr	r3, [pc, #4]	; (10003d08 <__aeabi_bits_init+0xc>)
10003d02:	4718      	bx	r3
10003d04:	20000400 	.word	0x20000400
10003d08:	10003d2d 	.word	0x10003d2d

10003d0c <rom_func_lookup>:
10003d0c:	2314      	movs	r3, #20
10003d0e:	b510      	push	{r4, lr}
10003d10:	0001      	movs	r1, r0
10003d12:	8818      	ldrh	r0, [r3, #0]
10003d14:	3304      	adds	r3, #4
10003d16:	881b      	ldrh	r3, [r3, #0]
10003d18:	4798      	blx	r3
10003d1a:	bd10      	pop	{r4, pc}

10003d1c <rom_data_lookup>:
10003d1c:	2316      	movs	r3, #22
10003d1e:	b510      	push	{r4, lr}
10003d20:	0001      	movs	r1, r0
10003d22:	8818      	ldrh	r0, [r3, #0]
10003d24:	3302      	adds	r3, #2
10003d26:	881b      	ldrh	r3, [r3, #0]
10003d28:	4798      	blx	r3
10003d2a:	bd10      	pop	{r4, pc}

10003d2c <rom_funcs_lookup>:
10003d2c:	b5f8      	push	{r3, r4, r5, r6, r7, lr}
10003d2e:	4647      	mov	r7, r8
10003d30:	46ce      	mov	lr, r9
10003d32:	b580      	push	{r7, lr}
10003d34:	1e0f      	subs	r7, r1, #0
10003d36:	d019      	beq.n	10003d6c <rom_funcs_lookup+0x40>
10003d38:	2314      	movs	r3, #20
10003d3a:	4699      	mov	r9, r3
10003d3c:	3304      	adds	r3, #4
10003d3e:	0004      	movs	r4, r0
10003d40:	2500      	movs	r5, #0
10003d42:	2601      	movs	r6, #1
10003d44:	4698      	mov	r8, r3
10003d46:	464b      	mov	r3, r9
10003d48:	8818      	ldrh	r0, [r3, #0]
10003d4a:	4643      	mov	r3, r8
10003d4c:	6821      	ldr	r1, [r4, #0]
10003d4e:	881b      	ldrh	r3, [r3, #0]
10003d50:	4798      	blx	r3
10003d52:	c401      	stmia	r4!, {r0}
10003d54:	1e43      	subs	r3, r0, #1
10003d56:	4198      	sbcs	r0, r3
10003d58:	3501      	adds	r5, #1
10003d5a:	4240      	negs	r0, r0
10003d5c:	4006      	ands	r6, r0
10003d5e:	42af      	cmp	r7, r5
10003d60:	d1f1      	bne.n	10003d46 <rom_funcs_lookup+0x1a>
10003d62:	0030      	movs	r0, r6
10003d64:	bcc0      	pop	{r6, r7}
10003d66:	46b9      	mov	r9, r7
10003d68:	46b0      	mov	r8, r6
10003d6a:	bdf8      	pop	{r3, r4, r5, r6, r7, pc}
10003d6c:	2601      	movs	r6, #1
10003d6e:	e7f8      	b.n	10003d62 <rom_funcs_lookup+0x36>

10003d70 <__wrap___aeabi_idiv>:
10003d70:	4a12      	ldr	r2, [pc, #72]	; (10003dbc <divmod_s32s32_savestate+0x18>)
10003d72:	6f93      	ldr	r3, [r2, #120]	; 0x78
10003d74:	089b      	lsrs	r3, r3, #2
10003d76:	d215      	bcs.n	10003da4 <divmod_s32s32_savestate>

10003d78 <divmod_s32s32_unsafe>:
10003d78:	6690      	str	r0, [r2, #104]	; 0x68
10003d7a:	66d1      	str	r1, [r2, #108]	; 0x6c
10003d7c:	2900      	cmp	r1, #0
10003d7e:	d005      	beq.n	10003d8c <divmod_s32s32_unsafe+0x14>
10003d80:	e7ff      	b.n	10003d82 <divmod_s32s32_unsafe+0xa>
10003d82:	e7ff      	b.n	10003d84 <divmod_s32s32_unsafe+0xc>
10003d84:	e7ff      	b.n	10003d86 <divmod_s32s32_unsafe+0xe>
10003d86:	6f51      	ldr	r1, [r2, #116]	; 0x74
10003d88:	6f10      	ldr	r0, [r2, #112]	; 0x70
10003d8a:	4770      	bx	lr
10003d8c:	b504      	push	{r2, lr}
10003d8e:	2180      	movs	r1, #128	; 0x80
10003d90:	0609      	lsls	r1, r1, #24
10003d92:	17c2      	asrs	r2, r0, #31
10003d94:	4051      	eors	r1, r2
10003d96:	2800      	cmp	r0, #0
10003d98:	d000      	beq.n	10003d9c <divmod_s32s32_unsafe+0x24>
10003d9a:	43c8      	mvns	r0, r1
10003d9c:	f007 fb8c 	bl	1000b4b8 <____aeabi_idiv0_veneer>
10003da0:	2100      	movs	r1, #0
10003da2:	bd04      	pop	{r2, pc}

10003da4 <divmod_s32s32_savestate>:
10003da4:	b5f0      	push	{r4, r5, r6, r7, lr}
10003da6:	6e14      	ldr	r4, [r2, #96]	; 0x60
10003da8:	6e55      	ldr	r5, [r2, #100]	; 0x64
10003daa:	6f57      	ldr	r7, [r2, #116]	; 0x74
10003dac:	6f16      	ldr	r6, [r2, #112]	; 0x70
10003dae:	f7ff ffe3 	bl	10003d78 <divmod_s32s32_unsafe>
10003db2:	6614      	str	r4, [r2, #96]	; 0x60
10003db4:	6655      	str	r5, [r2, #100]	; 0x64
10003db6:	6757      	str	r7, [r2, #116]	; 0x74
10003db8:	6716      	str	r6, [r2, #112]	; 0x70
10003dba:	bdf0      	pop	{r4, r5, r6, r7, pc}
10003dbc:	d0000000 	.word	0xd0000000

10003dc0 <__wrap___aeabi_uidiv>:
10003dc0:	4a11      	ldr	r2, [pc, #68]	; (10003e08 <divmod_u32u32_savestate+0x18>)
10003dc2:	6f93      	ldr	r3, [r2, #120]	; 0x78
10003dc4:	089b      	lsrs	r3, r3, #2
10003dc6:	d213      	bcs.n	10003df0 <divmod_u32u32_savestate>

10003dc8 <divmod_u32u32_unsafe>:
10003dc8:	6610      	str	r0, [r2, #96]	; 0x60
10003dca:	6651      	str	r1, [r2, #100]	; 0x64
10003dcc:	2900      	cmp	r1, #0
10003dce:	d005      	beq.n	10003ddc <divmod_u32u32_unsafe+0x14>
10003dd0:	e7ff      	b.n	10003dd2 <divmod_u32u32_unsafe+0xa>
10003dd2:	e7ff      	b.n	10003dd4 <divmod_u32u32_unsafe+0xc>
10003dd4:	e7ff      	b.n	10003dd6 <divmod_u32u32_unsafe+0xe>
10003dd6:	6f51      	ldr	r1, [r2, #116]	; 0x74
10003dd8:	6f10      	ldr	r0, [r2, #112]	; 0x70
10003dda:	4770      	bx	lr
10003ddc:	b504      	push	{r2, lr}
10003dde:	2800      	cmp	r0, #0
10003de0:	d001      	beq.n	10003de6 <divmod_u32u32_unsafe+0x1e>
10003de2:	2000      	movs	r0, #0
10003de4:	43c0      	mvns	r0, r0
10003de6:	f007 fb67 	bl	1000b4b8 <____aeabi_idiv0_veneer>
10003dea:	2100      	movs	r1, #0
10003dec:	bd04      	pop	{r2, pc}
10003dee:	46c0      	nop			; (mov r8, r8)

10003df0 <divmod_u32u32_savestate>:
10003df0:	b5f0      	push	{r4, r5, r6, r7, lr}
10003df2:	6e14      	ldr	r4, [r2, #96]	; 0x60
10003df4:	6e55      	ldr	r5, [r2, #100]	; 0x64
10003df6:	6f57      	ldr	r7, [r2, #116]	; 0x74
10003df8:	6f16      	ldr	r6, [r2, #112]	; 0x70
10003dfa:	f7ff ffe5 	bl	10003dc8 <divmod_u32u32_unsafe>
10003dfe:	6614      	str	r4, [r2, #96]	; 0x60
10003e00:	6655      	str	r5, [r2, #100]	; 0x64
10003e02:	6757      	str	r7, [r2, #116]	; 0x74
10003e04:	6716      	str	r6, [r2, #112]	; 0x70
10003e06:	bdf0      	pop	{r4, r5, r6, r7, pc}
10003e08:	d0000000 	.word	0xd0000000

10003e0c <__wrap___aeabi_ldivmod>:
10003e0c:	4694      	mov	ip, r2
10003e0e:	4a4e      	ldr	r2, [pc, #312]	; (10003f48 <udiv0+0x1a>)
10003e10:	6f92      	ldr	r2, [r2, #120]	; 0x78
10003e12:	0892      	lsrs	r2, r2, #2
10003e14:	4662      	mov	r2, ip
10003e16:	d201      	bcs.n	10003e1c <divmod_s64s64_savestate>
10003e18:	e030      	b.n	10003e7c <divmod_s64s64_unsafe>
10003e1a:	46c0      	nop			; (mov r8, r8)

10003e1c <divmod_s64s64_savestate>:
10003e1c:	b5f0      	push	{r4, r5, r6, r7, lr}
10003e1e:	4e4a      	ldr	r6, [pc, #296]	; (10003f48 <udiv0+0x1a>)
10003e20:	6fb5      	ldr	r5, [r6, #120]	; 0x78
10003e22:	086d      	lsrs	r5, r5, #1
10003e24:	d3fc      	bcc.n	10003e20 <divmod_s64s64_savestate+0x4>
10003e26:	6e34      	ldr	r4, [r6, #96]	; 0x60
10003e28:	6e75      	ldr	r5, [r6, #100]	; 0x64
10003e2a:	6f77      	ldr	r7, [r6, #116]	; 0x74
10003e2c:	6f36      	ldr	r6, [r6, #112]	; 0x70
10003e2e:	f000 f825 	bl	10003e7c <divmod_s64s64_unsafe>
10003e32:	4694      	mov	ip, r2
10003e34:	4a44      	ldr	r2, [pc, #272]	; (10003f48 <udiv0+0x1a>)
10003e36:	6614      	str	r4, [r2, #96]	; 0x60
10003e38:	6655      	str	r5, [r2, #100]	; 0x64
10003e3a:	6757      	str	r7, [r2, #116]	; 0x74
10003e3c:	6716      	str	r6, [r2, #112]	; 0x70
10003e3e:	4662      	mov	r2, ip
10003e40:	bdf0      	pop	{r4, r5, r6, r7, pc}
10003e42:	46c0      	nop			; (mov r8, r8)

10003e44 <__wrap___aeabi_uldivmod>:
10003e44:	4694      	mov	ip, r2
10003e46:	4a40      	ldr	r2, [pc, #256]	; (10003f48 <udiv0+0x1a>)
10003e48:	6f92      	ldr	r2, [r2, #120]	; 0x78
10003e4a:	0892      	lsrs	r2, r2, #2
10003e4c:	4662      	mov	r2, ip
10003e4e:	d201      	bcs.n	10003e54 <divmod_u64u64_savestate>
10003e50:	e058      	b.n	10003f04 <divmod_u64u64_unsafe>
10003e52:	46c0      	nop			; (mov r8, r8)

10003e54 <divmod_u64u64_savestate>:
10003e54:	b5f0      	push	{r4, r5, r6, r7, lr}
10003e56:	4e3c      	ldr	r6, [pc, #240]	; (10003f48 <udiv0+0x1a>)
10003e58:	6fb5      	ldr	r5, [r6, #120]	; 0x78
10003e5a:	086d      	lsrs	r5, r5, #1
10003e5c:	d3fc      	bcc.n	10003e58 <divmod_u64u64_savestate+0x4>
10003e5e:	6e34      	ldr	r4, [r6, #96]	; 0x60
10003e60:	6e75      	ldr	r5, [r6, #100]	; 0x64
10003e62:	6f77      	ldr	r7, [r6, #116]	; 0x74
10003e64:	6f36      	ldr	r6, [r6, #112]	; 0x70
10003e66:	f000 f84d 	bl	10003f04 <divmod_u64u64_unsafe>
10003e6a:	4694      	mov	ip, r2
10003e6c:	4a36      	ldr	r2, [pc, #216]	; (10003f48 <udiv0+0x1a>)
10003e6e:	6614      	str	r4, [r2, #96]	; 0x60
10003e70:	6655      	str	r5, [r2, #100]	; 0x64
10003e72:	6757      	str	r7, [r2, #116]	; 0x74
10003e74:	6716      	str	r6, [r2, #112]	; 0x70
10003e76:	4662      	mov	r2, ip
10003e78:	bdf0      	pop	{r4, r5, r6, r7, pc}
10003e7a:	46c0      	nop			; (mov r8, r8)

10003e7c <divmod_s64s64_unsafe>:
10003e7c:	2b00      	cmp	r3, #0
10003e7e:	db24      	blt.n	10003eca <l41_1+0x26>
10003e80:	d011      	beq.n	10003ea6 <l41_1+0x2>
10003e82:	2900      	cmp	r1, #0
10003e84:	da3e      	bge.n	10003f04 <divmod_u64u64_unsafe>
10003e86:	b500      	push	{lr}
10003e88:	43c9      	mvns	r1, r1
10003e8a:	4240      	negs	r0, r0
10003e8c:	d100      	bne.n	10003e90 <l39_1>
10003e8e:	3101      	adds	r1, #1

10003e90 <l39_1>:
10003e90:	f000 f838 	bl	10003f04 <divmod_u64u64_unsafe>
10003e94:	43c9      	mvns	r1, r1
10003e96:	4240      	negs	r0, r0
10003e98:	d100      	bne.n	10003e9c <l40_1>
10003e9a:	3101      	adds	r1, #1

10003e9c <l40_1>:
10003e9c:	43db      	mvns	r3, r3
10003e9e:	4252      	negs	r2, r2
10003ea0:	d100      	bne.n	10003ea4 <l41_1>
10003ea2:	3301      	adds	r3, #1

10003ea4 <l41_1>:
10003ea4:	bd00      	pop	{pc}
10003ea6:	2a00      	cmp	r2, #0
10003ea8:	d1eb      	bne.n	10003e82 <divmod_s64s64_unsafe+0x6>
10003eaa:	2800      	cmp	r0, #0
10003eac:	d101      	bne.n	10003eb2 <l41_1+0xe>
10003eae:	2900      	cmp	r1, #0
10003eb0:	d005      	beq.n	10003ebe <l41_1+0x1a>
10003eb2:	2000      	movs	r0, #0
10003eb4:	0fc9      	lsrs	r1, r1, #31
10003eb6:	07c9      	lsls	r1, r1, #31
10003eb8:	d101      	bne.n	10003ebe <l41_1+0x1a>
10003eba:	43c0      	mvns	r0, r0
10003ebc:	0841      	lsrs	r1, r0, #1
10003ebe:	b500      	push	{lr}
10003ec0:	f007 faf2 	bl	1000b4a8 <____aeabi_ldiv0_veneer>
10003ec4:	2200      	movs	r2, #0
10003ec6:	2300      	movs	r3, #0
10003ec8:	bd00      	pop	{pc}
10003eca:	b500      	push	{lr}
10003ecc:	2900      	cmp	r1, #0
10003ece:	db0a      	blt.n	10003ee6 <l43_1+0x2>
10003ed0:	43db      	mvns	r3, r3
10003ed2:	4252      	negs	r2, r2
10003ed4:	d100      	bne.n	10003ed8 <l42_1>
10003ed6:	3301      	adds	r3, #1

10003ed8 <l42_1>:
10003ed8:	f000 f814 	bl	10003f04 <divmod_u64u64_unsafe>
10003edc:	43c9      	mvns	r1, r1
10003ede:	4240      	negs	r0, r0
10003ee0:	d100      	bne.n	10003ee4 <l43_1>
10003ee2:	3101      	adds	r1, #1

10003ee4 <l43_1>:
10003ee4:	bd00      	pop	{pc}
10003ee6:	43c9      	mvns	r1, r1
10003ee8:	4240      	negs	r0, r0
10003eea:	d100      	bne.n	10003eee <l44_1>
10003eec:	3101      	adds	r1, #1

10003eee <l44_1>:
10003eee:	43db      	mvns	r3, r3
10003ef0:	4252      	negs	r2, r2
10003ef2:	d100      	bne.n	10003ef6 <l45_1>
10003ef4:	3301      	adds	r3, #1

10003ef6 <l45_1>:
10003ef6:	f000 f805 	bl	10003f04 <divmod_u64u64_unsafe>
10003efa:	43db      	mvns	r3, r3
10003efc:	4252      	negs	r2, r2
10003efe:	d100      	bne.n	10003f02 <l46_1>
10003f00:	3301      	adds	r3, #1

10003f02 <l46_1>:
10003f02:	bd00      	pop	{pc}

10003f04 <divmod_u64u64_unsafe>:
10003f04:	2900      	cmp	r1, #0
10003f06:	d123      	bne.n	10003f50 <y64>
10003f08:	2b00      	cmp	r3, #0
10003f0a:	d118      	bne.n	10003f3e <udiv0+0x10>
10003f0c:	2a00      	cmp	r2, #0
10003f0e:	d00c      	beq.n	10003f2a <divmod_u64u64_unsafe+0x26>
10003f10:	46bc      	mov	ip, r7
10003f12:	4f0d      	ldr	r7, [pc, #52]	; (10003f48 <udiv0+0x1a>)
10003f14:	6638      	str	r0, [r7, #96]	; 0x60
10003f16:	667a      	str	r2, [r7, #100]	; 0x64
10003f18:	2100      	movs	r1, #0
10003f1a:	2300      	movs	r3, #0
10003f1c:	e7ff      	b.n	10003f1e <divmod_u64u64_unsafe+0x1a>
10003f1e:	e7ff      	b.n	10003f20 <divmod_u64u64_unsafe+0x1c>
10003f20:	e7ff      	b.n	10003f22 <divmod_u64u64_unsafe+0x1e>
10003f22:	6f7a      	ldr	r2, [r7, #116]	; 0x74
10003f24:	6f38      	ldr	r0, [r7, #112]	; 0x70
10003f26:	4667      	mov	r7, ip
10003f28:	4770      	bx	lr
10003f2a:	2800      	cmp	r0, #0
10003f2c:	d001      	beq.n	10003f32 <udiv0+0x4>

10003f2e <udiv0>:
10003f2e:	4807      	ldr	r0, [pc, #28]	; (10003f4c <udiv0+0x1e>)
10003f30:	0001      	movs	r1, r0
10003f32:	b500      	push	{lr}
10003f34:	f007 fab8 	bl	1000b4a8 <____aeabi_ldiv0_veneer>
10003f38:	2200      	movs	r2, #0
10003f3a:	2300      	movs	r3, #0
10003f3c:	bd00      	pop	{pc}
10003f3e:	0002      	movs	r2, r0
10003f40:	000b      	movs	r3, r1
10003f42:	2000      	movs	r0, #0
10003f44:	2100      	movs	r1, #0
10003f46:	4770      	bx	lr
10003f48:	d0000000 	.word	0xd0000000
10003f4c:	ffffffff 	.word	0xffffffff

10003f50 <y64>:
10003f50:	2b00      	cmp	r3, #0
10003f52:	d000      	beq.n	10003f56 <y64+0x6>
10003f54:	e0bf      	b.n	100040d6 <y64_x48>
10003f56:	0c13      	lsrs	r3, r2, #16
10003f58:	d128      	bne.n	10003fac <y64_x32>
10003f5a:	2a00      	cmp	r2, #0
10003f5c:	d0e7      	beq.n	10003f2e <udiv0>
10003f5e:	b480      	push	{r7}
10003f60:	4f11      	ldr	r7, [pc, #68]	; (10003fa8 <y64+0x58>)
10003f62:	6639      	str	r1, [r7, #96]	; 0x60
10003f64:	667a      	str	r2, [r7, #100]	; 0x64
10003f66:	e7ff      	b.n	10003f68 <y64+0x18>
10003f68:	e7ff      	b.n	10003f6a <y64+0x1a>
10003f6a:	b430      	push	{r4, r5}
10003f6c:	0c04      	lsrs	r4, r0, #16
10003f6e:	6f7b      	ldr	r3, [r7, #116]	; 0x74
10003f70:	6f39      	ldr	r1, [r7, #112]	; 0x70
10003f72:	041b      	lsls	r3, r3, #16
10003f74:	4323      	orrs	r3, r4
10003f76:	663b      	str	r3, [r7, #96]	; 0x60
10003f78:	667a      	str	r2, [r7, #100]	; 0x64
10003f7a:	e7ff      	b.n	10003f7c <y64+0x2c>
10003f7c:	e7ff      	b.n	10003f7e <y64+0x2e>
10003f7e:	e7ff      	b.n	10003f80 <y64+0x30>
10003f80:	46c0      	nop			; (mov r8, r8)
10003f82:	b284      	uxth	r4, r0
10003f84:	6f7b      	ldr	r3, [r7, #116]	; 0x74
10003f86:	6f3d      	ldr	r5, [r7, #112]	; 0x70
10003f88:	041b      	lsls	r3, r3, #16
10003f8a:	4323      	orrs	r3, r4
10003f8c:	663b      	str	r3, [r7, #96]	; 0x60
10003f8e:	667a      	str	r2, [r7, #100]	; 0x64
10003f90:	e7ff      	b.n	10003f92 <y64+0x42>
10003f92:	e7ff      	b.n	10003f94 <y64+0x44>
10003f94:	46c0      	nop			; (mov r8, r8)
10003f96:	2300      	movs	r3, #0
10003f98:	042c      	lsls	r4, r5, #16
10003f9a:	0c2d      	lsrs	r5, r5, #16
10003f9c:	6f7a      	ldr	r2, [r7, #116]	; 0x74
10003f9e:	6f38      	ldr	r0, [r7, #112]	; 0x70
10003fa0:	1900      	adds	r0, r0, r4
10003fa2:	4169      	adcs	r1, r5
10003fa4:	bcb0      	pop	{r4, r5, r7}
10003fa6:	4770      	bx	lr
10003fa8:	d0000000 	.word	0xd0000000

10003fac <y64_x32>:
10003fac:	b5f0      	push	{r4, r5, r6, r7, lr}
10003fae:	4694      	mov	ip, r2
10003fb0:	2500      	movs	r5, #0
10003fb2:	0e14      	lsrs	r4, r2, #24
10003fb4:	d101      	bne.n	10003fba <y64_x32+0xe>
10003fb6:	0212      	lsls	r2, r2, #8
10003fb8:	3508      	adds	r5, #8
10003fba:	0f14      	lsrs	r4, r2, #28
10003fbc:	d101      	bne.n	10003fc2 <y64_x32+0x16>
10003fbe:	0112      	lsls	r2, r2, #4
10003fc0:	3504      	adds	r5, #4
10003fc2:	0f94      	lsrs	r4, r2, #30
10003fc4:	d101      	bne.n	10003fca <y64_x32+0x1e>
10003fc6:	0092      	lsls	r2, r2, #2
10003fc8:	3502      	adds	r5, #2
10003fca:	0fd4      	lsrs	r4, r2, #31
10003fcc:	d101      	bne.n	10003fd2 <y64_x32+0x26>
10003fce:	0052      	lsls	r2, r2, #1
10003fd0:	3501      	adds	r5, #1
10003fd2:	0bd4      	lsrs	r4, r2, #15
10003fd4:	3401      	adds	r4, #1
10003fd6:	4f25      	ldr	r7, [pc, #148]	; (1000406c <y64_x32+0xc0>)
10003fd8:	667c      	str	r4, [r7, #100]	; 0x64
10003fda:	4c25      	ldr	r4, [pc, #148]	; (10004070 <y64_x32+0xc4>)
10003fdc:	663c      	str	r4, [r7, #96]	; 0x60
10003fde:	0c0e      	lsrs	r6, r1, #16
10003fe0:	b293      	uxth	r3, r2
10003fe2:	e7ff      	b.n	10003fe4 <y64_x32+0x38>
10003fe4:	e7ff      	b.n	10003fe6 <y64_x32+0x3a>
10003fe6:	e7ff      	b.n	10003fe8 <y64_x32+0x3c>
10003fe8:	6f3c      	ldr	r4, [r7, #112]	; 0x70
10003fea:	4366      	muls	r6, r4
10003fec:	0c36      	lsrs	r6, r6, #16
10003fee:	0377      	lsls	r7, r6, #13
10003ff0:	46be      	mov	lr, r7
10003ff2:	4373      	muls	r3, r6
10003ff4:	0bdf      	lsrs	r7, r3, #15
10003ff6:	045b      	lsls	r3, r3, #17
10003ff8:	1ac0      	subs	r0, r0, r3
10003ffa:	41b9      	sbcs	r1, r7
10003ffc:	0c13      	lsrs	r3, r2, #16
10003ffe:	4373      	muls	r3, r6
10004000:	18db      	adds	r3, r3, r3
10004002:	1ac9      	subs	r1, r1, r3
10004004:	08ce      	lsrs	r6, r1, #3
10004006:	4366      	muls	r6, r4
10004008:	0c36      	lsrs	r6, r6, #16
1000400a:	44b6      	add	lr, r6
1000400c:	b293      	uxth	r3, r2
1000400e:	4373      	muls	r3, r6
10004010:	0f1f      	lsrs	r7, r3, #28
10004012:	011b      	lsls	r3, r3, #4
10004014:	1ac0      	subs	r0, r0, r3
10004016:	41b9      	sbcs	r1, r7
10004018:	0c13      	lsrs	r3, r2, #16
1000401a:	4373      	muls	r3, r6
1000401c:	0b1f      	lsrs	r7, r3, #12
1000401e:	051b      	lsls	r3, r3, #20
10004020:	1ac0      	subs	r0, r0, r3
10004022:	41b9      	sbcs	r1, r7
10004024:	0d86      	lsrs	r6, r0, #22
10004026:	028f      	lsls	r7, r1, #10
10004028:	433e      	orrs	r6, r7
1000402a:	4366      	muls	r6, r4
1000402c:	0c36      	lsrs	r6, r6, #16
1000402e:	2d09      	cmp	r5, #9
10004030:	db24      	blt.n	1000407c <last0>
10004032:	0a52      	lsrs	r2, r2, #9
10004034:	4372      	muls	r2, r6
10004036:	1a80      	subs	r0, r0, r2
10004038:	0377      	lsls	r7, r6, #13
1000403a:	0a46      	lsrs	r6, r0, #9
1000403c:	4366      	muls	r6, r4
1000403e:	0c36      	lsrs	r6, r6, #16
10004040:	2316      	movs	r3, #22
10004042:	1b5b      	subs	r3, r3, r5
10004044:	40de      	lsrs	r6, r3
10004046:	40df      	lsrs	r7, r3
10004048:	19bf      	adds	r7, r7, r6
1000404a:	4664      	mov	r4, ip
1000404c:	4366      	muls	r6, r4
1000404e:	1b82      	subs	r2, r0, r6
10004050:	4670      	mov	r0, lr
10004052:	3504      	adds	r5, #4
10004054:	3306      	adds	r3, #6
10004056:	0001      	movs	r1, r0
10004058:	40d9      	lsrs	r1, r3
1000405a:	40a8      	lsls	r0, r5
1000405c:	19c0      	adds	r0, r0, r7
1000405e:	d300      	bcc.n	10004062 <y64_x32+0xb6>
10004060:	3101      	adds	r1, #1
10004062:	42a2      	cmp	r2, r4
10004064:	d206      	bcs.n	10004074 <y64_x32+0xc8>
10004066:	2300      	movs	r3, #0
10004068:	bdf0      	pop	{r4, r5, r6, r7, pc}
1000406a:	0000      	.short	0x0000
1000406c:	d0000000 	.word	0xd0000000
10004070:	ffffffff 	.word	0xffffffff
10004074:	1b12      	subs	r2, r2, r4
10004076:	3001      	adds	r0, #1
10004078:	d3f3      	bcc.n	10004062 <y64_x32+0xb6>
1000407a:	e7f1      	b.n	10004060 <y64_x32+0xb4>

1000407c <last0>:
1000407c:	2709      	movs	r7, #9
1000407e:	1b7f      	subs	r7, r7, r5
10004080:	40fe      	lsrs	r6, r7
10004082:	4664      	mov	r4, ip
10004084:	b2a2      	uxth	r2, r4
10004086:	4372      	muls	r2, r6
10004088:	1a80      	subs	r0, r0, r2
1000408a:	d200      	bcs.n	1000408e <last0+0x12>
1000408c:	3901      	subs	r1, #1
1000408e:	0c22      	lsrs	r2, r4, #16
10004090:	4372      	muls	r2, r6
10004092:	0c13      	lsrs	r3, r2, #16
10004094:	0412      	lsls	r2, r2, #16
10004096:	1a82      	subs	r2, r0, r2
10004098:	4199      	sbcs	r1, r3
1000409a:	000b      	movs	r3, r1
1000409c:	4670      	mov	r0, lr
1000409e:	3504      	adds	r5, #4
100040a0:	3713      	adds	r7, #19
100040a2:	0001      	movs	r1, r0
100040a4:	40f9      	lsrs	r1, r7
100040a6:	40a8      	lsls	r0, r5
100040a8:	1980      	adds	r0, r0, r6
100040aa:	d300      	bcc.n	100040ae <last0+0x32>
100040ac:	3101      	adds	r1, #1
100040ae:	2b00      	cmp	r3, #0
100040b0:	d102      	bne.n	100040b8 <last0+0x3c>
100040b2:	42a2      	cmp	r2, r4
100040b4:	d20a      	bcs.n	100040cc <last0+0x50>
100040b6:	bdf0      	pop	{r4, r5, r6, r7, pc}
100040b8:	3001      	adds	r0, #1
100040ba:	d300      	bcc.n	100040be <last0+0x42>
100040bc:	3101      	adds	r1, #1
100040be:	1b12      	subs	r2, r2, r4
100040c0:	d2fa      	bcs.n	100040b8 <last0+0x3c>
100040c2:	3b01      	subs	r3, #1
100040c4:	d1f8      	bne.n	100040b8 <last0+0x3c>
100040c6:	42a2      	cmp	r2, r4
100040c8:	d200      	bcs.n	100040cc <last0+0x50>
100040ca:	bdf0      	pop	{r4, r5, r6, r7, pc}
100040cc:	3001      	adds	r0, #1
100040ce:	d300      	bcc.n	100040d2 <last0+0x56>
100040d0:	3101      	adds	r1, #1
100040d2:	1b12      	subs	r2, r2, r4
100040d4:	e7f7      	b.n	100040c6 <last0+0x4a>

100040d6 <y64_x48>:
100040d6:	b5f0      	push	{r4, r5, r6, r7, lr}
100040d8:	0c1c      	lsrs	r4, r3, #16
100040da:	d000      	beq.n	100040de <y64_x48+0x8>
100040dc:	e080      	b.n	100041e0 <y64_x64>
100040de:	b40c      	push	{r2, r3}
100040e0:	2500      	movs	r5, #0
100040e2:	0a1c      	lsrs	r4, r3, #8
100040e4:	d104      	bne.n	100040f0 <y64_x48+0x1a>
100040e6:	021b      	lsls	r3, r3, #8
100040e8:	0e16      	lsrs	r6, r2, #24
100040ea:	4333      	orrs	r3, r6
100040ec:	0212      	lsls	r2, r2, #8
100040ee:	3508      	adds	r5, #8
100040f0:	0b1c      	lsrs	r4, r3, #12
100040f2:	d104      	bne.n	100040fe <y64_x48+0x28>
100040f4:	011b      	lsls	r3, r3, #4
100040f6:	0f16      	lsrs	r6, r2, #28
100040f8:	4333      	orrs	r3, r6
100040fa:	0112      	lsls	r2, r2, #4
100040fc:	3504      	adds	r5, #4
100040fe:	0b9c      	lsrs	r4, r3, #14
10004100:	d104      	bne.n	1000410c <y64_x48+0x36>
10004102:	009b      	lsls	r3, r3, #2
10004104:	0f96      	lsrs	r6, r2, #30
10004106:	4333      	orrs	r3, r6
10004108:	0092      	lsls	r2, r2, #2
1000410a:	3502      	adds	r5, #2
1000410c:	0bdc      	lsrs	r4, r3, #15
1000410e:	d102      	bne.n	10004116 <y64_x48+0x40>
10004110:	1892      	adds	r2, r2, r2
10004112:	415b      	adcs	r3, r3
10004114:	3501      	adds	r5, #1
10004116:	001c      	movs	r4, r3
10004118:	1897      	adds	r7, r2, r2
1000411a:	4164      	adcs	r4, r4
1000411c:	3401      	adds	r4, #1
1000411e:	4f46      	ldr	r7, [pc, #280]	; (10004238 <y64_x64+0x58>)
10004120:	667c      	str	r4, [r7, #100]	; 0x64
10004122:	4c46      	ldr	r4, [pc, #280]	; (1000423c <y64_x64+0x5c>)
10004124:	663c      	str	r4, [r7, #96]	; 0x60
10004126:	0c0e      	lsrs	r6, r1, #16
10004128:	e7ff      	b.n	1000412a <y64_x48+0x54>
1000412a:	e7ff      	b.n	1000412c <y64_x48+0x56>
1000412c:	e7ff      	b.n	1000412e <y64_x48+0x58>
1000412e:	46c0      	nop			; (mov r8, r8)
10004130:	6f3c      	ldr	r4, [r7, #112]	; 0x70
10004132:	4366      	muls	r6, r4
10004134:	0c36      	lsrs	r6, r6, #16
10004136:	0377      	lsls	r7, r6, #13
10004138:	46be      	mov	lr, r7
1000413a:	b297      	uxth	r7, r2
1000413c:	4377      	muls	r7, r6
1000413e:	1bc0      	subs	r0, r0, r7
10004140:	d200      	bcs.n	10004144 <y64_x48+0x6e>
10004142:	3901      	subs	r1, #1
10004144:	1bc0      	subs	r0, r0, r7
10004146:	d200      	bcs.n	1000414a <y64_x48+0x74>
10004148:	3901      	subs	r1, #1
1000414a:	b29f      	uxth	r7, r3
1000414c:	4377      	muls	r7, r6
1000414e:	1bc9      	subs	r1, r1, r7
10004150:	1bc9      	subs	r1, r1, r7
10004152:	0c17      	lsrs	r7, r2, #16
10004154:	4377      	muls	r7, r6
10004156:	047e      	lsls	r6, r7, #17
10004158:	0bff      	lsrs	r7, r7, #15
1000415a:	1b80      	subs	r0, r0, r6
1000415c:	41b9      	sbcs	r1, r7
1000415e:	08ce      	lsrs	r6, r1, #3
10004160:	4366      	muls	r6, r4
10004162:	0c36      	lsrs	r6, r6, #16
10004164:	2d0c      	cmp	r5, #12
10004166:	db33      	blt.n	100041d0 <last1>
10004168:	44b6      	add	lr, r6
1000416a:	0b12      	lsrs	r2, r2, #12
1000416c:	051f      	lsls	r7, r3, #20
1000416e:	433a      	orrs	r2, r7
10004170:	0b1b      	lsrs	r3, r3, #12
10004172:	b297      	uxth	r7, r2
10004174:	4377      	muls	r7, r6
10004176:	1bc0      	subs	r0, r0, r7
10004178:	d200      	bcs.n	1000417c <y64_x48+0xa6>
1000417a:	3901      	subs	r1, #1
1000417c:	b29f      	uxth	r7, r3
1000417e:	4377      	muls	r7, r6
10004180:	1bc9      	subs	r1, r1, r7
10004182:	0c17      	lsrs	r7, r2, #16
10004184:	4377      	muls	r7, r6
10004186:	043e      	lsls	r6, r7, #16
10004188:	0c3f      	lsrs	r7, r7, #16
1000418a:	1b80      	subs	r0, r0, r6
1000418c:	41b9      	sbcs	r1, r7
1000418e:	0d86      	lsrs	r6, r0, #22
10004190:	028f      	lsls	r7, r1, #10
10004192:	433e      	orrs	r6, r7
10004194:	4366      	muls	r6, r4
10004196:	2729      	movs	r7, #41	; 0x29
10004198:	1b7f      	subs	r7, r7, r5
1000419a:	40fe      	lsrs	r6, r7
1000419c:	3d0c      	subs	r5, #12
1000419e:	4677      	mov	r7, lr
100041a0:	40af      	lsls	r7, r5
100041a2:	19bf      	adds	r7, r7, r6
100041a4:	bc30      	pop	{r4, r5}
100041a6:	b2a2      	uxth	r2, r4
100041a8:	b2ab      	uxth	r3, r5
100041aa:	4372      	muls	r2, r6
100041ac:	4373      	muls	r3, r6
100041ae:	1a80      	subs	r0, r0, r2
100041b0:	4199      	sbcs	r1, r3
100041b2:	0c22      	lsrs	r2, r4, #16
100041b4:	4372      	muls	r2, r6
100041b6:	0c13      	lsrs	r3, r2, #16
100041b8:	0412      	lsls	r2, r2, #16
100041ba:	1a80      	subs	r0, r0, r2
100041bc:	4199      	sbcs	r1, r3
100041be:	0002      	movs	r2, r0
100041c0:	000b      	movs	r3, r1
100041c2:	3701      	adds	r7, #1
100041c4:	1b00      	subs	r0, r0, r4
100041c6:	41a9      	sbcs	r1, r5
100041c8:	d2f9      	bcs.n	100041be <y64_x48+0xe8>
100041ca:	1e78      	subs	r0, r7, #1
100041cc:	2100      	movs	r1, #0
100041ce:	bdf0      	pop	{r4, r5, r6, r7, pc}

100041d0 <last1>:
100041d0:	270c      	movs	r7, #12
100041d2:	1b7f      	subs	r7, r7, r5
100041d4:	40fe      	lsrs	r6, r7
100041d6:	4677      	mov	r7, lr
100041d8:	0b7f      	lsrs	r7, r7, #13
100041da:	40af      	lsls	r7, r5
100041dc:	19ff      	adds	r7, r7, r7
100041de:	e7e0      	b.n	100041a2 <y64_x48+0xcc>

100041e0 <y64_x64>:
100041e0:	2400      	movs	r4, #0
100041e2:	1c5d      	adds	r5, r3, #1
100041e4:	d007      	beq.n	100041f6 <y64_x64+0x16>
100041e6:	4f14      	ldr	r7, [pc, #80]	; (10004238 <y64_x64+0x58>)
100041e8:	667d      	str	r5, [r7, #100]	; 0x64
100041ea:	6639      	str	r1, [r7, #96]	; 0x60
100041ec:	e7ff      	b.n	100041ee <y64_x64+0xe>
100041ee:	e7ff      	b.n	100041f0 <y64_x64+0x10>
100041f0:	e7ff      	b.n	100041f2 <y64_x64+0x12>
100041f2:	e7ff      	b.n	100041f4 <y64_x64+0x14>
100041f4:	6f3c      	ldr	r4, [r7, #112]	; 0x70
100041f6:	b295      	uxth	r5, r2
100041f8:	b29e      	uxth	r6, r3
100041fa:	4365      	muls	r5, r4
100041fc:	4366      	muls	r6, r4
100041fe:	1b40      	subs	r0, r0, r5
10004200:	41b1      	sbcs	r1, r6
10004202:	0c15      	lsrs	r5, r2, #16
10004204:	0c1e      	lsrs	r6, r3, #16
10004206:	4365      	muls	r5, r4
10004208:	4366      	muls	r6, r4
1000420a:	0436      	lsls	r6, r6, #16
1000420c:	0c2f      	lsrs	r7, r5, #16
1000420e:	433e      	orrs	r6, r7
10004210:	042d      	lsls	r5, r5, #16
10004212:	1b40      	subs	r0, r0, r5
10004214:	41b1      	sbcs	r1, r6
10004216:	4299      	cmp	r1, r3
10004218:	d204      	bcs.n	10004224 <y64_x64+0x44>
1000421a:	0002      	movs	r2, r0
1000421c:	000b      	movs	r3, r1
1000421e:	0020      	movs	r0, r4
10004220:	2100      	movs	r1, #0
10004222:	bdf0      	pop	{r4, r5, r6, r7, pc}
10004224:	d101      	bne.n	1000422a <y64_x64+0x4a>
10004226:	4290      	cmp	r0, r2
10004228:	d3f7      	bcc.n	1000421a <y64_x64+0x3a>
1000422a:	1a80      	subs	r0, r0, r2
1000422c:	4199      	sbcs	r1, r3
1000422e:	3401      	adds	r4, #1
10004230:	4299      	cmp	r1, r3
10004232:	d3f2      	bcc.n	1000421a <y64_x64+0x3a>
10004234:	e7f6      	b.n	10004224 <y64_x64+0x44>
10004236:	0000      	.short	0x0000
10004238:	d0000000 	.word	0xd0000000
1000423c:	ffffffff 	.word	0xffffffff

10004240 <__wrap___aeabi_drsub>:
10004240:	4048      	eors	r0, r1
10004242:	4041      	eors	r1, r0
10004244:	4048      	eors	r0, r1

10004246 <__wrap___aeabi_dsub>:
10004246:	b418      	push	{r3, r4}
10004248:	4b1b      	ldr	r3, [pc, #108]	; (100042b8 <__wrap___aeabi_dmul+0x12>)
1000424a:	685b      	ldr	r3, [r3, #4]
1000424c:	46fc      	mov	ip, pc
1000424e:	9301      	str	r3, [sp, #4]
10004250:	bd08      	pop	{r3, pc}
10004252:	df04      	.short	0xdf04
10004254:	100044f7 	.word	0x100044f7

10004258 <__wrap___aeabi_dadd>:
10004258:	b418      	push	{r3, r4}
1000425a:	4b17      	ldr	r3, [pc, #92]	; (100042b8 <__wrap___aeabi_dmul+0x12>)
1000425c:	681b      	ldr	r3, [r3, #0]
1000425e:	46fc      	mov	ip, pc
10004260:	9301      	str	r3, [sp, #4]
10004262:	bd08      	pop	{r3, pc}
10004264:	4501df00 	.word	0x4501df00
10004268:	1000      	.short	0x1000

1000426a <__wrap___aeabi_ddiv>:
1000426a:	4694      	mov	ip, r2
1000426c:	4a13      	ldr	r2, [pc, #76]	; (100042bc <__wrap___aeabi_dmul+0x16>)
1000426e:	6f92      	ldr	r2, [r2, #120]	; 0x78
10004270:	0892      	lsrs	r2, r2, #2
10004272:	d209      	bcs.n	10004288 <ddiv_save_state>
10004274:	4662      	mov	r2, ip

10004276 <ddiv_shim_call>:
10004276:	b418      	push	{r3, r4}
10004278:	4b0f      	ldr	r3, [pc, #60]	; (100042b8 <__wrap___aeabi_dmul+0x12>)
1000427a:	68db      	ldr	r3, [r3, #12]
1000427c:	46fc      	mov	ip, pc
1000427e:	9301      	str	r3, [sp, #4]
10004280:	bd08      	pop	{r3, pc}
10004282:	df0c      	.short	0xdf0c
10004284:	100047b9 	.word	0x100047b9

10004288 <ddiv_save_state>:
10004288:	4a0c      	ldr	r2, [pc, #48]	; (100042bc <__wrap___aeabi_dmul+0x16>)
1000428a:	b5f0      	push	{r4, r5, r6, r7, lr}
1000428c:	6e14      	ldr	r4, [r2, #96]	; 0x60
1000428e:	6e55      	ldr	r5, [r2, #100]	; 0x64
10004290:	6f57      	ldr	r7, [r2, #116]	; 0x74
10004292:	6f16      	ldr	r6, [r2, #112]	; 0x70
10004294:	4662      	mov	r2, ip
10004296:	f7ff ffee 	bl	10004276 <ddiv_shim_call>
1000429a:	4a08      	ldr	r2, [pc, #32]	; (100042bc <__wrap___aeabi_dmul+0x16>)
1000429c:	6614      	str	r4, [r2, #96]	; 0x60
1000429e:	6655      	str	r5, [r2, #100]	; 0x64
100042a0:	6757      	str	r7, [r2, #116]	; 0x74
100042a2:	6716      	str	r6, [r2, #112]	; 0x70
100042a4:	bdf0      	pop	{r4, r5, r6, r7, pc}

100042a6 <__wrap___aeabi_dmul>:
100042a6:	b418      	push	{r3, r4}
100042a8:	4b03      	ldr	r3, [pc, #12]	; (100042b8 <__wrap___aeabi_dmul+0x12>)
100042aa:	689b      	ldr	r3, [r3, #8]
100042ac:	46fc      	mov	ip, pc
100042ae:	9301      	str	r3, [sp, #4]
100042b0:	bd08      	pop	{r3, pc}
100042b2:	df08      	.short	0xdf08
100042b4:	1000465d 	.word	0x1000465d
100042b8:	20000e38 	.word	0x20000e38
100042bc:	d0000000 	.word	0xd0000000

100042c0 <__wrap___aeabi_cdrcmple>:
100042c0:	b5ff      	push	{r0, r1, r2, r3, r4, r5, r6, r7, lr}
100042c2:	4050      	eors	r0, r2
100042c4:	4042      	eors	r2, r0
100042c6:	4050      	eors	r0, r2
100042c8:	4059      	eors	r1, r3
100042ca:	404b      	eors	r3, r1
100042cc:	4059      	eors	r1, r3
100042ce:	e000      	b.n	100042d2 <__aeabi_dfcmple_guts>

100042d0 <__wrap___aeabi_cdcmpeq>:
100042d0:	b5ff      	push	{r0, r1, r2, r3, r4, r5, r6, r7, lr}

100042d2 <__aeabi_dfcmple_guts>:
100042d2:	4f15      	ldr	r7, [pc, #84]	; (10004328 <__aeabi_dfcmple_guts+0x56>)
100042d4:	004c      	lsls	r4, r1, #1
100042d6:	0d64      	lsrs	r4, r4, #21
100042d8:	d003      	beq.n	100042e2 <__aeabi_dfcmple_guts+0x10>
100042da:	42bc      	cmp	r4, r7
100042dc:	d104      	bne.n	100042e8 <__aeabi_dfcmple_guts+0x16>
100042de:	030c      	lsls	r4, r1, #12
100042e0:	d814      	bhi.n	1000430c <__aeabi_dfcmple_guts+0x3a>
100042e2:	2000      	movs	r0, #0
100042e4:	0d09      	lsrs	r1, r1, #20
100042e6:	0509      	lsls	r1, r1, #20
100042e8:	005c      	lsls	r4, r3, #1
100042ea:	0d64      	lsrs	r4, r4, #21
100042ec:	d003      	beq.n	100042f6 <__aeabi_dfcmple_guts+0x24>
100042ee:	42bc      	cmp	r4, r7
100042f0:	d104      	bne.n	100042fc <__aeabi_dfcmple_guts+0x2a>
100042f2:	031c      	lsls	r4, r3, #12
100042f4:	d80a      	bhi.n	1000430c <__aeabi_dfcmple_guts+0x3a>
100042f6:	2200      	movs	r2, #0
100042f8:	0d1b      	lsrs	r3, r3, #20
100042fa:	051b      	lsls	r3, r3, #20
100042fc:	2601      	movs	r6, #1
100042fe:	404b      	eors	r3, r1
10004300:	d409      	bmi.n	10004316 <__aeabi_dfcmple_guts+0x44>
10004302:	404b      	eors	r3, r1
10004304:	d503      	bpl.n	1000430e <__aeabi_dfcmple_guts+0x3c>
10004306:	428b      	cmp	r3, r1
10004308:	d100      	bne.n	1000430c <__aeabi_dfcmple_guts+0x3a>
1000430a:	4282      	cmp	r2, r0
1000430c:	bdff      	pop	{r0, r1, r2, r3, r4, r5, r6, r7, pc}
1000430e:	4299      	cmp	r1, r3
10004310:	d1fc      	bne.n	1000430c <__aeabi_dfcmple_guts+0x3a>
10004312:	4290      	cmp	r0, r2
10004314:	bdff      	pop	{r0, r1, r2, r3, r4, r5, r6, r7, pc}
10004316:	430b      	orrs	r3, r1
10004318:	18db      	adds	r3, r3, r3
1000431a:	4303      	orrs	r3, r0
1000431c:	4313      	orrs	r3, r2
1000431e:	d0f5      	beq.n	1000430c <__aeabi_dfcmple_guts+0x3a>
10004320:	43c9      	mvns	r1, r1
10004322:	1849      	adds	r1, r1, r1
10004324:	bdff      	pop	{r0, r1, r2, r3, r4, r5, r6, r7, pc}
10004326:	0000      	.short	0x0000
10004328:	000007ff 	.word	0x000007ff

1000432c <__wrap___aeabi_dcmplt>:
1000432c:	b500      	push	{lr}
1000432e:	f7ff ffcf 	bl	100042d0 <__wrap___aeabi_cdcmpeq>
10004332:	4180      	sbcs	r0, r0
10004334:	bd00      	pop	{pc}
10004336:	46c0      	nop			; (mov r8, r8)

10004338 <__wrap___aeabi_dcmple>:
10004338:	b500      	push	{lr}
1000433a:	f7ff ffc9 	bl	100042d0 <__wrap___aeabi_cdcmpeq>
1000433e:	d901      	bls.n	10004344 <__wrap___aeabi_dcmple+0xc>
10004340:	2000      	movs	r0, #0
10004342:	bd00      	pop	{pc}
10004344:	2001      	movs	r0, #1
10004346:	bd00      	pop	{pc}

10004348 <__wrap___aeabi_dcmpge>:
10004348:	b500      	push	{lr}
1000434a:	f7ff ffb9 	bl	100042c0 <__wrap___aeabi_cdrcmple>
1000434e:	d901      	bls.n	10004354 <__wrap___aeabi_dcmpge+0xc>
10004350:	2000      	movs	r0, #0
10004352:	bd00      	pop	{pc}
10004354:	2001      	movs	r0, #1
10004356:	bd00      	pop	{pc}

10004358 <__wrap___aeabi_dcmpgt>:
10004358:	b500      	push	{lr}
1000435a:	f7ff ffb1 	bl	100042c0 <__wrap___aeabi_cdrcmple>
1000435e:	4180      	sbcs	r0, r0
10004360:	bd00      	pop	{pc}

10004362 <__wrap___aeabi_dcmpun>:
10004362:	2001      	movs	r0, #1
10004364:	0540      	lsls	r0, r0, #21
10004366:	004a      	lsls	r2, r1, #1
10004368:	1812      	adds	r2, r2, r0
1000436a:	d804      	bhi.n	10004376 <__wrap___aeabi_dcmpun+0x14>
1000436c:	005a      	lsls	r2, r3, #1
1000436e:	1812      	adds	r2, r2, r0
10004370:	d801      	bhi.n	10004376 <__wrap___aeabi_dcmpun+0x14>
10004372:	2000      	movs	r0, #0
10004374:	4770      	bx	lr
10004376:	2001      	movs	r0, #1
10004378:	4770      	bx	lr
1000437a:	2000      	movs	r0, #0
1000437c:	4770      	bx	lr
	...

10004380 <__wrap___aeabi_ui2d>:
10004380:	2100      	movs	r1, #0
10004382:	2800      	cmp	r0, #0
10004384:	d105      	bne.n	10004392 <__wrap___aeabi_i2d+0xa>
10004386:	4770      	bx	lr

10004388 <__wrap___aeabi_i2d>:
10004388:	17c1      	asrs	r1, r0, #31
1000438a:	4048      	eors	r0, r1
1000438c:	1a40      	subs	r0, r0, r1
1000438e:	d0fa      	beq.n	10004386 <__wrap___aeabi_ui2d+0x6>
10004390:	07c9      	lsls	r1, r1, #31
10004392:	b513      	push	{r0, r1, r4, lr}
10004394:	4b06      	ldr	r3, [pc, #24]	; (100043b0 <__wrap___aeabi_i2d+0x28>)
10004396:	681b      	ldr	r3, [r3, #0]
10004398:	4798      	blx	r3
1000439a:	bc0c      	pop	{r2, r3}
1000439c:	1c44      	adds	r4, r0, #1
1000439e:	40a2      	lsls	r2, r4
100043a0:	0510      	lsls	r0, r2, #20
100043a2:	0b12      	lsrs	r2, r2, #12
100043a4:	4903      	ldr	r1, [pc, #12]	; (100043b4 <__wrap___aeabi_i2d+0x2c>)
100043a6:	1b09      	subs	r1, r1, r4
100043a8:	0509      	lsls	r1, r1, #20
100043aa:	4319      	orrs	r1, r3
100043ac:	4311      	orrs	r1, r2
100043ae:	bd10      	pop	{r4, pc}
100043b0:	20001c14 	.word	0x20001c14
100043b4:	0000041f 	.word	0x0000041f

100043b8 <__wrap___aeabi_d2iz>:
100043b8:	b510      	push	{r4, lr}
100043ba:	004c      	lsls	r4, r1, #1
100043bc:	0d62      	lsrs	r2, r4, #21
100043be:	2380      	movs	r3, #128	; 0x80
100043c0:	18d2      	adds	r2, r2, r3
100043c2:	00db      	lsls	r3, r3, #3
100043c4:	1ad2      	subs	r2, r2, r3
100043c6:	055b      	lsls	r3, r3, #21
100043c8:	2a7e      	cmp	r2, #126	; 0x7e
100043ca:	dd10      	ble.n	100043ee <__wrap___aeabi_d2iz+0x36>
100043cc:	3a9e      	subs	r2, #158	; 0x9e
100043ce:	da13      	bge.n	100043f8 <__wrap___aeabi_d2iz+0x40>
100043d0:	17cc      	asrs	r4, r1, #31
100043d2:	0309      	lsls	r1, r1, #12
100043d4:	0849      	lsrs	r1, r1, #1
100043d6:	4319      	orrs	r1, r3
100043d8:	4252      	negs	r2, r2
100043da:	40d1      	lsrs	r1, r2
100043dc:	0064      	lsls	r4, r4, #1
100043de:	3401      	adds	r4, #1
100043e0:	3215      	adds	r2, #21
100043e2:	2a20      	cmp	r2, #32
100043e4:	da05      	bge.n	100043f2 <__wrap___aeabi_d2iz+0x3a>
100043e6:	40d0      	lsrs	r0, r2
100043e8:	4308      	orrs	r0, r1
100043ea:	4360      	muls	r0, r4
100043ec:	bd10      	pop	{r4, pc}
100043ee:	2000      	movs	r0, #0
100043f0:	bd10      	pop	{r4, pc}
100043f2:	4608      	mov	r0, r1
100043f4:	4360      	muls	r0, r4
100043f6:	bd10      	pop	{r4, pc}
100043f8:	0fc8      	lsrs	r0, r1, #31
100043fa:	18c0      	adds	r0, r0, r3
100043fc:	3801      	subs	r0, #1
100043fe:	bd10      	pop	{r4, pc}

10004400 <__wrap___aeabi_d2uiz>:
10004400:	b418      	push	{r3, r4}
10004402:	4b04      	ldr	r3, [pc, #16]	; (10004414 <__wrap___aeabi_d2uiz+0x14>)
10004404:	6a5b      	ldr	r3, [r3, #36]	; 0x24
10004406:	46fc      	mov	ip, pc
10004408:	9301      	str	r3, [sp, #4]
1000440a:	bd08      	pop	{r3, pc}
1000440c:	4969df24 	.word	0x4969df24
10004410:	00001000 	.word	0x00001000
10004414:	20000e38 	.word	0x20000e38

10004418 <__wrap___aeabi_d2f>:
10004418:	b418      	push	{r3, r4}
1000441a:	4b04      	ldr	r3, [pc, #16]	; (1000442c <__wrap___aeabi_d2f+0x14>)
1000441c:	6fdb      	ldr	r3, [r3, #124]	; 0x7c
1000441e:	46fc      	mov	ip, pc
10004420:	9301      	str	r3, [sp, #4]
10004422:	bd08      	pop	{r3, pc}
10004424:	49e9df7c 	.word	0x49e9df7c
10004428:	00001000 	.word	0x00001000
1000442c:	20000e38 	.word	0x20000e38

10004430 <__aeabi_double_init>:
10004430:	2313      	movs	r3, #19
10004432:	b570      	push	{r4, r5, r6, lr}
10004434:	781d      	ldrb	r5, [r3, #0]
10004436:	2d01      	cmp	r5, #1
10004438:	d015      	beq.n	10004466 <__aeabi_double_init+0x36>
1000443a:	dd10      	ble.n	1000445e <__aeabi_double_init+0x2e>
1000443c:	481c      	ldr	r0, [pc, #112]	; (100044b0 <__aeabi_double_init+0x80>)
1000443e:	f7ff fc6d 	bl	10003d1c <rom_data_lookup>
10004442:	4c1c      	ldr	r4, [pc, #112]	; (100044b4 <__aeabi_double_init+0x84>)
10004444:	0001      	movs	r1, r0
10004446:	2280      	movs	r2, #128	; 0x80
10004448:	0020      	movs	r0, r4
1000444a:	f000 fc51 	bl	10004cf0 <__wrap___aeabi_memcpy>
1000444e:	2d02      	cmp	r5, #2
10004450:	d006      	beq.n	10004460 <__aeabi_double_init+0x30>
10004452:	4819      	ldr	r0, [pc, #100]	; (100044b8 <__aeabi_double_init+0x88>)
10004454:	f7ff fc5a 	bl	10003d0c <rom_func_lookup>
10004458:	4b18      	ldr	r3, [pc, #96]	; (100044bc <__aeabi_double_init+0x8c>)
1000445a:	6018      	str	r0, [r3, #0]
1000445c:	bd70      	pop	{r4, r5, r6, pc}
1000445e:	4c15      	ldr	r4, [pc, #84]	; (100044b4 <__aeabi_double_init+0x84>)
10004460:	4b17      	ldr	r3, [pc, #92]	; (100044c0 <__aeabi_double_init+0x90>)
10004462:	64a3      	str	r3, [r4, #72]	; 0x48
10004464:	e7f5      	b.n	10004452 <__aeabi_double_init+0x22>
10004466:	4b16      	ldr	r3, [pc, #88]	; (100044c0 <__aeabi_double_init+0x90>)
10004468:	4c12      	ldr	r4, [pc, #72]	; (100044b4 <__aeabi_double_init+0x84>)
1000446a:	6023      	str	r3, [r4, #0]
1000446c:	6063      	str	r3, [r4, #4]
1000446e:	60a3      	str	r3, [r4, #8]
10004470:	60e3      	str	r3, [r4, #12]
10004472:	6123      	str	r3, [r4, #16]
10004474:	6163      	str	r3, [r4, #20]
10004476:	61a3      	str	r3, [r4, #24]
10004478:	61e3      	str	r3, [r4, #28]
1000447a:	6223      	str	r3, [r4, #32]
1000447c:	6263      	str	r3, [r4, #36]	; 0x24
1000447e:	62a3      	str	r3, [r4, #40]	; 0x28
10004480:	62e3      	str	r3, [r4, #44]	; 0x2c
10004482:	6323      	str	r3, [r4, #48]	; 0x30
10004484:	6363      	str	r3, [r4, #52]	; 0x34
10004486:	63a3      	str	r3, [r4, #56]	; 0x38
10004488:	63e3      	str	r3, [r4, #60]	; 0x3c
1000448a:	6423      	str	r3, [r4, #64]	; 0x40
1000448c:	6463      	str	r3, [r4, #68]	; 0x44
1000448e:	64a3      	str	r3, [r4, #72]	; 0x48
10004490:	64e3      	str	r3, [r4, #76]	; 0x4c
10004492:	6523      	str	r3, [r4, #80]	; 0x50
10004494:	6563      	str	r3, [r4, #84]	; 0x54
10004496:	65a3      	str	r3, [r4, #88]	; 0x58
10004498:	65e3      	str	r3, [r4, #92]	; 0x5c
1000449a:	6623      	str	r3, [r4, #96]	; 0x60
1000449c:	6663      	str	r3, [r4, #100]	; 0x64
1000449e:	66a3      	str	r3, [r4, #104]	; 0x68
100044a0:	66e3      	str	r3, [r4, #108]	; 0x6c
100044a2:	6723      	str	r3, [r4, #112]	; 0x70
100044a4:	6763      	str	r3, [r4, #116]	; 0x74
100044a6:	67a3      	str	r3, [r4, #120]	; 0x78
100044a8:	67e3      	str	r3, [r4, #124]	; 0x7c
100044aa:	64a3      	str	r3, [r4, #72]	; 0x48
100044ac:	e7d1      	b.n	10004452 <__aeabi_double_init+0x22>
100044ae:	46c0      	nop			; (mov r8, r8)
100044b0:	00004453 	.word	0x00004453
100044b4:	20000e38 	.word	0x20000e38
100044b8:	0000334c 	.word	0x0000334c
100044bc:	20001c14 	.word	0x20001c14
100044c0:	100044c5 	.word	0x100044c5

100044c4 <double_table_shim_on_use_helper>:
100044c4:	b507      	push	{r0, r1, r2, lr}
100044c6:	4660      	mov	r0, ip
100044c8:	8801      	ldrh	r1, [r0, #0]
100044ca:	0a0a      	lsrs	r2, r1, #8
100044cc:	3002      	adds	r0, #2
100044ce:	2adf      	cmp	r2, #223	; 0xdf
100044d0:	d1fa      	bne.n	100044c8 <double_table_shim_on_use_helper+0x4>
100044d2:	b2c9      	uxtb	r1, r1
100044d4:	0882      	lsrs	r2, r0, #2
100044d6:	d304      	bcc.n	100044e2 <double_table_shim_on_use_helper+0x1e>
100044d8:	8802      	ldrh	r2, [r0, #0]
100044da:	8840      	ldrh	r0, [r0, #2]
100044dc:	0400      	lsls	r0, r0, #16
100044de:	4310      	orrs	r0, r2
100044e0:	e000      	b.n	100044e4 <double_table_shim_on_use_helper+0x20>
100044e2:	6800      	ldr	r0, [r0, #0]
100044e4:	4a01      	ldr	r2, [pc, #4]	; (100044ec <double_table_shim_on_use_helper+0x28>)
100044e6:	5050      	str	r0, [r2, r1]
100044e8:	9003      	str	r0, [sp, #12]
100044ea:	bd07      	pop	{r0, r1, r2, pc}
100044ec:	20000e38 	.word	0x20000e38

100044f0 <drsub_shim>:
100044f0:	b40f      	push	{r0, r1, r2, r3}
100044f2:	bc03      	pop	{r0, r1}
100044f4:	bc0c      	pop	{r2, r3}

100044f6 <dsub_shim>:
100044f6:	b5f0      	push	{r4, r5, r6, r7, lr}
100044f8:	2401      	movs	r4, #1
100044fa:	07e4      	lsls	r4, r4, #31
100044fc:	4063      	eors	r3, r4
100044fe:	e000      	b.n	10004502 <da_entry>

10004500 <dadd_shim>:
10004500:	b5f0      	push	{r4, r5, r6, r7, lr}

10004502 <da_entry>:
10004502:	0d0c      	lsrs	r4, r1, #20
10004504:	0fcf      	lsrs	r7, r1, #31
10004506:	1e66      	subs	r6, r4, #1
10004508:	0536      	lsls	r6, r6, #20
1000450a:	1b89      	subs	r1, r1, r6
1000450c:	0564      	lsls	r4, r4, #21
1000450e:	d303      	bcc.n	10004518 <l7_1>
10004510:	43c9      	mvns	r1, r1
10004512:	4240      	negs	r0, r0
10004514:	d300      	bcc.n	10004518 <l7_1>
10004516:	3101      	adds	r1, #1

10004518 <l7_1>:
10004518:	0d64      	lsrs	r4, r4, #21
1000451a:	d003      	beq.n	10004524 <l7_2>
1000451c:	1c66      	adds	r6, r4, #1
1000451e:	0af6      	lsrs	r6, r6, #11
10004520:	d007      	beq.n	10004532 <l7_3>
10004522:	1be4      	subs	r4, r4, r7

10004524 <l7_2>:
10004524:	2000      	movs	r0, #0
10004526:	007f      	lsls	r7, r7, #1
10004528:	1c79      	adds	r1, r7, #1
1000452a:	0789      	lsls	r1, r1, #30
1000452c:	1289      	asrs	r1, r1, #10
1000452e:	3c80      	subs	r4, #128	; 0x80
10004530:	0324      	lsls	r4, r4, #12

10004532 <l7_3>:
10004532:	0d1d      	lsrs	r5, r3, #20
10004534:	0fdf      	lsrs	r7, r3, #31
10004536:	1e6e      	subs	r6, r5, #1
10004538:	0536      	lsls	r6, r6, #20
1000453a:	1b9b      	subs	r3, r3, r6
1000453c:	056d      	lsls	r5, r5, #21
1000453e:	d303      	bcc.n	10004548 <l8_1>
10004540:	43db      	mvns	r3, r3
10004542:	4252      	negs	r2, r2
10004544:	d300      	bcc.n	10004548 <l8_1>
10004546:	3301      	adds	r3, #1

10004548 <l8_1>:
10004548:	0d6d      	lsrs	r5, r5, #21
1000454a:	d003      	beq.n	10004554 <l8_2>
1000454c:	1c6e      	adds	r6, r5, #1
1000454e:	0af6      	lsrs	r6, r6, #11
10004550:	d007      	beq.n	10004562 <l8_3>
10004552:	1bed      	subs	r5, r5, r7

10004554 <l8_2>:
10004554:	2200      	movs	r2, #0
10004556:	007f      	lsls	r7, r7, #1
10004558:	1c7b      	adds	r3, r7, #1
1000455a:	079b      	lsls	r3, r3, #30
1000455c:	129b      	asrs	r3, r3, #10
1000455e:	3d80      	subs	r5, #128	; 0x80
10004560:	032d      	lsls	r5, r5, #12

10004562 <l8_3>:
10004562:	1b2f      	subs	r7, r5, r4
10004564:	1b66      	subs	r6, r4, r5
10004566:	d458      	bmi.n	1000461a <da_ygtx>
10004568:	46a4      	mov	ip, r4
1000456a:	2e20      	cmp	r6, #32
1000456c:	da46      	bge.n	100045fc <da_xrgty>
1000456e:	3720      	adds	r7, #32
10004570:	0014      	movs	r4, r2
10004572:	40bc      	lsls	r4, r7

10004574 <da_xgty0>:
10004574:	001d      	movs	r5, r3
10004576:	40bd      	lsls	r5, r7
10004578:	40f2      	lsrs	r2, r6
1000457a:	4133      	asrs	r3, r6
1000457c:	432a      	orrs	r2, r5

1000457e <da_add>:
1000457e:	1880      	adds	r0, r0, r2
10004580:	4159      	adcs	r1, r3

10004582 <da_pack>:
10004582:	0fcb      	lsrs	r3, r1, #31
10004584:	d005      	beq.n	10004592 <da_pack+0x10>
10004586:	43c9      	mvns	r1, r1
10004588:	43c0      	mvns	r0, r0
1000458a:	2200      	movs	r2, #0
1000458c:	4264      	negs	r4, r4
1000458e:	4150      	adcs	r0, r2
10004590:	4151      	adcs	r1, r2
10004592:	4662      	mov	r2, ip
10004594:	0d4d      	lsrs	r5, r1, #21
10004596:	d128      	bne.n	100045ea <da_0>
10004598:	0d0d      	lsrs	r5, r1, #20
1000459a:	d107      	bne.n	100045ac <da_1>
1000459c:	2800      	cmp	r0, #0
1000459e:	d01f      	beq.n	100045e0 <da_5>

100045a0 <da_2>:
100045a0:	1924      	adds	r4, r4, r4
100045a2:	4140      	adcs	r0, r0
100045a4:	4149      	adcs	r1, r1
100045a6:	3a01      	subs	r2, #1
100045a8:	0d0d      	lsrs	r5, r1, #20
100045aa:	d0f9      	beq.n	100045a0 <da_2>

100045ac <da_1>:
100045ac:	0064      	lsls	r4, r4, #1
100045ae:	d306      	bcc.n	100045be <da_3>

100045b0 <da_4>:
100045b0:	3001      	adds	r0, #1
100045b2:	d300      	bcc.n	100045b6 <da_4+0x6>
100045b4:	3101      	adds	r1, #1
100045b6:	2c00      	cmp	r4, #0
100045b8:	d101      	bne.n	100045be <da_3>
100045ba:	0840      	lsrs	r0, r0, #1
100045bc:	0040      	lsls	r0, r0, #1

100045be <da_3>:
100045be:	3a01      	subs	r2, #1
100045c0:	d40b      	bmi.n	100045da <da_6>
100045c2:	1c94      	adds	r4, r2, #2
100045c4:	0ae4      	lsrs	r4, r4, #11
100045c6:	d104      	bne.n	100045d2 <da_7>
100045c8:	0512      	lsls	r2, r2, #20
100045ca:	4411      	add	r1, r2
100045cc:	07db      	lsls	r3, r3, #31
100045ce:	4419      	add	r1, r3
100045d0:	bdf0      	pop	{r4, r5, r6, r7, pc}

100045d2 <da_7>:
100045d2:	07d9      	lsls	r1, r3, #31
100045d4:	4b20      	ldr	r3, [pc, #128]	; (10004658 <da_xmgty+0x4>)
100045d6:	4319      	orrs	r1, r3
100045d8:	e000      	b.n	100045dc <da_6+0x2>

100045da <da_6>:
100045da:	07d9      	lsls	r1, r3, #31
100045dc:	2000      	movs	r0, #0
100045de:	bdf0      	pop	{r4, r5, r6, r7, pc}

100045e0 <da_5>:
100045e0:	2900      	cmp	r1, #0
100045e2:	d1dd      	bne.n	100045a0 <da_2>
100045e4:	2c00      	cmp	r4, #0
100045e6:	d1db      	bne.n	100045a0 <da_2>
100045e8:	bdf0      	pop	{r4, r5, r6, r7, pc}

100045ea <da_0>:
100045ea:	3201      	adds	r2, #1
100045ec:	07c6      	lsls	r6, r0, #31
100045ee:	0840      	lsrs	r0, r0, #1
100045f0:	07cd      	lsls	r5, r1, #31
100045f2:	4328      	orrs	r0, r5
100045f4:	0849      	lsrs	r1, r1, #1
100045f6:	2e00      	cmp	r6, #0
100045f8:	d0e1      	beq.n	100045be <da_3>
100045fa:	e7d9      	b.n	100045b0 <da_4>

100045fc <da_xrgty>:
100045fc:	2e3c      	cmp	r6, #60	; 0x3c
100045fe:	da29      	bge.n	10004654 <da_xmgty>
10004600:	3e20      	subs	r6, #32
10004602:	3740      	adds	r7, #64	; 0x40
10004604:	0014      	movs	r4, r2
10004606:	40bc      	lsls	r4, r7
10004608:	d000      	beq.n	1000460c <da_xrgty+0x10>
1000460a:	2401      	movs	r4, #1
1000460c:	40f2      	lsrs	r2, r6
1000460e:	4314      	orrs	r4, r2
10004610:	001a      	movs	r2, r3
10004612:	40bb      	lsls	r3, r7
10004614:	431c      	orrs	r4, r3
10004616:	17d3      	asrs	r3, r2, #31
10004618:	e7ac      	b.n	10004574 <da_xgty0>

1000461a <da_ygtx>:
1000461a:	46ac      	mov	ip, r5
1000461c:	2f20      	cmp	r7, #32
1000461e:	da08      	bge.n	10004632 <da_yrgtx>
10004620:	3620      	adds	r6, #32
10004622:	0004      	movs	r4, r0
10004624:	40b4      	lsls	r4, r6

10004626 <da_ygtx0>:
10004626:	000d      	movs	r5, r1
10004628:	40b5      	lsls	r5, r6
1000462a:	40f8      	lsrs	r0, r7
1000462c:	4139      	asrs	r1, r7
1000462e:	4328      	orrs	r0, r5
10004630:	e7a5      	b.n	1000457e <da_add>

10004632 <da_yrgtx>:
10004632:	2f3c      	cmp	r7, #60	; 0x3c
10004634:	da0c      	bge.n	10004650 <da_ymgtx>
10004636:	3f20      	subs	r7, #32
10004638:	3640      	adds	r6, #64	; 0x40
1000463a:	0004      	movs	r4, r0
1000463c:	40b4      	lsls	r4, r6
1000463e:	d000      	beq.n	10004642 <da_yrgtx+0x10>
10004640:	2401      	movs	r4, #1
10004642:	40f8      	lsrs	r0, r7
10004644:	4304      	orrs	r4, r0
10004646:	0008      	movs	r0, r1
10004648:	40b1      	lsls	r1, r6
1000464a:	430c      	orrs	r4, r1
1000464c:	17c1      	asrs	r1, r0, #31
1000464e:	e7ea      	b.n	10004626 <da_ygtx0>

10004650 <da_ymgtx>:
10004650:	0010      	movs	r0, r2
10004652:	0019      	movs	r1, r3

10004654 <da_xmgty>:
10004654:	2400      	movs	r4, #0
10004656:	e794      	b.n	10004582 <da_pack>
10004658:	7ff00000 	.word	0x7ff00000

1000465c <dmul_shim>:
1000465c:	b5f0      	push	{r4, r5, r6, r7, lr}
1000465e:	0d0c      	lsrs	r4, r1, #20
10004660:	1e66      	subs	r6, r4, #1
10004662:	0536      	lsls	r6, r6, #20
10004664:	1b89      	subs	r1, r1, r6
10004666:	0ae6      	lsrs	r6, r4, #11
10004668:	0564      	lsls	r4, r4, #21
1000466a:	0d64      	lsrs	r4, r4, #21
1000466c:	d002      	beq.n	10004674 <l11_1>
1000466e:	1c65      	adds	r5, r4, #1
10004670:	0aed      	lsrs	r5, r5, #11
10004672:	d004      	beq.n	1000467e <l11_2>

10004674 <l11_1>:
10004674:	2000      	movs	r0, #0
10004676:	2101      	movs	r1, #1
10004678:	0509      	lsls	r1, r1, #20
1000467a:	3c80      	subs	r4, #128	; 0x80
1000467c:	0324      	lsls	r4, r4, #12

1000467e <l11_2>:
1000467e:	46a4      	mov	ip, r4
10004680:	0d1c      	lsrs	r4, r3, #20
10004682:	1e67      	subs	r7, r4, #1
10004684:	053f      	lsls	r7, r7, #20
10004686:	1bdb      	subs	r3, r3, r7
10004688:	0ae7      	lsrs	r7, r4, #11
1000468a:	0564      	lsls	r4, r4, #21
1000468c:	0d64      	lsrs	r4, r4, #21
1000468e:	d002      	beq.n	10004696 <l12_1>
10004690:	1c65      	adds	r5, r4, #1
10004692:	0aed      	lsrs	r5, r5, #11
10004694:	d004      	beq.n	100046a0 <l12_2>

10004696 <l12_1>:
10004696:	2200      	movs	r2, #0
10004698:	2301      	movs	r3, #1
1000469a:	051b      	lsls	r3, r3, #20
1000469c:	3c80      	subs	r4, #128	; 0x80
1000469e:	0324      	lsls	r4, r4, #12

100046a0 <l12_2>:
100046a0:	4077      	eors	r7, r6
100046a2:	4464      	add	r4, ip
100046a4:	b497      	push	{r0, r1, r2, r4, r7}
100046a6:	b284      	uxth	r4, r0
100046a8:	b296      	uxth	r6, r2
100046aa:	4374      	muls	r4, r6
100046ac:	0c07      	lsrs	r7, r0, #16
100046ae:	437e      	muls	r6, r7
100046b0:	0c15      	lsrs	r5, r2, #16
100046b2:	436f      	muls	r7, r5
100046b4:	b280      	uxth	r0, r0
100046b6:	4368      	muls	r0, r5
100046b8:	1836      	adds	r6, r6, r0
100046ba:	d302      	bcc.n	100046c2 <l13_1>
100046bc:	2001      	movs	r0, #1
100046be:	0400      	lsls	r0, r0, #16
100046c0:	183f      	adds	r7, r7, r0

100046c2 <l13_1>:
100046c2:	0430      	lsls	r0, r6, #16
100046c4:	0c35      	lsrs	r5, r6, #16
100046c6:	1900      	adds	r0, r0, r4
100046c8:	417d      	adcs	r5, r7
100046ca:	4684      	mov	ip, r0
100046cc:	b288      	uxth	r0, r1
100046ce:	b29a      	uxth	r2, r3
100046d0:	4350      	muls	r0, r2
100046d2:	0c0c      	lsrs	r4, r1, #16
100046d4:	4362      	muls	r2, r4
100046d6:	0c1f      	lsrs	r7, r3, #16
100046d8:	437c      	muls	r4, r7
100046da:	b28e      	uxth	r6, r1
100046dc:	437e      	muls	r6, r7
100046de:	1992      	adds	r2, r2, r6
100046e0:	d302      	bcc.n	100046e8 <l14_1>
100046e2:	2601      	movs	r6, #1
100046e4:	0436      	lsls	r6, r6, #16
100046e6:	19a4      	adds	r4, r4, r6

100046e8 <l14_1>:
100046e8:	0416      	lsls	r6, r2, #16
100046ea:	0c17      	lsrs	r7, r2, #16
100046ec:	1836      	adds	r6, r6, r0
100046ee:	4167      	adcs	r7, r4
100046f0:	bc01      	pop	{r0}
100046f2:	b281      	uxth	r1, r0
100046f4:	b29a      	uxth	r2, r3
100046f6:	4351      	muls	r1, r2
100046f8:	0c04      	lsrs	r4, r0, #16
100046fa:	4362      	muls	r2, r4
100046fc:	0c1b      	lsrs	r3, r3, #16
100046fe:	435c      	muls	r4, r3
10004700:	b280      	uxth	r0, r0
10004702:	4358      	muls	r0, r3
10004704:	1812      	adds	r2, r2, r0
10004706:	d302      	bcc.n	1000470e <l15_1>
10004708:	2001      	movs	r0, #1
1000470a:	0400      	lsls	r0, r0, #16
1000470c:	1824      	adds	r4, r4, r0

1000470e <l15_1>:
1000470e:	0410      	lsls	r0, r2, #16
10004710:	0c13      	lsrs	r3, r2, #16
10004712:	1840      	adds	r0, r0, r1
10004714:	4163      	adcs	r3, r4
10004716:	182d      	adds	r5, r5, r0
10004718:	415e      	adcs	r6, r3
1000471a:	2000      	movs	r0, #0
1000471c:	4147      	adcs	r7, r0
1000471e:	bc06      	pop	{r1, r2}
10004720:	b288      	uxth	r0, r1
10004722:	b293      	uxth	r3, r2
10004724:	4358      	muls	r0, r3
10004726:	0c0c      	lsrs	r4, r1, #16
10004728:	4363      	muls	r3, r4
1000472a:	0c12      	lsrs	r2, r2, #16
1000472c:	4354      	muls	r4, r2
1000472e:	b289      	uxth	r1, r1
10004730:	4351      	muls	r1, r2
10004732:	185b      	adds	r3, r3, r1
10004734:	d302      	bcc.n	1000473c <l16_1>
10004736:	2101      	movs	r1, #1
10004738:	0409      	lsls	r1, r1, #16
1000473a:	1864      	adds	r4, r4, r1

1000473c <l16_1>:
1000473c:	0419      	lsls	r1, r3, #16
1000473e:	0c1a      	lsrs	r2, r3, #16
10004740:	1809      	adds	r1, r1, r0
10004742:	4162      	adcs	r2, r4
10004744:	186d      	adds	r5, r5, r1
10004746:	4156      	adcs	r6, r2
10004748:	2000      	movs	r0, #0
1000474a:	4147      	adcs	r7, r0
1000474c:	bc18      	pop	{r3, r4}
1000474e:	02f9      	lsls	r1, r7, #11
10004750:	0d72      	lsrs	r2, r6, #21
10004752:	4311      	orrs	r1, r2
10004754:	02f0      	lsls	r0, r6, #11
10004756:	0d6a      	lsrs	r2, r5, #21
10004758:	4310      	orrs	r0, r2
1000475a:	02ed      	lsls	r5, r5, #11
1000475c:	0d0a      	lsrs	r2, r1, #20
1000475e:	d103      	bne.n	10004768 <l16_1+0x2c>
10004760:	196d      	adds	r5, r5, r5
10004762:	4140      	adcs	r0, r0
10004764:	4149      	adcs	r1, r1
10004766:	3b01      	subs	r3, #1
10004768:	4e12      	ldr	r6, [pc, #72]	; (100047b4 <dm_1+0xa>)
1000476a:	1b9b      	subs	r3, r3, r6
1000476c:	0076      	lsls	r6, r6, #1
1000476e:	42b3      	cmp	r3, r6
10004770:	d20e      	bcs.n	10004790 <dm_0>
10004772:	006d      	lsls	r5, r5, #1
10004774:	d307      	bcc.n	10004786 <l16_1+0x4a>
10004776:	3001      	adds	r0, #1
10004778:	2600      	movs	r6, #0
1000477a:	4171      	adcs	r1, r6
1000477c:	4666      	mov	r6, ip
1000477e:	4335      	orrs	r5, r6
10004780:	d101      	bne.n	10004786 <l16_1+0x4a>
10004782:	0840      	lsrs	r0, r0, #1
10004784:	0040      	lsls	r0, r0, #1
10004786:	051b      	lsls	r3, r3, #20
10004788:	18c9      	adds	r1, r1, r3

1000478a <dm_2>:
1000478a:	07e4      	lsls	r4, r4, #31
1000478c:	4421      	add	r1, r4
1000478e:	bdf0      	pop	{r4, r5, r6, r7, pc}

10004790 <dm_0>:
10004790:	da0b      	bge.n	100047aa <dm_1>
10004792:	3301      	adds	r3, #1
10004794:	d106      	bne.n	100047a4 <dm_0+0x14>
10004796:	3001      	adds	r0, #1
10004798:	d104      	bne.n	100047a4 <dm_0+0x14>
1000479a:	3101      	adds	r1, #1
1000479c:	0d4f      	lsrs	r7, r1, #21
1000479e:	d001      	beq.n	100047a4 <dm_0+0x14>
100047a0:	0849      	lsrs	r1, r1, #1
100047a2:	e7f2      	b.n	1000478a <dm_2>
100047a4:	07e1      	lsls	r1, r4, #31
100047a6:	2000      	movs	r0, #0
100047a8:	bdf0      	pop	{r4, r5, r6, r7, pc}

100047aa <dm_1>:
100047aa:	3601      	adds	r6, #1
100047ac:	0531      	lsls	r1, r6, #20
100047ae:	2000      	movs	r0, #0
100047b0:	e7eb      	b.n	1000478a <dm_2>
100047b2:	0000      	.short	0x0000
100047b4:	000003ff 	.word	0x000003ff

100047b8 <ddiv_shim>:
100047b8:	b5f0      	push	{r4, r5, r6, r7, lr}

100047ba <ddiv0>:
100047ba:	0d1c      	lsrs	r4, r3, #20
100047bc:	1e67      	subs	r7, r4, #1
100047be:	053f      	lsls	r7, r7, #20
100047c0:	1bdb      	subs	r3, r3, r7
100047c2:	0ae7      	lsrs	r7, r4, #11
100047c4:	0564      	lsls	r4, r4, #21
100047c6:	0d64      	lsrs	r4, r4, #21
100047c8:	d002      	beq.n	100047d0 <l19_1>
100047ca:	1c66      	adds	r6, r4, #1
100047cc:	0af6      	lsrs	r6, r6, #11
100047ce:	d004      	beq.n	100047da <l19_2>

100047d0 <l19_1>:
100047d0:	2200      	movs	r2, #0
100047d2:	2301      	movs	r3, #1
100047d4:	051b      	lsls	r3, r3, #20
100047d6:	3c80      	subs	r4, #128	; 0x80
100047d8:	0324      	lsls	r4, r4, #12

100047da <l19_2>:
100047da:	25d0      	movs	r5, #208	; 0xd0
100047dc:	062d      	lsls	r5, r5, #24
100047de:	2600      	movs	r6, #0
100047e0:	43f6      	mvns	r6, r6
100047e2:	662e      	str	r6, [r5, #96]	; 0x60
100047e4:	091e      	lsrs	r6, r3, #4
100047e6:	666e      	str	r6, [r5, #100]	; 0x64
100047e8:	0fce      	lsrs	r6, r1, #31
100047ea:	19f6      	adds	r6, r6, r7
100047ec:	46b4      	mov	ip, r6
100047ee:	0049      	lsls	r1, r1, #1
100047f0:	0d4f      	lsrs	r7, r1, #21
100047f2:	d002      	beq.n	100047fa <l19_2+0x20>
100047f4:	1c7e      	adds	r6, r7, #1
100047f6:	0af6      	lsrs	r6, r6, #11
100047f8:	d003      	beq.n	10004802 <l19_2+0x28>
100047fa:	2000      	movs	r0, #0
100047fc:	2100      	movs	r1, #0
100047fe:	3f40      	subs	r7, #64	; 0x40
10004800:	033f      	lsls	r7, r7, #12
10004802:	1b3e      	subs	r6, r7, r4
10004804:	00b6      	lsls	r6, r6, #2
10004806:	44b4      	add	ip, r6
10004808:	3f01      	subs	r7, #1
1000480a:	057f      	lsls	r7, r7, #21
1000480c:	1bc9      	subs	r1, r1, r7
1000480e:	0849      	lsrs	r1, r1, #1
10004810:	6f2e      	ldr	r6, [r5, #112]	; 0x70
10004812:	3601      	adds	r6, #1
10004814:	0876      	lsrs	r6, r6, #1
10004816:	029c      	lsls	r4, r3, #10
10004818:	0d95      	lsrs	r5, r2, #22
1000481a:	4325      	orrs	r5, r4
1000481c:	4375      	muls	r5, r6
1000481e:	13ed      	asrs	r5, r5, #15
10004820:	4375      	muls	r5, r6
10004822:	13ad      	asrs	r5, r5, #14
10004824:	3501      	adds	r5, #1
10004826:	106d      	asrs	r5, r5, #1
10004828:	03f6      	lsls	r6, r6, #15
1000482a:	1b76      	subs	r6, r6, r5
1000482c:	b40c      	push	{r2, r3}
1000482e:	02cc      	lsls	r4, r1, #11
10004830:	0d45      	lsrs	r5, r0, #21
10004832:	432c      	orrs	r4, r5
10004834:	b2a2      	uxth	r2, r4
10004836:	b2b3      	uxth	r3, r6
10004838:	435a      	muls	r2, r3
1000483a:	0c27      	lsrs	r7, r4, #16
1000483c:	437b      	muls	r3, r7
1000483e:	0c35      	lsrs	r5, r6, #16
10004840:	436f      	muls	r7, r5
10004842:	b2a4      	uxth	r4, r4
10004844:	436c      	muls	r4, r5
10004846:	191b      	adds	r3, r3, r4
10004848:	d302      	bcc.n	10004850 <l20_1>
1000484a:	2401      	movs	r4, #1
1000484c:	0424      	lsls	r4, r4, #16
1000484e:	193f      	adds	r7, r7, r4

10004850 <l20_1>:
10004850:	041c      	lsls	r4, r3, #16
10004852:	0c1d      	lsrs	r5, r3, #16
10004854:	18a4      	adds	r4, r4, r2
10004856:	417d      	adcs	r5, r7
10004858:	1924      	adds	r4, r4, r4
1000485a:	416d      	adcs	r5, r5
1000485c:	9a00      	ldr	r2, [sp, #0]
1000485e:	b291      	uxth	r1, r2
10004860:	b2ac      	uxth	r4, r5
10004862:	4361      	muls	r1, r4
10004864:	0c17      	lsrs	r7, r2, #16
10004866:	437c      	muls	r4, r7
10004868:	0c2b      	lsrs	r3, r5, #16
1000486a:	435f      	muls	r7, r3
1000486c:	b292      	uxth	r2, r2
1000486e:	435a      	muls	r2, r3
10004870:	18a4      	adds	r4, r4, r2
10004872:	d302      	bcc.n	1000487a <l21_1>
10004874:	2201      	movs	r2, #1
10004876:	0412      	lsls	r2, r2, #16
10004878:	18bf      	adds	r7, r7, r2

1000487a <l21_1>:
1000487a:	0422      	lsls	r2, r4, #16
1000487c:	0c23      	lsrs	r3, r4, #16
1000487e:	1852      	adds	r2, r2, r1
10004880:	417b      	adcs	r3, r7
10004882:	9c01      	ldr	r4, [sp, #4]
10004884:	436c      	muls	r4, r5
10004886:	191b      	adds	r3, r3, r4
10004888:	0e52      	lsrs	r2, r2, #25
1000488a:	01d9      	lsls	r1, r3, #7
1000488c:	430a      	orrs	r2, r1
1000488e:	0144      	lsls	r4, r0, #5
10004890:	1aa0      	subs	r0, r4, r2
10004892:	b281      	uxth	r1, r0
10004894:	b2b2      	uxth	r2, r6
10004896:	4351      	muls	r1, r2
10004898:	1403      	asrs	r3, r0, #16
1000489a:	435a      	muls	r2, r3
1000489c:	0c36      	lsrs	r6, r6, #16
1000489e:	4373      	muls	r3, r6
100048a0:	b287      	uxth	r7, r0
100048a2:	4377      	muls	r7, r6
100048a4:	17d6      	asrs	r6, r2, #31
100048a6:	19d2      	adds	r2, r2, r7
100048a8:	2700      	movs	r7, #0
100048aa:	417e      	adcs	r6, r7
100048ac:	0436      	lsls	r6, r6, #16
100048ae:	199b      	adds	r3, r3, r6
100048b0:	0417      	lsls	r7, r2, #16
100048b2:	0c16      	lsrs	r6, r2, #16
100048b4:	187f      	adds	r7, r7, r1
100048b6:	415e      	adcs	r6, r3
100048b8:	1673      	asrs	r3, r6, #25
100048ba:	18ed      	adds	r5, r5, r3
100048bc:	01f3      	lsls	r3, r6, #7
100048be:	2600      	movs	r6, #0
100048c0:	3380      	adds	r3, #128	; 0x80
100048c2:	4175      	adcs	r5, r6
100048c4:	0fa9      	lsrs	r1, r5, #30
100048c6:	d106      	bne.n	100048d6 <dd_0>
100048c8:	0064      	lsls	r4, r4, #1
100048ca:	0a69      	lsrs	r1, r5, #9
100048cc:	05e8      	lsls	r0, r5, #23
100048ce:	0a5b      	lsrs	r3, r3, #9
100048d0:	4318      	orrs	r0, r3
100048d2:	d209      	bcs.n	100048e8 <dd_1>
100048d4:	e02f      	b.n	10004936 <dd_2>

100048d6 <dd_0>:
100048d6:	2204      	movs	r2, #4
100048d8:	4494      	add	ip, r2
100048da:	3380      	adds	r3, #128	; 0x80
100048dc:	4175      	adcs	r5, r6
100048de:	0aa9      	lsrs	r1, r5, #10
100048e0:	05a8      	lsls	r0, r5, #22
100048e2:	0a9b      	lsrs	r3, r3, #10
100048e4:	4318      	orrs	r0, r3
100048e6:	d326      	bcc.n	10004936 <dd_2>

100048e8 <dd_1>:
100048e8:	4140      	adcs	r0, r0
100048ea:	4149      	adcs	r1, r1
100048ec:	0424      	lsls	r4, r4, #16
100048ee:	9a00      	ldr	r2, [sp, #0]
100048f0:	9b01      	ldr	r3, [sp, #4]
100048f2:	000d      	movs	r5, r1
100048f4:	4355      	muls	r5, r2
100048f6:	1b64      	subs	r4, r4, r5
100048f8:	4343      	muls	r3, r0
100048fa:	1ae4      	subs	r4, r4, r3
100048fc:	b295      	uxth	r5, r2
100048fe:	b286      	uxth	r6, r0
10004900:	4375      	muls	r5, r6
10004902:	0c17      	lsrs	r7, r2, #16
10004904:	437e      	muls	r6, r7
10004906:	0c03      	lsrs	r3, r0, #16
10004908:	435f      	muls	r7, r3
1000490a:	b292      	uxth	r2, r2
1000490c:	435a      	muls	r2, r3
1000490e:	18b6      	adds	r6, r6, r2
10004910:	d302      	bcc.n	10004918 <l23_1>
10004912:	2201      	movs	r2, #1
10004914:	0412      	lsls	r2, r2, #16
10004916:	18bf      	adds	r7, r7, r2

10004918 <l23_1>:
10004918:	0432      	lsls	r2, r6, #16
1000491a:	0c33      	lsrs	r3, r6, #16
1000491c:	1952      	adds	r2, r2, r5
1000491e:	417b      	adcs	r3, r7
10004920:	4252      	negs	r2, r2
10004922:	419c      	sbcs	r4, r3
10004924:	2c00      	cmp	r4, #0
10004926:	d402      	bmi.n	1000492e <l23_1+0x16>
10004928:	2200      	movs	r2, #0
1000492a:	3001      	adds	r0, #1
1000492c:	4151      	adcs	r1, r2
1000492e:	0840      	lsrs	r0, r0, #1
10004930:	07ca      	lsls	r2, r1, #31
10004932:	4310      	orrs	r0, r2
10004934:	0849      	lsrs	r1, r1, #1

10004936 <dd_2>:
10004936:	b002      	add	sp, #8
10004938:	4662      	mov	r2, ip
1000493a:	07d7      	lsls	r7, r2, #31
1000493c:	1092      	asrs	r2, r2, #2
1000493e:	4b08      	ldr	r3, [pc, #32]	; (10004960 <dd_4+0x6>)
10004940:	18d2      	adds	r2, r2, r3
10004942:	4b08      	ldr	r3, [pc, #32]	; (10004964 <dd_4+0xa>)
10004944:	429a      	cmp	r2, r3
10004946:	d203      	bcs.n	10004950 <dd_3>
10004948:	0512      	lsls	r2, r2, #20
1000494a:	1889      	adds	r1, r1, r2

1000494c <dd_5>:
1000494c:	19c9      	adds	r1, r1, r7
1000494e:	bdf0      	pop	{r4, r5, r6, r7, pc}

10004950 <dd_3>:
10004950:	2000      	movs	r0, #0
10004952:	2a00      	cmp	r2, #0
10004954:	dc01      	bgt.n	1000495a <dd_4>
10004956:	0039      	movs	r1, r7
10004958:	bdf0      	pop	{r4, r5, r6, r7, pc}

1000495a <dd_4>:
1000495a:	3301      	adds	r3, #1
1000495c:	0519      	lsls	r1, r3, #20
1000495e:	e7f5      	b.n	1000494c <dd_5>
10004960:	000003fd 	.word	0x000003fd
10004964:	000007fe 	.word	0x000007fe

10004968 <double2uint_shim>:
10004968:	2200      	movs	r2, #0

1000496a <double2ufix_shim>:
1000496a:	b500      	push	{lr}
1000496c:	3220      	adds	r2, #32
1000496e:	f000 f804 	bl	1000497a <double2ufix64_shim>
10004972:	0008      	movs	r0, r1
10004974:	bd00      	pop	{pc}
	...

10004978 <double2uint64_shim>:
10004978:	2200      	movs	r2, #0

1000497a <double2ufix64_shim>:
1000497a:	150b      	asrs	r3, r1, #20
1000497c:	d40a      	bmi.n	10004994 <ret_dzero>

1000497e <d2fix>:
1000497e:	b510      	push	{r4, lr}
10004980:	4694      	mov	ip, r2
10004982:	f000 f85f 	bl	10004a44 <dunpacks>
10004986:	1414      	asrs	r4, r2, #16
10004988:	3401      	adds	r4, #1
1000498a:	da00      	bge.n	1000498e <d2fix+0x10>
1000498c:	2100      	movs	r1, #0
1000498e:	17cb      	asrs	r3, r1, #31
10004990:	4c14      	ldr	r4, [pc, #80]	; (100049e4 <d2fix_a+0x4a>)
10004992:	4720      	bx	r4

10004994 <ret_dzero>:
10004994:	2000      	movs	r0, #0
10004996:	2100      	movs	r1, #0
10004998:	4770      	bx	lr

1000499a <d2fix_a>:
1000499a:	4462      	add	r2, ip
1000499c:	3a34      	subs	r2, #52	; 0x34
1000499e:	d40c      	bmi.n	100049ba <d2fix_a+0x20>
100049a0:	2a0c      	cmp	r2, #12
100049a2:	da07      	bge.n	100049b4 <d2fix_a+0x1a>
100049a4:	0004      	movs	r4, r0
100049a6:	4091      	lsls	r1, r2
100049a8:	4090      	lsls	r0, r2
100049aa:	4252      	negs	r2, r2
100049ac:	3220      	adds	r2, #32
100049ae:	40d4      	lsrs	r4, r2
100049b0:	4321      	orrs	r1, r4
100049b2:	bd10      	pop	{r4, pc}
100049b4:	43d8      	mvns	r0, r3
100049b6:	43d9      	mvns	r1, r3
100049b8:	bd10      	pop	{r4, pc}
100049ba:	3220      	adds	r2, #32
100049bc:	d407      	bmi.n	100049ce <d2fix_a+0x34>
100049be:	460c      	mov	r4, r1
100049c0:	4094      	lsls	r4, r2
100049c2:	4252      	negs	r2, r2
100049c4:	3220      	adds	r2, #32
100049c6:	4111      	asrs	r1, r2
100049c8:	40d0      	lsrs	r0, r2
100049ca:	4320      	orrs	r0, r4
100049cc:	bd10      	pop	{r4, pc}
100049ce:	0008      	movs	r0, r1
100049d0:	17c9      	asrs	r1, r1, #31
100049d2:	3220      	adds	r2, #32
100049d4:	d403      	bmi.n	100049de <d2fix_a+0x44>
100049d6:	4252      	negs	r2, r2
100049d8:	3220      	adds	r2, #32
100049da:	4110      	asrs	r0, r2
100049dc:	bd10      	pop	{r4, pc}
100049de:	0018      	movs	r0, r3
100049e0:	0019      	movs	r1, r3
100049e2:	bd10      	pop	{r4, pc}
100049e4:	1000499b 	.word	0x1000499b

100049e8 <double2float_shim>:
100049e8:	004a      	lsls	r2, r1, #1
100049ea:	0d52      	lsrs	r2, r2, #21
100049ec:	4b14      	ldr	r3, [pc, #80]	; (10004a40 <double2float_shim+0x58>)
100049ee:	1ad2      	subs	r2, r2, r3
100049f0:	dd13      	ble.n	10004a1a <double2float_shim+0x32>
100049f2:	2aff      	cmp	r2, #255	; 0xff
100049f4:	da1e      	bge.n	10004a34 <double2float_shim+0x4c>
100049f6:	05d2      	lsls	r2, r2, #23
100049f8:	0fcb      	lsrs	r3, r1, #31
100049fa:	07db      	lsls	r3, r3, #31
100049fc:	431a      	orrs	r2, r3
100049fe:	00c3      	lsls	r3, r0, #3
10004a00:	0f40      	lsrs	r0, r0, #29
10004a02:	0309      	lsls	r1, r1, #12
10004a04:	0a49      	lsrs	r1, r1, #9
10004a06:	4308      	orrs	r0, r1
10004a08:	4310      	orrs	r0, r2
10004a0a:	005b      	lsls	r3, r3, #1
10004a0c:	d301      	bcc.n	10004a12 <double2float_shim+0x2a>
10004a0e:	d001      	beq.n	10004a14 <double2float_shim+0x2c>
10004a10:	3001      	adds	r0, #1
10004a12:	4770      	bx	lr
10004a14:	0843      	lsrs	r3, r0, #1
10004a16:	d2fb      	bcs.n	10004a10 <double2float_shim+0x28>
10004a18:	4770      	bx	lr
10004a1a:	d002      	beq.n	10004a22 <double2float_shim+0x3a>
10004a1c:	0fc8      	lsrs	r0, r1, #31
10004a1e:	07c0      	lsls	r0, r0, #31
10004a20:	4770      	bx	lr
10004a22:	030a      	lsls	r2, r1, #12
10004a24:	1312      	asrs	r2, r2, #12
10004a26:	3201      	adds	r2, #1
10004a28:	d1f8      	bne.n	10004a1c <double2float_shim+0x34>
10004a2a:	0f42      	lsrs	r2, r0, #29
10004a2c:	2a07      	cmp	r2, #7
10004a2e:	d1f5      	bne.n	10004a1c <double2float_shim+0x34>
10004a30:	2201      	movs	r2, #1
10004a32:	e000      	b.n	10004a36 <double2float_shim+0x4e>
10004a34:	22ff      	movs	r2, #255	; 0xff
10004a36:	0fc8      	lsrs	r0, r1, #31
10004a38:	0200      	lsls	r0, r0, #8
10004a3a:	1880      	adds	r0, r0, r2
10004a3c:	05c0      	lsls	r0, r0, #23
10004a3e:	4770      	bx	lr
10004a40:	00000380 	.word	0x00000380

10004a44 <dunpacks>:
10004a44:	0d0a      	lsrs	r2, r1, #20
10004a46:	0fcc      	lsrs	r4, r1, #31
10004a48:	1e53      	subs	r3, r2, #1
10004a4a:	051b      	lsls	r3, r3, #20
10004a4c:	1ac9      	subs	r1, r1, r3
10004a4e:	0552      	lsls	r2, r2, #21
10004a50:	d303      	bcc.n	10004a5a <l59_1>
10004a52:	43c9      	mvns	r1, r1
10004a54:	4240      	negs	r0, r0
10004a56:	d300      	bcc.n	10004a5a <l59_1>
10004a58:	3101      	adds	r1, #1

10004a5a <l59_1>:
10004a5a:	0d52      	lsrs	r2, r2, #21
10004a5c:	d003      	beq.n	10004a66 <l59_2>
10004a5e:	1c53      	adds	r3, r2, #1
10004a60:	0adb      	lsrs	r3, r3, #11
10004a62:	d007      	beq.n	10004a74 <l59_3>
10004a64:	1b12      	subs	r2, r2, r4

10004a66 <l59_2>:
10004a66:	2000      	movs	r0, #0
10004a68:	0064      	lsls	r4, r4, #1
10004a6a:	1c61      	adds	r1, r4, #1
10004a6c:	0789      	lsls	r1, r1, #30
10004a6e:	1289      	asrs	r1, r1, #10
10004a70:	3a80      	subs	r2, #128	; 0x80
10004a72:	0312      	lsls	r2, r2, #12

10004a74 <l59_3>:
10004a74:	4b01      	ldr	r3, [pc, #4]	; (10004a7c <l59_3+0x8>)
10004a76:	1ad2      	subs	r2, r2, r3
10004a78:	4770      	bx	lr
10004a7a:	0000      	.short	0x0000
10004a7c:	000003ff 	.word	0x000003ff

10004a80 <__wrap___aeabi_lmul>:
10004a80:	4351      	muls	r1, r2
10004a82:	4343      	muls	r3, r0
10004a84:	18c9      	adds	r1, r1, r3
10004a86:	468c      	mov	ip, r1
10004a88:	0c11      	lsrs	r1, r2, #16
10004a8a:	b283      	uxth	r3, r0
10004a8c:	434b      	muls	r3, r1
10004a8e:	b410      	push	{r4}
10004a90:	0c04      	lsrs	r4, r0, #16
10004a92:	4361      	muls	r1, r4
10004a94:	b292      	uxth	r2, r2
10004a96:	b280      	uxth	r0, r0
10004a98:	4350      	muls	r0, r2
10004a9a:	4362      	muls	r2, r4
10004a9c:	041c      	lsls	r4, r3, #16
10004a9e:	0c1b      	lsrs	r3, r3, #16
10004aa0:	1900      	adds	r0, r0, r4
10004aa2:	bc10      	pop	{r4}
10004aa4:	4159      	adcs	r1, r3
10004aa6:	0413      	lsls	r3, r2, #16
10004aa8:	0c12      	lsrs	r2, r2, #16
10004aaa:	18c0      	adds	r0, r0, r3
10004aac:	4151      	adcs	r1, r2
10004aae:	4461      	add	r1, ip
10004ab0:	4770      	bx	lr
	...

10004ab4 <__wrap___aeabi_frsub>:
10004ab4:	4048      	eors	r0, r1
10004ab6:	4041      	eors	r1, r0
10004ab8:	4048      	eors	r0, r1

10004aba <__wrap___aeabi_fsub>:
10004aba:	4b0e      	ldr	r3, [pc, #56]	; (10004af4 <__wrap___aeabi_fmul+0x6>)
10004abc:	685b      	ldr	r3, [r3, #4]
10004abe:	4718      	bx	r3

10004ac0 <__wrap___aeabi_fadd>:
10004ac0:	4b0c      	ldr	r3, [pc, #48]	; (10004af4 <__wrap___aeabi_fmul+0x6>)
10004ac2:	681b      	ldr	r3, [r3, #0]
10004ac4:	4718      	bx	r3

10004ac6 <__wrap___aeabi_fdiv>:
10004ac6:	4a0c      	ldr	r2, [pc, #48]	; (10004af8 <__wrap___aeabi_fmul+0xa>)
10004ac8:	6f93      	ldr	r3, [r2, #120]	; 0x78
10004aca:	089b      	lsrs	r3, r3, #2
10004acc:	d202      	bcs.n	10004ad4 <fdiv_save_state>

10004ace <fdiv_shim_call>:
10004ace:	4b09      	ldr	r3, [pc, #36]	; (10004af4 <__wrap___aeabi_fmul+0x6>)
10004ad0:	68db      	ldr	r3, [r3, #12]
10004ad2:	4718      	bx	r3

10004ad4 <fdiv_save_state>:
10004ad4:	b5f0      	push	{r4, r5, r6, r7, lr}
10004ad6:	6e14      	ldr	r4, [r2, #96]	; 0x60
10004ad8:	6e55      	ldr	r5, [r2, #100]	; 0x64
10004ada:	6f57      	ldr	r7, [r2, #116]	; 0x74
10004adc:	6f16      	ldr	r6, [r2, #112]	; 0x70
10004ade:	f7ff fff6 	bl	10004ace <fdiv_shim_call>
10004ae2:	4a05      	ldr	r2, [pc, #20]	; (10004af8 <__wrap___aeabi_fmul+0xa>)
10004ae4:	6614      	str	r4, [r2, #96]	; 0x60
10004ae6:	6655      	str	r5, [r2, #100]	; 0x64
10004ae8:	6757      	str	r7, [r2, #116]	; 0x74
10004aea:	6716      	str	r6, [r2, #112]	; 0x70
10004aec:	bdf0      	pop	{r4, r5, r6, r7, pc}

10004aee <__wrap___aeabi_fmul>:
10004aee:	4b01      	ldr	r3, [pc, #4]	; (10004af4 <__wrap___aeabi_fmul+0x6>)
10004af0:	689b      	ldr	r3, [r3, #8]
10004af2:	4718      	bx	r3
10004af4:	20000f38 	.word	0x20000f38
10004af8:	d0000000 	.word	0xd0000000

10004afc <__wrap___aeabi_ui2f>:
10004afc:	1a49      	subs	r1, r1, r1
10004afe:	2800      	cmp	r0, #0
10004b00:	d108      	bne.n	10004b14 <__aeabi_i2f_main>
10004b02:	4608      	mov	r0, r1
10004b04:	4770      	bx	lr
	...

10004b08 <__wrap___aeabi_i2f>:
10004b08:	0fc1      	lsrs	r1, r0, #31
10004b0a:	07c9      	lsls	r1, r1, #31
10004b0c:	d500      	bpl.n	10004b10 <__wrap___aeabi_i2f+0x8>
10004b0e:	4240      	negs	r0, r0
10004b10:	2800      	cmp	r0, #0
10004b12:	d017      	beq.n	10004b44 <__aeabi_i2f_main+0x30>

10004b14 <__aeabi_i2f_main>:
10004b14:	46f4      	mov	ip, lr
10004b16:	b403      	push	{r0, r1}
10004b18:	4b0b      	ldr	r3, [pc, #44]	; (10004b48 <__aeabi_i2f_main+0x34>)
10004b1a:	681b      	ldr	r3, [r3, #0]
10004b1c:	4798      	blx	r3
10004b1e:	bc06      	pop	{r1, r2}
10004b20:	4081      	lsls	r1, r0
10004b22:	389e      	subs	r0, #158	; 0x9e
10004b24:	4240      	negs	r0, r0
10004b26:	3180      	adds	r1, #128	; 0x80
10004b28:	d207      	bcs.n	10004b3a <__aeabi_i2f_main+0x26>
10004b2a:	060b      	lsls	r3, r1, #24
10004b2c:	d007      	beq.n	10004b3e <__aeabi_i2f_main+0x2a>
10004b2e:	0049      	lsls	r1, r1, #1
10004b30:	0a49      	lsrs	r1, r1, #9
10004b32:	05c0      	lsls	r0, r0, #23
10004b34:	4310      	orrs	r0, r2
10004b36:	4308      	orrs	r0, r1
10004b38:	4760      	bx	ip
10004b3a:	3001      	adds	r0, #1
10004b3c:	e7f8      	b.n	10004b30 <__aeabi_i2f_main+0x1c>
10004b3e:	0a49      	lsrs	r1, r1, #9
10004b40:	0289      	lsls	r1, r1, #10
10004b42:	e7f5      	b.n	10004b30 <__aeabi_i2f_main+0x1c>
10004b44:	4770      	bx	lr
10004b46:	0000      	.short	0x0000
10004b48:	20001c14 	.word	0x20001c14

10004b4c <__wrap___aeabi_f2iz>:
10004b4c:	0041      	lsls	r1, r0, #1
10004b4e:	0e0a      	lsrs	r2, r1, #24
10004b50:	2380      	movs	r3, #128	; 0x80
10004b52:	061b      	lsls	r3, r3, #24
10004b54:	2a7e      	cmp	r2, #126	; 0x7e
10004b56:	dd0b      	ble.n	10004b70 <__wrap___aeabi_f2iz+0x24>
10004b58:	3a9e      	subs	r2, #158	; 0x9e
10004b5a:	da0b      	bge.n	10004b74 <__wrap___aeabi_f2iz+0x28>
10004b5c:	17c1      	asrs	r1, r0, #31
10004b5e:	0240      	lsls	r0, r0, #9
10004b60:	0840      	lsrs	r0, r0, #1
10004b62:	4318      	orrs	r0, r3
10004b64:	4252      	negs	r2, r2
10004b66:	40d0      	lsrs	r0, r2
10004b68:	0049      	lsls	r1, r1, #1
10004b6a:	3101      	adds	r1, #1
10004b6c:	4348      	muls	r0, r1
10004b6e:	4770      	bx	lr
10004b70:	2000      	movs	r0, #0
10004b72:	4770      	bx	lr
10004b74:	0fc0      	lsrs	r0, r0, #31
10004b76:	18c0      	adds	r0, r0, r3
10004b78:	3801      	subs	r0, #1
10004b7a:	4770      	bx	lr
10004b7c:	42c0      	cmn	r0, r0
10004b7e:	d30d      	bcc.n	10004b9c <float2int>
10004b80:	b500      	push	{lr}
10004b82:	0040      	lsls	r0, r0, #1
10004b84:	0840      	lsrs	r0, r0, #1
10004b86:	2100      	movs	r1, #0
10004b88:	f000 f812 	bl	10004bb0 <__wrap___aeabi_f2uiz>
10004b8c:	2800      	cmp	r0, #0
10004b8e:	d401      	bmi.n	10004b94 <__wrap___aeabi_f2iz+0x48>
10004b90:	4240      	negs	r0, r0
10004b92:	bd00      	pop	{pc}
10004b94:	2080      	movs	r0, #128	; 0x80
10004b96:	0600      	lsls	r0, r0, #24
10004b98:	bd00      	pop	{pc}
	...

10004b9c <float2int>:
10004b9c:	4b03      	ldr	r3, [pc, #12]	; (10004bac <float2int+0x10>)
10004b9e:	69db      	ldr	r3, [r3, #28]
10004ba0:	46fc      	mov	ip, pc
10004ba2:	4718      	bx	r3
10004ba4:	4c61df1c 	.word	0x4c61df1c
10004ba8:	00001000 	.word	0x00001000
10004bac:	20000f38 	.word	0x20000f38

10004bb0 <__wrap___aeabi_f2uiz>:
10004bb0:	4b01      	ldr	r3, [pc, #4]	; (10004bb8 <__wrap___aeabi_f2uiz+0x8>)
10004bb2:	6a5b      	ldr	r3, [r3, #36]	; 0x24
10004bb4:	4718      	bx	r3
10004bb6:	0000      	.short	0x0000
10004bb8:	20000f38 	.word	0x20000f38

10004bbc <__wrap___aeabi_f2d>:
10004bbc:	4b03      	ldr	r3, [pc, #12]	; (10004bcc <__wrap___aeabi_f2d+0x10>)
10004bbe:	6fdb      	ldr	r3, [r3, #124]	; 0x7c
10004bc0:	46fc      	mov	ip, pc
10004bc2:	4718      	bx	r3
10004bc4:	4c79df7c 	.word	0x4c79df7c
10004bc8:	00001000 	.word	0x00001000
10004bcc:	20000f38 	.word	0x20000f38

10004bd0 <__aeabi_float_init>:
10004bd0:	2313      	movs	r3, #19
10004bd2:	b510      	push	{r4, lr}
10004bd4:	4812      	ldr	r0, [pc, #72]	; (10004c20 <__aeabi_float_init+0x50>)
10004bd6:	781c      	ldrb	r4, [r3, #0]
10004bd8:	f7ff f8a0 	bl	10003d1c <rom_data_lookup>
10004bdc:	0001      	movs	r1, r0
10004bde:	2c01      	cmp	r4, #1
10004be0:	d00a      	beq.n	10004bf8 <__aeabi_float_init+0x28>
10004be2:	dd03      	ble.n	10004bec <__aeabi_float_init+0x1c>
10004be4:	2280      	movs	r2, #128	; 0x80
10004be6:	480f      	ldr	r0, [pc, #60]	; (10004c24 <__aeabi_float_init+0x54>)
10004be8:	f000 f882 	bl	10004cf0 <__wrap___aeabi_memcpy>
10004bec:	480e      	ldr	r0, [pc, #56]	; (10004c28 <__aeabi_float_init+0x58>)
10004bee:	f7ff f88d 	bl	10003d0c <rom_func_lookup>
10004bf2:	4b0e      	ldr	r3, [pc, #56]	; (10004c2c <__aeabi_float_init+0x5c>)
10004bf4:	6018      	str	r0, [r3, #0]
10004bf6:	bd10      	pop	{r4, pc}
10004bf8:	4c0a      	ldr	r4, [pc, #40]	; (10004c24 <__aeabi_float_init+0x54>)
10004bfa:	2254      	movs	r2, #84	; 0x54
10004bfc:	0020      	movs	r0, r4
10004bfe:	f000 f877 	bl	10004cf0 <__wrap___aeabi_memcpy>
10004c02:	4b0b      	ldr	r3, [pc, #44]	; (10004c30 <__aeabi_float_init+0x60>)
10004c04:	6563      	str	r3, [r4, #84]	; 0x54
10004c06:	65a3      	str	r3, [r4, #88]	; 0x58
10004c08:	65e3      	str	r3, [r4, #92]	; 0x5c
10004c0a:	6623      	str	r3, [r4, #96]	; 0x60
10004c0c:	6663      	str	r3, [r4, #100]	; 0x64
10004c0e:	66a3      	str	r3, [r4, #104]	; 0x68
10004c10:	66e3      	str	r3, [r4, #108]	; 0x6c
10004c12:	6723      	str	r3, [r4, #112]	; 0x70
10004c14:	6763      	str	r3, [r4, #116]	; 0x74
10004c16:	67a3      	str	r3, [r4, #120]	; 0x78
10004c18:	67e3      	str	r3, [r4, #124]	; 0x7c
10004c1a:	6223      	str	r3, [r4, #32]
10004c1c:	61e3      	str	r3, [r4, #28]
10004c1e:	e7e5      	b.n	10004bec <__aeabi_float_init+0x1c>
10004c20:	00004653 	.word	0x00004653
10004c24:	20000f38 	.word	0x20000f38
10004c28:	0000334c 	.word	0x0000334c
10004c2c:	20001c14 	.word	0x20001c14
10004c30:	10004c35 	.word	0x10004c35

10004c34 <float_table_shim_on_use_helper>:
10004c34:	b507      	push	{r0, r1, r2, lr}
10004c36:	4660      	mov	r0, ip
10004c38:	8801      	ldrh	r1, [r0, #0]
10004c3a:	0a0a      	lsrs	r2, r1, #8
10004c3c:	3002      	adds	r0, #2
10004c3e:	2adf      	cmp	r2, #223	; 0xdf
10004c40:	d1fa      	bne.n	10004c38 <float_table_shim_on_use_helper+0x4>
10004c42:	b2c9      	uxtb	r1, r1
10004c44:	0882      	lsrs	r2, r0, #2
10004c46:	d304      	bcc.n	10004c52 <float_table_shim_on_use_helper+0x1e>
10004c48:	8802      	ldrh	r2, [r0, #0]
10004c4a:	8840      	ldrh	r0, [r0, #2]
10004c4c:	0400      	lsls	r0, r0, #16
10004c4e:	4310      	orrs	r0, r2
10004c50:	e000      	b.n	10004c54 <float_table_shim_on_use_helper+0x20>
10004c52:	6800      	ldr	r0, [r0, #0]
10004c54:	4a01      	ldr	r2, [pc, #4]	; (10004c5c <float_table_shim_on_use_helper+0x28>)
10004c56:	5050      	str	r0, [r2, r1]
10004c58:	9003      	str	r0, [sp, #12]
10004c5a:	bd07      	pop	{r0, r1, r2, pc}
10004c5c:	20000f38 	.word	0x20000f38

10004c60 <float2int_shim>:
10004c60:	2100      	movs	r1, #0

10004c62 <float2fix_shim>:
10004c62:	15c2      	asrs	r2, r0, #23
10004c64:	3280      	adds	r2, #128	; 0x80
10004c66:	3280      	adds	r2, #128	; 0x80
10004c68:	d001      	beq.n	10004c6e <float2fix_shim+0xc>
10004c6a:	4a02      	ldr	r2, [pc, #8]	; (10004c74 <float2fix_shim+0x12>)
10004c6c:	4710      	bx	r2
10004c6e:	2000      	movs	r0, #0
10004c70:	4770      	bx	lr
10004c72:	0000      	.short	0x0000
10004c74:	00002acd 	.word	0x00002acd

10004c78 <float2double_shim>:
10004c78:	0fc3      	lsrs	r3, r0, #31
10004c7a:	07db      	lsls	r3, r3, #31
10004c7c:	0041      	lsls	r1, r0, #1
10004c7e:	0e0a      	lsrs	r2, r1, #24
10004c80:	d007      	beq.n	10004c92 <float2double_shim+0x1a>
10004c82:	2aff      	cmp	r2, #255	; 0xff
10004c84:	d008      	beq.n	10004c98 <float2double_shim+0x20>
10004c86:	0909      	lsrs	r1, r1, #4
10004c88:	4a05      	ldr	r2, [pc, #20]	; (10004ca0 <float2double_shim+0x28>)
10004c8a:	1889      	adds	r1, r1, r2
10004c8c:	4319      	orrs	r1, r3
10004c8e:	0740      	lsls	r0, r0, #29
10004c90:	4770      	bx	lr
10004c92:	0019      	movs	r1, r3
10004c94:	2000      	movs	r0, #0
10004c96:	4770      	bx	lr
10004c98:	4902      	ldr	r1, [pc, #8]	; (10004ca4 <float2double_shim+0x2c>)
10004c9a:	18c9      	adds	r1, r1, r3
10004c9c:	e7fa      	b.n	10004c94 <float2double_shim+0x1c>
10004c9e:	0000      	.short	0x0000
10004ca0:	38000000 	.word	0x38000000
10004ca4:	7ff00000 	.word	0x7ff00000

10004ca8 <__wrap_malloc>:
10004ca8:	b510      	push	{r4, lr}
10004caa:	0004      	movs	r4, r0
10004cac:	f005 ffa6 	bl	1000abfc <malloc>
10004cb0:	2800      	cmp	r0, #0
10004cb2:	d004      	beq.n	10004cbe <__wrap_malloc+0x16>
10004cb4:	4b03      	ldr	r3, [pc, #12]	; (10004cc4 <__wrap_malloc+0x1c>)
10004cb6:	1904      	adds	r4, r0, r4
10004cb8:	429c      	cmp	r4, r3
10004cba:	d800      	bhi.n	10004cbe <__wrap_malloc+0x16>
10004cbc:	bd10      	pop	{r4, pc}
10004cbe:	4802      	ldr	r0, [pc, #8]	; (10004cc8 <__wrap_malloc+0x20>)
10004cc0:	f7fd faf8 	bl	100022b4 <panic>
10004cc4:	20040000 	.word	0x20040000
10004cc8:	1000b8c0 	.word	0x1000b8c0

10004ccc <__wrap_free>:
10004ccc:	b510      	push	{r4, lr}
10004cce:	f005 ff9f 	bl	1000ac10 <free>
10004cd2:	bd10      	pop	{r4, pc}

10004cd4 <__aeabi_mem_init>:
10004cd4:	4801      	ldr	r0, [pc, #4]	; (10004cdc <__aeabi_mem_init+0x8>)
10004cd6:	2104      	movs	r1, #4
10004cd8:	4b01      	ldr	r3, [pc, #4]	; (10004ce0 <__aeabi_mem_init+0xc>)
10004cda:	4718      	bx	r3
10004cdc:	20000410 	.word	0x20000410
10004ce0:	10003d2d 	.word	0x10003d2d

10004ce4 <__wrap_memset>:
10004ce4:	4b01      	ldr	r3, [pc, #4]	; (10004cec <__wrap_memset+0x8>)
10004ce6:	681b      	ldr	r3, [r3, #0]
10004ce8:	4718      	bx	r3
10004cea:	0000      	.short	0x0000
10004cec:	20000410 	.word	0x20000410

10004cf0 <__wrap___aeabi_memcpy>:
10004cf0:	4b01      	ldr	r3, [pc, #4]	; (10004cf8 <__wrap___aeabi_memcpy+0x8>)
10004cf2:	685b      	ldr	r3, [r3, #4]
10004cf4:	4718      	bx	r3
10004cf6:	0000      	.short	0x0000
10004cf8:	20000410 	.word	0x20000410

10004cfc <stdio_out_chars_no_crlf>:
10004cfc:	0003      	movs	r3, r0
10004cfe:	b510      	push	{r4, lr}
10004d00:	0008      	movs	r0, r1
10004d02:	0011      	movs	r1, r2
10004d04:	681b      	ldr	r3, [r3, #0]
10004d06:	4798      	blx	r3
10004d08:	bd10      	pop	{r4, pc}
10004d0a:	46c0      	nop			; (mov r8, r8)

10004d0c <stdio_out_chars_crlf>:
10004d0c:	b5f0      	push	{r4, r5, r6, r7, lr}
10004d0e:	4646      	mov	r6, r8
10004d10:	464f      	mov	r7, r9
10004d12:	46d6      	mov	lr, sl
10004d14:	b5c0      	push	{r6, r7, lr}
10004d16:	7c43      	ldrb	r3, [r0, #17]
10004d18:	4680      	mov	r8, r0
10004d1a:	000e      	movs	r6, r1
10004d1c:	0017      	movs	r7, r2
10004d1e:	2b00      	cmp	r3, #0
10004d20:	d046      	beq.n	10004db0 <stdio_out_chars_crlf+0xa4>
10004d22:	2a00      	cmp	r2, #0
10004d24:	dd3f      	ble.n	10004da6 <stdio_out_chars_crlf+0x9a>
10004d26:	1e4b      	subs	r3, r1, #1
10004d28:	4699      	mov	r9, r3
10004d2a:	4b24      	ldr	r3, [pc, #144]	; (10004dbc <stdio_out_chars_crlf+0xb0>)
10004d2c:	2501      	movs	r5, #1
10004d2e:	2400      	movs	r4, #0
10004d30:	2000      	movs	r0, #0
10004d32:	469a      	mov	sl, r3
10004d34:	e00d      	b.n	10004d52 <stdio_out_chars_crlf+0x46>
10004d36:	464b      	mov	r3, r9
10004d38:	5d1b      	ldrb	r3, [r3, r4]
10004d3a:	3b0d      	subs	r3, #13
10004d3c:	425a      	negs	r2, r3
10004d3e:	4153      	adcs	r3, r2
10004d40:	5d32      	ldrb	r2, [r6, r4]
10004d42:	b2db      	uxtb	r3, r3
10004d44:	2a0a      	cmp	r2, #10
10004d46:	d00b      	beq.n	10004d60 <stdio_out_chars_crlf+0x54>
10004d48:	002b      	movs	r3, r5
10004d4a:	3401      	adds	r4, #1
10004d4c:	3501      	adds	r5, #1
10004d4e:	429f      	cmp	r7, r3
10004d50:	dd1a      	ble.n	10004d88 <stdio_out_chars_crlf+0x7c>
10004d52:	2c00      	cmp	r4, #0
10004d54:	d1ef      	bne.n	10004d36 <stdio_out_chars_crlf+0x2a>
10004d56:	4643      	mov	r3, r8
10004d58:	5d32      	ldrb	r2, [r6, r4]
10004d5a:	7c1b      	ldrb	r3, [r3, #16]
10004d5c:	2a0a      	cmp	r2, #10
10004d5e:	d1f3      	bne.n	10004d48 <stdio_out_chars_crlf+0x3c>
10004d60:	2b00      	cmp	r3, #0
10004d62:	d1f1      	bne.n	10004d48 <stdio_out_chars_crlf+0x3c>
10004d64:	42a0      	cmp	r0, r4
10004d66:	da04      	bge.n	10004d72 <stdio_out_chars_crlf+0x66>
10004d68:	4643      	mov	r3, r8
10004d6a:	1a21      	subs	r1, r4, r0
10004d6c:	681b      	ldr	r3, [r3, #0]
10004d6e:	1830      	adds	r0, r6, r0
10004d70:	4798      	blx	r3
10004d72:	4643      	mov	r3, r8
10004d74:	4650      	mov	r0, sl
10004d76:	681b      	ldr	r3, [r3, #0]
10004d78:	2102      	movs	r1, #2
10004d7a:	4798      	blx	r3
10004d7c:	3401      	adds	r4, #1
10004d7e:	0028      	movs	r0, r5
10004d80:	002b      	movs	r3, r5
10004d82:	3501      	adds	r5, #1
10004d84:	429f      	cmp	r7, r3
10004d86:	dce4      	bgt.n	10004d52 <stdio_out_chars_crlf+0x46>
10004d88:	4287      	cmp	r7, r0
10004d8a:	dd04      	ble.n	10004d96 <stdio_out_chars_crlf+0x8a>
10004d8c:	4643      	mov	r3, r8
10004d8e:	1a39      	subs	r1, r7, r0
10004d90:	681b      	ldr	r3, [r3, #0]
10004d92:	1830      	adds	r0, r6, r0
10004d94:	4798      	blx	r3
10004d96:	19f6      	adds	r6, r6, r7
10004d98:	3e01      	subs	r6, #1
10004d9a:	7833      	ldrb	r3, [r6, #0]
10004d9c:	3b0d      	subs	r3, #13
10004d9e:	425a      	negs	r2, r3
10004da0:	4153      	adcs	r3, r2
10004da2:	4642      	mov	r2, r8
10004da4:	7413      	strb	r3, [r2, #16]
10004da6:	bce0      	pop	{r5, r6, r7}
10004da8:	46ba      	mov	sl, r7
10004daa:	46b1      	mov	r9, r6
10004dac:	46a8      	mov	r8, r5
10004dae:	bdf0      	pop	{r4, r5, r6, r7, pc}
10004db0:	6803      	ldr	r3, [r0, #0]
10004db2:	0011      	movs	r1, r2
10004db4:	0030      	movs	r0, r6
10004db6:	4798      	blx	r3
10004db8:	e7f5      	b.n	10004da6 <stdio_out_chars_crlf+0x9a>
10004dba:	46c0      	nop			; (mov r8, r8)
10004dbc:	1000b934 	.word	0x1000b934

10004dc0 <stdio_buffered_printer>:
10004dc0:	b5f0      	push	{r4, r5, r6, r7, lr}
10004dc2:	46c6      	mov	lr, r8
10004dc4:	000c      	movs	r4, r1
10004dc6:	6809      	ldr	r1, [r1, #0]
10004dc8:	0006      	movs	r6, r0
10004dca:	b500      	push	{lr}
10004dcc:	2980      	cmp	r1, #128	; 0x80
10004dce:	d006      	beq.n	10004dde <stdio_buffered_printer+0x1e>
10004dd0:	1c4b      	adds	r3, r1, #1
10004dd2:	6023      	str	r3, [r4, #0]
10004dd4:	1864      	adds	r4, r4, r1
10004dd6:	7126      	strb	r6, [r4, #4]
10004dd8:	bc80      	pop	{r7}
10004dda:	46b8      	mov	r8, r7
10004ddc:	bdf0      	pop	{r4, r5, r6, r7, pc}
10004dde:	4b0f      	ldr	r3, [pc, #60]	; (10004e1c <stdio_buffered_printer+0x5c>)
10004de0:	681d      	ldr	r5, [r3, #0]
10004de2:	2d00      	cmp	r5, #0
10004de4:	d016      	beq.n	10004e14 <stdio_buffered_printer+0x54>
10004de6:	1d23      	adds	r3, r4, #4
10004de8:	4698      	mov	r8, r3
10004dea:	4f0d      	ldr	r7, [pc, #52]	; (10004e20 <stdio_buffered_printer+0x60>)
10004dec:	e002      	b.n	10004df4 <stdio_buffered_printer+0x34>
10004dee:	68ed      	ldr	r5, [r5, #12]
10004df0:	2d00      	cmp	r5, #0
10004df2:	d00f      	beq.n	10004e14 <stdio_buffered_printer+0x54>
10004df4:	682b      	ldr	r3, [r5, #0]
10004df6:	2b00      	cmp	r3, #0
10004df8:	d0f9      	beq.n	10004dee <stdio_buffered_printer+0x2e>
10004dfa:	683b      	ldr	r3, [r7, #0]
10004dfc:	2b00      	cmp	r3, #0
10004dfe:	d001      	beq.n	10004e04 <stdio_buffered_printer+0x44>
10004e00:	42ab      	cmp	r3, r5
10004e02:	d1f4      	bne.n	10004dee <stdio_buffered_printer+0x2e>
10004e04:	0028      	movs	r0, r5
10004e06:	4641      	mov	r1, r8
10004e08:	6822      	ldr	r2, [r4, #0]
10004e0a:	f7ff ff7f 	bl	10004d0c <stdio_out_chars_crlf>
10004e0e:	68ed      	ldr	r5, [r5, #12]
10004e10:	2d00      	cmp	r5, #0
10004e12:	d1ef      	bne.n	10004df4 <stdio_buffered_printer+0x34>
10004e14:	2301      	movs	r3, #1
10004e16:	2100      	movs	r1, #0
10004e18:	e7db      	b.n	10004dd2 <stdio_buffered_printer+0x12>
10004e1a:	46c0      	nop			; (mov r8, r8)
10004e1c:	200017d8 	.word	0x200017d8
10004e20:	200017dc 	.word	0x200017dc

10004e24 <stdio_put_string.isra.0>:
10004e24:	b5f0      	push	{r4, r5, r6, r7, lr}
10004e26:	4657      	mov	r7, sl
10004e28:	464e      	mov	r6, r9
10004e2a:	4645      	mov	r5, r8
10004e2c:	46de      	mov	lr, fp
10004e2e:	001c      	movs	r4, r3
10004e30:	23d0      	movs	r3, #208	; 0xd0
10004e32:	b5e0      	push	{r5, r6, r7, lr}
10004e34:	061b      	lsls	r3, r3, #24
10004e36:	681f      	ldr	r7, [r3, #0]
10004e38:	4b34      	ldr	r3, [pc, #208]	; (10004f0c <stdio_put_string.isra.0+0xe8>)
10004e3a:	b083      	sub	sp, #12
10004e3c:	0006      	movs	r6, r0
10004e3e:	000d      	movs	r5, r1
10004e40:	0018      	movs	r0, r3
10004e42:	a901      	add	r1, sp, #4
10004e44:	4691      	mov	r9, r2
10004e46:	469a      	mov	sl, r3
10004e48:	f006 fb3e 	bl	1000b4c8 <__mutex_try_enter_veneer>
10004e4c:	4680      	mov	r8, r0
10004e4e:	2800      	cmp	r0, #0
10004e50:	d108      	bne.n	10004e64 <stdio_put_string.isra.0+0x40>
10004e52:	9b01      	ldr	r3, [sp, #4]
10004e54:	b27f      	sxtb	r7, r7
10004e56:	429f      	cmp	r7, r3
10004e58:	d004      	beq.n	10004e64 <stdio_put_string.isra.0+0x40>
10004e5a:	4650      	mov	r0, sl
10004e5c:	f006 fb44 	bl	1000b4e8 <__mutex_enter_blocking_veneer>
10004e60:	2301      	movs	r3, #1
10004e62:	4698      	mov	r8, r3
10004e64:	1c6b      	adds	r3, r5, #1
10004e66:	d103      	bne.n	10004e70 <stdio_put_string.isra.0+0x4c>
10004e68:	0030      	movs	r0, r6
10004e6a:	f006 f9ab 	bl	1000b1c4 <strlen>
10004e6e:	0005      	movs	r5, r0
10004e70:	2c00      	cmp	r4, #0
10004e72:	d127      	bne.n	10004ec4 <stdio_put_string.isra.0+0xa0>
10004e74:	4f26      	ldr	r7, [pc, #152]	; (10004f10 <stdio_put_string.isra.0+0xec>)
10004e76:	4b27      	ldr	r3, [pc, #156]	; (10004f14 <stdio_put_string.isra.0+0xf0>)
10004e78:	681c      	ldr	r4, [r3, #0]
10004e7a:	2c00      	cmp	r4, #0
10004e7c:	d018      	beq.n	10004eb0 <stdio_put_string.isra.0+0x8c>
10004e7e:	464b      	mov	r3, r9
10004e80:	2b00      	cmp	r3, #0
10004e82:	d121      	bne.n	10004ec8 <stdio_put_string.isra.0+0xa4>
10004e84:	4b24      	ldr	r3, [pc, #144]	; (10004f18 <stdio_put_string.isra.0+0xf4>)
10004e86:	4699      	mov	r9, r3
10004e88:	e002      	b.n	10004e90 <stdio_put_string.isra.0+0x6c>
10004e8a:	68e4      	ldr	r4, [r4, #12]
10004e8c:	2c00      	cmp	r4, #0
10004e8e:	d00f      	beq.n	10004eb0 <stdio_put_string.isra.0+0x8c>
10004e90:	6823      	ldr	r3, [r4, #0]
10004e92:	2b00      	cmp	r3, #0
10004e94:	d0f9      	beq.n	10004e8a <stdio_put_string.isra.0+0x66>
10004e96:	464b      	mov	r3, r9
10004e98:	681b      	ldr	r3, [r3, #0]
10004e9a:	2b00      	cmp	r3, #0
10004e9c:	d001      	beq.n	10004ea2 <stdio_put_string.isra.0+0x7e>
10004e9e:	42a3      	cmp	r3, r4
10004ea0:	d1f3      	bne.n	10004e8a <stdio_put_string.isra.0+0x66>
10004ea2:	0020      	movs	r0, r4
10004ea4:	002a      	movs	r2, r5
10004ea6:	0031      	movs	r1, r6
10004ea8:	47b8      	blx	r7
10004eaa:	68e4      	ldr	r4, [r4, #12]
10004eac:	2c00      	cmp	r4, #0
10004eae:	d1ef      	bne.n	10004e90 <stdio_put_string.isra.0+0x6c>
10004eb0:	4643      	mov	r3, r8
10004eb2:	2b00      	cmp	r3, #0
10004eb4:	d125      	bne.n	10004f02 <stdio_put_string.isra.0+0xde>
10004eb6:	b003      	add	sp, #12
10004eb8:	bcf0      	pop	{r4, r5, r6, r7}
10004eba:	46bb      	mov	fp, r7
10004ebc:	46b2      	mov	sl, r6
10004ebe:	46a9      	mov	r9, r5
10004ec0:	46a0      	mov	r8, r4
10004ec2:	bdf0      	pop	{r4, r5, r6, r7, pc}
10004ec4:	4f15      	ldr	r7, [pc, #84]	; (10004f1c <stdio_put_string.isra.0+0xf8>)
10004ec6:	e7d6      	b.n	10004e76 <stdio_put_string.isra.0+0x52>
10004ec8:	4b13      	ldr	r3, [pc, #76]	; (10004f18 <stdio_put_string.isra.0+0xf4>)
10004eca:	4699      	mov	r9, r3
10004ecc:	230a      	movs	r3, #10
10004ece:	469b      	mov	fp, r3
10004ed0:	e002      	b.n	10004ed8 <stdio_put_string.isra.0+0xb4>
10004ed2:	68e4      	ldr	r4, [r4, #12]
10004ed4:	2c00      	cmp	r4, #0
10004ed6:	d0eb      	beq.n	10004eb0 <stdio_put_string.isra.0+0x8c>
10004ed8:	6823      	ldr	r3, [r4, #0]
10004eda:	2b00      	cmp	r3, #0
10004edc:	d0f9      	beq.n	10004ed2 <stdio_put_string.isra.0+0xae>
10004ede:	464b      	mov	r3, r9
10004ee0:	681b      	ldr	r3, [r3, #0]
10004ee2:	2b00      	cmp	r3, #0
10004ee4:	d001      	beq.n	10004eea <stdio_put_string.isra.0+0xc6>
10004ee6:	42a3      	cmp	r3, r4
10004ee8:	d1f3      	bne.n	10004ed2 <stdio_put_string.isra.0+0xae>
10004eea:	002a      	movs	r2, r5
10004eec:	0031      	movs	r1, r6
10004eee:	0020      	movs	r0, r4
10004ef0:	47b8      	blx	r7
10004ef2:	465a      	mov	r2, fp
10004ef4:	466b      	mov	r3, sp
10004ef6:	0020      	movs	r0, r4
10004ef8:	711a      	strb	r2, [r3, #4]
10004efa:	a901      	add	r1, sp, #4
10004efc:	2201      	movs	r2, #1
10004efe:	47b8      	blx	r7
10004f00:	e7e7      	b.n	10004ed2 <stdio_put_string.isra.0+0xae>
10004f02:	4650      	mov	r0, sl
10004f04:	f006 fac8 	bl	1000b498 <__mutex_exit_veneer>
10004f08:	e7d5      	b.n	10004eb6 <stdio_put_string.isra.0+0x92>
10004f0a:	46c0      	nop			; (mov r8, r8)
10004f0c:	20000cb0 	.word	0x20000cb0
10004f10:	10004d0d 	.word	0x10004d0d
10004f14:	200017d8 	.word	0x200017d8
10004f18:	200017dc 	.word	0x200017dc
10004f1c:	10004cfd 	.word	0x10004cfd

10004f20 <__wrap_putchar>:
10004f20:	b5f0      	push	{r4, r5, r6, r7, lr}
10004f22:	46ce      	mov	lr, r9
10004f24:	4647      	mov	r7, r8
10004f26:	b580      	push	{r7, lr}
10004f28:	b083      	sub	sp, #12
10004f2a:	466b      	mov	r3, sp
10004f2c:	1cde      	adds	r6, r3, #3
10004f2e:	23d0      	movs	r3, #208	; 0xd0
10004f30:	7030      	strb	r0, [r6, #0]
10004f32:	061b      	lsls	r3, r3, #24
10004f34:	681c      	ldr	r4, [r3, #0]
10004f36:	4b1f      	ldr	r3, [pc, #124]	; (10004fb4 <__wrap_putchar+0x94>)
10004f38:	4680      	mov	r8, r0
10004f3a:	a901      	add	r1, sp, #4
10004f3c:	0018      	movs	r0, r3
10004f3e:	4699      	mov	r9, r3
10004f40:	f006 fac2 	bl	1000b4c8 <__mutex_try_enter_veneer>
10004f44:	1e07      	subs	r7, r0, #0
10004f46:	d020      	beq.n	10004f8a <__wrap_putchar+0x6a>
10004f48:	4b1b      	ldr	r3, [pc, #108]	; (10004fb8 <__wrap_putchar+0x98>)
10004f4a:	681c      	ldr	r4, [r3, #0]
10004f4c:	2c00      	cmp	r4, #0
10004f4e:	d028      	beq.n	10004fa2 <__wrap_putchar+0x82>
10004f50:	4d1a      	ldr	r5, [pc, #104]	; (10004fbc <__wrap_putchar+0x9c>)
10004f52:	e002      	b.n	10004f5a <__wrap_putchar+0x3a>
10004f54:	68e4      	ldr	r4, [r4, #12]
10004f56:	2c00      	cmp	r4, #0
10004f58:	d00f      	beq.n	10004f7a <__wrap_putchar+0x5a>
10004f5a:	6823      	ldr	r3, [r4, #0]
10004f5c:	2b00      	cmp	r3, #0
10004f5e:	d0f9      	beq.n	10004f54 <__wrap_putchar+0x34>
10004f60:	682b      	ldr	r3, [r5, #0]
10004f62:	2b00      	cmp	r3, #0
10004f64:	d001      	beq.n	10004f6a <__wrap_putchar+0x4a>
10004f66:	42a3      	cmp	r3, r4
10004f68:	d1f4      	bne.n	10004f54 <__wrap_putchar+0x34>
10004f6a:	0020      	movs	r0, r4
10004f6c:	2201      	movs	r2, #1
10004f6e:	0031      	movs	r1, r6
10004f70:	f7ff fecc 	bl	10004d0c <stdio_out_chars_crlf>
10004f74:	68e4      	ldr	r4, [r4, #12]
10004f76:	2c00      	cmp	r4, #0
10004f78:	d1ef      	bne.n	10004f5a <__wrap_putchar+0x3a>
10004f7a:	2f00      	cmp	r7, #0
10004f7c:	d111      	bne.n	10004fa2 <__wrap_putchar+0x82>
10004f7e:	4640      	mov	r0, r8
10004f80:	b003      	add	sp, #12
10004f82:	bcc0      	pop	{r6, r7}
10004f84:	46b9      	mov	r9, r7
10004f86:	46b0      	mov	r8, r6
10004f88:	bdf0      	pop	{r4, r5, r6, r7, pc}
10004f8a:	9b01      	ldr	r3, [sp, #4]
10004f8c:	b264      	sxtb	r4, r4
10004f8e:	429c      	cmp	r4, r3
10004f90:	d00b      	beq.n	10004faa <__wrap_putchar+0x8a>
10004f92:	4648      	mov	r0, r9
10004f94:	f006 faa8 	bl	1000b4e8 <__mutex_enter_blocking_veneer>
10004f98:	4b07      	ldr	r3, [pc, #28]	; (10004fb8 <__wrap_putchar+0x98>)
10004f9a:	2701      	movs	r7, #1
10004f9c:	681c      	ldr	r4, [r3, #0]
10004f9e:	2c00      	cmp	r4, #0
10004fa0:	d1d6      	bne.n	10004f50 <__wrap_putchar+0x30>
10004fa2:	4648      	mov	r0, r9
10004fa4:	f006 fa78 	bl	1000b498 <__mutex_exit_veneer>
10004fa8:	e7e9      	b.n	10004f7e <__wrap_putchar+0x5e>
10004faa:	4b03      	ldr	r3, [pc, #12]	; (10004fb8 <__wrap_putchar+0x98>)
10004fac:	681c      	ldr	r4, [r3, #0]
10004fae:	2c00      	cmp	r4, #0
10004fb0:	d1ce      	bne.n	10004f50 <__wrap_putchar+0x30>
10004fb2:	e7e4      	b.n	10004f7e <__wrap_putchar+0x5e>
10004fb4:	20000cb0 	.word	0x20000cb0
10004fb8:	200017d8 	.word	0x200017d8
10004fbc:	200017dc 	.word	0x200017dc

10004fc0 <__wrap_puts>:
10004fc0:	b570      	push	{r4, r5, r6, lr}
10004fc2:	0004      	movs	r4, r0
10004fc4:	f006 f8fe 	bl	1000b1c4 <strlen>
10004fc8:	2300      	movs	r3, #0
10004fca:	0001      	movs	r1, r0
10004fcc:	0005      	movs	r5, r0
10004fce:	2201      	movs	r2, #1
10004fd0:	0020      	movs	r0, r4
10004fd2:	f7ff ff27 	bl	10004e24 <stdio_put_string.isra.0>
10004fd6:	4b08      	ldr	r3, [pc, #32]	; (10004ff8 <__wrap_puts+0x38>)
10004fd8:	681c      	ldr	r4, [r3, #0]
10004fda:	2c00      	cmp	r4, #0
10004fdc:	d006      	beq.n	10004fec <__wrap_puts+0x2c>
10004fde:	6863      	ldr	r3, [r4, #4]
10004fe0:	2b00      	cmp	r3, #0
10004fe2:	d005      	beq.n	10004ff0 <__wrap_puts+0x30>
10004fe4:	4798      	blx	r3
10004fe6:	68e4      	ldr	r4, [r4, #12]
10004fe8:	2c00      	cmp	r4, #0
10004fea:	d1f8      	bne.n	10004fde <__wrap_puts+0x1e>
10004fec:	0028      	movs	r0, r5
10004fee:	bd70      	pop	{r4, r5, r6, pc}
10004ff0:	68e4      	ldr	r4, [r4, #12]
10004ff2:	2c00      	cmp	r4, #0
10004ff4:	d1f3      	bne.n	10004fde <__wrap_puts+0x1e>
10004ff6:	e7f9      	b.n	10004fec <__wrap_puts+0x2c>
10004ff8:	200017d8 	.word	0x200017d8

10004ffc <stdio_set_driver_enabled>:
10004ffc:	4a0a      	ldr	r2, [pc, #40]	; (10005028 <stdio_set_driver_enabled+0x2c>)
10004ffe:	6813      	ldr	r3, [r2, #0]
10005000:	2b00      	cmp	r3, #0
10005002:	d105      	bne.n	10005010 <stdio_set_driver_enabled+0x14>
10005004:	e00c      	b.n	10005020 <stdio_set_driver_enabled+0x24>
10005006:	001a      	movs	r2, r3
10005008:	68db      	ldr	r3, [r3, #12]
1000500a:	320c      	adds	r2, #12
1000500c:	2b00      	cmp	r3, #0
1000500e:	d007      	beq.n	10005020 <stdio_set_driver_enabled+0x24>
10005010:	4298      	cmp	r0, r3
10005012:	d1f8      	bne.n	10005006 <stdio_set_driver_enabled+0xa>
10005014:	2900      	cmp	r1, #0
10005016:	d102      	bne.n	1000501e <stdio_set_driver_enabled+0x22>
10005018:	68c3      	ldr	r3, [r0, #12]
1000501a:	6013      	str	r3, [r2, #0]
1000501c:	60c1      	str	r1, [r0, #12]
1000501e:	4770      	bx	lr
10005020:	2900      	cmp	r1, #0
10005022:	d0fc      	beq.n	1000501e <stdio_set_driver_enabled+0x22>
10005024:	6010      	str	r0, [r2, #0]
10005026:	e7fa      	b.n	1000501e <stdio_set_driver_enabled+0x22>
10005028:	200017d8 	.word	0x200017d8

1000502c <__wrap_vprintf>:
1000502c:	b5f0      	push	{r4, r5, r6, r7, lr}
1000502e:	4647      	mov	r7, r8
10005030:	46ce      	mov	lr, r9
10005032:	23d0      	movs	r3, #208	; 0xd0
10005034:	b580      	push	{r7, lr}
10005036:	061b      	lsls	r3, r3, #24
10005038:	681d      	ldr	r5, [r3, #0]
1000503a:	4b2e      	ldr	r3, [pc, #184]	; (100050f4 <__wrap_vprintf+0xc8>)
1000503c:	b0a5      	sub	sp, #148	; 0x94
1000503e:	0007      	movs	r7, r0
10005040:	000c      	movs	r4, r1
10005042:	0018      	movs	r0, r3
10005044:	a903      	add	r1, sp, #12
10005046:	4698      	mov	r8, r3
10005048:	f006 fa3e 	bl	1000b4c8 <__mutex_try_enter_veneer>
1000504c:	1e06      	subs	r6, r0, #0
1000504e:	d107      	bne.n	10005060 <__wrap_vprintf+0x34>
10005050:	9b03      	ldr	r3, [sp, #12]
10005052:	b26d      	sxtb	r5, r5
10005054:	429d      	cmp	r5, r3
10005056:	d003      	beq.n	10005060 <__wrap_vprintf+0x34>
10005058:	4640      	mov	r0, r8
1000505a:	f006 fa45 	bl	1000b4e8 <__mutex_enter_blocking_veneer>
1000505e:	3601      	adds	r6, #1
10005060:	2284      	movs	r2, #132	; 0x84
10005062:	2100      	movs	r1, #0
10005064:	a803      	add	r0, sp, #12
10005066:	f7ff fe3d 	bl	10004ce4 <__wrap_memset>
1000506a:	0023      	movs	r3, r4
1000506c:	003a      	movs	r2, r7
1000506e:	4822      	ldr	r0, [pc, #136]	; (100050f8 <__wrap_vprintf+0xcc>)
10005070:	a903      	add	r1, sp, #12
10005072:	f7fe fe1b 	bl	10003cac <vfctprintf>
10005076:	9b03      	ldr	r3, [sp, #12]
10005078:	0007      	movs	r7, r0
1000507a:	2b00      	cmp	r3, #0
1000507c:	d114      	bne.n	100050a8 <__wrap_vprintf+0x7c>
1000507e:	4b1f      	ldr	r3, [pc, #124]	; (100050fc <__wrap_vprintf+0xd0>)
10005080:	681c      	ldr	r4, [r3, #0]
10005082:	2c00      	cmp	r4, #0
10005084:	d006      	beq.n	10005094 <__wrap_vprintf+0x68>
10005086:	6863      	ldr	r3, [r4, #4]
10005088:	2b00      	cmp	r3, #0
1000508a:	d00b      	beq.n	100050a4 <__wrap_vprintf+0x78>
1000508c:	4798      	blx	r3
1000508e:	68e4      	ldr	r4, [r4, #12]
10005090:	2c00      	cmp	r4, #0
10005092:	d1f8      	bne.n	10005086 <__wrap_vprintf+0x5a>
10005094:	2e00      	cmp	r6, #0
10005096:	d127      	bne.n	100050e8 <__wrap_vprintf+0xbc>
10005098:	0038      	movs	r0, r7
1000509a:	b025      	add	sp, #148	; 0x94
1000509c:	bcc0      	pop	{r6, r7}
1000509e:	46b9      	mov	r9, r7
100050a0:	46b0      	mov	r8, r6
100050a2:	bdf0      	pop	{r4, r5, r6, r7, pc}
100050a4:	68e4      	ldr	r4, [r4, #12]
100050a6:	e7ec      	b.n	10005082 <__wrap_vprintf+0x56>
100050a8:	4b14      	ldr	r3, [pc, #80]	; (100050fc <__wrap_vprintf+0xd0>)
100050aa:	681d      	ldr	r5, [r3, #0]
100050ac:	4699      	mov	r9, r3
100050ae:	2d00      	cmp	r5, #0
100050b0:	d01e      	beq.n	100050f0 <__wrap_vprintf+0xc4>
100050b2:	4c13      	ldr	r4, [pc, #76]	; (10005100 <__wrap_vprintf+0xd4>)
100050b4:	e002      	b.n	100050bc <__wrap_vprintf+0x90>
100050b6:	68ed      	ldr	r5, [r5, #12]
100050b8:	2d00      	cmp	r5, #0
100050ba:	d011      	beq.n	100050e0 <__wrap_vprintf+0xb4>
100050bc:	682b      	ldr	r3, [r5, #0]
100050be:	2b00      	cmp	r3, #0
100050c0:	d0f9      	beq.n	100050b6 <__wrap_vprintf+0x8a>
100050c2:	6823      	ldr	r3, [r4, #0]
100050c4:	2b00      	cmp	r3, #0
100050c6:	d001      	beq.n	100050cc <__wrap_vprintf+0xa0>
100050c8:	42ab      	cmp	r3, r5
100050ca:	d1f4      	bne.n	100050b6 <__wrap_vprintf+0x8a>
100050cc:	9b03      	ldr	r3, [sp, #12]
100050ce:	0028      	movs	r0, r5
100050d0:	001a      	movs	r2, r3
100050d2:	a904      	add	r1, sp, #16
100050d4:	9301      	str	r3, [sp, #4]
100050d6:	f7ff fe19 	bl	10004d0c <stdio_out_chars_crlf>
100050da:	68ed      	ldr	r5, [r5, #12]
100050dc:	2d00      	cmp	r5, #0
100050de:	d1ed      	bne.n	100050bc <__wrap_vprintf+0x90>
100050e0:	464b      	mov	r3, r9
100050e2:	9503      	str	r5, [sp, #12]
100050e4:	681c      	ldr	r4, [r3, #0]
100050e6:	e7cc      	b.n	10005082 <__wrap_vprintf+0x56>
100050e8:	4640      	mov	r0, r8
100050ea:	f006 f9d5 	bl	1000b498 <__mutex_exit_veneer>
100050ee:	e7d3      	b.n	10005098 <__wrap_vprintf+0x6c>
100050f0:	9503      	str	r5, [sp, #12]
100050f2:	e7cf      	b.n	10005094 <__wrap_vprintf+0x68>
100050f4:	20000cb0 	.word	0x20000cb0
100050f8:	10004dc1 	.word	0x10004dc1
100050fc:	200017d8 	.word	0x200017d8
10005100:	200017dc 	.word	0x200017dc

10005104 <__wrap_printf>:
10005104:	b40f      	push	{r0, r1, r2, r3}
10005106:	b500      	push	{lr}
10005108:	b083      	sub	sp, #12
1000510a:	a904      	add	r1, sp, #16
1000510c:	c901      	ldmia	r1!, {r0}
1000510e:	9101      	str	r1, [sp, #4]
10005110:	f7ff ff8c 	bl	1000502c <__wrap_vprintf>
10005114:	b003      	add	sp, #12
10005116:	bc08      	pop	{r3}
10005118:	b004      	add	sp, #16
1000511a:	4718      	bx	r3

1000511c <stdio_init_all>:
1000511c:	b510      	push	{r4, lr}
1000511e:	f000 f93d 	bl	1000539c <stdio_usb_init>
10005122:	bd10      	pop	{r4, pc}

10005124 <resetd_init>:
10005124:	4770      	bx	lr
10005126:	46c0      	nop			; (mov r8, r8)

10005128 <resetd_reset>:
10005128:	2200      	movs	r2, #0
1000512a:	4b01      	ldr	r3, [pc, #4]	; (10005130 <resetd_reset+0x8>)
1000512c:	701a      	strb	r2, [r3, #0]
1000512e:	4770      	bx	lr
10005130:	20001c60 	.word	0x20001c60

10005134 <resetd_open>:
10005134:	794b      	ldrb	r3, [r1, #5]
10005136:	2000      	movs	r0, #0
10005138:	2bff      	cmp	r3, #255	; 0xff
1000513a:	d10b      	bne.n	10005154 <resetd_open+0x20>
1000513c:	798b      	ldrb	r3, [r1, #6]
1000513e:	2b00      	cmp	r3, #0
10005140:	d108      	bne.n	10005154 <resetd_open+0x20>
10005142:	79cb      	ldrb	r3, [r1, #7]
10005144:	2b01      	cmp	r3, #1
10005146:	d105      	bne.n	10005154 <resetd_open+0x20>
10005148:	2a08      	cmp	r2, #8
1000514a:	d903      	bls.n	10005154 <resetd_open+0x20>
1000514c:	788a      	ldrb	r2, [r1, #2]
1000514e:	4b02      	ldr	r3, [pc, #8]	; (10005158 <resetd_open+0x24>)
10005150:	3009      	adds	r0, #9
10005152:	701a      	strb	r2, [r3, #0]
10005154:	4770      	bx	lr
10005156:	46c0      	nop			; (mov r8, r8)
10005158:	20001c60 	.word	0x20001c60

1000515c <resetd_xfer_cb>:
1000515c:	2001      	movs	r0, #1
1000515e:	4770      	bx	lr

10005160 <resetd_control_xfer_cb>:
10005160:	b570      	push	{r4, r5, r6, lr}
10005162:	2900      	cmp	r1, #0
10005164:	d115      	bne.n	10005192 <resetd_control_xfer_cb+0x32>
10005166:	4915      	ldr	r1, [pc, #84]	; (100051bc <resetd_control_xfer_cb+0x5c>)
10005168:	7953      	ldrb	r3, [r2, #5]
1000516a:	7910      	ldrb	r0, [r2, #4]
1000516c:	7809      	ldrb	r1, [r1, #0]
1000516e:	021b      	lsls	r3, r3, #8
10005170:	4303      	orrs	r3, r0
10005172:	2000      	movs	r0, #0
10005174:	4299      	cmp	r1, r3
10005176:	d000      	beq.n	1000517a <resetd_control_xfer_cb+0x1a>
10005178:	bd70      	pop	{r4, r5, r6, pc}
1000517a:	7853      	ldrb	r3, [r2, #1]
1000517c:	2b01      	cmp	r3, #1
1000517e:	d00a      	beq.n	10005196 <resetd_control_xfer_cb+0x36>
10005180:	2b02      	cmp	r3, #2
10005182:	d1f9      	bne.n	10005178 <resetd_control_xfer_cb+0x18>
10005184:	2000      	movs	r0, #0
10005186:	2264      	movs	r2, #100	; 0x64
10005188:	2100      	movs	r1, #0
1000518a:	f7fd fa75 	bl	10002678 <watchdog_reboot>
1000518e:	2001      	movs	r0, #1
10005190:	e7f2      	b.n	10005178 <resetd_control_xfer_cb+0x18>
10005192:	2001      	movs	r0, #1
10005194:	e7f0      	b.n	10005178 <resetd_control_xfer_cb+0x18>
10005196:	7894      	ldrb	r4, [r2, #2]
10005198:	78d2      	ldrb	r2, [r2, #3]
1000519a:	0005      	movs	r5, r0
1000519c:	0212      	lsls	r2, r2, #8
1000519e:	4314      	orrs	r4, r2
100051a0:	05d2      	lsls	r2, r2, #23
100051a2:	d502      	bpl.n	100051aa <resetd_control_xfer_cb+0x4a>
100051a4:	0a62      	lsrs	r2, r4, #9
100051a6:	4093      	lsls	r3, r2
100051a8:	001d      	movs	r5, r3
100051aa:	4805      	ldr	r0, [pc, #20]	; (100051c0 <resetd_control_xfer_cb+0x60>)
100051ac:	f7fe fdae 	bl	10003d0c <rom_func_lookup>
100051b0:	217f      	movs	r1, #127	; 0x7f
100051b2:	0003      	movs	r3, r0
100051b4:	4021      	ands	r1, r4
100051b6:	0028      	movs	r0, r5
100051b8:	4798      	blx	r3
100051ba:	46c0      	nop			; (mov r8, r8)
100051bc:	20001c60 	.word	0x20001c60
100051c0:	00004255 	.word	0x00004255

100051c4 <usbd_app_driver_get_cb>:
100051c4:	2301      	movs	r3, #1
100051c6:	7003      	strb	r3, [r0, #0]
100051c8:	4800      	ldr	r0, [pc, #0]	; (100051cc <usbd_app_driver_get_cb+0x8>)
100051ca:	4770      	bx	lr
100051cc:	1000b938 	.word	0x1000b938

100051d0 <tud_cdc_line_coding_cb>:
100051d0:	7848      	ldrb	r0, [r1, #1]
100051d2:	780b      	ldrb	r3, [r1, #0]
100051d4:	788a      	ldrb	r2, [r1, #2]
100051d6:	0200      	lsls	r0, r0, #8
100051d8:	4318      	orrs	r0, r3
100051da:	0412      	lsls	r2, r2, #16
100051dc:	4310      	orrs	r0, r2
100051de:	2296      	movs	r2, #150	; 0x96
100051e0:	78cb      	ldrb	r3, [r1, #3]
100051e2:	b510      	push	{r4, lr}
100051e4:	061b      	lsls	r3, r3, #24
100051e6:	4303      	orrs	r3, r0
100051e8:	00d2      	lsls	r2, r2, #3
100051ea:	4293      	cmp	r3, r2
100051ec:	d000      	beq.n	100051f0 <tud_cdc_line_coding_cb+0x20>
100051ee:	bd10      	pop	{r4, pc}
100051f0:	4803      	ldr	r0, [pc, #12]	; (10005200 <tud_cdc_line_coding_cb+0x30>)
100051f2:	f7fe fd8b 	bl	10003d0c <rom_func_lookup>
100051f6:	2100      	movs	r1, #0
100051f8:	0003      	movs	r3, r0
100051fa:	0008      	movs	r0, r1
100051fc:	4798      	blx	r3
100051fe:	46c0      	nop			; (mov r8, r8)
10005200:	00004255 	.word	0x00004255

10005204 <stdio_usb_in_chars>:
10005204:	b570      	push	{r4, r5, r6, lr}
10005206:	4c18      	ldr	r4, [pc, #96]	; (10005268 <stdio_usb_in_chars+0x64>)
10005208:	b082      	sub	sp, #8
1000520a:	0006      	movs	r6, r0
1000520c:	000d      	movs	r5, r1
1000520e:	0020      	movs	r0, r4
10005210:	a901      	add	r1, sp, #4
10005212:	f006 f959 	bl	1000b4c8 <__mutex_try_enter_veneer>
10005216:	2800      	cmp	r0, #0
10005218:	d108      	bne.n	1000522c <stdio_usb_in_chars+0x28>
1000521a:	23d0      	movs	r3, #208	; 0xd0
1000521c:	061b      	lsls	r3, r3, #24
1000521e:	681b      	ldr	r3, [r3, #0]
10005220:	9a01      	ldr	r2, [sp, #4]
10005222:	429a      	cmp	r2, r3
10005224:	d01c      	beq.n	10005260 <stdio_usb_in_chars+0x5c>
10005226:	0020      	movs	r0, r4
10005228:	f006 f95e 	bl	1000b4e8 <__mutex_enter_blocking_veneer>
1000522c:	2000      	movs	r0, #0
1000522e:	f001 fe1f 	bl	10006e70 <tud_cdc_n_connected>
10005232:	2800      	cmp	r0, #0
10005234:	d107      	bne.n	10005246 <stdio_usb_in_chars+0x42>
10005236:	2503      	movs	r5, #3
10005238:	426d      	negs	r5, r5
1000523a:	0020      	movs	r0, r4
1000523c:	f006 f92c 	bl	1000b498 <__mutex_exit_veneer>
10005240:	0028      	movs	r0, r5
10005242:	b002      	add	sp, #8
10005244:	bd70      	pop	{r4, r5, r6, pc}
10005246:	2000      	movs	r0, #0
10005248:	f001 fe2a 	bl	10006ea0 <tud_cdc_n_available>
1000524c:	2800      	cmp	r0, #0
1000524e:	d0f2      	beq.n	10005236 <stdio_usb_in_chars+0x32>
10005250:	002a      	movs	r2, r5
10005252:	0031      	movs	r1, r6
10005254:	2000      	movs	r0, #0
10005256:	f001 fe2f 	bl	10006eb8 <tud_cdc_n_read>
1000525a:	1e05      	subs	r5, r0, #0
1000525c:	d0eb      	beq.n	10005236 <stdio_usb_in_chars+0x32>
1000525e:	e7ec      	b.n	1000523a <stdio_usb_in_chars+0x36>
10005260:	2503      	movs	r5, #3
10005262:	426d      	negs	r5, r5
10005264:	e7ec      	b.n	10005240 <stdio_usb_in_chars+0x3c>
10005266:	46c0      	nop			; (mov r8, r8)
10005268:	20001c1c 	.word	0x20001c1c

1000526c <stdio_usb_out_chars>:
1000526c:	b5f0      	push	{r4, r5, r6, r7, lr}
1000526e:	46de      	mov	lr, fp
10005270:	464f      	mov	r7, r9
10005272:	4646      	mov	r6, r8
10005274:	b5c0      	push	{r6, r7, lr}
10005276:	4b33      	ldr	r3, [pc, #204]	; (10005344 <stdio_usb_out_chars+0xd8>)
10005278:	b082      	sub	sp, #8
1000527a:	4681      	mov	r9, r0
1000527c:	000d      	movs	r5, r1
1000527e:	0018      	movs	r0, r3
10005280:	a901      	add	r1, sp, #4
10005282:	469b      	mov	fp, r3
10005284:	f006 f920 	bl	1000b4c8 <__mutex_try_enter_veneer>
10005288:	2800      	cmp	r0, #0
1000528a:	d108      	bne.n	1000529e <stdio_usb_out_chars+0x32>
1000528c:	23d0      	movs	r3, #208	; 0xd0
1000528e:	061b      	lsls	r3, r3, #24
10005290:	681b      	ldr	r3, [r3, #0]
10005292:	9a01      	ldr	r2, [sp, #4]
10005294:	429a      	cmp	r2, r3
10005296:	d04f      	beq.n	10005338 <stdio_usb_out_chars+0xcc>
10005298:	4658      	mov	r0, fp
1000529a:	f006 f925 	bl	1000b4e8 <__mutex_enter_blocking_veneer>
1000529e:	2000      	movs	r0, #0
100052a0:	f001 fde6 	bl	10006e70 <tud_cdc_n_connected>
100052a4:	2800      	cmp	r0, #0
100052a6:	d03f      	beq.n	10005328 <stdio_usb_out_chars+0xbc>
100052a8:	2400      	movs	r4, #0
100052aa:	2d00      	cmp	r5, #0
100052ac:	dd41      	ble.n	10005332 <stdio_usb_out_chars+0xc6>
100052ae:	4e26      	ldr	r6, [pc, #152]	; (10005348 <stdio_usb_out_chars+0xdc>)
100052b0:	e011      	b.n	100052d6 <stdio_usb_out_chars+0x6a>
100052b2:	464b      	mov	r3, r9
100052b4:	2000      	movs	r0, #0
100052b6:	1919      	adds	r1, r3, r4
100052b8:	f001 fe72 	bl	10006fa0 <tud_cdc_n_write>
100052bc:	4680      	mov	r8, r0
100052be:	f000 fe65 	bl	10005f8c <tud_task>
100052c2:	2000      	movs	r0, #0
100052c4:	f001 fe30 	bl	10006f28 <tud_cdc_n_write_flush>
100052c8:	f7fc fc84 	bl	10001bd4 <time_us_64>
100052cc:	6030      	str	r0, [r6, #0]
100052ce:	6071      	str	r1, [r6, #4]
100052d0:	4444      	add	r4, r8
100052d2:	42ac      	cmp	r4, r5
100052d4:	da2d      	bge.n	10005332 <stdio_usb_out_chars+0xc6>
100052d6:	2000      	movs	r0, #0
100052d8:	f001 fe7c 	bl	10006fd4 <tud_cdc_n_write_available>
100052dc:	1b2f      	subs	r7, r5, r4
100052de:	0002      	movs	r2, r0
100052e0:	42b8      	cmp	r0, r7
100052e2:	dd00      	ble.n	100052e6 <stdio_usb_out_chars+0x7a>
100052e4:	003a      	movs	r2, r7
100052e6:	2a00      	cmp	r2, #0
100052e8:	d1e3      	bne.n	100052b2 <stdio_usb_out_chars+0x46>
100052ea:	f000 fe4f 	bl	10005f8c <tud_task>
100052ee:	2000      	movs	r0, #0
100052f0:	f001 fe1a 	bl	10006f28 <tud_cdc_n_write_flush>
100052f4:	2000      	movs	r0, #0
100052f6:	f001 fdbb 	bl	10006e70 <tud_cdc_n_connected>
100052fa:	2800      	cmp	r0, #0
100052fc:	d019      	beq.n	10005332 <stdio_usb_out_chars+0xc6>
100052fe:	2000      	movs	r0, #0
10005300:	f001 fe68 	bl	10006fd4 <tud_cdc_n_write_available>
10005304:	2800      	cmp	r0, #0
10005306:	d1e4      	bne.n	100052d2 <stdio_usb_out_chars+0x66>
10005308:	f7fc fc64 	bl	10001bd4 <time_us_64>
1000530c:	6832      	ldr	r2, [r6, #0]
1000530e:	6873      	ldr	r3, [r6, #4]
10005310:	000f      	movs	r7, r1
10005312:	2100      	movs	r1, #0
10005314:	4684      	mov	ip, r0
10005316:	480d      	ldr	r0, [pc, #52]	; (1000534c <stdio_usb_out_chars+0xe0>)
10005318:	1812      	adds	r2, r2, r0
1000531a:	414b      	adcs	r3, r1
1000531c:	429f      	cmp	r7, r3
1000531e:	d808      	bhi.n	10005332 <stdio_usb_out_chars+0xc6>
10005320:	d1d7      	bne.n	100052d2 <stdio_usb_out_chars+0x66>
10005322:	4594      	cmp	ip, r2
10005324:	d9d5      	bls.n	100052d2 <stdio_usb_out_chars+0x66>
10005326:	e004      	b.n	10005332 <stdio_usb_out_chars+0xc6>
10005328:	2000      	movs	r0, #0
1000532a:	2100      	movs	r1, #0
1000532c:	4b06      	ldr	r3, [pc, #24]	; (10005348 <stdio_usb_out_chars+0xdc>)
1000532e:	6018      	str	r0, [r3, #0]
10005330:	6059      	str	r1, [r3, #4]
10005332:	4658      	mov	r0, fp
10005334:	f006 f8b0 	bl	1000b498 <__mutex_exit_veneer>
10005338:	b002      	add	sp, #8
1000533a:	bce0      	pop	{r5, r6, r7}
1000533c:	46bb      	mov	fp, r7
1000533e:	46b1      	mov	r9, r6
10005340:	46a8      	mov	r8, r5
10005342:	bdf0      	pop	{r4, r5, r6, r7, pc}
10005344:	20001c1c 	.word	0x20001c1c
10005348:	20000e30 	.word	0x20000e30
1000534c:	0007a120 	.word	0x0007a120

10005350 <timer_task>:
10005350:	b510      	push	{r4, lr}
10005352:	4b04      	ldr	r3, [pc, #16]	; (10005364 <timer_task+0x14>)
10005354:	7818      	ldrb	r0, [r3, #0]
10005356:	f7fb fd9f 	bl	10000e98 <irq_set_pending>
1000535a:	20fa      	movs	r0, #250	; 0xfa
1000535c:	2100      	movs	r1, #0
1000535e:	0080      	lsls	r0, r0, #2
10005360:	bd10      	pop	{r4, pc}
10005362:	46c0      	nop			; (mov r8, r8)
10005364:	20001c61 	.word	0x20001c61

10005368 <usb_irq>:
10005368:	b510      	push	{r4, lr}
1000536a:	4b02      	ldr	r3, [pc, #8]	; (10005374 <usb_irq+0xc>)
1000536c:	7818      	ldrb	r0, [r3, #0]
1000536e:	f7fb fd93 	bl	10000e98 <irq_set_pending>
10005372:	bd10      	pop	{r4, pc}
10005374:	20001c61 	.word	0x20001c61

10005378 <low_priority_worker_irq>:
10005378:	b510      	push	{r4, lr}
1000537a:	4c07      	ldr	r4, [pc, #28]	; (10005398 <low_priority_worker_irq+0x20>)
1000537c:	2100      	movs	r1, #0
1000537e:	0020      	movs	r0, r4
10005380:	f006 f8a2 	bl	1000b4c8 <__mutex_try_enter_veneer>
10005384:	2800      	cmp	r0, #0
10005386:	d100      	bne.n	1000538a <low_priority_worker_irq+0x12>
10005388:	bd10      	pop	{r4, pc}
1000538a:	f000 fdff 	bl	10005f8c <tud_task>
1000538e:	0020      	movs	r0, r4
10005390:	f006 f882 	bl	1000b498 <__mutex_exit_veneer>
10005394:	e7f8      	b.n	10005388 <low_priority_worker_irq+0x10>
10005396:	46c0      	nop			; (mov r8, r8)
10005398:	20001c1c 	.word	0x20001c1c

1000539c <stdio_usb_init>:
1000539c:	b5f0      	push	{r4, r5, r6, r7, lr}
1000539e:	4b24      	ldr	r3, [pc, #144]	; (10005430 <stdio_usb_init+0x94>)
100053a0:	b085      	sub	sp, #20
100053a2:	781b      	ldrb	r3, [r3, #0]
100053a4:	f001 fffe 	bl	100073a4 <tusb_init>
100053a8:	4822      	ldr	r0, [pc, #136]	; (10005434 <stdio_usb_init+0x98>)
100053aa:	f7fc fec3 	bl	10002134 <mutex_init>
100053ae:	2001      	movs	r0, #1
100053b0:	f7fb fffa 	bl	100013a8 <user_irq_claim_unused>
100053b4:	23ff      	movs	r3, #255	; 0xff
100053b6:	4c20      	ldr	r4, [pc, #128]	; (10005438 <stdio_usb_init+0x9c>)
100053b8:	4920      	ldr	r1, [pc, #128]	; (1000543c <stdio_usb_init+0xa0>)
100053ba:	7020      	strb	r0, [r4, #0]
100053bc:	4018      	ands	r0, r3
100053be:	f7fb fd91 	bl	10000ee4 <irq_set_exclusive_handler>
100053c2:	7820      	ldrb	r0, [r4, #0]
100053c4:	2101      	movs	r1, #1
100053c6:	f7fb fd55 	bl	10000e74 <irq_set_enabled>
100053ca:	2005      	movs	r0, #5
100053cc:	f7fb fd6c 	bl	10000ea8 <irq_has_shared_handler>
100053d0:	1e04      	subs	r4, r0, #0
100053d2:	d00c      	beq.n	100053ee <stdio_usb_init+0x52>
100053d4:	2200      	movs	r2, #0
100053d6:	2005      	movs	r0, #5
100053d8:	4919      	ldr	r1, [pc, #100]	; (10005440 <stdio_usb_init+0xa4>)
100053da:	f7fb fdad 	bl	10000f38 <irq_add_shared_handler>
100053de:	2101      	movs	r1, #1
100053e0:	4818      	ldr	r0, [pc, #96]	; (10005444 <stdio_usb_init+0xa8>)
100053e2:	f7ff fe0b 	bl	10004ffc <stdio_set_driver_enabled>
100053e6:	2401      	movs	r4, #1
100053e8:	0020      	movs	r0, r4
100053ea:	b005      	add	sp, #20
100053ec:	bdf0      	pop	{r4, r5, r6, r7, pc}
100053ee:	f7fc fa51 	bl	10001894 <alarm_pool_get_default>
100053f2:	0005      	movs	r5, r0
100053f4:	f7fc fbee 	bl	10001bd4 <time_us_64>
100053f8:	22fa      	movs	r2, #250	; 0xfa
100053fa:	0006      	movs	r6, r0
100053fc:	000f      	movs	r7, r1
100053fe:	2300      	movs	r3, #0
10005400:	0092      	lsls	r2, r2, #2
10005402:	1992      	adds	r2, r2, r6
10005404:	417b      	adcs	r3, r7
10005406:	4299      	cmp	r1, r3
10005408:	d80e      	bhi.n	10005428 <stdio_usb_init+0x8c>
1000540a:	d00b      	beq.n	10005424 <stdio_usb_init+0x88>
1000540c:	2101      	movs	r1, #1
1000540e:	9102      	str	r1, [sp, #8]
10005410:	2100      	movs	r1, #0
10005412:	9101      	str	r1, [sp, #4]
10005414:	490c      	ldr	r1, [pc, #48]	; (10005448 <stdio_usb_init+0xac>)
10005416:	0028      	movs	r0, r5
10005418:	9100      	str	r1, [sp, #0]
1000541a:	f7fc fa3f 	bl	1000189c <alarm_pool_add_alarm_at>
1000541e:	2800      	cmp	r0, #0
10005420:	d0e2      	beq.n	100053e8 <stdio_usb_init+0x4c>
10005422:	e7dc      	b.n	100053de <stdio_usb_init+0x42>
10005424:	4290      	cmp	r0, r2
10005426:	d9f1      	bls.n	1000540c <stdio_usb_init+0x70>
10005428:	2201      	movs	r2, #1
1000542a:	4252      	negs	r2, r2
1000542c:	17d3      	asrs	r3, r2, #31
1000542e:	e7ed      	b.n	1000540c <stdio_usb_init+0x70>
10005430:	1000bb80 	.word	0x1000bb80
10005434:	20001c1c 	.word	0x20001c1c
10005438:	20001c61 	.word	0x20001c61
1000543c:	10005379 	.word	0x10005379
10005440:	10005369 	.word	0x10005369
10005444:	20000420 	.word	0x20000420
10005448:	10005351 	.word	0x10005351

1000544c <tud_descriptor_device_cb>:
1000544c:	4800      	ldr	r0, [pc, #0]	; (10005450 <tud_descriptor_device_cb+0x4>)
1000544e:	4770      	bx	lr
10005450:	1000b9f0 	.word	0x1000b9f0

10005454 <tud_descriptor_configuration_cb>:
10005454:	4800      	ldr	r0, [pc, #0]	; (10005458 <tud_descriptor_configuration_cb+0x4>)
10005456:	4770      	bx	lr
10005458:	1000b99c 	.word	0x1000b99c

1000545c <tud_descriptor_string_cb>:
1000545c:	b570      	push	{r4, r5, r6, lr}
1000545e:	0004      	movs	r4, r0
10005460:	4817      	ldr	r0, [pc, #92]	; (100054c0 <tud_descriptor_string_cb+0x64>)
10005462:	7803      	ldrb	r3, [r0, #0]
10005464:	2b00      	cmp	r3, #0
10005466:	d021      	beq.n	100054ac <tud_descriptor_string_cb+0x50>
10005468:	2c00      	cmp	r4, #0
1000546a:	d106      	bne.n	1000547a <tud_descriptor_string_cb+0x1e>
1000546c:	24c1      	movs	r4, #193	; 0xc1
1000546e:	4815      	ldr	r0, [pc, #84]	; (100054c4 <tud_descriptor_string_cb+0x68>)
10005470:	4b15      	ldr	r3, [pc, #84]	; (100054c8 <tud_descriptor_string_cb+0x6c>)
10005472:	00a4      	lsls	r4, r4, #2
10005474:	8043      	strh	r3, [r0, #2]
10005476:	8004      	strh	r4, [r0, #0]
10005478:	bd70      	pop	{r4, r5, r6, pc}
1000547a:	2c05      	cmp	r4, #5
1000547c:	d81d      	bhi.n	100054ba <tud_descriptor_string_cb+0x5e>
1000547e:	4b13      	ldr	r3, [pc, #76]	; (100054cc <tud_descriptor_string_cb+0x70>)
10005480:	4810      	ldr	r0, [pc, #64]	; (100054c4 <tud_descriptor_string_cb+0x68>)
10005482:	00a4      	lsls	r4, r4, #2
10005484:	58e5      	ldr	r5, [r4, r3]
10005486:	1c81      	adds	r1, r0, #2
10005488:	2300      	movs	r3, #0
1000548a:	e004      	b.n	10005496 <tud_descriptor_string_cb+0x3a>
1000548c:	3301      	adds	r3, #1
1000548e:	800a      	strh	r2, [r1, #0]
10005490:	3102      	adds	r1, #2
10005492:	2b13      	cmp	r3, #19
10005494:	d00e      	beq.n	100054b4 <tud_descriptor_string_cb+0x58>
10005496:	5cea      	ldrb	r2, [r5, r3]
10005498:	b2dc      	uxtb	r4, r3
1000549a:	2a00      	cmp	r2, #0
1000549c:	d1f6      	bne.n	1000548c <tud_descriptor_string_cb+0x30>
1000549e:	23c0      	movs	r3, #192	; 0xc0
100054a0:	3401      	adds	r4, #1
100054a2:	b2e4      	uxtb	r4, r4
100054a4:	0064      	lsls	r4, r4, #1
100054a6:	009b      	lsls	r3, r3, #2
100054a8:	431c      	orrs	r4, r3
100054aa:	e7e4      	b.n	10005476 <tud_descriptor_string_cb+0x1a>
100054ac:	2111      	movs	r1, #17
100054ae:	f002 fa0f 	bl	100078d0 <pico_get_unique_board_id_string>
100054b2:	e7d9      	b.n	10005468 <tud_descriptor_string_cb+0xc>
100054b4:	24ca      	movs	r4, #202	; 0xca
100054b6:	00a4      	lsls	r4, r4, #2
100054b8:	e7dd      	b.n	10005476 <tud_descriptor_string_cb+0x1a>
100054ba:	2000      	movs	r0, #0
100054bc:	e7dc      	b.n	10005478 <tud_descriptor_string_cb+0x1c>
100054be:	46c0      	nop			; (mov r8, r8)
100054c0:	20001c3c 	.word	0x20001c3c
100054c4:	200017a8 	.word	0x200017a8
100054c8:	00000409 	.word	0x00000409
100054cc:	1000ba04 	.word	0x1000ba04

100054d0 <dcd_rp2040_irq>:
100054d0:	b5f0      	push	{r4, r5, r6, r7, lr}
100054d2:	2398      	movs	r3, #152	; 0x98
100054d4:	4657      	mov	r7, sl
100054d6:	4645      	mov	r5, r8
100054d8:	46de      	mov	lr, fp
100054da:	464e      	mov	r6, r9
100054dc:	4a6c      	ldr	r2, [pc, #432]	; (10005690 <dcd_rp2040_irq+0x1c0>)
100054de:	b5e0      	push	{r5, r6, r7, lr}
100054e0:	58d7      	ldr	r7, [r2, r3]
100054e2:	2580      	movs	r5, #128	; 0x80
100054e4:	003c      	movs	r4, r7
100054e6:	026d      	lsls	r5, r5, #9
100054e8:	3b88      	subs	r3, #136	; 0x88
100054ea:	469a      	mov	sl, r3
100054ec:	b083      	sub	sp, #12
100054ee:	402c      	ands	r4, r5
100054f0:	422f      	tst	r7, r5
100054f2:	d00f      	beq.n	10005514 <dcd_rp2040_irq+0x44>
100054f4:	2201      	movs	r2, #1
100054f6:	2123      	movs	r1, #35	; 0x23
100054f8:	4b66      	ldr	r3, [pc, #408]	; (10005694 <dcd_rp2040_irq+0x1c4>)
100054fa:	2000      	movs	r0, #0
100054fc:	545a      	strb	r2, [r3, r1]
100054fe:	70da      	strb	r2, [r3, #3]
10005500:	4965      	ldr	r1, [pc, #404]	; (10005698 <dcd_rp2040_irq+0x1c8>)
10005502:	f001 fa73 	bl	100069ec <dcd_event_setup_received>
10005506:	2280      	movs	r2, #128	; 0x80
10005508:	4b64      	ldr	r3, [pc, #400]	; (1000569c <dcd_rp2040_irq+0x1cc>)
1000550a:	0292      	lsls	r2, r2, #10
1000550c:	651a      	str	r2, [r3, #80]	; 0x50
1000550e:	4b64      	ldr	r3, [pc, #400]	; (100056a0 <dcd_rp2040_irq+0x1d0>)
10005510:	002c      	movs	r4, r5
10005512:	469a      	mov	sl, r3
10005514:	06fb      	lsls	r3, r7, #27
10005516:	d417      	bmi.n	10005548 <dcd_rp2040_irq+0x78>
10005518:	2380      	movs	r3, #128	; 0x80
1000551a:	015b      	lsls	r3, r3, #5
1000551c:	421f      	tst	r7, r3
1000551e:	d145      	bne.n	100055ac <dcd_rp2040_irq+0xdc>
10005520:	2380      	movs	r3, #128	; 0x80
10005522:	01db      	lsls	r3, r3, #7
10005524:	421f      	tst	r7, r3
10005526:	d000      	beq.n	1000552a <dcd_rp2040_irq+0x5a>
10005528:	e088      	b.n	1000563c <dcd_rp2040_irq+0x16c>
1000552a:	2380      	movs	r3, #128	; 0x80
1000552c:	021b      	lsls	r3, r3, #8
1000552e:	421f      	tst	r7, r3
10005530:	d000      	beq.n	10005534 <dcd_rp2040_irq+0x64>
10005532:	e091      	b.n	10005658 <dcd_rp2040_irq+0x188>
10005534:	42bc      	cmp	r4, r7
10005536:	d000      	beq.n	1000553a <dcd_rp2040_irq+0x6a>
10005538:	e0a5      	b.n	10005686 <dcd_rp2040_irq+0x1b6>
1000553a:	b003      	add	sp, #12
1000553c:	bcf0      	pop	{r4, r5, r6, r7}
1000553e:	46bb      	mov	fp, r7
10005540:	46b2      	mov	sl, r6
10005542:	46a9      	mov	r9, r5
10005544:	46a0      	mov	r8, r4
10005546:	bdf0      	pop	{r4, r5, r6, r7, pc}
10005548:	4b51      	ldr	r3, [pc, #324]	; (10005690 <dcd_rp2040_irq+0x1c0>)
1000554a:	6d9b      	ldr	r3, [r3, #88]	; 0x58
1000554c:	4698      	mov	r8, r3
1000554e:	2b00      	cmp	r3, #0
10005550:	d027      	beq.n	100055a2 <dcd_rp2040_irq+0xd2>
10005552:	4b52      	ldr	r3, [pc, #328]	; (1000569c <dcd_rp2040_irq+0x1cc>)
10005554:	2400      	movs	r4, #0
10005556:	469b      	mov	fp, r3
10005558:	2301      	movs	r3, #1
1000555a:	4699      	mov	r9, r3
1000555c:	4643      	mov	r3, r8
1000555e:	2601      	movs	r6, #1
10005560:	46b8      	mov	r8, r7
10005562:	001f      	movs	r7, r3
10005564:	e004      	b.n	10005570 <dcd_rp2040_irq+0xa0>
10005566:	3401      	adds	r4, #1
10005568:	0076      	lsls	r6, r6, #1
1000556a:	b2e4      	uxtb	r4, r4
1000556c:	2c20      	cmp	r4, #32
1000556e:	d017      	beq.n	100055a0 <dcd_rp2040_irq+0xd0>
10005570:	4237      	tst	r7, r6
10005572:	d0f8      	beq.n	10005566 <dcd_rp2040_irq+0x96>
10005574:	465b      	mov	r3, fp
10005576:	659e      	str	r6, [r3, #88]	; 0x58
10005578:	464b      	mov	r3, r9
1000557a:	0865      	lsrs	r5, r4, #1
1000557c:	43a3      	bics	r3, r4
1000557e:	006d      	lsls	r5, r5, #1
10005580:	18ed      	adds	r5, r5, r3
10005582:	4b44      	ldr	r3, [pc, #272]	; (10005694 <dcd_rp2040_irq+0x1c4>)
10005584:	016d      	lsls	r5, r5, #5
10005586:	469c      	mov	ip, r3
10005588:	4465      	add	r5, ip
1000558a:	0028      	movs	r0, r5
1000558c:	f000 fb8a 	bl	10005ca4 <hw_endpoint_xfer_continue>
10005590:	2800      	cmp	r0, #0
10005592:	d16c      	bne.n	1000566e <dcd_rp2040_irq+0x19e>
10005594:	3401      	adds	r4, #1
10005596:	43b7      	bics	r7, r6
10005598:	b2e4      	uxtb	r4, r4
1000559a:	0076      	lsls	r6, r6, #1
1000559c:	2f00      	cmp	r7, #0
1000559e:	d1e5      	bne.n	1000556c <dcd_rp2040_irq+0x9c>
100055a0:	4647      	mov	r7, r8
100055a2:	2380      	movs	r3, #128	; 0x80
100055a4:	015b      	lsls	r3, r3, #5
100055a6:	4654      	mov	r4, sl
100055a8:	421f      	tst	r7, r3
100055aa:	d0b9      	beq.n	10005520 <dcd_rp2040_irq+0x50>
100055ac:	431c      	orrs	r4, r3
100055ae:	2300      	movs	r3, #0
100055b0:	4a37      	ldr	r2, [pc, #220]	; (10005690 <dcd_rp2040_irq+0x1c0>)
100055b2:	2100      	movs	r1, #0
100055b4:	6013      	str	r3, [r2, #0]
100055b6:	4a38      	ldr	r2, [pc, #224]	; (10005698 <dcd_rp2040_irq+0x1c8>)
100055b8:	483a      	ldr	r0, [pc, #232]	; (100056a4 <dcd_rp2040_irq+0x1d4>)
100055ba:	6093      	str	r3, [r2, #8]
100055bc:	60d3      	str	r3, [r2, #12]
100055be:	4a3a      	ldr	r2, [pc, #232]	; (100056a8 <dcd_rp2040_irq+0x1d8>)
100055c0:	6093      	str	r3, [r2, #8]
100055c2:	60d3      	str	r3, [r2, #12]
100055c4:	4a39      	ldr	r2, [pc, #228]	; (100056ac <dcd_rp2040_irq+0x1dc>)
100055c6:	6093      	str	r3, [r2, #8]
100055c8:	60d3      	str	r3, [r2, #12]
100055ca:	4a39      	ldr	r2, [pc, #228]	; (100056b0 <dcd_rp2040_irq+0x1e0>)
100055cc:	6093      	str	r3, [r2, #8]
100055ce:	60d3      	str	r3, [r2, #12]
100055d0:	4a38      	ldr	r2, [pc, #224]	; (100056b4 <dcd_rp2040_irq+0x1e4>)
100055d2:	6093      	str	r3, [r2, #8]
100055d4:	60d3      	str	r3, [r2, #12]
100055d6:	4a38      	ldr	r2, [pc, #224]	; (100056b8 <dcd_rp2040_irq+0x1e8>)
100055d8:	6093      	str	r3, [r2, #8]
100055da:	60d3      	str	r3, [r2, #12]
100055dc:	4a37      	ldr	r2, [pc, #220]	; (100056bc <dcd_rp2040_irq+0x1ec>)
100055de:	6093      	str	r3, [r2, #8]
100055e0:	60d3      	str	r3, [r2, #12]
100055e2:	4a37      	ldr	r2, [pc, #220]	; (100056c0 <dcd_rp2040_irq+0x1f0>)
100055e4:	6093      	str	r3, [r2, #8]
100055e6:	60d3      	str	r3, [r2, #12]
100055e8:	4a36      	ldr	r2, [pc, #216]	; (100056c4 <dcd_rp2040_irq+0x1f4>)
100055ea:	6093      	str	r3, [r2, #8]
100055ec:	60d3      	str	r3, [r2, #12]
100055ee:	4a36      	ldr	r2, [pc, #216]	; (100056c8 <dcd_rp2040_irq+0x1f8>)
100055f0:	6093      	str	r3, [r2, #8]
100055f2:	60d3      	str	r3, [r2, #12]
100055f4:	4a35      	ldr	r2, [pc, #212]	; (100056cc <dcd_rp2040_irq+0x1fc>)
100055f6:	6093      	str	r3, [r2, #8]
100055f8:	60d3      	str	r3, [r2, #12]
100055fa:	4a35      	ldr	r2, [pc, #212]	; (100056d0 <dcd_rp2040_irq+0x200>)
100055fc:	6093      	str	r3, [r2, #8]
100055fe:	60d3      	str	r3, [r2, #12]
10005600:	4a34      	ldr	r2, [pc, #208]	; (100056d4 <dcd_rp2040_irq+0x204>)
10005602:	6093      	str	r3, [r2, #8]
10005604:	60d3      	str	r3, [r2, #12]
10005606:	4a34      	ldr	r2, [pc, #208]	; (100056d8 <dcd_rp2040_irq+0x208>)
10005608:	6093      	str	r3, [r2, #8]
1000560a:	60d3      	str	r3, [r2, #12]
1000560c:	4a33      	ldr	r2, [pc, #204]	; (100056dc <dcd_rp2040_irq+0x20c>)
1000560e:	6093      	str	r3, [r2, #8]
10005610:	60d3      	str	r3, [r2, #12]
10005612:	22f0      	movs	r2, #240	; 0xf0
10005614:	0092      	lsls	r2, r2, #2
10005616:	f7ff fb65 	bl	10004ce4 <__wrap_memset>
1000561a:	4b31      	ldr	r3, [pc, #196]	; (100056e0 <dcd_rp2040_irq+0x210>)
1000561c:	4a31      	ldr	r2, [pc, #196]	; (100056e4 <dcd_rp2040_irq+0x214>)
1000561e:	2100      	movs	r1, #0
10005620:	601a      	str	r2, [r3, #0]
10005622:	2000      	movs	r0, #0
10005624:	2201      	movs	r2, #1
10005626:	f001 f9b7 	bl	10006998 <dcd_event_bus_reset>
1000562a:	2280      	movs	r2, #128	; 0x80
1000562c:	4b1b      	ldr	r3, [pc, #108]	; (1000569c <dcd_rp2040_irq+0x1cc>)
1000562e:	0312      	lsls	r2, r2, #12
10005630:	651a      	str	r2, [r3, #80]	; 0x50
10005632:	2380      	movs	r3, #128	; 0x80
10005634:	01db      	lsls	r3, r3, #7
10005636:	421f      	tst	r7, r3
10005638:	d100      	bne.n	1000563c <dcd_rp2040_irq+0x16c>
1000563a:	e776      	b.n	1000552a <dcd_rp2040_irq+0x5a>
1000563c:	2201      	movs	r2, #1
1000563e:	2104      	movs	r1, #4
10005640:	2000      	movs	r0, #0
10005642:	431c      	orrs	r4, r3
10005644:	f001 f918 	bl	10006878 <dcd_event_bus_signal>
10005648:	2210      	movs	r2, #16
1000564a:	4b14      	ldr	r3, [pc, #80]	; (1000569c <dcd_rp2040_irq+0x1cc>)
1000564c:	651a      	str	r2, [r3, #80]	; 0x50
1000564e:	2380      	movs	r3, #128	; 0x80
10005650:	021b      	lsls	r3, r3, #8
10005652:	421f      	tst	r7, r3
10005654:	d100      	bne.n	10005658 <dcd_rp2040_irq+0x188>
10005656:	e76d      	b.n	10005534 <dcd_rp2040_irq+0x64>
10005658:	2201      	movs	r2, #1
1000565a:	2105      	movs	r1, #5
1000565c:	2000      	movs	r0, #0
1000565e:	431c      	orrs	r4, r3
10005660:	f001 f90a 	bl	10006878 <dcd_event_bus_signal>
10005664:	2280      	movs	r2, #128	; 0x80
10005666:	4b0d      	ldr	r3, [pc, #52]	; (1000569c <dcd_rp2040_irq+0x1cc>)
10005668:	0112      	lsls	r2, r2, #4
1000566a:	651a      	str	r2, [r3, #80]	; 0x50
1000566c:	e762      	b.n	10005534 <dcd_rp2040_irq+0x64>
1000566e:	464b      	mov	r3, r9
10005670:	8aaa      	ldrh	r2, [r5, #20]
10005672:	78a9      	ldrb	r1, [r5, #2]
10005674:	2000      	movs	r0, #0
10005676:	9300      	str	r3, [sp, #0]
10005678:	2300      	movs	r3, #0
1000567a:	f001 f9df 	bl	10006a3c <dcd_event_xfer_complete>
1000567e:	0028      	movs	r0, r5
10005680:	f000 fa4c 	bl	10005b1c <hw_endpoint_reset_transfer>
10005684:	e786      	b.n	10005594 <dcd_rp2040_irq+0xc4>
10005686:	0021      	movs	r1, r4
10005688:	4817      	ldr	r0, [pc, #92]	; (100056e8 <dcd_rp2040_irq+0x218>)
1000568a:	4079      	eors	r1, r7
1000568c:	f7fc fe12 	bl	100022b4 <panic>
10005690:	50110000 	.word	0x50110000
10005694:	200017e8 	.word	0x200017e8
10005698:	50100000 	.word	0x50100000
1000569c:	50113000 	.word	0x50113000
100056a0:	00010010 	.word	0x00010010
100056a4:	20001828 	.word	0x20001828
100056a8:	50100008 	.word	0x50100008
100056ac:	50100010 	.word	0x50100010
100056b0:	50100018 	.word	0x50100018
100056b4:	50100020 	.word	0x50100020
100056b8:	50100028 	.word	0x50100028
100056bc:	50100030 	.word	0x50100030
100056c0:	50100038 	.word	0x50100038
100056c4:	50100040 	.word	0x50100040
100056c8:	50100048 	.word	0x50100048
100056cc:	50100050 	.word	0x50100050
100056d0:	50100058 	.word	0x50100058
100056d4:	50100060 	.word	0x50100060
100056d8:	50100068 	.word	0x50100068
100056dc:	50100070 	.word	0x50100070
100056e0:	20001bf0 	.word	0x20001bf0
100056e4:	50100180 	.word	0x50100180
100056e8:	1000ba1c 	.word	0x1000ba1c

100056ec <dcd_int_enable>:
100056ec:	b510      	push	{r4, lr}
100056ee:	2101      	movs	r1, #1
100056f0:	2005      	movs	r0, #5
100056f2:	f7fb fbbf 	bl	10000e74 <irq_set_enabled>
100056f6:	bd10      	pop	{r4, pc}

100056f8 <dcd_set_address>:
100056f8:	b510      	push	{r4, lr}
100056fa:	2200      	movs	r2, #0
100056fc:	2100      	movs	r1, #0
100056fe:	4802      	ldr	r0, [pc, #8]	; (10005708 <dcd_set_address+0x10>)
10005700:	f000 fa34 	bl	10005b6c <hw_endpoint_xfer_start>
10005704:	bd10      	pop	{r4, pc}
10005706:	46c0      	nop			; (mov r8, r8)
10005708:	20001808 	.word	0x20001808

1000570c <dcd_connect>:
1000570c:	2280      	movs	r2, #128	; 0x80
1000570e:	4b02      	ldr	r3, [pc, #8]	; (10005718 <dcd_connect+0xc>)
10005710:	0252      	lsls	r2, r2, #9
10005712:	64da      	str	r2, [r3, #76]	; 0x4c
10005714:	4770      	bx	lr
10005716:	46c0      	nop			; (mov r8, r8)
10005718:	50112000 	.word	0x50112000

1000571c <dcd_init>:
1000571c:	b5f0      	push	{r4, r5, r6, r7, lr}
1000571e:	46c6      	mov	lr, r8
10005720:	b500      	push	{lr}
10005722:	0006      	movs	r6, r0
10005724:	f000 f9d4 	bl	10005ad0 <rp2040_usb_init>
10005728:	230c      	movs	r3, #12
1000572a:	4d35      	ldr	r5, [pc, #212]	; (10005800 <dcd_init+0xe4>)
1000572c:	2005      	movs	r0, #5
1000572e:	67ab      	str	r3, [r5, #120]	; 0x78
10005730:	4934      	ldr	r1, [pc, #208]	; (10005804 <dcd_init+0xe8>)
10005732:	f7fb fbd7 	bl	10000ee4 <irq_set_exclusive_handler>
10005736:	2340      	movs	r3, #64	; 0x40
10005738:	4698      	mov	r8, r3
1000573a:	4c33      	ldr	r4, [pc, #204]	; (10005808 <dcd_init+0xec>)
1000573c:	2240      	movs	r2, #64	; 0x40
1000573e:	2100      	movs	r1, #0
10005740:	0020      	movs	r0, r4
10005742:	f7ff facf 	bl	10004ce4 <__wrap_memset>
10005746:	4643      	mov	r3, r8
10005748:	2701      	movs	r7, #1
1000574a:	83a3      	strh	r3, [r4, #28]
1000574c:	2121      	movs	r1, #33	; 0x21
1000574e:	2300      	movs	r3, #0
10005750:	4a2e      	ldr	r2, [pc, #184]	; (1000580c <dcd_init+0xf0>)
10005752:	7067      	strb	r7, [r4, #1]
10005754:	60a2      	str	r2, [r4, #8]
10005756:	6013      	str	r3, [r2, #0]
10005758:	5463      	strb	r3, [r4, r1]
1000575a:	315f      	adds	r1, #95	; 0x5f
1000575c:	8461      	strh	r1, [r4, #34]	; 0x22
1000575e:	4641      	mov	r1, r8
10005760:	87a1      	strh	r1, [r4, #60]	; 0x3c
10005762:	3902      	subs	r1, #2
10005764:	5463      	strb	r3, [r4, r1]
10005766:	4a2a      	ldr	r2, [pc, #168]	; (10005810 <dcd_init+0xf4>)
10005768:	492a      	ldr	r1, [pc, #168]	; (10005814 <dcd_init+0xf8>)
1000576a:	6063      	str	r3, [r4, #4]
1000576c:	60e2      	str	r2, [r4, #12]
1000576e:	62a1      	str	r1, [r4, #40]	; 0x28
10005770:	600b      	str	r3, [r1, #0]
10005772:	62e2      	str	r2, [r4, #44]	; 0x2c
10005774:	4a28      	ldr	r2, [pc, #160]	; (10005818 <dcd_init+0xfc>)
10005776:	6263      	str	r3, [r4, #36]	; 0x24
10005778:	6093      	str	r3, [r2, #8]
1000577a:	60d3      	str	r3, [r2, #12]
1000577c:	4a27      	ldr	r2, [pc, #156]	; (1000581c <dcd_init+0x100>)
1000577e:	0020      	movs	r0, r4
10005780:	6093      	str	r3, [r2, #8]
10005782:	60d3      	str	r3, [r2, #12]
10005784:	4a26      	ldr	r2, [pc, #152]	; (10005820 <dcd_init+0x104>)
10005786:	2100      	movs	r1, #0
10005788:	6093      	str	r3, [r2, #8]
1000578a:	60d3      	str	r3, [r2, #12]
1000578c:	4a25      	ldr	r2, [pc, #148]	; (10005824 <dcd_init+0x108>)
1000578e:	3040      	adds	r0, #64	; 0x40
10005790:	6093      	str	r3, [r2, #8]
10005792:	60d3      	str	r3, [r2, #12]
10005794:	4a24      	ldr	r2, [pc, #144]	; (10005828 <dcd_init+0x10c>)
10005796:	6093      	str	r3, [r2, #8]
10005798:	60d3      	str	r3, [r2, #12]
1000579a:	4a24      	ldr	r2, [pc, #144]	; (1000582c <dcd_init+0x110>)
1000579c:	6093      	str	r3, [r2, #8]
1000579e:	60d3      	str	r3, [r2, #12]
100057a0:	4a23      	ldr	r2, [pc, #140]	; (10005830 <dcd_init+0x114>)
100057a2:	6093      	str	r3, [r2, #8]
100057a4:	60d3      	str	r3, [r2, #12]
100057a6:	4a23      	ldr	r2, [pc, #140]	; (10005834 <dcd_init+0x118>)
100057a8:	6093      	str	r3, [r2, #8]
100057aa:	60d3      	str	r3, [r2, #12]
100057ac:	4a22      	ldr	r2, [pc, #136]	; (10005838 <dcd_init+0x11c>)
100057ae:	6093      	str	r3, [r2, #8]
100057b0:	60d3      	str	r3, [r2, #12]
100057b2:	4a22      	ldr	r2, [pc, #136]	; (1000583c <dcd_init+0x120>)
100057b4:	6093      	str	r3, [r2, #8]
100057b6:	60d3      	str	r3, [r2, #12]
100057b8:	4a21      	ldr	r2, [pc, #132]	; (10005840 <dcd_init+0x124>)
100057ba:	6093      	str	r3, [r2, #8]
100057bc:	60d3      	str	r3, [r2, #12]
100057be:	4a21      	ldr	r2, [pc, #132]	; (10005844 <dcd_init+0x128>)
100057c0:	6093      	str	r3, [r2, #8]
100057c2:	60d3      	str	r3, [r2, #12]
100057c4:	4a20      	ldr	r2, [pc, #128]	; (10005848 <dcd_init+0x12c>)
100057c6:	6093      	str	r3, [r2, #8]
100057c8:	60d3      	str	r3, [r2, #12]
100057ca:	4a20      	ldr	r2, [pc, #128]	; (1000584c <dcd_init+0x130>)
100057cc:	6093      	str	r3, [r2, #8]
100057ce:	60d3      	str	r3, [r2, #12]
100057d0:	4a1f      	ldr	r2, [pc, #124]	; (10005850 <dcd_init+0x134>)
100057d2:	6093      	str	r3, [r2, #8]
100057d4:	60d3      	str	r3, [r2, #12]
100057d6:	22f0      	movs	r2, #240	; 0xf0
100057d8:	0092      	lsls	r2, r2, #2
100057da:	f7ff fa83 	bl	10004ce4 <__wrap_memset>
100057de:	4b1d      	ldr	r3, [pc, #116]	; (10005854 <dcd_init+0x138>)
100057e0:	4a1d      	ldr	r2, [pc, #116]	; (10005858 <dcd_init+0x13c>)
100057e2:	0030      	movs	r0, r6
100057e4:	601a      	str	r2, [r3, #0]
100057e6:	2380      	movs	r3, #128	; 0x80
100057e8:	059b      	lsls	r3, r3, #22
100057ea:	642f      	str	r7, [r5, #64]	; 0x40
100057ec:	64eb      	str	r3, [r5, #76]	; 0x4c
100057ee:	2390      	movs	r3, #144	; 0x90
100057f0:	4a1a      	ldr	r2, [pc, #104]	; (1000585c <dcd_init+0x140>)
100057f2:	50ea      	str	r2, [r5, r3]
100057f4:	f7ff ff8a 	bl	1000570c <dcd_connect>
100057f8:	bc80      	pop	{r7}
100057fa:	46b8      	mov	r8, r7
100057fc:	bdf0      	pop	{r4, r5, r6, r7, pc}
100057fe:	46c0      	nop			; (mov r8, r8)
10005800:	50110000 	.word	0x50110000
10005804:	100054d1 	.word	0x100054d1
10005808:	200017e8 	.word	0x200017e8
1000580c:	50100084 	.word	0x50100084
10005810:	50100100 	.word	0x50100100
10005814:	50100080 	.word	0x50100080
10005818:	50100000 	.word	0x50100000
1000581c:	50100008 	.word	0x50100008
10005820:	50100010 	.word	0x50100010
10005824:	50100018 	.word	0x50100018
10005828:	50100020 	.word	0x50100020
1000582c:	50100028 	.word	0x50100028
10005830:	50100030 	.word	0x50100030
10005834:	50100038 	.word	0x50100038
10005838:	50100040 	.word	0x50100040
1000583c:	50100048 	.word	0x50100048
10005840:	50100050 	.word	0x50100050
10005844:	50100058 	.word	0x50100058
10005848:	50100060 	.word	0x50100060
1000584c:	50100068 	.word	0x50100068
10005850:	50100070 	.word	0x50100070
10005854:	20001bf0 	.word	0x20001bf0
10005858:	50100180 	.word	0x50100180
1000585c:	0001d010 	.word	0x0001d010

10005860 <dcd_edpt0_status_complete>:
10005860:	780b      	ldrb	r3, [r1, #0]
10005862:	065b      	lsls	r3, r3, #25
10005864:	d102      	bne.n	1000586c <dcd_edpt0_status_complete+0xc>
10005866:	784b      	ldrb	r3, [r1, #1]
10005868:	2b05      	cmp	r3, #5
1000586a:	d000      	beq.n	1000586e <dcd_edpt0_status_complete+0xe>
1000586c:	4770      	bx	lr
1000586e:	788a      	ldrb	r2, [r1, #2]
10005870:	4b01      	ldr	r3, [pc, #4]	; (10005878 <dcd_edpt0_status_complete+0x18>)
10005872:	601a      	str	r2, [r3, #0]
10005874:	e7fa      	b.n	1000586c <dcd_edpt0_status_complete+0xc>
10005876:	46c0      	nop			; (mov r8, r8)
10005878:	50110000 	.word	0x50110000

1000587c <dcd_edpt_open>:
1000587c:	b5f0      	push	{r4, r5, r6, r7, lr}
1000587e:	46ce      	mov	lr, r9
10005880:	4647      	mov	r7, r8
10005882:	2307      	movs	r3, #7
10005884:	b580      	push	{r7, lr}
10005886:	7948      	ldrb	r0, [r1, #5]
10005888:	788e      	ldrb	r6, [r1, #2]
1000588a:	790a      	ldrb	r2, [r1, #4]
1000588c:	4003      	ands	r3, r0
1000588e:	78c8      	ldrb	r0, [r1, #3]
10005890:	217f      	movs	r1, #127	; 0x7f
10005892:	0780      	lsls	r0, r0, #30
10005894:	4031      	ands	r1, r6
10005896:	021b      	lsls	r3, r3, #8
10005898:	09f4      	lsrs	r4, r6, #7
1000589a:	4313      	orrs	r3, r2
1000589c:	004f      	lsls	r7, r1, #1
1000589e:	0f82      	lsrs	r2, r0, #30
100058a0:	4694      	mov	ip, r2
100058a2:	4691      	mov	r9, r2
100058a4:	4d2a      	ldr	r5, [pc, #168]	; (10005950 <dcd_edpt_open+0xd4>)
100058a6:	193a      	adds	r2, r7, r4
100058a8:	0152      	lsls	r2, r2, #5
100058aa:	18aa      	adds	r2, r5, r2
100058ac:	7096      	strb	r6, [r2, #2]
100058ae:	2601      	movs	r6, #1
100058b0:	4066      	eors	r6, r4
100058b2:	7056      	strb	r6, [r2, #1]
100058b4:	4660      	mov	r0, ip
100058b6:	2600      	movs	r6, #0
100058b8:	8393      	strh	r3, [r2, #28]
100058ba:	70d6      	strb	r6, [r2, #3]
100058bc:	7790      	strb	r0, [r2, #30]
100058be:	00ca      	lsls	r2, r1, #3
100058c0:	2c01      	cmp	r4, #1
100058c2:	d029      	beq.n	10005918 <dcd_edpt_open+0x9c>
100058c4:	4823      	ldr	r0, [pc, #140]	; (10005954 <dcd_edpt_open+0xd8>)
100058c6:	4684      	mov	ip, r0
100058c8:	0188      	lsls	r0, r1, #6
100058ca:	4462      	add	r2, ip
100058cc:	4684      	mov	ip, r0
100058ce:	44ac      	add	ip, r5
100058d0:	4660      	mov	r0, ip
100058d2:	6082      	str	r2, [r0, #8]
100058d4:	6016      	str	r6, [r2, #0]
100058d6:	2900      	cmp	r1, #0
100058d8:	d029      	beq.n	1000592e <dcd_edpt_open+0xb2>
100058da:	4a1f      	ldr	r2, [pc, #124]	; (10005958 <dcd_edpt_open+0xdc>)
100058dc:	00c9      	lsls	r1, r1, #3
100058de:	4690      	mov	r8, r2
100058e0:	4441      	add	r1, r8
100058e2:	6041      	str	r1, [r0, #4]
100058e4:	223f      	movs	r2, #63	; 0x3f
100058e6:	333f      	adds	r3, #63	; 0x3f
100058e8:	4393      	bics	r3, r2
100058ea:	464a      	mov	r2, r9
100058ec:	2a02      	cmp	r2, #2
100058ee:	d100      	bne.n	100058f2 <dcd_edpt_open+0x76>
100058f0:	005b      	lsls	r3, r3, #1
100058f2:	491a      	ldr	r1, [pc, #104]	; (1000595c <dcd_edpt_open+0xe0>)
100058f4:	193f      	adds	r7, r7, r4
100058f6:	680a      	ldr	r2, [r1, #0]
100058f8:	017f      	lsls	r7, r7, #5
100058fa:	18d3      	adds	r3, r2, r3
100058fc:	600b      	str	r3, [r1, #0]
100058fe:	4b18      	ldr	r3, [pc, #96]	; (10005960 <dcd_edpt_open+0xe4>)
10005900:	19ed      	adds	r5, r5, r7
10005902:	4053      	eors	r3, r2
10005904:	60ea      	str	r2, [r5, #12]
10005906:	464a      	mov	r2, r9
10005908:	0690      	lsls	r0, r2, #26
1000590a:	4318      	orrs	r0, r3
1000590c:	2380      	movs	r3, #128	; 0x80
1000590e:	061b      	lsls	r3, r3, #24
10005910:	4318      	orrs	r0, r3
10005912:	686b      	ldr	r3, [r5, #4]
10005914:	6018      	str	r0, [r3, #0]
10005916:	e010      	b.n	1000593a <dcd_edpt_open+0xbe>
10005918:	4812      	ldr	r0, [pc, #72]	; (10005964 <dcd_edpt_open+0xe8>)
1000591a:	4684      	mov	ip, r0
1000591c:	0188      	lsls	r0, r1, #6
1000591e:	4462      	add	r2, ip
10005920:	4684      	mov	ip, r0
10005922:	44ac      	add	ip, r5
10005924:	4660      	mov	r0, ip
10005926:	6282      	str	r2, [r0, #40]	; 0x28
10005928:	6016      	str	r6, [r2, #0]
1000592a:	2900      	cmp	r1, #0
1000592c:	d10a      	bne.n	10005944 <dcd_edpt_open+0xc8>
1000592e:	2300      	movs	r3, #0
10005930:	0164      	lsls	r4, r4, #5
10005932:	192d      	adds	r5, r5, r4
10005934:	606b      	str	r3, [r5, #4]
10005936:	4b0c      	ldr	r3, [pc, #48]	; (10005968 <dcd_edpt_open+0xec>)
10005938:	60eb      	str	r3, [r5, #12]
1000593a:	2001      	movs	r0, #1
1000593c:	bcc0      	pop	{r6, r7}
1000593e:	46b9      	mov	r9, r7
10005940:	46b0      	mov	r8, r6
10005942:	bdf0      	pop	{r4, r5, r6, r7, pc}
10005944:	4a06      	ldr	r2, [pc, #24]	; (10005960 <dcd_edpt_open+0xe4>)
10005946:	00c9      	lsls	r1, r1, #3
10005948:	4690      	mov	r8, r2
1000594a:	4441      	add	r1, r8
1000594c:	6241      	str	r1, [r0, #36]	; 0x24
1000594e:	e7c9      	b.n	100058e4 <dcd_edpt_open+0x68>
10005950:	200017e8 	.word	0x200017e8
10005954:	50100084 	.word	0x50100084
10005958:	50100004 	.word	0x50100004
1000595c:	20001bf0 	.word	0x20001bf0
10005960:	50100000 	.word	0x50100000
10005964:	50100080 	.word	0x50100080
10005968:	50100100 	.word	0x50100100

1000596c <dcd_edpt_close_all>:
1000596c:	2300      	movs	r3, #0
1000596e:	4a1c      	ldr	r2, [pc, #112]	; (100059e0 <dcd_edpt_close_all+0x74>)
10005970:	b510      	push	{r4, lr}
10005972:	6093      	str	r3, [r2, #8]
10005974:	60d3      	str	r3, [r2, #12]
10005976:	4a1b      	ldr	r2, [pc, #108]	; (100059e4 <dcd_edpt_close_all+0x78>)
10005978:	2100      	movs	r1, #0
1000597a:	6093      	str	r3, [r2, #8]
1000597c:	60d3      	str	r3, [r2, #12]
1000597e:	4a1a      	ldr	r2, [pc, #104]	; (100059e8 <dcd_edpt_close_all+0x7c>)
10005980:	481a      	ldr	r0, [pc, #104]	; (100059ec <dcd_edpt_close_all+0x80>)
10005982:	6093      	str	r3, [r2, #8]
10005984:	60d3      	str	r3, [r2, #12]
10005986:	4a1a      	ldr	r2, [pc, #104]	; (100059f0 <dcd_edpt_close_all+0x84>)
10005988:	6093      	str	r3, [r2, #8]
1000598a:	60d3      	str	r3, [r2, #12]
1000598c:	4a19      	ldr	r2, [pc, #100]	; (100059f4 <dcd_edpt_close_all+0x88>)
1000598e:	6093      	str	r3, [r2, #8]
10005990:	60d3      	str	r3, [r2, #12]
10005992:	4a19      	ldr	r2, [pc, #100]	; (100059f8 <dcd_edpt_close_all+0x8c>)
10005994:	6093      	str	r3, [r2, #8]
10005996:	60d3      	str	r3, [r2, #12]
10005998:	4a18      	ldr	r2, [pc, #96]	; (100059fc <dcd_edpt_close_all+0x90>)
1000599a:	6093      	str	r3, [r2, #8]
1000599c:	60d3      	str	r3, [r2, #12]
1000599e:	4a18      	ldr	r2, [pc, #96]	; (10005a00 <dcd_edpt_close_all+0x94>)
100059a0:	6093      	str	r3, [r2, #8]
100059a2:	60d3      	str	r3, [r2, #12]
100059a4:	4a17      	ldr	r2, [pc, #92]	; (10005a04 <dcd_edpt_close_all+0x98>)
100059a6:	6093      	str	r3, [r2, #8]
100059a8:	60d3      	str	r3, [r2, #12]
100059aa:	4a17      	ldr	r2, [pc, #92]	; (10005a08 <dcd_edpt_close_all+0x9c>)
100059ac:	6093      	str	r3, [r2, #8]
100059ae:	60d3      	str	r3, [r2, #12]
100059b0:	4a16      	ldr	r2, [pc, #88]	; (10005a0c <dcd_edpt_close_all+0xa0>)
100059b2:	6093      	str	r3, [r2, #8]
100059b4:	60d3      	str	r3, [r2, #12]
100059b6:	4a16      	ldr	r2, [pc, #88]	; (10005a10 <dcd_edpt_close_all+0xa4>)
100059b8:	6093      	str	r3, [r2, #8]
100059ba:	60d3      	str	r3, [r2, #12]
100059bc:	4a15      	ldr	r2, [pc, #84]	; (10005a14 <dcd_edpt_close_all+0xa8>)
100059be:	6093      	str	r3, [r2, #8]
100059c0:	60d3      	str	r3, [r2, #12]
100059c2:	4a15      	ldr	r2, [pc, #84]	; (10005a18 <dcd_edpt_close_all+0xac>)
100059c4:	6093      	str	r3, [r2, #8]
100059c6:	60d3      	str	r3, [r2, #12]
100059c8:	4a14      	ldr	r2, [pc, #80]	; (10005a1c <dcd_edpt_close_all+0xb0>)
100059ca:	6093      	str	r3, [r2, #8]
100059cc:	60d3      	str	r3, [r2, #12]
100059ce:	22f0      	movs	r2, #240	; 0xf0
100059d0:	0092      	lsls	r2, r2, #2
100059d2:	f7ff f987 	bl	10004ce4 <__wrap_memset>
100059d6:	4b12      	ldr	r3, [pc, #72]	; (10005a20 <dcd_edpt_close_all+0xb4>)
100059d8:	4a12      	ldr	r2, [pc, #72]	; (10005a24 <dcd_edpt_close_all+0xb8>)
100059da:	601a      	str	r2, [r3, #0]
100059dc:	bd10      	pop	{r4, pc}
100059de:	46c0      	nop			; (mov r8, r8)
100059e0:	50100000 	.word	0x50100000
100059e4:	50100008 	.word	0x50100008
100059e8:	50100010 	.word	0x50100010
100059ec:	20001828 	.word	0x20001828
100059f0:	50100018 	.word	0x50100018
100059f4:	50100020 	.word	0x50100020
100059f8:	50100028 	.word	0x50100028
100059fc:	50100030 	.word	0x50100030
10005a00:	50100038 	.word	0x50100038
10005a04:	50100040 	.word	0x50100040
10005a08:	50100048 	.word	0x50100048
10005a0c:	50100050 	.word	0x50100050
10005a10:	50100058 	.word	0x50100058
10005a14:	50100060 	.word	0x50100060
10005a18:	50100068 	.word	0x50100068
10005a1c:	50100070 	.word	0x50100070
10005a20:	20001bf0 	.word	0x20001bf0
10005a24:	50100180 	.word	0x50100180

10005a28 <dcd_edpt_xfer>:
10005a28:	b510      	push	{r4, lr}
10005a2a:	207f      	movs	r0, #127	; 0x7f
10005a2c:	000c      	movs	r4, r1
10005a2e:	4020      	ands	r0, r4
10005a30:	0040      	lsls	r0, r0, #1
10005a32:	09e4      	lsrs	r4, r4, #7
10005a34:	0011      	movs	r1, r2
10005a36:	1900      	adds	r0, r0, r4
10005a38:	001a      	movs	r2, r3
10005a3a:	4b03      	ldr	r3, [pc, #12]	; (10005a48 <dcd_edpt_xfer+0x20>)
10005a3c:	0140      	lsls	r0, r0, #5
10005a3e:	18c0      	adds	r0, r0, r3
10005a40:	f000 f894 	bl	10005b6c <hw_endpoint_xfer_start>
10005a44:	2001      	movs	r0, #1
10005a46:	bd10      	pop	{r4, pc}
10005a48:	200017e8 	.word	0x200017e8

10005a4c <dcd_edpt_stall>:
10005a4c:	227f      	movs	r2, #127	; 0x7f
10005a4e:	0013      	movs	r3, r2
10005a50:	b510      	push	{r4, lr}
10005a52:	400b      	ands	r3, r1
10005a54:	420a      	tst	r2, r1
10005a56:	d00b      	beq.n	10005a70 <dcd_edpt_stall+0x24>
10005a58:	09c9      	lsrs	r1, r1, #7
10005a5a:	2280      	movs	r2, #128	; 0x80
10005a5c:	0058      	lsls	r0, r3, #1
10005a5e:	1840      	adds	r0, r0, r1
10005a60:	4906      	ldr	r1, [pc, #24]	; (10005a7c <dcd_edpt_stall+0x30>)
10005a62:	0140      	lsls	r0, r0, #5
10005a64:	1840      	adds	r0, r0, r1
10005a66:	0112      	lsls	r2, r2, #4
10005a68:	2100      	movs	r1, #0
10005a6a:	f000 f85d 	bl	10005b28 <_hw_endpoint_buffer_control_update32>
10005a6e:	bd10      	pop	{r4, pc}
10005a70:	2202      	movs	r2, #2
10005a72:	4803      	ldr	r0, [pc, #12]	; (10005a80 <dcd_edpt_stall+0x34>)
10005a74:	09c9      	lsrs	r1, r1, #7
10005a76:	1a52      	subs	r2, r2, r1
10005a78:	6682      	str	r2, [r0, #104]	; 0x68
10005a7a:	e7ee      	b.n	10005a5a <dcd_edpt_stall+0xe>
10005a7c:	200017e8 	.word	0x200017e8
10005a80:	50112000 	.word	0x50112000

10005a84 <dcd_edpt_clear_stall>:
10005a84:	227f      	movs	r2, #127	; 0x7f
10005a86:	0010      	movs	r0, r2
10005a88:	b510      	push	{r4, lr}
10005a8a:	4008      	ands	r0, r1
10005a8c:	420a      	tst	r2, r1
10005a8e:	d100      	bne.n	10005a92 <dcd_edpt_clear_stall+0xe>
10005a90:	bd10      	pop	{r4, pc}
10005a92:	2300      	movs	r3, #0
10005a94:	09c9      	lsrs	r1, r1, #7
10005a96:	0040      	lsls	r0, r0, #1
10005a98:	1840      	adds	r0, r0, r1
10005a9a:	4904      	ldr	r1, [pc, #16]	; (10005aac <dcd_edpt_clear_stall+0x28>)
10005a9c:	0140      	lsls	r0, r0, #5
10005a9e:	1808      	adds	r0, r1, r0
10005aa0:	2200      	movs	r2, #0
10005aa2:	4903      	ldr	r1, [pc, #12]	; (10005ab0 <dcd_edpt_clear_stall+0x2c>)
10005aa4:	70c3      	strb	r3, [r0, #3]
10005aa6:	f000 f83f 	bl	10005b28 <_hw_endpoint_buffer_control_update32>
10005aaa:	e7f1      	b.n	10005a90 <dcd_edpt_clear_stall+0xc>
10005aac:	200017e8 	.word	0x200017e8
10005ab0:	fffff7ff 	.word	0xfffff7ff

10005ab4 <_hw_endpoint_buffer_control_update32.part.0.isra.0>:
10005ab4:	217f      	movs	r1, #127	; 0x7f
10005ab6:	09c3      	lsrs	r3, r0, #7
10005ab8:	4a03      	ldr	r2, [pc, #12]	; (10005ac8 <_hw_endpoint_buffer_control_update32.part.0.isra.0+0x14>)
10005aba:	009b      	lsls	r3, r3, #2
10005abc:	4001      	ands	r1, r0
10005abe:	b510      	push	{r4, lr}
10005ac0:	589a      	ldr	r2, [r3, r2]
10005ac2:	4802      	ldr	r0, [pc, #8]	; (10005acc <_hw_endpoint_buffer_control_update32.part.0.isra.0+0x18>)
10005ac4:	f7fc fbf6 	bl	100022b4 <panic>
10005ac8:	20000434 	.word	0x20000434
10005acc:	1000ba30 	.word	0x1000ba30

10005ad0 <rp2040_usb_init>:
10005ad0:	2280      	movs	r2, #128	; 0x80
10005ad2:	4b0d      	ldr	r3, [pc, #52]	; (10005b08 <rp2040_usb_init+0x38>)
10005ad4:	0452      	lsls	r2, r2, #17
10005ad6:	b510      	push	{r4, lr}
10005ad8:	601a      	str	r2, [r3, #0]
10005ada:	4b0c      	ldr	r3, [pc, #48]	; (10005b0c <rp2040_usb_init+0x3c>)
10005adc:	490c      	ldr	r1, [pc, #48]	; (10005b10 <rp2040_usb_init+0x40>)
10005ade:	601a      	str	r2, [r3, #0]
10005ae0:	0010      	movs	r0, r2
10005ae2:	688b      	ldr	r3, [r1, #8]
10005ae4:	4398      	bics	r0, r3
10005ae6:	d1fb      	bne.n	10005ae0 <rp2040_usb_init+0x10>
10005ae8:	4c0a      	ldr	r4, [pc, #40]	; (10005b14 <rp2040_usb_init+0x44>)
10005aea:	229c      	movs	r2, #156	; 0x9c
10005aec:	2100      	movs	r1, #0
10005aee:	0020      	movs	r0, r4
10005af0:	f7ff f8f8 	bl	10004ce4 <__wrap_memset>
10005af4:	2280      	movs	r2, #128	; 0x80
10005af6:	2100      	movs	r1, #0
10005af8:	0152      	lsls	r2, r2, #5
10005afa:	4807      	ldr	r0, [pc, #28]	; (10005b18 <rp2040_usb_init+0x48>)
10005afc:	f7ff f8f2 	bl	10004ce4 <__wrap_memset>
10005b00:	2309      	movs	r3, #9
10005b02:	6763      	str	r3, [r4, #116]	; 0x74
10005b04:	bd10      	pop	{r4, pc}
10005b06:	46c0      	nop			; (mov r8, r8)
10005b08:	4000e000 	.word	0x4000e000
10005b0c:	4000f000 	.word	0x4000f000
10005b10:	4000c000 	.word	0x4000c000
10005b14:	50110000 	.word	0x50110000
10005b18:	50100000 	.word	0x50100000

10005b1c <hw_endpoint_reset_transfer>:
10005b1c:	2300      	movs	r3, #0
10005b1e:	7403      	strb	r3, [r0, #16]
10005b20:	8243      	strh	r3, [r0, #18]
10005b22:	8283      	strh	r3, [r0, #20]
10005b24:	6183      	str	r3, [r0, #24]
10005b26:	4770      	bx	lr

10005b28 <_hw_endpoint_buffer_control_update32>:
10005b28:	b510      	push	{r4, lr}
10005b2a:	6883      	ldr	r3, [r0, #8]
10005b2c:	2900      	cmp	r1, #0
10005b2e:	d001      	beq.n	10005b34 <_hw_endpoint_buffer_control_update32+0xc>
10005b30:	681c      	ldr	r4, [r3, #0]
10005b32:	4021      	ands	r1, r4
10005b34:	2a00      	cmp	r2, #0
10005b36:	d011      	beq.n	10005b5c <_hw_endpoint_buffer_control_update32+0x34>
10005b38:	2480      	movs	r4, #128	; 0x80
10005b3a:	00e4      	lsls	r4, r4, #3
10005b3c:	4311      	orrs	r1, r2
10005b3e:	4222      	tst	r2, r4
10005b40:	d00c      	beq.n	10005b5c <_hw_endpoint_buffer_control_update32+0x34>
10005b42:	681a      	ldr	r2, [r3, #0]
10005b44:	4222      	tst	r2, r4
10005b46:	d10b      	bne.n	10005b60 <_hw_endpoint_buffer_control_update32+0x38>
10005b48:	4a07      	ldr	r2, [pc, #28]	; (10005b68 <_hw_endpoint_buffer_control_update32+0x40>)
10005b4a:	400a      	ands	r2, r1
10005b4c:	601a      	str	r2, [r3, #0]
10005b4e:	e7ff      	b.n	10005b50 <_hw_endpoint_buffer_control_update32+0x28>
10005b50:	e7ff      	b.n	10005b52 <_hw_endpoint_buffer_control_update32+0x2a>
10005b52:	e7ff      	b.n	10005b54 <_hw_endpoint_buffer_control_update32+0x2c>
10005b54:	e7ff      	b.n	10005b56 <_hw_endpoint_buffer_control_update32+0x2e>
10005b56:	e7ff      	b.n	10005b58 <_hw_endpoint_buffer_control_update32+0x30>
10005b58:	e7ff      	b.n	10005b5a <_hw_endpoint_buffer_control_update32+0x32>
10005b5a:	6883      	ldr	r3, [r0, #8]
10005b5c:	6019      	str	r1, [r3, #0]
10005b5e:	bd10      	pop	{r4, pc}
10005b60:	7880      	ldrb	r0, [r0, #2]
10005b62:	f7ff ffa7 	bl	10005ab4 <_hw_endpoint_buffer_control_update32.part.0.isra.0>
10005b66:	46c0      	nop			; (mov r8, r8)
10005b68:	fffffbff 	.word	0xfffffbff

10005b6c <hw_endpoint_xfer_start>:
10005b6c:	b5f0      	push	{r4, r5, r6, r7, lr}
10005b6e:	46c6      	mov	lr, r8
10005b70:	2300      	movs	r3, #0
10005b72:	b500      	push	{lr}
10005b74:	8283      	strh	r3, [r0, #20]
10005b76:	3301      	adds	r3, #1
10005b78:	7403      	strb	r3, [r0, #16]
10005b7a:	6843      	ldr	r3, [r0, #4]
10005b7c:	0004      	movs	r4, r0
10005b7e:	681e      	ldr	r6, [r3, #0]
10005b80:	8b83      	ldrh	r3, [r0, #28]
10005b82:	6181      	str	r1, [r0, #24]
10005b84:	1c1f      	adds	r7, r3, #0
10005b86:	4293      	cmp	r3, r2
10005b88:	d900      	bls.n	10005b8c <hw_endpoint_xfer_start+0x20>
10005b8a:	1c17      	adds	r7, r2, #0
10005b8c:	2580      	movs	r5, #128	; 0x80
10005b8e:	b2bf      	uxth	r7, r7
10005b90:	1bd2      	subs	r2, r2, r7
10005b92:	b293      	uxth	r3, r2
10005b94:	78e2      	ldrb	r2, [r4, #3]
10005b96:	00ed      	lsls	r5, r5, #3
10005b98:	8263      	strh	r3, [r4, #18]
10005b9a:	433d      	orrs	r5, r7
10005b9c:	2a00      	cmp	r2, #0
10005b9e:	d002      	beq.n	10005ba6 <hw_endpoint_xfer_start+0x3a>
10005ba0:	2590      	movs	r5, #144	; 0x90
10005ba2:	01ad      	lsls	r5, r5, #6
10005ba4:	433d      	orrs	r5, r7
10005ba6:	2001      	movs	r0, #1
10005ba8:	4042      	eors	r2, r0
10005baa:	70e2      	strb	r2, [r4, #3]
10005bac:	7862      	ldrb	r2, [r4, #1]
10005bae:	2a00      	cmp	r2, #0
10005bb0:	d051      	beq.n	10005c56 <hw_endpoint_xfer_start+0xea>
10005bb2:	2b00      	cmp	r3, #0
10005bb4:	d11d      	bne.n	10005bf2 <hw_endpoint_xfer_start+0x86>
10005bb6:	23a0      	movs	r3, #160	; 0xa0
10005bb8:	01db      	lsls	r3, r3, #7
10005bba:	431d      	orrs	r5, r3
10005bbc:	4b35      	ldr	r3, [pc, #212]	; (10005c94 <hw_endpoint_xfer_start+0x128>)
10005bbe:	6c1b      	ldr	r3, [r3, #64]	; 0x40
10005bc0:	4b35      	ldr	r3, [pc, #212]	; (10005c98 <hw_endpoint_xfer_start+0x12c>)
10005bc2:	4033      	ands	r3, r6
10005bc4:	2680      	movs	r6, #128	; 0x80
10005bc6:	05b6      	lsls	r6, r6, #22
10005bc8:	431e      	orrs	r6, r3
10005bca:	6863      	ldr	r3, [r4, #4]
10005bcc:	68a2      	ldr	r2, [r4, #8]
10005bce:	601e      	str	r6, [r3, #0]
10005bd0:	6813      	ldr	r3, [r2, #0]
10005bd2:	055b      	lsls	r3, r3, #21
10005bd4:	d45a      	bmi.n	10005c8c <hw_endpoint_xfer_start+0x120>
10005bd6:	4b31      	ldr	r3, [pc, #196]	; (10005c9c <hw_endpoint_xfer_start+0x130>)
10005bd8:	402b      	ands	r3, r5
10005bda:	6013      	str	r3, [r2, #0]
10005bdc:	e7ff      	b.n	10005bde <hw_endpoint_xfer_start+0x72>
10005bde:	e7ff      	b.n	10005be0 <hw_endpoint_xfer_start+0x74>
10005be0:	e7ff      	b.n	10005be2 <hw_endpoint_xfer_start+0x76>
10005be2:	e7ff      	b.n	10005be4 <hw_endpoint_xfer_start+0x78>
10005be4:	e7ff      	b.n	10005be6 <hw_endpoint_xfer_start+0x7a>
10005be6:	e7ff      	b.n	10005be8 <hw_endpoint_xfer_start+0x7c>
10005be8:	68a3      	ldr	r3, [r4, #8]
10005bea:	601d      	str	r5, [r3, #0]
10005bec:	bc80      	pop	{r7}
10005bee:	46b8      	mov	r8, r7
10005bf0:	bdf0      	pop	{r4, r5, r6, r7, pc}
10005bf2:	2280      	movs	r2, #128	; 0x80
10005bf4:	0152      	lsls	r2, r2, #5
10005bf6:	4315      	orrs	r5, r2
10005bf8:	4a26      	ldr	r2, [pc, #152]	; (10005c94 <hw_endpoint_xfer_start+0x128>)
10005bfa:	6c12      	ldr	r2, [r2, #64]	; 0x40
10005bfc:	0792      	lsls	r2, r2, #30
10005bfe:	d403      	bmi.n	10005c08 <hw_endpoint_xfer_start+0x9c>
10005c00:	78a2      	ldrb	r2, [r4, #2]
10005c02:	09d2      	lsrs	r2, r2, #7
10005c04:	2a01      	cmp	r2, #1
10005c06:	d1db      	bne.n	10005bc0 <hw_endpoint_xfer_start+0x54>
10005c08:	8ba2      	ldrh	r2, [r4, #28]
10005c0a:	1c11      	adds	r1, r2, #0
10005c0c:	429a      	cmp	r2, r3
10005c0e:	d900      	bls.n	10005c12 <hw_endpoint_xfer_start+0xa6>
10005c10:	1c19      	adds	r1, r3, #0
10005c12:	2780      	movs	r7, #128	; 0x80
10005c14:	b28a      	uxth	r2, r1
10005c16:	00ff      	lsls	r7, r7, #3
10005c18:	1a9b      	subs	r3, r3, r2
10005c1a:	4690      	mov	r8, r2
10005c1c:	4317      	orrs	r7, r2
10005c1e:	78e2      	ldrb	r2, [r4, #3]
10005c20:	b29b      	uxth	r3, r3
10005c22:	8263      	strh	r3, [r4, #18]
10005c24:	2a00      	cmp	r2, #0
10005c26:	d003      	beq.n	10005c30 <hw_endpoint_xfer_start+0xc4>
10005c28:	2790      	movs	r7, #144	; 0x90
10005c2a:	4641      	mov	r1, r8
10005c2c:	01bf      	lsls	r7, r7, #6
10005c2e:	430f      	orrs	r7, r1
10005c30:	2101      	movs	r1, #1
10005c32:	404a      	eors	r2, r1
10005c34:	70e2      	strb	r2, [r4, #3]
10005c36:	7862      	ldrb	r2, [r4, #1]
10005c38:	2a00      	cmp	r2, #0
10005c3a:	d019      	beq.n	10005c70 <hw_endpoint_xfer_start+0x104>
10005c3c:	2b00      	cmp	r3, #0
10005c3e:	d102      	bne.n	10005c46 <hw_endpoint_xfer_start+0xda>
10005c40:	2380      	movs	r3, #128	; 0x80
10005c42:	01db      	lsls	r3, r3, #7
10005c44:	431f      	orrs	r7, r3
10005c46:	4b16      	ldr	r3, [pc, #88]	; (10005ca0 <hw_endpoint_xfer_start+0x134>)
10005c48:	043f      	lsls	r7, r7, #16
10005c4a:	4033      	ands	r3, r6
10005c4c:	26a0      	movs	r6, #160	; 0xa0
10005c4e:	05f6      	lsls	r6, r6, #23
10005c50:	433d      	orrs	r5, r7
10005c52:	431e      	orrs	r6, r3
10005c54:	e7b9      	b.n	10005bca <hw_endpoint_xfer_start+0x5e>
10005c56:	003a      	movs	r2, r7
10005c58:	68e0      	ldr	r0, [r4, #12]
10005c5a:	f7ff f849 	bl	10004cf0 <__wrap___aeabi_memcpy>
10005c5e:	69a3      	ldr	r3, [r4, #24]
10005c60:	469c      	mov	ip, r3
10005c62:	2380      	movs	r3, #128	; 0x80
10005c64:	4467      	add	r7, ip
10005c66:	021b      	lsls	r3, r3, #8
10005c68:	431d      	orrs	r5, r3
10005c6a:	61a7      	str	r7, [r4, #24]
10005c6c:	8a63      	ldrh	r3, [r4, #18]
10005c6e:	e7a0      	b.n	10005bb2 <hw_endpoint_xfer_start+0x46>
10005c70:	68e0      	ldr	r0, [r4, #12]
10005c72:	4642      	mov	r2, r8
10005c74:	69a1      	ldr	r1, [r4, #24]
10005c76:	3040      	adds	r0, #64	; 0x40
10005c78:	f7ff f83a 	bl	10004cf0 <__wrap___aeabi_memcpy>
10005c7c:	69a3      	ldr	r3, [r4, #24]
10005c7e:	4443      	add	r3, r8
10005c80:	61a3      	str	r3, [r4, #24]
10005c82:	2380      	movs	r3, #128	; 0x80
10005c84:	021b      	lsls	r3, r3, #8
10005c86:	431f      	orrs	r7, r3
10005c88:	8a63      	ldrh	r3, [r4, #18]
10005c8a:	e7d7      	b.n	10005c3c <hw_endpoint_xfer_start+0xd0>
10005c8c:	78a0      	ldrb	r0, [r4, #2]
10005c8e:	f7ff ff11 	bl	10005ab4 <_hw_endpoint_buffer_control_update32.part.0.isra.0>
10005c92:	46c0      	nop			; (mov r8, r8)
10005c94:	50110000 	.word	0x50110000
10005c98:	afffffff 	.word	0xafffffff
10005c9c:	fffffbff 	.word	0xfffffbff
10005ca0:	dfffffff 	.word	0xdfffffff

10005ca4 <hw_endpoint_xfer_continue>:
10005ca4:	b5f0      	push	{r4, r5, r6, r7, lr}
10005ca6:	46c6      	mov	lr, r8
10005ca8:	b500      	push	{lr}
10005caa:	7c06      	ldrb	r6, [r0, #16]
10005cac:	0004      	movs	r4, r0
10005cae:	2e00      	cmp	r6, #0
10005cb0:	d100      	bne.n	10005cb4 <hw_endpoint_xfer_continue+0x10>
10005cb2:	e0d3      	b.n	10005e5c <hw_endpoint_xfer_continue+0x1b8>
10005cb4:	6883      	ldr	r3, [r0, #8]
10005cb6:	681a      	ldr	r2, [r3, #0]
10005cb8:	681d      	ldr	r5, [r3, #0]
10005cba:	7843      	ldrb	r3, [r0, #1]
10005cbc:	05ad      	lsls	r5, r5, #22
10005cbe:	0dad      	lsrs	r5, r5, #22
10005cc0:	2b00      	cmp	r3, #0
10005cc2:	d151      	bne.n	10005d68 <hw_endpoint_xfer_continue+0xc4>
10005cc4:	8a83      	ldrh	r3, [r0, #20]
10005cc6:	18eb      	adds	r3, r5, r3
10005cc8:	b29b      	uxth	r3, r3
10005cca:	8283      	strh	r3, [r0, #20]
10005ccc:	8ba1      	ldrh	r1, [r4, #28]
10005cce:	428d      	cmp	r5, r1
10005cd0:	d207      	bcs.n	10005ce2 <hw_endpoint_xfer_continue+0x3e>
10005cd2:	2300      	movs	r3, #0
10005cd4:	8263      	strh	r3, [r4, #18]
10005cd6:	6863      	ldr	r3, [r4, #4]
10005cd8:	681b      	ldr	r3, [r3, #0]
10005cda:	0030      	movs	r0, r6
10005cdc:	bc80      	pop	{r7}
10005cde:	46b8      	mov	r8, r7
10005ce0:	bdf0      	pop	{r4, r5, r6, r7, pc}
10005ce2:	6862      	ldr	r2, [r4, #4]
10005ce4:	6812      	ldr	r2, [r2, #0]
10005ce6:	0052      	lsls	r2, r2, #1
10005ce8:	d502      	bpl.n	10005cf0 <hw_endpoint_xfer_continue+0x4c>
10005cea:	428d      	cmp	r5, r1
10005cec:	d100      	bne.n	10005cf0 <hw_endpoint_xfer_continue+0x4c>
10005cee:	e075      	b.n	10005ddc <hw_endpoint_xfer_continue+0x138>
10005cf0:	8a63      	ldrh	r3, [r4, #18]
10005cf2:	2b00      	cmp	r3, #0
10005cf4:	d0f1      	beq.n	10005cda <hw_endpoint_xfer_continue+0x36>
10005cf6:	6862      	ldr	r2, [r4, #4]
10005cf8:	1c1f      	adds	r7, r3, #0
10005cfa:	6816      	ldr	r6, [r2, #0]
10005cfc:	428b      	cmp	r3, r1
10005cfe:	d900      	bls.n	10005d02 <hw_endpoint_xfer_continue+0x5e>
10005d00:	1c0f      	adds	r7, r1, #0
10005d02:	2580      	movs	r5, #128	; 0x80
10005d04:	b2bf      	uxth	r7, r7
10005d06:	1bdb      	subs	r3, r3, r7
10005d08:	78e2      	ldrb	r2, [r4, #3]
10005d0a:	b29b      	uxth	r3, r3
10005d0c:	00ed      	lsls	r5, r5, #3
10005d0e:	8263      	strh	r3, [r4, #18]
10005d10:	433d      	orrs	r5, r7
10005d12:	2a00      	cmp	r2, #0
10005d14:	d002      	beq.n	10005d1c <hw_endpoint_xfer_continue+0x78>
10005d16:	2590      	movs	r5, #144	; 0x90
10005d18:	01ad      	lsls	r5, r5, #6
10005d1a:	433d      	orrs	r5, r7
10005d1c:	2101      	movs	r1, #1
10005d1e:	404a      	eors	r2, r1
10005d20:	70e2      	strb	r2, [r4, #3]
10005d22:	7862      	ldrb	r2, [r4, #1]
10005d24:	2a00      	cmp	r2, #0
10005d26:	d068      	beq.n	10005dfa <hw_endpoint_xfer_continue+0x156>
10005d28:	2b00      	cmp	r3, #0
10005d2a:	d12a      	bne.n	10005d82 <hw_endpoint_xfer_continue+0xde>
10005d2c:	23a0      	movs	r3, #160	; 0xa0
10005d2e:	01db      	lsls	r3, r3, #7
10005d30:	431d      	orrs	r5, r3
10005d32:	4b4f      	ldr	r3, [pc, #316]	; (10005e70 <hw_endpoint_xfer_continue+0x1cc>)
10005d34:	6c1b      	ldr	r3, [r3, #64]	; 0x40
10005d36:	4b4f      	ldr	r3, [pc, #316]	; (10005e74 <hw_endpoint_xfer_continue+0x1d0>)
10005d38:	4033      	ands	r3, r6
10005d3a:	2680      	movs	r6, #128	; 0x80
10005d3c:	05b6      	lsls	r6, r6, #22
10005d3e:	431e      	orrs	r6, r3
10005d40:	6863      	ldr	r3, [r4, #4]
10005d42:	68a2      	ldr	r2, [r4, #8]
10005d44:	601e      	str	r6, [r3, #0]
10005d46:	6813      	ldr	r3, [r2, #0]
10005d48:	055b      	lsls	r3, r3, #21
10005d4a:	d500      	bpl.n	10005d4e <hw_endpoint_xfer_continue+0xaa>
10005d4c:	e08d      	b.n	10005e6a <hw_endpoint_xfer_continue+0x1c6>
10005d4e:	4b4a      	ldr	r3, [pc, #296]	; (10005e78 <hw_endpoint_xfer_continue+0x1d4>)
10005d50:	402b      	ands	r3, r5
10005d52:	6013      	str	r3, [r2, #0]
10005d54:	e7ff      	b.n	10005d56 <hw_endpoint_xfer_continue+0xb2>
10005d56:	e7ff      	b.n	10005d58 <hw_endpoint_xfer_continue+0xb4>
10005d58:	e7ff      	b.n	10005d5a <hw_endpoint_xfer_continue+0xb6>
10005d5a:	e7ff      	b.n	10005d5c <hw_endpoint_xfer_continue+0xb8>
10005d5c:	e7ff      	b.n	10005d5e <hw_endpoint_xfer_continue+0xba>
10005d5e:	e7ff      	b.n	10005d60 <hw_endpoint_xfer_continue+0xbc>
10005d60:	68a3      	ldr	r3, [r4, #8]
10005d62:	2600      	movs	r6, #0
10005d64:	601d      	str	r5, [r3, #0]
10005d66:	e7b8      	b.n	10005cda <hw_endpoint_xfer_continue+0x36>
10005d68:	002a      	movs	r2, r5
10005d6a:	68c1      	ldr	r1, [r0, #12]
10005d6c:	6980      	ldr	r0, [r0, #24]
10005d6e:	f7fe ffbf 	bl	10004cf0 <__wrap___aeabi_memcpy>
10005d72:	8aa3      	ldrh	r3, [r4, #20]
10005d74:	69a2      	ldr	r2, [r4, #24]
10005d76:	18eb      	adds	r3, r5, r3
10005d78:	b29b      	uxth	r3, r3
10005d7a:	1952      	adds	r2, r2, r5
10005d7c:	82a3      	strh	r3, [r4, #20]
10005d7e:	61a2      	str	r2, [r4, #24]
10005d80:	e7a4      	b.n	10005ccc <hw_endpoint_xfer_continue+0x28>
10005d82:	2280      	movs	r2, #128	; 0x80
10005d84:	0152      	lsls	r2, r2, #5
10005d86:	4315      	orrs	r5, r2
10005d88:	4a39      	ldr	r2, [pc, #228]	; (10005e70 <hw_endpoint_xfer_continue+0x1cc>)
10005d8a:	6c12      	ldr	r2, [r2, #64]	; 0x40
10005d8c:	0792      	lsls	r2, r2, #30
10005d8e:	d403      	bmi.n	10005d98 <hw_endpoint_xfer_continue+0xf4>
10005d90:	78a2      	ldrb	r2, [r4, #2]
10005d92:	09d2      	lsrs	r2, r2, #7
10005d94:	2a01      	cmp	r2, #1
10005d96:	d1ce      	bne.n	10005d36 <hw_endpoint_xfer_continue+0x92>
10005d98:	8ba2      	ldrh	r2, [r4, #28]
10005d9a:	1c11      	adds	r1, r2, #0
10005d9c:	429a      	cmp	r2, r3
10005d9e:	d83f      	bhi.n	10005e20 <hw_endpoint_xfer_continue+0x17c>
10005da0:	2780      	movs	r7, #128	; 0x80
10005da2:	b28a      	uxth	r2, r1
10005da4:	00ff      	lsls	r7, r7, #3
10005da6:	1a9b      	subs	r3, r3, r2
10005da8:	4690      	mov	r8, r2
10005daa:	4317      	orrs	r7, r2
10005dac:	78e2      	ldrb	r2, [r4, #3]
10005dae:	b29b      	uxth	r3, r3
10005db0:	8263      	strh	r3, [r4, #18]
10005db2:	2a00      	cmp	r2, #0
10005db4:	d12f      	bne.n	10005e16 <hw_endpoint_xfer_continue+0x172>
10005db6:	2101      	movs	r1, #1
10005db8:	404a      	eors	r2, r1
10005dba:	70e2      	strb	r2, [r4, #3]
10005dbc:	7862      	ldrb	r2, [r4, #1]
10005dbe:	2a00      	cmp	r2, #0
10005dc0:	d03e      	beq.n	10005e40 <hw_endpoint_xfer_continue+0x19c>
10005dc2:	2b00      	cmp	r3, #0
10005dc4:	d102      	bne.n	10005dcc <hw_endpoint_xfer_continue+0x128>
10005dc6:	2380      	movs	r3, #128	; 0x80
10005dc8:	01db      	lsls	r3, r3, #7
10005dca:	431f      	orrs	r7, r3
10005dcc:	4b2b      	ldr	r3, [pc, #172]	; (10005e7c <hw_endpoint_xfer_continue+0x1d8>)
10005dce:	043f      	lsls	r7, r7, #16
10005dd0:	4033      	ands	r3, r6
10005dd2:	26a0      	movs	r6, #160	; 0xa0
10005dd4:	05f6      	lsls	r6, r6, #23
10005dd6:	433d      	orrs	r5, r7
10005dd8:	431e      	orrs	r6, r3
10005dda:	e7b1      	b.n	10005d40 <hw_endpoint_xfer_continue+0x9c>
10005ddc:	68a2      	ldr	r2, [r4, #8]
10005dde:	6815      	ldr	r5, [r2, #0]
10005de0:	7862      	ldrb	r2, [r4, #1]
10005de2:	01ad      	lsls	r5, r5, #6
10005de4:	0dad      	lsrs	r5, r5, #22
10005de6:	2a00      	cmp	r2, #0
10005de8:	d11c      	bne.n	10005e24 <hw_endpoint_xfer_continue+0x180>
10005dea:	18eb      	adds	r3, r5, r3
10005dec:	82a3      	strh	r3, [r4, #20]
10005dee:	428d      	cmp	r5, r1
10005df0:	d300      	bcc.n	10005df4 <hw_endpoint_xfer_continue+0x150>
10005df2:	e77d      	b.n	10005cf0 <hw_endpoint_xfer_continue+0x4c>
10005df4:	2300      	movs	r3, #0
10005df6:	8263      	strh	r3, [r4, #18]
10005df8:	e76f      	b.n	10005cda <hw_endpoint_xfer_continue+0x36>
10005dfa:	003a      	movs	r2, r7
10005dfc:	69a1      	ldr	r1, [r4, #24]
10005dfe:	68e0      	ldr	r0, [r4, #12]
10005e00:	f7fe ff76 	bl	10004cf0 <__wrap___aeabi_memcpy>
10005e04:	69a3      	ldr	r3, [r4, #24]
10005e06:	469c      	mov	ip, r3
10005e08:	2380      	movs	r3, #128	; 0x80
10005e0a:	4467      	add	r7, ip
10005e0c:	021b      	lsls	r3, r3, #8
10005e0e:	431d      	orrs	r5, r3
10005e10:	61a7      	str	r7, [r4, #24]
10005e12:	8a63      	ldrh	r3, [r4, #18]
10005e14:	e788      	b.n	10005d28 <hw_endpoint_xfer_continue+0x84>
10005e16:	2790      	movs	r7, #144	; 0x90
10005e18:	4641      	mov	r1, r8
10005e1a:	01bf      	lsls	r7, r7, #6
10005e1c:	430f      	orrs	r7, r1
10005e1e:	e7ca      	b.n	10005db6 <hw_endpoint_xfer_continue+0x112>
10005e20:	1c19      	adds	r1, r3, #0
10005e22:	e7bd      	b.n	10005da0 <hw_endpoint_xfer_continue+0xfc>
10005e24:	68e1      	ldr	r1, [r4, #12]
10005e26:	002a      	movs	r2, r5
10005e28:	3140      	adds	r1, #64	; 0x40
10005e2a:	69a0      	ldr	r0, [r4, #24]
10005e2c:	f7fe ff60 	bl	10004cf0 <__wrap___aeabi_memcpy>
10005e30:	8aa3      	ldrh	r3, [r4, #20]
10005e32:	8ba1      	ldrh	r1, [r4, #28]
10005e34:	18eb      	adds	r3, r5, r3
10005e36:	82a3      	strh	r3, [r4, #20]
10005e38:	69a3      	ldr	r3, [r4, #24]
10005e3a:	195b      	adds	r3, r3, r5
10005e3c:	61a3      	str	r3, [r4, #24]
10005e3e:	e7d6      	b.n	10005dee <hw_endpoint_xfer_continue+0x14a>
10005e40:	68e0      	ldr	r0, [r4, #12]
10005e42:	4642      	mov	r2, r8
10005e44:	69a1      	ldr	r1, [r4, #24]
10005e46:	3040      	adds	r0, #64	; 0x40
10005e48:	f7fe ff52 	bl	10004cf0 <__wrap___aeabi_memcpy>
10005e4c:	69a3      	ldr	r3, [r4, #24]
10005e4e:	4443      	add	r3, r8
10005e50:	61a3      	str	r3, [r4, #24]
10005e52:	2380      	movs	r3, #128	; 0x80
10005e54:	021b      	lsls	r3, r3, #8
10005e56:	431f      	orrs	r7, r3
10005e58:	8a63      	ldrh	r3, [r4, #18]
10005e5a:	e7b2      	b.n	10005dc2 <hw_endpoint_xfer_continue+0x11e>
10005e5c:	237f      	movs	r3, #127	; 0x7f
10005e5e:	7881      	ldrb	r1, [r0, #2]
10005e60:	4a07      	ldr	r2, [pc, #28]	; (10005e80 <hw_endpoint_xfer_continue+0x1dc>)
10005e62:	4808      	ldr	r0, [pc, #32]	; (10005e84 <hw_endpoint_xfer_continue+0x1e0>)
10005e64:	4019      	ands	r1, r3
10005e66:	f7fc fa25 	bl	100022b4 <panic>
10005e6a:	78a0      	ldrb	r0, [r4, #2]
10005e6c:	f7ff fe22 	bl	10005ab4 <_hw_endpoint_buffer_control_update32.part.0.isra.0>
10005e70:	50110000 	.word	0x50110000
10005e74:	afffffff 	.word	0xafffffff
10005e78:	fffffbff 	.word	0xfffffbff
10005e7c:	dfffffff 	.word	0xdfffffff
10005e80:	20000434 	.word	0x20000434
10005e84:	1000ba50 	.word	0x1000ba50

10005e88 <tud_mounted>:
10005e88:	4b02      	ldr	r3, [pc, #8]	; (10005e94 <tud_mounted+0xc>)
10005e8a:	7858      	ldrb	r0, [r3, #1]
10005e8c:	1e43      	subs	r3, r0, #1
10005e8e:	4198      	sbcs	r0, r3
10005e90:	b2c0      	uxtb	r0, r0
10005e92:	4770      	bx	lr
10005e94:	20001504 	.word	0x20001504

10005e98 <tud_suspended>:
10005e98:	4b02      	ldr	r3, [pc, #8]	; (10005ea4 <tud_suspended+0xc>)
10005e9a:	7818      	ldrb	r0, [r3, #0]
10005e9c:	0740      	lsls	r0, r0, #29
10005e9e:	0fc0      	lsrs	r0, r0, #31
10005ea0:	4770      	bx	lr
10005ea2:	46c0      	nop			; (mov r8, r8)
10005ea4:	20001504 	.word	0x20001504

10005ea8 <tud_inited>:
10005ea8:	4b01      	ldr	r3, [pc, #4]	; (10005eb0 <tud_inited+0x8>)
10005eaa:	7818      	ldrb	r0, [r3, #0]
10005eac:	4770      	bx	lr
10005eae:	46c0      	nop			; (mov r8, r8)
10005eb0:	20001c59 	.word	0x20001c59

10005eb4 <tud_init>:
10005eb4:	b5f8      	push	{r3, r4, r5, r6, r7, lr}
10005eb6:	4647      	mov	r7, r8
10005eb8:	46ce      	mov	lr, r9
10005eba:	b580      	push	{r7, lr}
10005ebc:	4f29      	ldr	r7, [pc, #164]	; (10005f64 <tud_init+0xb0>)
10005ebe:	0005      	movs	r5, r0
10005ec0:	783b      	ldrb	r3, [r7, #0]
10005ec2:	2b00      	cmp	r3, #0
10005ec4:	d004      	beq.n	10005ed0 <tud_init+0x1c>
10005ec6:	2001      	movs	r0, #1
10005ec8:	bcc0      	pop	{r6, r7}
10005eca:	46b9      	mov	r9, r7
10005ecc:	46b0      	mov	r8, r6
10005ece:	bdf8      	pop	{r3, r4, r5, r6, r7, pc}
10005ed0:	2253      	movs	r2, #83	; 0x53
10005ed2:	2100      	movs	r1, #0
10005ed4:	4824      	ldr	r0, [pc, #144]	; (10005f68 <tud_init+0xb4>)
10005ed6:	f7fe ff05 	bl	10004ce4 <__wrap_memset>
10005eda:	4c24      	ldr	r4, [pc, #144]	; (10005f6c <tud_init+0xb8>)
10005edc:	0020      	movs	r0, r4
10005ede:	f7fc f929 	bl	10002134 <mutex_init>
10005ee2:	4b23      	ldr	r3, [pc, #140]	; (10005f70 <tud_init+0xbc>)
10005ee4:	601c      	str	r4, [r3, #0]
10005ee6:	4c23      	ldr	r4, [pc, #140]	; (10005f74 <tud_init+0xc0>)
10005ee8:	0020      	movs	r0, r4
10005eea:	301c      	adds	r0, #28
10005eec:	f7fc f93e 	bl	1000216c <critical_section_init>
10005ef0:	0020      	movs	r0, r4
10005ef2:	f001 fca1 	bl	10007838 <tu_fifo_clear>
10005ef6:	4b20      	ldr	r3, [pc, #128]	; (10005f78 <tud_init+0xc4>)
10005ef8:	4e20      	ldr	r6, [pc, #128]	; (10005f7c <tud_init+0xc8>)
10005efa:	601c      	str	r4, [r3, #0]
10005efc:	4b20      	ldr	r3, [pc, #128]	; (10005f80 <tud_init+0xcc>)
10005efe:	4698      	mov	r8, r3
10005f00:	2b00      	cmp	r3, #0
10005f02:	d004      	beq.n	10005f0e <tud_init+0x5a>
10005f04:	0030      	movs	r0, r6
10005f06:	f7ff f95d 	bl	100051c4 <usbd_app_driver_get_cb>
10005f0a:	4b1e      	ldr	r3, [pc, #120]	; (10005f84 <tud_init+0xd0>)
10005f0c:	6018      	str	r0, [r3, #0]
10005f0e:	4642      	mov	r2, r8
10005f10:	2400      	movs	r4, #0
10005f12:	7833      	ldrb	r3, [r6, #0]
10005f14:	2a00      	cmp	r2, #0
10005f16:	d01d      	beq.n	10005f54 <tud_init+0xa0>
10005f18:	4a1b      	ldr	r2, [pc, #108]	; (10005f88 <tud_init+0xd4>)
10005f1a:	4690      	mov	r8, r2
10005f1c:	4a19      	ldr	r2, [pc, #100]	; (10005f84 <tud_init+0xd0>)
10005f1e:	4691      	mov	r9, r2
10005f20:	429c      	cmp	r4, r3
10005f22:	d310      	bcc.n	10005f46 <tud_init+0x92>
10005f24:	d11b      	bne.n	10005f5e <tud_init+0xaa>
10005f26:	4643      	mov	r3, r8
10005f28:	4798      	blx	r3
10005f2a:	3401      	adds	r4, #1
10005f2c:	7833      	ldrb	r3, [r6, #0]
10005f2e:	b2e4      	uxtb	r4, r4
10005f30:	42a3      	cmp	r3, r4
10005f32:	d2f5      	bcs.n	10005f20 <tud_init+0x6c>
10005f34:	0028      	movs	r0, r5
10005f36:	f7ff fbf1 	bl	1000571c <dcd_init>
10005f3a:	0028      	movs	r0, r5
10005f3c:	f7ff fbd6 	bl	100056ec <dcd_int_enable>
10005f40:	2301      	movs	r3, #1
10005f42:	703b      	strb	r3, [r7, #0]
10005f44:	e7bf      	b.n	10005ec6 <tud_init+0x12>
10005f46:	464a      	mov	r2, r9
10005f48:	0063      	lsls	r3, r4, #1
10005f4a:	6812      	ldr	r2, [r2, #0]
10005f4c:	191b      	adds	r3, r3, r4
10005f4e:	00db      	lsls	r3, r3, #3
10005f50:	589b      	ldr	r3, [r3, r2]
10005f52:	e7e9      	b.n	10005f28 <tud_init+0x74>
10005f54:	f001 f84a 	bl	10006fec <cdcd_init>
10005f58:	7833      	ldrb	r3, [r6, #0]
10005f5a:	2b00      	cmp	r3, #0
10005f5c:	d0ea      	beq.n	10005f34 <tud_init+0x80>
10005f5e:	2300      	movs	r3, #0
10005f60:	681b      	ldr	r3, [r3, #0]
10005f62:	deff      	udf	#255	; 0xff
10005f64:	20001c59 	.word	0x20001c59
10005f68:	20001504 	.word	0x20001504
10005f6c:	200014bc 	.word	0x200014bc
10005f70:	20001558 	.word	0x20001558
10005f74:	2000043c 	.word	0x2000043c
10005f78:	2000155c 	.word	0x2000155c
10005f7c:	20001c58 	.word	0x20001c58
10005f80:	100051c5 	.word	0x100051c5
10005f84:	200011cc 	.word	0x200011cc
10005f88:	10006fed 	.word	0x10006fed

10005f8c <tud_task>:
10005f8c:	b5f0      	push	{r4, r5, r6, r7, lr}
10005f8e:	46de      	mov	lr, fp
10005f90:	4657      	mov	r7, sl
10005f92:	464e      	mov	r6, r9
10005f94:	4645      	mov	r5, r8
10005f96:	b5e0      	push	{r5, r6, r7, lr}
10005f98:	b08b      	sub	sp, #44	; 0x2c
10005f9a:	f001 fa09 	bl	100073b0 <tusb_inited>
10005f9e:	2800      	cmp	r0, #0
10005fa0:	d100      	bne.n	10005fa4 <tud_task+0x18>
10005fa2:	e144      	b.n	1000622e <tud_task+0x2a2>
10005fa4:	4bc2      	ldr	r3, [pc, #776]	; (100062b0 <tud_task+0x324>)
10005fa6:	4ec3      	ldr	r6, [pc, #780]	; (100062b4 <tud_task+0x328>)
10005fa8:	469b      	mov	fp, r3
10005faa:	ac07      	add	r4, sp, #28
10005fac:	6835      	ldr	r5, [r6, #0]
10005fae:	69ea      	ldr	r2, [r5, #28]
10005fb0:	f3ef 8110 	mrs	r1, PRIMASK
10005fb4:	b672      	cpsid	i
10005fb6:	6813      	ldr	r3, [r2, #0]
10005fb8:	2b00      	cmp	r3, #0
10005fba:	d0fc      	beq.n	10005fb6 <tud_task+0x2a>
10005fbc:	f3bf 8f5f 	dmb	sy
10005fc0:	6229      	str	r1, [r5, #32]
10005fc2:	0028      	movs	r0, r5
10005fc4:	0021      	movs	r1, r4
10005fc6:	f001 faab 	bl	10007520 <tu_fifo_read>
10005fca:	69ea      	ldr	r2, [r5, #28]
10005fcc:	6a2b      	ldr	r3, [r5, #32]
10005fce:	f3bf 8f5f 	dmb	sy
10005fd2:	2100      	movs	r1, #0
10005fd4:	6011      	str	r1, [r2, #0]
10005fd6:	f383 8810 	msr	PRIMASK, r3
10005fda:	2800      	cmp	r0, #0
10005fdc:	d100      	bne.n	10005fe0 <tud_task+0x54>
10005fde:	e126      	b.n	1000622e <tud_task+0x2a2>
10005fe0:	7863      	ldrb	r3, [r4, #1]
10005fe2:	2b08      	cmp	r3, #8
10005fe4:	d8e2      	bhi.n	10005fac <tud_task+0x20>
10005fe6:	465a      	mov	r2, fp
10005fe8:	009b      	lsls	r3, r3, #2
10005fea:	58d3      	ldr	r3, [r2, r3]
10005fec:	469f      	mov	pc, r3
10005fee:	6863      	ldr	r3, [r4, #4]
10005ff0:	2b00      	cmp	r3, #0
10005ff2:	d0db      	beq.n	10005fac <tud_task+0x20>
10005ff4:	68a0      	ldr	r0, [r4, #8]
10005ff6:	4798      	blx	r3
10005ff8:	e7d8      	b.n	10005fac <tud_task+0x20>
10005ffa:	227f      	movs	r2, #127	; 0x7f
10005ffc:	7921      	ldrb	r1, [r4, #4]
10005ffe:	4bae      	ldr	r3, [pc, #696]	; (100062b8 <tud_task+0x32c>)
10006000:	400a      	ands	r2, r1
10006002:	0055      	lsls	r5, r2, #1
10006004:	09c8      	lsrs	r0, r1, #7
10006006:	195b      	adds	r3, r3, r5
10006008:	181b      	adds	r3, r3, r0
1000600a:	0018      	movs	r0, r3
1000600c:	2701      	movs	r7, #1
1000600e:	3030      	adds	r0, #48	; 0x30
10006010:	78c5      	ldrb	r5, [r0, #3]
10006012:	43bd      	bics	r5, r7
10006014:	70c5      	strb	r5, [r0, #3]
10006016:	78c5      	ldrb	r5, [r0, #3]
10006018:	3703      	adds	r7, #3
1000601a:	43bd      	bics	r5, r7
1000601c:	70c5      	strb	r5, [r0, #3]
1000601e:	2a00      	cmp	r2, #0
10006020:	d100      	bne.n	10006024 <tud_task+0x98>
10006022:	e10b      	b.n	1000623c <tud_task+0x2b0>
10006024:	4aa5      	ldr	r2, [pc, #660]	; (100062bc <tud_task+0x330>)
10006026:	7cdb      	ldrb	r3, [r3, #19]
10006028:	2a00      	cmp	r2, #0
1000602a:	d006      	beq.n	1000603a <tud_task+0xae>
1000602c:	4aa4      	ldr	r2, [pc, #656]	; (100062c0 <tud_task+0x334>)
1000602e:	7812      	ldrb	r2, [r2, #0]
10006030:	4293      	cmp	r3, r2
10006032:	d200      	bcs.n	10006036 <tud_task+0xaa>
10006034:	e191      	b.n	1000635a <tud_task+0x3ce>
10006036:	1a9b      	subs	r3, r3, r2
10006038:	b2db      	uxtb	r3, r3
1000603a:	2b00      	cmp	r3, #0
1000603c:	d000      	beq.n	10006040 <tud_task+0xb4>
1000603e:	e0f6      	b.n	1000622e <tud_task+0x2a2>
10006040:	4da0      	ldr	r5, [pc, #640]	; (100062c4 <tud_task+0x338>)
10006042:	7962      	ldrb	r2, [r4, #5]
10006044:	7820      	ldrb	r0, [r4, #0]
10006046:	68a3      	ldr	r3, [r4, #8]
10006048:	47a8      	blx	r5
1000604a:	e7af      	b.n	10005fac <tud_task+0x20>
1000604c:	2201      	movs	r2, #1
1000604e:	4f9a      	ldr	r7, [pc, #616]	; (100062b8 <tud_task+0x32c>)
10006050:	2101      	movs	r1, #1
10006052:	783b      	ldrb	r3, [r7, #0]
10006054:	2004      	movs	r0, #4
10006056:	4313      	orrs	r3, r2
10006058:	703b      	strb	r3, [r7, #0]
1000605a:	2333      	movs	r3, #51	; 0x33
1000605c:	5cfa      	ldrb	r2, [r7, r3]
1000605e:	438a      	bics	r2, r1
10006060:	54fa      	strb	r2, [r7, r3]
10006062:	5cfa      	ldrb	r2, [r7, r3]
10006064:	4382      	bics	r2, r0
10006066:	54fa      	strb	r2, [r7, r3]
10006068:	3301      	adds	r3, #1
1000606a:	5cfa      	ldrb	r2, [r7, r3]
1000606c:	438a      	bics	r2, r1
1000606e:	54fa      	strb	r2, [r7, r3]
10006070:	5cfa      	ldrb	r2, [r7, r3]
10006072:	4382      	bics	r2, r0
10006074:	54fa      	strb	r2, [r7, r3]
10006076:	7823      	ldrb	r3, [r4, #0]
10006078:	2000      	movs	r0, #0
1000607a:	469a      	mov	sl, r3
1000607c:	f000 fe66 	bl	10006d4c <usbd_control_set_complete_callback>
10006080:	2260      	movs	r2, #96	; 0x60
10006082:	7923      	ldrb	r3, [r4, #4]
10006084:	401a      	ands	r2, r3
10006086:	2a60      	cmp	r2, #96	; 0x60
10006088:	d00d      	beq.n	100060a6 <tud_task+0x11a>
1000608a:	2a40      	cmp	r2, #64	; 0x40
1000608c:	d100      	bne.n	10006090 <tud_task+0x104>
1000608e:	e0f2      	b.n	10006276 <tud_task+0x2ea>
10006090:	06db      	lsls	r3, r3, #27
10006092:	0edb      	lsrs	r3, r3, #27
10006094:	2b01      	cmp	r3, #1
10006096:	d100      	bne.n	1000609a <tud_task+0x10e>
10006098:	e16a      	b.n	10006370 <tud_task+0x3e4>
1000609a:	2b02      	cmp	r3, #2
1000609c:	d100      	bne.n	100060a0 <tud_task+0x114>
1000609e:	e121      	b.n	100062e4 <tud_task+0x358>
100060a0:	2b00      	cmp	r3, #0
100060a2:	d100      	bne.n	100060a6 <tud_task+0x11a>
100060a4:	e0f6      	b.n	10006294 <tud_task+0x308>
100060a6:	7820      	ldrb	r0, [r4, #0]
100060a8:	2100      	movs	r1, #0
100060aa:	f7ff fccf 	bl	10005a4c <dcd_edpt_stall>
100060ae:	2180      	movs	r1, #128	; 0x80
100060b0:	7820      	ldrb	r0, [r4, #0]
100060b2:	f7ff fccb 	bl	10005a4c <dcd_edpt_stall>
100060b6:	e779      	b.n	10005fac <tud_task+0x20>
100060b8:	4b7f      	ldr	r3, [pc, #508]	; (100062b8 <tud_task+0x32c>)
100060ba:	781b      	ldrb	r3, [r3, #0]
100060bc:	07db      	lsls	r3, r3, #31
100060be:	d400      	bmi.n	100060c2 <tud_task+0x136>
100060c0:	e774      	b.n	10005fac <tud_task+0x20>
100060c2:	4b81      	ldr	r3, [pc, #516]	; (100062c8 <tud_task+0x33c>)
100060c4:	2b00      	cmp	r3, #0
100060c6:	d100      	bne.n	100060ca <tud_task+0x13e>
100060c8:	e770      	b.n	10005fac <tud_task+0x20>
100060ca:	e000      	b.n	100060ce <tud_task+0x142>
100060cc:	bf00      	nop
100060ce:	e76d      	b.n	10005fac <tud_task+0x20>
100060d0:	4b79      	ldr	r3, [pc, #484]	; (100062b8 <tud_task+0x32c>)
100060d2:	781a      	ldrb	r2, [r3, #0]
100060d4:	07d2      	lsls	r2, r2, #31
100060d6:	d400      	bmi.n	100060da <tud_task+0x14e>
100060d8:	e768      	b.n	10005fac <tud_task+0x20>
100060da:	4a7c      	ldr	r2, [pc, #496]	; (100062cc <tud_task+0x340>)
100060dc:	2a00      	cmp	r2, #0
100060de:	d100      	bne.n	100060e2 <tud_task+0x156>
100060e0:	e764      	b.n	10005fac <tud_task+0x20>
100060e2:	7818      	ldrb	r0, [r3, #0]
100060e4:	0700      	lsls	r0, r0, #28
100060e6:	0fc0      	lsrs	r0, r0, #31
100060e8:	e000      	b.n	100060ec <tud_task+0x160>
100060ea:	bf00      	nop
100060ec:	e75e      	b.n	10005fac <tud_task+0x20>
100060ee:	4d74      	ldr	r5, [pc, #464]	; (100062c0 <tud_task+0x334>)
100060f0:	4a72      	ldr	r2, [pc, #456]	; (100062bc <tud_task+0x330>)
100060f2:	2700      	movs	r7, #0
100060f4:	782b      	ldrb	r3, [r5, #0]
100060f6:	2a00      	cmp	r2, #0
100060f8:	d100      	bne.n	100060fc <tud_task+0x170>
100060fa:	e0b6      	b.n	1000626a <tud_task+0x2de>
100060fc:	4a74      	ldr	r2, [pc, #464]	; (100062d0 <tud_task+0x344>)
100060fe:	4690      	mov	r8, r2
10006100:	429f      	cmp	r7, r3
10006102:	d308      	bcc.n	10006116 <tud_task+0x18a>
10006104:	429f      	cmp	r7, r3
10006106:	d000      	beq.n	1000610a <tud_task+0x17e>
10006108:	e0b2      	b.n	10006270 <tud_task+0x2e4>
1000610a:	3701      	adds	r7, #1
1000610c:	b2ff      	uxtb	r7, r7
1000610e:	429f      	cmp	r7, r3
10006110:	d900      	bls.n	10006114 <tud_task+0x188>
10006112:	e74b      	b.n	10005fac <tud_task+0x20>
10006114:	d2f6      	bcs.n	10006104 <tud_task+0x178>
10006116:	4641      	mov	r1, r8
10006118:	6809      	ldr	r1, [r1, #0]
1000611a:	007a      	lsls	r2, r7, #1
1000611c:	468c      	mov	ip, r1
1000611e:	19d2      	adds	r2, r2, r7
10006120:	00d2      	lsls	r2, r2, #3
10006122:	4462      	add	r2, ip
10006124:	6952      	ldr	r2, [r2, #20]
10006126:	2a00      	cmp	r2, #0
10006128:	d0ef      	beq.n	1000610a <tud_task+0x17e>
1000612a:	7820      	ldrb	r0, [r4, #0]
1000612c:	4790      	blx	r2
1000612e:	3701      	adds	r7, #1
10006130:	782b      	ldrb	r3, [r5, #0]
10006132:	b2ff      	uxtb	r7, r7
10006134:	429f      	cmp	r7, r3
10006136:	d9e3      	bls.n	10006100 <tud_task+0x174>
10006138:	e738      	b.n	10005fac <tud_task+0x20>
1000613a:	7823      	ldrb	r3, [r4, #0]
1000613c:	4d60      	ldr	r5, [pc, #384]	; (100062c0 <tud_task+0x334>)
1000613e:	4a5f      	ldr	r2, [pc, #380]	; (100062bc <tud_task+0x330>)
10006140:	4698      	mov	r8, r3
10006142:	2700      	movs	r7, #0
10006144:	782b      	ldrb	r3, [r5, #0]
10006146:	2a00      	cmp	r2, #0
10006148:	d100      	bne.n	1000614c <tud_task+0x1c0>
1000614a:	e086      	b.n	1000625a <tud_task+0x2ce>
1000614c:	4a61      	ldr	r2, [pc, #388]	; (100062d4 <tud_task+0x348>)
1000614e:	4691      	mov	r9, r2
10006150:	4a5f      	ldr	r2, [pc, #380]	; (100062d0 <tud_task+0x344>)
10006152:	4692      	mov	sl, r2
10006154:	002a      	movs	r2, r5
10006156:	4645      	mov	r5, r8
10006158:	4690      	mov	r8, r2
1000615a:	42bb      	cmp	r3, r7
1000615c:	d85e      	bhi.n	1000621c <tud_task+0x290>
1000615e:	d000      	beq.n	10006162 <tud_task+0x1d6>
10006160:	e078      	b.n	10006254 <tud_task+0x2c8>
10006162:	464b      	mov	r3, r9
10006164:	0028      	movs	r0, r5
10006166:	4798      	blx	r3
10006168:	4643      	mov	r3, r8
1000616a:	3701      	adds	r7, #1
1000616c:	781b      	ldrb	r3, [r3, #0]
1000616e:	b2ff      	uxtb	r7, r7
10006170:	42bb      	cmp	r3, r7
10006172:	d2f2      	bcs.n	1000615a <tud_task+0x1ce>
10006174:	4d50      	ldr	r5, [pc, #320]	; (100062b8 <tud_task+0x32c>)
10006176:	2253      	movs	r2, #83	; 0x53
10006178:	2100      	movs	r1, #0
1000617a:	0028      	movs	r0, r5
1000617c:	f7fe fdb2 	bl	10004ce4 <__wrap_memset>
10006180:	2210      	movs	r2, #16
10006182:	21ff      	movs	r1, #255	; 0xff
10006184:	1ce8      	adds	r0, r5, #3
10006186:	f7fe fdad 	bl	10004ce4 <__wrap_memset>
1000618a:	0028      	movs	r0, r5
1000618c:	2220      	movs	r2, #32
1000618e:	21ff      	movs	r1, #255	; 0xff
10006190:	3013      	adds	r0, #19
10006192:	f7fe fda7 	bl	10004ce4 <__wrap_memset>
10006196:	f000 fdcf 	bl	10006d38 <usbd_control_reset>
1000619a:	4b4f      	ldr	r3, [pc, #316]	; (100062d8 <tud_task+0x34c>)
1000619c:	2b00      	cmp	r3, #0
1000619e:	d100      	bne.n	100061a2 <tud_task+0x216>
100061a0:	e704      	b.n	10005fac <tud_task+0x20>
100061a2:	e000      	b.n	100061a6 <tud_task+0x21a>
100061a4:	bf00      	nop
100061a6:	e701      	b.n	10005fac <tud_task+0x20>
100061a8:	7823      	ldrb	r3, [r4, #0]
100061aa:	4d45      	ldr	r5, [pc, #276]	; (100062c0 <tud_task+0x334>)
100061ac:	4a43      	ldr	r2, [pc, #268]	; (100062bc <tud_task+0x330>)
100061ae:	4698      	mov	r8, r3
100061b0:	2700      	movs	r7, #0
100061b2:	782b      	ldrb	r3, [r5, #0]
100061b4:	2a00      	cmp	r2, #0
100061b6:	d047      	beq.n	10006248 <tud_task+0x2bc>
100061b8:	4a46      	ldr	r2, [pc, #280]	; (100062d4 <tud_task+0x348>)
100061ba:	4691      	mov	r9, r2
100061bc:	4a44      	ldr	r2, [pc, #272]	; (100062d0 <tud_task+0x344>)
100061be:	4692      	mov	sl, r2
100061c0:	002a      	movs	r2, r5
100061c2:	4645      	mov	r5, r8
100061c4:	4690      	mov	r8, r2
100061c6:	429f      	cmp	r7, r3
100061c8:	d31f      	bcc.n	1000620a <tud_task+0x27e>
100061ca:	d143      	bne.n	10006254 <tud_task+0x2c8>
100061cc:	464b      	mov	r3, r9
100061ce:	0028      	movs	r0, r5
100061d0:	4798      	blx	r3
100061d2:	4643      	mov	r3, r8
100061d4:	3701      	adds	r7, #1
100061d6:	781b      	ldrb	r3, [r3, #0]
100061d8:	b2ff      	uxtb	r7, r7
100061da:	42bb      	cmp	r3, r7
100061dc:	d2f3      	bcs.n	100061c6 <tud_task+0x23a>
100061de:	4d36      	ldr	r5, [pc, #216]	; (100062b8 <tud_task+0x32c>)
100061e0:	2253      	movs	r2, #83	; 0x53
100061e2:	2100      	movs	r1, #0
100061e4:	0028      	movs	r0, r5
100061e6:	f7fe fd7d 	bl	10004ce4 <__wrap_memset>
100061ea:	2210      	movs	r2, #16
100061ec:	21ff      	movs	r1, #255	; 0xff
100061ee:	1ce8      	adds	r0, r5, #3
100061f0:	f7fe fd78 	bl	10004ce4 <__wrap_memset>
100061f4:	0028      	movs	r0, r5
100061f6:	2220      	movs	r2, #32
100061f8:	21ff      	movs	r1, #255	; 0xff
100061fa:	3013      	adds	r0, #19
100061fc:	f7fe fd72 	bl	10004ce4 <__wrap_memset>
10006200:	f000 fd9a 	bl	10006d38 <usbd_control_reset>
10006204:	7923      	ldrb	r3, [r4, #4]
10006206:	70ab      	strb	r3, [r5, #2]
10006208:	e6d0      	b.n	10005fac <tud_task+0x20>
1000620a:	4652      	mov	r2, sl
1000620c:	6812      	ldr	r2, [r2, #0]
1000620e:	007b      	lsls	r3, r7, #1
10006210:	4694      	mov	ip, r2
10006212:	19db      	adds	r3, r3, r7
10006214:	00db      	lsls	r3, r3, #3
10006216:	4463      	add	r3, ip
10006218:	685b      	ldr	r3, [r3, #4]
1000621a:	e7d8      	b.n	100061ce <tud_task+0x242>
1000621c:	4652      	mov	r2, sl
1000621e:	6812      	ldr	r2, [r2, #0]
10006220:	007b      	lsls	r3, r7, #1
10006222:	4694      	mov	ip, r2
10006224:	19db      	adds	r3, r3, r7
10006226:	00db      	lsls	r3, r3, #3
10006228:	4463      	add	r3, ip
1000622a:	685b      	ldr	r3, [r3, #4]
1000622c:	e79a      	b.n	10006164 <tud_task+0x1d8>
1000622e:	b00b      	add	sp, #44	; 0x2c
10006230:	bcf0      	pop	{r4, r5, r6, r7}
10006232:	46bb      	mov	fp, r7
10006234:	46b2      	mov	sl, r6
10006236:	46a9      	mov	r9, r5
10006238:	46a0      	mov	r8, r4
1000623a:	bdf0      	pop	{r4, r5, r6, r7, pc}
1000623c:	7962      	ldrb	r2, [r4, #5]
1000623e:	7820      	ldrb	r0, [r4, #0]
10006240:	68a3      	ldr	r3, [r4, #8]
10006242:	f000 fd97 	bl	10006d74 <usbd_control_xfer_cb>
10006246:	e6b1      	b.n	10005fac <tud_task+0x20>
10006248:	4640      	mov	r0, r8
1000624a:	f000 ff0d 	bl	10007068 <cdcd_reset>
1000624e:	782b      	ldrb	r3, [r5, #0]
10006250:	2b00      	cmp	r3, #0
10006252:	d0c4      	beq.n	100061de <tud_task+0x252>
10006254:	2300      	movs	r3, #0
10006256:	685b      	ldr	r3, [r3, #4]
10006258:	deff      	udf	#255	; 0xff
1000625a:	4640      	mov	r0, r8
1000625c:	f000 ff04 	bl	10007068 <cdcd_reset>
10006260:	782b      	ldrb	r3, [r5, #0]
10006262:	2b00      	cmp	r3, #0
10006264:	d100      	bne.n	10006268 <tud_task+0x2dc>
10006266:	e785      	b.n	10006174 <tud_task+0x1e8>
10006268:	e7f4      	b.n	10006254 <tud_task+0x2c8>
1000626a:	2b00      	cmp	r3, #0
1000626c:	d100      	bne.n	10006270 <tud_task+0x2e4>
1000626e:	e69d      	b.n	10005fac <tud_task+0x20>
10006270:	2300      	movs	r3, #0
10006272:	695b      	ldr	r3, [r3, #20]
10006274:	deff      	udf	#255	; 0xff
10006276:	4819      	ldr	r0, [pc, #100]	; (100062dc <tud_task+0x350>)
10006278:	2800      	cmp	r0, #0
1000627a:	d100      	bne.n	1000627e <tud_task+0x2f2>
1000627c:	e713      	b.n	100060a6 <tud_task+0x11a>
1000627e:	f000 fd65 	bl	10006d4c <usbd_control_set_complete_callback>
10006282:	2100      	movs	r1, #0
10006284:	4650      	mov	r0, sl
10006286:	aa08      	add	r2, sp, #32
10006288:	e000      	b.n	1000628c <tud_task+0x300>
1000628a:	bf00      	nop
1000628c:	2800      	cmp	r0, #0
1000628e:	d000      	beq.n	10006292 <tud_task+0x306>
10006290:	e68c      	b.n	10005fac <tud_task+0x20>
10006292:	e708      	b.n	100060a6 <tud_task+0x11a>
10006294:	2a20      	cmp	r2, #32
10006296:	d100      	bne.n	1000629a <tud_task+0x30e>
10006298:	e09f      	b.n	100063da <tud_task+0x44e>
1000629a:	2a00      	cmp	r2, #0
1000629c:	d000      	beq.n	100062a0 <tud_task+0x314>
1000629e:	e702      	b.n	100060a6 <tud_task+0x11a>
100062a0:	7963      	ldrb	r3, [r4, #5]
100062a2:	2b09      	cmp	r3, #9
100062a4:	d900      	bls.n	100062a8 <tud_task+0x31c>
100062a6:	e6fe      	b.n	100060a6 <tud_task+0x11a>
100062a8:	4a0d      	ldr	r2, [pc, #52]	; (100062e0 <tud_task+0x354>)
100062aa:	009b      	lsls	r3, r3, #2
100062ac:	58d3      	ldr	r3, [r2, r3]
100062ae:	469f      	mov	pc, r3
100062b0:	1000ba84 	.word	0x1000ba84
100062b4:	2000155c 	.word	0x2000155c
100062b8:	20001504 	.word	0x20001504
100062bc:	100051c5 	.word	0x100051c5
100062c0:	20001c58 	.word	0x20001c58
100062c4:	1000725d 	.word	0x1000725d
	...
100062d0:	200011cc 	.word	0x200011cc
100062d4:	10007069 	.word	0x10007069
	...
100062e0:	1000baa8 	.word	0x1000baa8
100062e4:	2370      	movs	r3, #112	; 0x70
100062e6:	7a21      	ldrb	r1, [r4, #8]
100062e8:	420b      	tst	r3, r1
100062ea:	d000      	beq.n	100062ee <tud_task+0x362>
100062ec:	e6db      	b.n	100060a6 <tud_task+0x11a>
100062ee:	330f      	adds	r3, #15
100062f0:	400b      	ands	r3, r1
100062f2:	005b      	lsls	r3, r3, #1
100062f4:	18f8      	adds	r0, r7, r3
100062f6:	09cd      	lsrs	r5, r1, #7
100062f8:	9300      	str	r3, [sp, #0]
100062fa:	4bc1      	ldr	r3, [pc, #772]	; (10006600 <tud_task+0x674>)
100062fc:	1940      	adds	r0, r0, r5
100062fe:	7cc0      	ldrb	r0, [r0, #19]
10006300:	2b00      	cmp	r3, #0
10006302:	d006      	beq.n	10006312 <tud_task+0x386>
10006304:	4bbf      	ldr	r3, [pc, #764]	; (10006604 <tud_task+0x678>)
10006306:	781b      	ldrb	r3, [r3, #0]
10006308:	4298      	cmp	r0, r3
1000630a:	d200      	bcs.n	1000630e <tud_task+0x382>
1000630c:	e088      	b.n	10006420 <tud_task+0x494>
1000630e:	1ac0      	subs	r0, r0, r3
10006310:	b2c0      	uxtb	r0, r0
10006312:	2800      	cmp	r0, #0
10006314:	d17e      	bne.n	10006414 <tud_task+0x488>
10006316:	2a00      	cmp	r2, #0
10006318:	d000      	beq.n	1000631c <tud_task+0x390>
1000631a:	e115      	b.n	10006548 <tud_task+0x5bc>
1000631c:	4bba      	ldr	r3, [pc, #744]	; (10006608 <tud_task+0x67c>)
1000631e:	9301      	str	r3, [sp, #4]
10006320:	7963      	ldrb	r3, [r4, #5]
10006322:	4698      	mov	r8, r3
10006324:	2302      	movs	r3, #2
10006326:	4642      	mov	r2, r8
10006328:	4699      	mov	r9, r3
1000632a:	439a      	bics	r2, r3
1000632c:	2a01      	cmp	r2, #1
1000632e:	d100      	bne.n	10006332 <tud_task+0x3a6>
10006330:	e10e      	b.n	10006550 <tud_task+0x5c4>
10006332:	4643      	mov	r3, r8
10006334:	2b00      	cmp	r3, #0
10006336:	d000      	beq.n	1000633a <tud_task+0x3ae>
10006338:	e6b5      	b.n	100060a6 <tud_task+0x11a>
1000633a:	9b00      	ldr	r3, [sp, #0]
1000633c:	aa06      	add	r2, sp, #24
1000633e:	18fb      	adds	r3, r7, r3
10006340:	195d      	adds	r5, r3, r5
10006342:	3530      	adds	r5, #48	; 0x30
10006344:	78eb      	ldrb	r3, [r5, #3]
10006346:	3202      	adds	r2, #2
10006348:	079b      	lsls	r3, r3, #30
1000634a:	0fdb      	lsrs	r3, r3, #31
1000634c:	8013      	strh	r3, [r2, #0]
1000634e:	4650      	mov	r0, sl
10006350:	2302      	movs	r3, #2
10006352:	a908      	add	r1, sp, #32
10006354:	f000 fc92 	bl	10006c7c <tud_control_xfer>
10006358:	e628      	b.n	10005fac <tud_task+0x20>
1000635a:	005a      	lsls	r2, r3, #1
1000635c:	18d3      	adds	r3, r2, r3
1000635e:	4aab      	ldr	r2, [pc, #684]	; (1000660c <tud_task+0x680>)
10006360:	00db      	lsls	r3, r3, #3
10006362:	6812      	ldr	r2, [r2, #0]
10006364:	18d3      	adds	r3, r2, r3
10006366:	2b00      	cmp	r3, #0
10006368:	d100      	bne.n	1000636c <tud_task+0x3e0>
1000636a:	e760      	b.n	1000622e <tud_task+0x2a2>
1000636c:	691d      	ldr	r5, [r3, #16]
1000636e:	e668      	b.n	10006042 <tud_task+0xb6>
10006370:	7a23      	ldrb	r3, [r4, #8]
10006372:	2b0f      	cmp	r3, #15
10006374:	d900      	bls.n	10006378 <tud_task+0x3ec>
10006376:	e696      	b.n	100060a6 <tud_task+0x11a>
10006378:	4aa1      	ldr	r2, [pc, #644]	; (10006600 <tud_task+0x674>)
1000637a:	18fb      	adds	r3, r7, r3
1000637c:	78db      	ldrb	r3, [r3, #3]
1000637e:	2a00      	cmp	r2, #0
10006380:	d005      	beq.n	1000638e <tud_task+0x402>
10006382:	4aa0      	ldr	r2, [pc, #640]	; (10006604 <tud_task+0x678>)
10006384:	7812      	ldrb	r2, [r2, #0]
10006386:	4293      	cmp	r3, r2
10006388:	d364      	bcc.n	10006454 <tud_task+0x4c8>
1000638a:	1a9b      	subs	r3, r3, r2
1000638c:	b2db      	uxtb	r3, r3
1000638e:	2b00      	cmp	r3, #0
10006390:	d000      	beq.n	10006394 <tud_task+0x408>
10006392:	e688      	b.n	100060a6 <tud_task+0x11a>
10006394:	489e      	ldr	r0, [pc, #632]	; (10006610 <tud_task+0x684>)
10006396:	4d9c      	ldr	r5, [pc, #624]	; (10006608 <tud_task+0x67c>)
10006398:	f000 fcd8 	bl	10006d4c <usbd_control_set_complete_callback>
1000639c:	2100      	movs	r1, #0
1000639e:	4650      	mov	r0, sl
100063a0:	68eb      	ldr	r3, [r5, #12]
100063a2:	aa08      	add	r2, sp, #32
100063a4:	4798      	blx	r3
100063a6:	2800      	cmp	r0, #0
100063a8:	d000      	beq.n	100063ac <tud_task+0x420>
100063aa:	e5ff      	b.n	10005fac <tud_task+0x20>
100063ac:	2260      	movs	r2, #96	; 0x60
100063ae:	0015      	movs	r5, r2
100063b0:	7923      	ldrb	r3, [r4, #4]
100063b2:	401d      	ands	r5, r3
100063b4:	421a      	tst	r2, r3
100063b6:	d000      	beq.n	100063ba <tud_task+0x42e>
100063b8:	e675      	b.n	100060a6 <tud_task+0x11a>
100063ba:	7963      	ldrb	r3, [r4, #5]
100063bc:	3b0a      	subs	r3, #10
100063be:	2b01      	cmp	r3, #1
100063c0:	d900      	bls.n	100063c4 <tud_task+0x438>
100063c2:	e670      	b.n	100060a6 <tud_task+0x11a>
100063c4:	f000 fcc2 	bl	10006d4c <usbd_control_set_complete_callback>
100063c8:	7963      	ldrb	r3, [r4, #5]
100063ca:	2b0a      	cmp	r3, #10
100063cc:	d100      	bne.n	100063d0 <tud_task+0x444>
100063ce:	e0ee      	b.n	100065ae <tud_task+0x622>
100063d0:	4650      	mov	r0, sl
100063d2:	a908      	add	r1, sp, #32
100063d4:	f000 fc3a 	bl	10006c4c <tud_control_status>
100063d8:	e5e8      	b.n	10005fac <tud_task+0x20>
100063da:	7a23      	ldrb	r3, [r4, #8]
100063dc:	2b0f      	cmp	r3, #15
100063de:	d900      	bls.n	100063e2 <tud_task+0x456>
100063e0:	e661      	b.n	100060a6 <tud_task+0x11a>
100063e2:	4a87      	ldr	r2, [pc, #540]	; (10006600 <tud_task+0x674>)
100063e4:	18fb      	adds	r3, r7, r3
100063e6:	78db      	ldrb	r3, [r3, #3]
100063e8:	2a00      	cmp	r2, #0
100063ea:	d006      	beq.n	100063fa <tud_task+0x46e>
100063ec:	4a85      	ldr	r2, [pc, #532]	; (10006604 <tud_task+0x678>)
100063ee:	7812      	ldrb	r2, [r2, #0]
100063f0:	4293      	cmp	r3, r2
100063f2:	d200      	bcs.n	100063f6 <tud_task+0x46a>
100063f4:	e0d0      	b.n	10006598 <tud_task+0x60c>
100063f6:	1a9b      	subs	r3, r3, r2
100063f8:	b2db      	uxtb	r3, r3
100063fa:	2b00      	cmp	r3, #0
100063fc:	d000      	beq.n	10006400 <tud_task+0x474>
100063fe:	e652      	b.n	100060a6 <tud_task+0x11a>
10006400:	4883      	ldr	r0, [pc, #524]	; (10006610 <tud_task+0x684>)
10006402:	4d81      	ldr	r5, [pc, #516]	; (10006608 <tud_task+0x67c>)
10006404:	f000 fca2 	bl	10006d4c <usbd_control_set_complete_callback>
10006408:	2100      	movs	r1, #0
1000640a:	4650      	mov	r0, sl
1000640c:	68eb      	ldr	r3, [r5, #12]
1000640e:	aa08      	add	r2, sp, #32
10006410:	4798      	blx	r3
10006412:	e73b      	b.n	1000628c <tud_task+0x300>
10006414:	2a00      	cmp	r2, #0
10006416:	d000      	beq.n	1000641a <tud_task+0x48e>
10006418:	e645      	b.n	100060a6 <tud_task+0x11a>
1000641a:	2300      	movs	r3, #0
1000641c:	9301      	str	r3, [sp, #4]
1000641e:	e77f      	b.n	10006320 <tud_task+0x394>
10006420:	0043      	lsls	r3, r0, #1
10006422:	469c      	mov	ip, r3
10006424:	4b79      	ldr	r3, [pc, #484]	; (1000660c <tud_task+0x680>)
10006426:	4460      	add	r0, ip
10006428:	681b      	ldr	r3, [r3, #0]
1000642a:	00c0      	lsls	r0, r0, #3
1000642c:	469c      	mov	ip, r3
1000642e:	0003      	movs	r3, r0
10006430:	4463      	add	r3, ip
10006432:	9301      	str	r3, [sp, #4]
10006434:	2a00      	cmp	r2, #0
10006436:	d100      	bne.n	1000643a <tud_task+0x4ae>
10006438:	e772      	b.n	10006320 <tud_task+0x394>
1000643a:	2b00      	cmp	r3, #0
1000643c:	d100      	bne.n	10006440 <tud_task+0x4b4>
1000643e:	e632      	b.n	100060a6 <tud_task+0x11a>
10006440:	68d8      	ldr	r0, [r3, #12]
10006442:	f000 fc83 	bl	10006d4c <usbd_control_set_complete_callback>
10006446:	9b01      	ldr	r3, [sp, #4]
10006448:	2100      	movs	r1, #0
1000644a:	4650      	mov	r0, sl
1000644c:	68db      	ldr	r3, [r3, #12]
1000644e:	aa08      	add	r2, sp, #32
10006450:	4798      	blx	r3
10006452:	e71b      	b.n	1000628c <tud_task+0x300>
10006454:	4a6d      	ldr	r2, [pc, #436]	; (1000660c <tud_task+0x680>)
10006456:	005d      	lsls	r5, r3, #1
10006458:	18eb      	adds	r3, r5, r3
1000645a:	6815      	ldr	r5, [r2, #0]
1000645c:	00db      	lsls	r3, r3, #3
1000645e:	18ed      	adds	r5, r5, r3
10006460:	2d00      	cmp	r5, #0
10006462:	d100      	bne.n	10006466 <tud_task+0x4da>
10006464:	e61f      	b.n	100060a6 <tud_task+0x11a>
10006466:	68e8      	ldr	r0, [r5, #12]
10006468:	e796      	b.n	10006398 <tud_task+0x40c>
1000646a:	88e3      	ldrh	r3, [r4, #6]
1000646c:	2b01      	cmp	r3, #1
1000646e:	d000      	beq.n	10006472 <tud_task+0x4e6>
10006470:	e619      	b.n	100060a6 <tud_task+0x11a>
10006472:	2208      	movs	r2, #8
10006474:	783b      	ldrb	r3, [r7, #0]
10006476:	4650      	mov	r0, sl
10006478:	4393      	bics	r3, r2
1000647a:	a908      	add	r1, sp, #32
1000647c:	703b      	strb	r3, [r7, #0]
1000647e:	f000 fbe5 	bl	10006c4c <tud_control_status>
10006482:	e593      	b.n	10005fac <tud_task+0x20>
10006484:	2002      	movs	r0, #2
10006486:	7839      	ldrb	r1, [r7, #0]
10006488:	ab06      	add	r3, sp, #24
1000648a:	1c9a      	adds	r2, r3, #2
1000648c:	068b      	lsls	r3, r1, #26
1000648e:	0889      	lsrs	r1, r1, #2
10006490:	0fdb      	lsrs	r3, r3, #31
10006492:	4001      	ands	r1, r0
10006494:	430b      	orrs	r3, r1
10006496:	e759      	b.n	1000634c <tud_task+0x3c0>
10006498:	79a3      	ldrb	r3, [r4, #6]
1000649a:	9301      	str	r3, [sp, #4]
1000649c:	001a      	movs	r2, r3
1000649e:	787b      	ldrb	r3, [r7, #1]
100064a0:	429a      	cmp	r2, r3
100064a2:	d007      	beq.n	100064b4 <tud_task+0x528>
100064a4:	787b      	ldrb	r3, [r7, #1]
100064a6:	2b00      	cmp	r3, #0
100064a8:	d000      	beq.n	100064ac <tud_task+0x520>
100064aa:	e11e      	b.n	100066ea <tud_task+0x75e>
100064ac:	9b01      	ldr	r3, [sp, #4]
100064ae:	2b00      	cmp	r3, #0
100064b0:	d000      	beq.n	100064b4 <tud_task+0x528>
100064b2:	e0b3      	b.n	1000661c <tud_task+0x690>
100064b4:	9b01      	ldr	r3, [sp, #4]
100064b6:	4650      	mov	r0, sl
100064b8:	a908      	add	r1, sp, #32
100064ba:	707b      	strb	r3, [r7, #1]
100064bc:	f000 fbc6 	bl	10006c4c <tud_control_status>
100064c0:	e574      	b.n	10005fac <tud_task+0x20>
100064c2:	787b      	ldrb	r3, [r7, #1]
100064c4:	aa06      	add	r2, sp, #24
100064c6:	3202      	adds	r2, #2
100064c8:	7013      	strb	r3, [r2, #0]
100064ca:	4650      	mov	r0, sl
100064cc:	2301      	movs	r3, #1
100064ce:	a908      	add	r1, sp, #32
100064d0:	f000 fbd4 	bl	10006c7c <tud_control_xfer>
100064d4:	e56a      	b.n	10005fac <tud_task+0x20>
100064d6:	88e0      	ldrh	r0, [r4, #6]
100064d8:	0a03      	lsrs	r3, r0, #8
100064da:	b2c0      	uxtb	r0, r0
100064dc:	2b0f      	cmp	r3, #15
100064de:	d900      	bls.n	100064e2 <tud_task+0x556>
100064e0:	e5e1      	b.n	100060a6 <tud_task+0x11a>
100064e2:	494c      	ldr	r1, [pc, #304]	; (10006614 <tud_task+0x688>)
100064e4:	009a      	lsls	r2, r3, #2
100064e6:	588a      	ldr	r2, [r1, r2]
100064e8:	4697      	mov	pc, r2
100064ea:	a808      	add	r0, sp, #32
100064ec:	f000 fc34 	bl	10006d58 <usbd_control_set_request>
100064f0:	4650      	mov	r0, sl
100064f2:	79a1      	ldrb	r1, [r4, #6]
100064f4:	f7ff f900 	bl	100056f8 <dcd_set_address>
100064f8:	2202      	movs	r2, #2
100064fa:	783b      	ldrb	r3, [r7, #0]
100064fc:	4313      	orrs	r3, r2
100064fe:	703b      	strb	r3, [r7, #0]
10006500:	e554      	b.n	10005fac <tud_task+0x20>
10006502:	88e3      	ldrh	r3, [r4, #6]
10006504:	2b01      	cmp	r3, #1
10006506:	d000      	beq.n	1000650a <tud_task+0x57e>
10006508:	e5cd      	b.n	100060a6 <tud_task+0x11a>
1000650a:	2208      	movs	r2, #8
1000650c:	783b      	ldrb	r3, [r7, #0]
1000650e:	4650      	mov	r0, sl
10006510:	4313      	orrs	r3, r2
10006512:	a908      	add	r1, sp, #32
10006514:	703b      	strb	r3, [r7, #0]
10006516:	f000 fb99 	bl	10006c4c <tud_control_status>
1000651a:	e547      	b.n	10005fac <tud_task+0x20>
1000651c:	2b02      	cmp	r3, #2
1000651e:	d100      	bne.n	10006522 <tud_task+0x596>
10006520:	e194      	b.n	1000684c <tud_task+0x8c0>
10006522:	4b3d      	ldr	r3, [pc, #244]	; (10006618 <tud_task+0x68c>)
10006524:	2b00      	cmp	r3, #0
10006526:	d100      	bne.n	1000652a <tud_task+0x59e>
10006528:	e5bd      	b.n	100060a6 <tud_task+0x11a>
1000652a:	e000      	b.n	1000652e <tud_task+0x5a2>
1000652c:	bf00      	nop
1000652e:	0002      	movs	r2, r0
10006530:	2a00      	cmp	r2, #0
10006532:	d100      	bne.n	10006536 <tud_task+0x5aa>
10006534:	e5b7      	b.n	100060a6 <tud_task+0x11a>
10006536:	78d3      	ldrb	r3, [r2, #3]
10006538:	7891      	ldrb	r1, [r2, #2]
1000653a:	021b      	lsls	r3, r3, #8
1000653c:	430b      	orrs	r3, r1
1000653e:	4650      	mov	r0, sl
10006540:	a908      	add	r1, sp, #32
10006542:	f000 fb9b 	bl	10006c7c <tud_control_xfer>
10006546:	e6a1      	b.n	1000628c <tud_task+0x300>
10006548:	4b2f      	ldr	r3, [pc, #188]	; (10006608 <tud_task+0x67c>)
1000654a:	4831      	ldr	r0, [pc, #196]	; (10006610 <tud_task+0x684>)
1000654c:	9301      	str	r3, [sp, #4]
1000654e:	e778      	b.n	10006442 <tud_task+0x4b6>
10006550:	88e2      	ldrh	r2, [r4, #6]
10006552:	2a00      	cmp	r2, #0
10006554:	d109      	bne.n	1000656a <tud_task+0x5de>
10006556:	4643      	mov	r3, r8
10006558:	2b01      	cmp	r3, #1
1000655a:	d03d      	beq.n	100065d8 <tud_task+0x64c>
1000655c:	9b00      	ldr	r3, [sp, #0]
1000655e:	18fb      	adds	r3, r7, r3
10006560:	195d      	adds	r5, r3, r5
10006562:	3530      	adds	r5, #48	; 0x30
10006564:	78eb      	ldrb	r3, [r5, #3]
10006566:	079b      	lsls	r3, r3, #30
10006568:	d52a      	bpl.n	100065c0 <tud_task+0x634>
1000656a:	9d01      	ldr	r5, [sp, #4]
1000656c:	2d00      	cmp	r5, #0
1000656e:	d100      	bne.n	10006572 <tud_task+0x5e6>
10006570:	e51c      	b.n	10005fac <tud_task+0x20>
10006572:	68eb      	ldr	r3, [r5, #12]
10006574:	0018      	movs	r0, r3
10006576:	9300      	str	r3, [sp, #0]
10006578:	f000 fbe8 	bl	10006d4c <usbd_control_set_complete_callback>
1000657c:	68eb      	ldr	r3, [r5, #12]
1000657e:	2100      	movs	r1, #0
10006580:	aa08      	add	r2, sp, #32
10006582:	4650      	mov	r0, sl
10006584:	4798      	blx	r3
10006586:	2000      	movs	r0, #0
10006588:	f000 fbe0 	bl	10006d4c <usbd_control_set_complete_callback>
1000658c:	2334      	movs	r3, #52	; 0x34
1000658e:	5cfb      	ldrb	r3, [r7, r3]
10006590:	07db      	lsls	r3, r3, #31
10006592:	d500      	bpl.n	10006596 <tud_task+0x60a>
10006594:	e50a      	b.n	10005fac <tud_task+0x20>
10006596:	e71b      	b.n	100063d0 <tud_task+0x444>
10006598:	4a1c      	ldr	r2, [pc, #112]	; (1000660c <tud_task+0x680>)
1000659a:	005d      	lsls	r5, r3, #1
1000659c:	18eb      	adds	r3, r5, r3
1000659e:	6815      	ldr	r5, [r2, #0]
100065a0:	00db      	lsls	r3, r3, #3
100065a2:	18ed      	adds	r5, r5, r3
100065a4:	2d00      	cmp	r5, #0
100065a6:	d100      	bne.n	100065aa <tud_task+0x61e>
100065a8:	e57d      	b.n	100060a6 <tud_task+0x11a>
100065aa:	68e8      	ldr	r0, [r5, #12]
100065ac:	e72a      	b.n	10006404 <tud_task+0x478>
100065ae:	ab06      	add	r3, sp, #24
100065b0:	1c9a      	adds	r2, r3, #2
100065b2:	4650      	mov	r0, sl
100065b4:	2301      	movs	r3, #1
100065b6:	a908      	add	r1, sp, #32
100065b8:	7015      	strb	r5, [r2, #0]
100065ba:	f000 fb5f 	bl	10006c7c <tud_control_xfer>
100065be:	e4f5      	b.n	10005fac <tud_task+0x20>
100065c0:	4650      	mov	r0, sl
100065c2:	f7ff fa43 	bl	10005a4c <dcd_edpt_stall>
100065c6:	2202      	movs	r2, #2
100065c8:	78eb      	ldrb	r3, [r5, #3]
100065ca:	4313      	orrs	r3, r2
100065cc:	2201      	movs	r2, #1
100065ce:	70eb      	strb	r3, [r5, #3]
100065d0:	78eb      	ldrb	r3, [r5, #3]
100065d2:	4313      	orrs	r3, r2
100065d4:	70eb      	strb	r3, [r5, #3]
100065d6:	e7c8      	b.n	1000656a <tud_task+0x5de>
100065d8:	9b00      	ldr	r3, [sp, #0]
100065da:	18fb      	adds	r3, r7, r3
100065dc:	195d      	adds	r5, r3, r5
100065de:	3530      	adds	r5, #48	; 0x30
100065e0:	78eb      	ldrb	r3, [r5, #3]
100065e2:	079b      	lsls	r3, r3, #30
100065e4:	d5c1      	bpl.n	1000656a <tud_task+0x5de>
100065e6:	4650      	mov	r0, sl
100065e8:	f7ff fa4c 	bl	10005a84 <dcd_edpt_clear_stall>
100065ec:	464a      	mov	r2, r9
100065ee:	78eb      	ldrb	r3, [r5, #3]
100065f0:	4393      	bics	r3, r2
100065f2:	4642      	mov	r2, r8
100065f4:	70eb      	strb	r3, [r5, #3]
100065f6:	78eb      	ldrb	r3, [r5, #3]
100065f8:	4393      	bics	r3, r2
100065fa:	70eb      	strb	r3, [r5, #3]
100065fc:	e7b5      	b.n	1000656a <tud_task+0x5de>
100065fe:	46c0      	nop			; (mov r8, r8)
10006600:	100051c5 	.word	0x100051c5
10006604:	20001c58 	.word	0x20001c58
10006608:	1000bb10 	.word	0x1000bb10
1000660c:	200011cc 	.word	0x200011cc
10006610:	10007179 	.word	0x10007179
10006614:	1000bad0 	.word	0x1000bad0
10006618:	00000000 	.word	0x00000000
1000661c:	1e58      	subs	r0, r3, #1
1000661e:	b2c0      	uxtb	r0, r0
10006620:	f7fe ff18 	bl	10005454 <tud_descriptor_configuration_cb>
10006624:	2800      	cmp	r0, #0
10006626:	d100      	bne.n	1000662a <tud_task+0x69e>
10006628:	e53d      	b.n	100060a6 <tud_task+0x11a>
1000662a:	7843      	ldrb	r3, [r0, #1]
1000662c:	9304      	str	r3, [sp, #16]
1000662e:	2b02      	cmp	r3, #2
10006630:	d000      	beq.n	10006634 <tud_task+0x6a8>
10006632:	e538      	b.n	100060a6 <tud_task+0x11a>
10006634:	2101      	movs	r1, #1
10006636:	79c3      	ldrb	r3, [r0, #7]
10006638:	119a      	asrs	r2, r3, #6
1000663a:	115b      	asrs	r3, r3, #5
1000663c:	400a      	ands	r2, r1
1000663e:	400b      	ands	r3, r1
10006640:	0152      	lsls	r2, r2, #5
10006642:	011b      	lsls	r3, r3, #4
10006644:	4313      	orrs	r3, r2
10006646:	783a      	ldrb	r2, [r7, #0]
10006648:	312f      	adds	r1, #47	; 0x2f
1000664a:	438a      	bics	r2, r1
1000664c:	4313      	orrs	r3, r2
1000664e:	703b      	strb	r3, [r7, #0]
10006650:	2309      	movs	r3, #9
10006652:	4699      	mov	r9, r3
10006654:	78c3      	ldrb	r3, [r0, #3]
10006656:	7882      	ldrb	r2, [r0, #2]
10006658:	021b      	lsls	r3, r3, #8
1000665a:	4313      	orrs	r3, r2
1000665c:	18c3      	adds	r3, r0, r3
1000665e:	4481      	add	r9, r0
10006660:	9303      	str	r3, [sp, #12]
10006662:	9b03      	ldr	r3, [sp, #12]
10006664:	454b      	cmp	r3, r9
10006666:	d800      	bhi.n	1000666a <tud_task+0x6de>
10006668:	e0e9      	b.n	1000683e <tud_task+0x8b2>
1000666a:	464b      	mov	r3, r9
1000666c:	2201      	movs	r2, #1
1000666e:	785b      	ldrb	r3, [r3, #1]
10006670:	9200      	str	r2, [sp, #0]
10006672:	2b0b      	cmp	r3, #11
10006674:	d107      	bne.n	10006686 <tud_task+0x6fa>
10006676:	464b      	mov	r3, r9
10006678:	78db      	ldrb	r3, [r3, #3]
1000667a:	9300      	str	r3, [sp, #0]
1000667c:	464b      	mov	r3, r9
1000667e:	781b      	ldrb	r3, [r3, #0]
10006680:	4499      	add	r9, r3
10006682:	464b      	mov	r3, r9
10006684:	785b      	ldrb	r3, [r3, #1]
10006686:	2b04      	cmp	r3, #4
10006688:	d000      	beq.n	1000668c <tud_task+0x700>
1000668a:	e50c      	b.n	100060a6 <tud_task+0x11a>
1000668c:	464a      	mov	r2, r9
1000668e:	9b03      	ldr	r3, [sp, #12]
10006690:	2500      	movs	r5, #0
10006692:	1a9b      	subs	r3, r3, r2
10006694:	b29b      	uxth	r3, r3
10006696:	9302      	str	r3, [sp, #8]
10006698:	4a6e      	ldr	r2, [pc, #440]	; (10006854 <tud_task+0x8c8>)
1000669a:	4b6f      	ldr	r3, [pc, #444]	; (10006858 <tud_task+0x8cc>)
1000669c:	781b      	ldrb	r3, [r3, #0]
1000669e:	2a00      	cmp	r2, #0
100066a0:	d116      	bne.n	100066d0 <tud_task+0x744>
100066a2:	e062      	b.n	1000676a <tud_task+0x7de>
100066a4:	42ab      	cmp	r3, r5
100066a6:	d171      	bne.n	1000678c <tud_task+0x800>
100066a8:	4a6c      	ldr	r2, [pc, #432]	; (1000685c <tud_task+0x8d0>)
100066aa:	4b6d      	ldr	r3, [pc, #436]	; (10006860 <tud_task+0x8d4>)
100066ac:	4690      	mov	r8, r2
100066ae:	4649      	mov	r1, r9
100066b0:	4650      	mov	r0, sl
100066b2:	9a02      	ldr	r2, [sp, #8]
100066b4:	4798      	blx	r3
100066b6:	4684      	mov	ip, r0
100066b8:	2808      	cmp	r0, #8
100066ba:	d902      	bls.n	100066c2 <tud_task+0x736>
100066bc:	9a02      	ldr	r2, [sp, #8]
100066be:	4282      	cmp	r2, r0
100066c0:	d269      	bcs.n	10006796 <tud_task+0x80a>
100066c2:	4b65      	ldr	r3, [pc, #404]	; (10006858 <tud_task+0x8cc>)
100066c4:	3501      	adds	r5, #1
100066c6:	781b      	ldrb	r3, [r3, #0]
100066c8:	b2ed      	uxtb	r5, r5
100066ca:	42ab      	cmp	r3, r5
100066cc:	d200      	bcs.n	100066d0 <tud_task+0x744>
100066ce:	e4ea      	b.n	100060a6 <tud_task+0x11a>
100066d0:	42ab      	cmp	r3, r5
100066d2:	d9e7      	bls.n	100066a4 <tud_task+0x718>
100066d4:	4a63      	ldr	r2, [pc, #396]	; (10006864 <tud_task+0x8d8>)
100066d6:	006b      	lsls	r3, r5, #1
100066d8:	6812      	ldr	r2, [r2, #0]
100066da:	195b      	adds	r3, r3, r5
100066dc:	4690      	mov	r8, r2
100066de:	00db      	lsls	r3, r3, #3
100066e0:	4498      	add	r8, r3
100066e2:	4643      	mov	r3, r8
100066e4:	9205      	str	r2, [sp, #20]
100066e6:	689b      	ldr	r3, [r3, #8]
100066e8:	e7e1      	b.n	100066ae <tud_task+0x722>
100066ea:	4650      	mov	r0, sl
100066ec:	f7ff f93e 	bl	1000596c <dcd_edpt_close_all>
100066f0:	78bb      	ldrb	r3, [r7, #2]
100066f2:	4d59      	ldr	r5, [pc, #356]	; (10006858 <tud_task+0x8cc>)
100066f4:	4a57      	ldr	r2, [pc, #348]	; (10006854 <tud_task+0x8c8>)
100066f6:	9300      	str	r3, [sp, #0]
100066f8:	2100      	movs	r1, #0
100066fa:	782b      	ldrb	r3, [r5, #0]
100066fc:	2a00      	cmp	r2, #0
100066fe:	d02d      	beq.n	1000675c <tud_task+0x7d0>
10006700:	4a58      	ldr	r2, [pc, #352]	; (10006864 <tud_task+0x8d8>)
10006702:	4690      	mov	r8, r2
10006704:	002a      	movs	r2, r5
10006706:	000d      	movs	r5, r1
10006708:	4691      	mov	r9, r2
1000670a:	429d      	cmp	r5, r3
1000670c:	d31d      	bcc.n	1000674a <tud_task+0x7be>
1000670e:	d000      	beq.n	10006712 <tud_task+0x786>
10006710:	e5a0      	b.n	10006254 <tud_task+0x2c8>
10006712:	4b55      	ldr	r3, [pc, #340]	; (10006868 <tud_task+0x8dc>)
10006714:	4650      	mov	r0, sl
10006716:	4798      	blx	r3
10006718:	464b      	mov	r3, r9
1000671a:	3501      	adds	r5, #1
1000671c:	781b      	ldrb	r3, [r3, #0]
1000671e:	b2ed      	uxtb	r5, r5
10006720:	42ab      	cmp	r3, r5
10006722:	d2f2      	bcs.n	1000670a <tud_task+0x77e>
10006724:	2253      	movs	r2, #83	; 0x53
10006726:	2100      	movs	r1, #0
10006728:	0038      	movs	r0, r7
1000672a:	f7fe fadb 	bl	10004ce4 <__wrap_memset>
1000672e:	2210      	movs	r2, #16
10006730:	21ff      	movs	r1, #255	; 0xff
10006732:	1cf8      	adds	r0, r7, #3
10006734:	f7fe fad6 	bl	10004ce4 <__wrap_memset>
10006738:	0038      	movs	r0, r7
1000673a:	2220      	movs	r2, #32
1000673c:	21ff      	movs	r1, #255	; 0xff
1000673e:	3013      	adds	r0, #19
10006740:	f7fe fad0 	bl	10004ce4 <__wrap_memset>
10006744:	9b00      	ldr	r3, [sp, #0]
10006746:	70bb      	strb	r3, [r7, #2]
10006748:	e6b0      	b.n	100064ac <tud_task+0x520>
1000674a:	4642      	mov	r2, r8
1000674c:	6812      	ldr	r2, [r2, #0]
1000674e:	006b      	lsls	r3, r5, #1
10006750:	4694      	mov	ip, r2
10006752:	195b      	adds	r3, r3, r5
10006754:	00db      	lsls	r3, r3, #3
10006756:	4463      	add	r3, ip
10006758:	685b      	ldr	r3, [r3, #4]
1000675a:	e7db      	b.n	10006714 <tud_task+0x788>
1000675c:	4650      	mov	r0, sl
1000675e:	f000 fc83 	bl	10007068 <cdcd_reset>
10006762:	782b      	ldrb	r3, [r5, #0]
10006764:	2b00      	cmp	r3, #0
10006766:	d0dd      	beq.n	10006724 <tud_task+0x798>
10006768:	e574      	b.n	10006254 <tud_task+0x2c8>
1000676a:	9b02      	ldr	r3, [sp, #8]
1000676c:	4649      	mov	r1, r9
1000676e:	001a      	movs	r2, r3
10006770:	4650      	mov	r0, sl
10006772:	4698      	mov	r8, r3
10006774:	f000 fc8e 	bl	10007094 <cdcd_open>
10006778:	4684      	mov	ip, r0
1000677a:	2808      	cmp	r0, #8
1000677c:	d901      	bls.n	10006782 <tud_task+0x7f6>
1000677e:	4540      	cmp	r0, r8
10006780:	d907      	bls.n	10006792 <tud_task+0x806>
10006782:	4b35      	ldr	r3, [pc, #212]	; (10006858 <tud_task+0x8cc>)
10006784:	781b      	ldrb	r3, [r3, #0]
10006786:	2b00      	cmp	r3, #0
10006788:	d100      	bne.n	1000678c <tud_task+0x800>
1000678a:	e48c      	b.n	100060a6 <tud_task+0x11a>
1000678c:	2300      	movs	r3, #0
1000678e:	689b      	ldr	r3, [r3, #8]
10006790:	deff      	udf	#255	; 0xff
10006792:	4b32      	ldr	r3, [pc, #200]	; (1000685c <tud_task+0x8d0>)
10006794:	4698      	mov	r8, r3
10006796:	9b00      	ldr	r3, [sp, #0]
10006798:	2b01      	cmp	r3, #1
1000679a:	d048      	beq.n	1000682e <tud_task+0x8a2>
1000679c:	9b00      	ldr	r3, [sp, #0]
1000679e:	2b00      	cmp	r3, #0
100067a0:	d010      	beq.n	100067c4 <tud_task+0x838>
100067a2:	464b      	mov	r3, r9
100067a4:	7899      	ldrb	r1, [r3, #2]
100067a6:	2300      	movs	r3, #0
100067a8:	e005      	b.n	100067b6 <tud_task+0x82a>
100067aa:	70d5      	strb	r5, [r2, #3]
100067ac:	3301      	adds	r3, #1
100067ae:	9a00      	ldr	r2, [sp, #0]
100067b0:	b2db      	uxtb	r3, r3
100067b2:	4293      	cmp	r3, r2
100067b4:	d206      	bcs.n	100067c4 <tud_task+0x838>
100067b6:	18ca      	adds	r2, r1, r3
100067b8:	b2d2      	uxtb	r2, r2
100067ba:	18ba      	adds	r2, r7, r2
100067bc:	78d0      	ldrb	r0, [r2, #3]
100067be:	28ff      	cmp	r0, #255	; 0xff
100067c0:	d0f3      	beq.n	100067aa <tud_task+0x81e>
100067c2:	e470      	b.n	100060a6 <tud_task+0x11a>
100067c4:	0038      	movs	r0, r7
100067c6:	46e0      	mov	r8, ip
100067c8:	002b      	movs	r3, r5
100067ca:	4649      	mov	r1, r9
100067cc:	4662      	mov	r2, ip
100067ce:	3013      	adds	r0, #19
100067d0:	f000 fe2e 	bl	10007430 <tu_edpt_bind_driver>
100067d4:	4b20      	ldr	r3, [pc, #128]	; (10006858 <tud_task+0x8cc>)
100067d6:	44c1      	add	r9, r8
100067d8:	781b      	ldrb	r3, [r3, #0]
100067da:	42ab      	cmp	r3, r5
100067dc:	d300      	bcc.n	100067e0 <tud_task+0x854>
100067de:	e740      	b.n	10006662 <tud_task+0x6d6>
100067e0:	e461      	b.n	100060a6 <tud_task+0x11a>
100067e2:	4b22      	ldr	r3, [pc, #136]	; (1000686c <tud_task+0x8e0>)
100067e4:	2b00      	cmp	r3, #0
100067e6:	d100      	bne.n	100067ea <tud_task+0x85e>
100067e8:	e45d      	b.n	100060a6 <tud_task+0x11a>
100067ea:	e000      	b.n	100067ee <tud_task+0x862>
100067ec:	bf00      	nop
100067ee:	0002      	movs	r2, r0
100067f0:	e6a1      	b.n	10006536 <tud_task+0x5aa>
100067f2:	f7fe fe2b 	bl	1000544c <tud_descriptor_device_cb>
100067f6:	2312      	movs	r3, #18
100067f8:	0002      	movs	r2, r0
100067fa:	a908      	add	r1, sp, #32
100067fc:	4650      	mov	r0, sl
100067fe:	f000 fa3d 	bl	10006c7c <tud_control_xfer>
10006802:	e543      	b.n	1000628c <tud_task+0x300>
10006804:	4b1a      	ldr	r3, [pc, #104]	; (10006870 <tud_task+0x8e4>)
10006806:	2b00      	cmp	r3, #0
10006808:	d100      	bne.n	1000680c <tud_task+0x880>
1000680a:	e44c      	b.n	100060a6 <tud_task+0x11a>
1000680c:	e000      	b.n	10006810 <tud_task+0x884>
1000680e:	bf00      	nop
10006810:	1e02      	subs	r2, r0, #0
10006812:	d100      	bne.n	10006816 <tud_task+0x88a>
10006814:	e447      	b.n	100060a6 <tud_task+0x11a>
10006816:	4650      	mov	r0, sl
10006818:	7813      	ldrb	r3, [r2, #0]
1000681a:	a908      	add	r1, sp, #32
1000681c:	f000 fa2e 	bl	10006c7c <tud_control_xfer>
10006820:	e534      	b.n	1000628c <tud_task+0x300>
10006822:	8921      	ldrh	r1, [r4, #8]
10006824:	f7fe fe1a 	bl	1000545c <tud_descriptor_string_cb>
10006828:	1e02      	subs	r2, r0, #0
1000682a:	d1f4      	bne.n	10006816 <tud_task+0x88a>
1000682c:	e43b      	b.n	100060a6 <tud_task+0x11a>
1000682e:	4642      	mov	r2, r8
10006830:	4b0b      	ldr	r3, [pc, #44]	; (10006860 <tud_task+0x8d4>)
10006832:	6892      	ldr	r2, [r2, #8]
10006834:	429a      	cmp	r2, r3
10006836:	d1b4      	bne.n	100067a2 <tud_task+0x816>
10006838:	9b04      	ldr	r3, [sp, #16]
1000683a:	9300      	str	r3, [sp, #0]
1000683c:	e7b1      	b.n	100067a2 <tud_task+0x816>
1000683e:	4b0d      	ldr	r3, [pc, #52]	; (10006874 <tud_task+0x8e8>)
10006840:	2b00      	cmp	r3, #0
10006842:	d100      	bne.n	10006846 <tud_task+0x8ba>
10006844:	e636      	b.n	100064b4 <tud_task+0x528>
10006846:	e000      	b.n	1000684a <tud_task+0x8be>
10006848:	bf00      	nop
1000684a:	e633      	b.n	100064b4 <tud_task+0x528>
1000684c:	f7fe fe02 	bl	10005454 <tud_descriptor_configuration_cb>
10006850:	0002      	movs	r2, r0
10006852:	e66d      	b.n	10006530 <tud_task+0x5a4>
10006854:	100051c5 	.word	0x100051c5
10006858:	20001c58 	.word	0x20001c58
1000685c:	1000bb10 	.word	0x1000bb10
10006860:	10007095 	.word	0x10007095
10006864:	200011cc 	.word	0x200011cc
10006868:	10007069 	.word	0x10007069
	...

10006878 <dcd_event_bus_signal>:
10006878:	b530      	push	{r4, r5, lr}
1000687a:	b087      	sub	sp, #28
1000687c:	0005      	movs	r5, r0
1000687e:	000c      	movs	r4, r1
10006880:	220c      	movs	r2, #12
10006882:	2100      	movs	r1, #0
10006884:	4668      	mov	r0, sp
10006886:	f7fe fa2d 	bl	10004ce4 <__wrap_memset>
1000688a:	466b      	mov	r3, sp
1000688c:	701d      	strb	r5, [r3, #0]
1000688e:	705c      	strb	r4, [r3, #1]
10006890:	2c04      	cmp	r4, #4
10006892:	d04f      	beq.n	10006934 <dcd_event_bus_signal+0xbc>
10006894:	d809      	bhi.n	100068aa <dcd_event_bus_signal+0x32>
10006896:	2c02      	cmp	r4, #2
10006898:	d034      	beq.n	10006904 <dcd_event_bus_signal+0x8c>
1000689a:	2c03      	cmp	r4, #3
1000689c:	d119      	bne.n	100068d2 <dcd_event_bus_signal+0x5a>
1000689e:	4b3c      	ldr	r3, [pc, #240]	; (10006990 <dcd_event_bus_signal+0x118>)
100068a0:	781a      	ldrb	r2, [r3, #0]
100068a2:	0752      	lsls	r2, r2, #29
100068a4:	d458      	bmi.n	10006958 <dcd_event_bus_signal+0xe0>
100068a6:	b007      	add	sp, #28
100068a8:	bd30      	pop	{r4, r5, pc}
100068aa:	2c05      	cmp	r4, #5
100068ac:	d111      	bne.n	100068d2 <dcd_event_bus_signal+0x5a>
100068ae:	4b38      	ldr	r3, [pc, #224]	; (10006990 <dcd_event_bus_signal+0x118>)
100068b0:	781a      	ldrb	r2, [r3, #0]
100068b2:	07d2      	lsls	r2, r2, #31
100068b4:	d5f7      	bpl.n	100068a6 <dcd_event_bus_signal+0x2e>
100068b6:	2104      	movs	r1, #4
100068b8:	781a      	ldrb	r2, [r3, #0]
100068ba:	438a      	bics	r2, r1
100068bc:	701a      	strb	r2, [r3, #0]
100068be:	4b35      	ldr	r3, [pc, #212]	; (10006994 <dcd_event_bus_signal+0x11c>)
100068c0:	681c      	ldr	r4, [r3, #0]
100068c2:	69e2      	ldr	r2, [r4, #28]
100068c4:	f3ef 8110 	mrs	r1, PRIMASK
100068c8:	b672      	cpsid	i
100068ca:	6813      	ldr	r3, [r2, #0]
100068cc:	2b00      	cmp	r3, #0
100068ce:	d109      	bne.n	100068e4 <dcd_event_bus_signal+0x6c>
100068d0:	e7fb      	b.n	100068ca <dcd_event_bus_signal+0x52>
100068d2:	4b30      	ldr	r3, [pc, #192]	; (10006994 <dcd_event_bus_signal+0x11c>)
100068d4:	681c      	ldr	r4, [r3, #0]
100068d6:	69e2      	ldr	r2, [r4, #28]
100068d8:	f3ef 8110 	mrs	r1, PRIMASK
100068dc:	b672      	cpsid	i
100068de:	6813      	ldr	r3, [r2, #0]
100068e0:	2b00      	cmp	r3, #0
100068e2:	d0fc      	beq.n	100068de <dcd_event_bus_signal+0x66>
100068e4:	f3bf 8f5f 	dmb	sy
100068e8:	6221      	str	r1, [r4, #32]
100068ea:	4669      	mov	r1, sp
100068ec:	0020      	movs	r0, r4
100068ee:	f000 fee5 	bl	100076bc <tu_fifo_write>
100068f2:	69e2      	ldr	r2, [r4, #28]
100068f4:	6a23      	ldr	r3, [r4, #32]
100068f6:	f3bf 8f5f 	dmb	sy
100068fa:	2100      	movs	r1, #0
100068fc:	6011      	str	r1, [r2, #0]
100068fe:	f383 8810 	msr	PRIMASK, r3
10006902:	e7d0      	b.n	100068a6 <dcd_event_bus_signal+0x2e>
10006904:	2101      	movs	r1, #1
10006906:	4b22      	ldr	r3, [pc, #136]	; (10006990 <dcd_event_bus_signal+0x118>)
10006908:	781a      	ldrb	r2, [r3, #0]
1000690a:	438a      	bics	r2, r1
1000690c:	701a      	strb	r2, [r3, #0]
1000690e:	781a      	ldrb	r2, [r3, #0]
10006910:	3103      	adds	r1, #3
10006912:	43a2      	bics	r2, r4
10006914:	701a      	strb	r2, [r3, #0]
10006916:	2200      	movs	r2, #0
10006918:	705a      	strb	r2, [r3, #1]
1000691a:	781a      	ldrb	r2, [r3, #0]
1000691c:	438a      	bics	r2, r1
1000691e:	701a      	strb	r2, [r3, #0]
10006920:	4b1c      	ldr	r3, [pc, #112]	; (10006994 <dcd_event_bus_signal+0x11c>)
10006922:	681c      	ldr	r4, [r3, #0]
10006924:	69e2      	ldr	r2, [r4, #28]
10006926:	f3ef 8110 	mrs	r1, PRIMASK
1000692a:	b672      	cpsid	i
1000692c:	6813      	ldr	r3, [r2, #0]
1000692e:	2b00      	cmp	r3, #0
10006930:	d1d8      	bne.n	100068e4 <dcd_event_bus_signal+0x6c>
10006932:	e7fb      	b.n	1000692c <dcd_event_bus_signal+0xb4>
10006934:	4b16      	ldr	r3, [pc, #88]	; (10006990 <dcd_event_bus_signal+0x118>)
10006936:	781a      	ldrb	r2, [r3, #0]
10006938:	07d2      	lsls	r2, r2, #31
1000693a:	d5b4      	bpl.n	100068a6 <dcd_event_bus_signal+0x2e>
1000693c:	2104      	movs	r1, #4
1000693e:	781a      	ldrb	r2, [r3, #0]
10006940:	430a      	orrs	r2, r1
10006942:	701a      	strb	r2, [r3, #0]
10006944:	4b13      	ldr	r3, [pc, #76]	; (10006994 <dcd_event_bus_signal+0x11c>)
10006946:	681c      	ldr	r4, [r3, #0]
10006948:	69e2      	ldr	r2, [r4, #28]
1000694a:	f3ef 8110 	mrs	r1, PRIMASK
1000694e:	b672      	cpsid	i
10006950:	6813      	ldr	r3, [r2, #0]
10006952:	2b00      	cmp	r3, #0
10006954:	d1c6      	bne.n	100068e4 <dcd_event_bus_signal+0x6c>
10006956:	e7fb      	b.n	10006950 <dcd_event_bus_signal+0xd8>
10006958:	2104      	movs	r1, #4
1000695a:	781a      	ldrb	r2, [r3, #0]
1000695c:	a803      	add	r0, sp, #12
1000695e:	438a      	bics	r2, r1
10006960:	701a      	strb	r2, [r3, #0]
10006962:	2100      	movs	r1, #0
10006964:	220c      	movs	r2, #12
10006966:	f7fe f9bd 	bl	10004ce4 <__wrap_memset>
1000696a:	466b      	mov	r3, sp
1000696c:	466a      	mov	r2, sp
1000696e:	731d      	strb	r5, [r3, #12]
10006970:	2305      	movs	r3, #5
10006972:	7353      	strb	r3, [r2, #13]
10006974:	4b07      	ldr	r3, [pc, #28]	; (10006994 <dcd_event_bus_signal+0x11c>)
10006976:	681c      	ldr	r4, [r3, #0]
10006978:	69e2      	ldr	r2, [r4, #28]
1000697a:	f3ef 8110 	mrs	r1, PRIMASK
1000697e:	b672      	cpsid	i
10006980:	6813      	ldr	r3, [r2, #0]
10006982:	2b00      	cmp	r3, #0
10006984:	d0fc      	beq.n	10006980 <dcd_event_bus_signal+0x108>
10006986:	f3bf 8f5f 	dmb	sy
1000698a:	6221      	str	r1, [r4, #32]
1000698c:	a903      	add	r1, sp, #12
1000698e:	e7ad      	b.n	100068ec <dcd_event_bus_signal+0x74>
10006990:	20001504 	.word	0x20001504
10006994:	2000155c 	.word	0x2000155c

10006998 <dcd_event_bus_reset>:
10006998:	b570      	push	{r4, r5, r6, lr}
1000699a:	b084      	sub	sp, #16
1000699c:	ac01      	add	r4, sp, #4
1000699e:	0006      	movs	r6, r0
100069a0:	000d      	movs	r5, r1
100069a2:	220c      	movs	r2, #12
100069a4:	2100      	movs	r1, #0
100069a6:	0020      	movs	r0, r4
100069a8:	f7fe f99c 	bl	10004ce4 <__wrap_memset>
100069ac:	2301      	movs	r3, #1
100069ae:	7063      	strb	r3, [r4, #1]
100069b0:	4b0d      	ldr	r3, [pc, #52]	; (100069e8 <dcd_event_bus_reset+0x50>)
100069b2:	7125      	strb	r5, [r4, #4]
100069b4:	681d      	ldr	r5, [r3, #0]
100069b6:	7026      	strb	r6, [r4, #0]
100069b8:	69ea      	ldr	r2, [r5, #28]
100069ba:	f3ef 8310 	mrs	r3, PRIMASK
100069be:	b672      	cpsid	i
100069c0:	6811      	ldr	r1, [r2, #0]
100069c2:	2900      	cmp	r1, #0
100069c4:	d0fc      	beq.n	100069c0 <dcd_event_bus_reset+0x28>
100069c6:	f3bf 8f5f 	dmb	sy
100069ca:	622b      	str	r3, [r5, #32]
100069cc:	0021      	movs	r1, r4
100069ce:	0028      	movs	r0, r5
100069d0:	f000 fe74 	bl	100076bc <tu_fifo_write>
100069d4:	69ea      	ldr	r2, [r5, #28]
100069d6:	6a2b      	ldr	r3, [r5, #32]
100069d8:	f3bf 8f5f 	dmb	sy
100069dc:	2100      	movs	r1, #0
100069de:	6011      	str	r1, [r2, #0]
100069e0:	f383 8810 	msr	PRIMASK, r3
100069e4:	b004      	add	sp, #16
100069e6:	bd70      	pop	{r4, r5, r6, pc}
100069e8:	2000155c 	.word	0x2000155c

100069ec <dcd_event_setup_received>:
100069ec:	2300      	movs	r3, #0
100069ee:	b530      	push	{r4, r5, lr}
100069f0:	b085      	sub	sp, #20
100069f2:	ad01      	add	r5, sp, #4
100069f4:	806b      	strh	r3, [r5, #2]
100069f6:	7028      	strb	r0, [r5, #0]
100069f8:	3306      	adds	r3, #6
100069fa:	2208      	movs	r2, #8
100069fc:	a802      	add	r0, sp, #8
100069fe:	706b      	strb	r3, [r5, #1]
10006a00:	f7fe f976 	bl	10004cf0 <__wrap___aeabi_memcpy>
10006a04:	4b0c      	ldr	r3, [pc, #48]	; (10006a38 <dcd_event_setup_received+0x4c>)
10006a06:	681c      	ldr	r4, [r3, #0]
10006a08:	69e2      	ldr	r2, [r4, #28]
10006a0a:	f3ef 8310 	mrs	r3, PRIMASK
10006a0e:	b672      	cpsid	i
10006a10:	6811      	ldr	r1, [r2, #0]
10006a12:	2900      	cmp	r1, #0
10006a14:	d0fc      	beq.n	10006a10 <dcd_event_setup_received+0x24>
10006a16:	f3bf 8f5f 	dmb	sy
10006a1a:	6223      	str	r3, [r4, #32]
10006a1c:	0029      	movs	r1, r5
10006a1e:	0020      	movs	r0, r4
10006a20:	f000 fe4c 	bl	100076bc <tu_fifo_write>
10006a24:	69e2      	ldr	r2, [r4, #28]
10006a26:	6a23      	ldr	r3, [r4, #32]
10006a28:	f3bf 8f5f 	dmb	sy
10006a2c:	2100      	movs	r1, #0
10006a2e:	6011      	str	r1, [r2, #0]
10006a30:	f383 8810 	msr	PRIMASK, r3
10006a34:	b005      	add	sp, #20
10006a36:	bd30      	pop	{r4, r5, pc}
10006a38:	2000155c 	.word	0x2000155c

10006a3c <dcd_event_xfer_complete>:
10006a3c:	b5f0      	push	{r4, r5, r6, r7, lr}
10006a3e:	46c6      	mov	lr, r8
10006a40:	4680      	mov	r8, r0
10006a42:	b500      	push	{lr}
10006a44:	b084      	sub	sp, #16
10006a46:	ac01      	add	r4, sp, #4
10006a48:	000f      	movs	r7, r1
10006a4a:	0016      	movs	r6, r2
10006a4c:	2100      	movs	r1, #0
10006a4e:	2208      	movs	r2, #8
10006a50:	0020      	movs	r0, r4
10006a52:	001d      	movs	r5, r3
10006a54:	f7fe f946 	bl	10004ce4 <__wrap_memset>
10006a58:	4643      	mov	r3, r8
10006a5a:	7023      	strb	r3, [r4, #0]
10006a5c:	2307      	movs	r3, #7
10006a5e:	7063      	strb	r3, [r4, #1]
10006a60:	4b0f      	ldr	r3, [pc, #60]	; (10006aa0 <dcd_event_xfer_complete+0x64>)
10006a62:	7165      	strb	r5, [r4, #5]
10006a64:	681d      	ldr	r5, [r3, #0]
10006a66:	7127      	strb	r7, [r4, #4]
10006a68:	60a6      	str	r6, [r4, #8]
10006a6a:	69ea      	ldr	r2, [r5, #28]
10006a6c:	f3ef 8310 	mrs	r3, PRIMASK
10006a70:	b672      	cpsid	i
10006a72:	6811      	ldr	r1, [r2, #0]
10006a74:	2900      	cmp	r1, #0
10006a76:	d0fc      	beq.n	10006a72 <dcd_event_xfer_complete+0x36>
10006a78:	f3bf 8f5f 	dmb	sy
10006a7c:	622b      	str	r3, [r5, #32]
10006a7e:	0021      	movs	r1, r4
10006a80:	0028      	movs	r0, r5
10006a82:	f000 fe1b 	bl	100076bc <tu_fifo_write>
10006a86:	69ea      	ldr	r2, [r5, #28]
10006a88:	6a2b      	ldr	r3, [r5, #32]
10006a8a:	f3bf 8f5f 	dmb	sy
10006a8e:	2100      	movs	r1, #0
10006a90:	6011      	str	r1, [r2, #0]
10006a92:	f383 8810 	msr	PRIMASK, r3
10006a96:	b004      	add	sp, #16
10006a98:	bc80      	pop	{r7}
10006a9a:	46b8      	mov	r8, r7
10006a9c:	bdf0      	pop	{r4, r5, r6, r7, pc}
10006a9e:	46c0      	nop			; (mov r8, r8)
10006aa0:	2000155c 	.word	0x2000155c

10006aa4 <usbd_open_edpt_pair>:
10006aa4:	b5f0      	push	{r4, r5, r6, r7, lr}
10006aa6:	4646      	mov	r6, r8
10006aa8:	46d6      	mov	lr, sl
10006aaa:	464f      	mov	r7, r9
10006aac:	4680      	mov	r8, r0
10006aae:	b5c0      	push	{r6, r7, lr}
10006ab0:	000c      	movs	r4, r1
10006ab2:	0015      	movs	r5, r2
10006ab4:	001e      	movs	r6, r3
10006ab6:	2a00      	cmp	r2, #0
10006ab8:	d02e      	beq.n	10006b18 <usbd_open_edpt_pair+0x74>
10006aba:	2370      	movs	r3, #112	; 0x70
10006abc:	4699      	mov	r9, r3
10006abe:	4b18      	ldr	r3, [pc, #96]	; (10006b20 <usbd_open_edpt_pair+0x7c>)
10006ac0:	2700      	movs	r7, #0
10006ac2:	469a      	mov	sl, r3
10006ac4:	7863      	ldrb	r3, [r4, #1]
10006ac6:	2b05      	cmp	r3, #5
10006ac8:	d10f      	bne.n	10006aea <usbd_open_edpt_pair+0x46>
10006aca:	78e1      	ldrb	r1, [r4, #3]
10006acc:	0789      	lsls	r1, r1, #30
10006ace:	0f89      	lsrs	r1, r1, #30
10006ad0:	42b1      	cmp	r1, r6
10006ad2:	d10a      	bne.n	10006aea <usbd_open_edpt_pair+0x46>
10006ad4:	464a      	mov	r2, r9
10006ad6:	78a3      	ldrb	r3, [r4, #2]
10006ad8:	421a      	tst	r2, r3
10006ada:	d106      	bne.n	10006aea <usbd_open_edpt_pair+0x46>
10006adc:	4653      	mov	r3, sl
10006ade:	0020      	movs	r0, r4
10006ae0:	7899      	ldrb	r1, [r3, #2]
10006ae2:	f000 fc69 	bl	100073b8 <tu_edpt_validate>
10006ae6:	2800      	cmp	r0, #0
10006ae8:	d105      	bne.n	10006af6 <usbd_open_edpt_pair+0x52>
10006aea:	2000      	movs	r0, #0
10006aec:	bce0      	pop	{r5, r6, r7}
10006aee:	46ba      	mov	sl, r7
10006af0:	46b1      	mov	r9, r6
10006af2:	46a8      	mov	r8, r5
10006af4:	bdf0      	pop	{r4, r5, r6, r7, pc}
10006af6:	0021      	movs	r1, r4
10006af8:	4640      	mov	r0, r8
10006afa:	f7fe febf 	bl	1000587c <dcd_edpt_open>
10006afe:	2800      	cmp	r0, #0
10006b00:	d0f3      	beq.n	10006aea <usbd_open_edpt_pair+0x46>
10006b02:	78a3      	ldrb	r3, [r4, #2]
10006b04:	09da      	lsrs	r2, r3, #7
10006b06:	2a01      	cmp	r2, #1
10006b08:	d008      	beq.n	10006b1c <usbd_open_edpt_pair+0x78>
10006b0a:	9a08      	ldr	r2, [sp, #32]
10006b0c:	7013      	strb	r3, [r2, #0]
10006b0e:	7823      	ldrb	r3, [r4, #0]
10006b10:	3701      	adds	r7, #1
10006b12:	18e4      	adds	r4, r4, r3
10006b14:	42af      	cmp	r7, r5
10006b16:	dbd5      	blt.n	10006ac4 <usbd_open_edpt_pair+0x20>
10006b18:	2001      	movs	r0, #1
10006b1a:	e7e7      	b.n	10006aec <usbd_open_edpt_pair+0x48>
10006b1c:	9a09      	ldr	r2, [sp, #36]	; 0x24
10006b1e:	e7f5      	b.n	10006b0c <usbd_open_edpt_pair+0x68>
10006b20:	20001504 	.word	0x20001504

10006b24 <usbd_edpt_open>:
10006b24:	2270      	movs	r2, #112	; 0x70
10006b26:	b570      	push	{r4, r5, r6, lr}
10006b28:	788b      	ldrb	r3, [r1, #2]
10006b2a:	0005      	movs	r5, r0
10006b2c:	000c      	movs	r4, r1
10006b2e:	421a      	tst	r2, r3
10006b30:	d001      	beq.n	10006b36 <usbd_edpt_open+0x12>
10006b32:	2000      	movs	r0, #0
10006b34:	bd70      	pop	{r4, r5, r6, pc}
10006b36:	4b06      	ldr	r3, [pc, #24]	; (10006b50 <usbd_edpt_open+0x2c>)
10006b38:	0020      	movs	r0, r4
10006b3a:	7899      	ldrb	r1, [r3, #2]
10006b3c:	f000 fc3c 	bl	100073b8 <tu_edpt_validate>
10006b40:	2800      	cmp	r0, #0
10006b42:	d0f6      	beq.n	10006b32 <usbd_edpt_open+0xe>
10006b44:	0021      	movs	r1, r4
10006b46:	0028      	movs	r0, r5
10006b48:	f7fe fe98 	bl	1000587c <dcd_edpt_open>
10006b4c:	e7f2      	b.n	10006b34 <usbd_edpt_open+0x10>
10006b4e:	46c0      	nop			; (mov r8, r8)
10006b50:	20001504 	.word	0x20001504

10006b54 <usbd_edpt_claim>:
10006b54:	b570      	push	{r4, r5, r6, lr}
10006b56:	247f      	movs	r4, #127	; 0x7f
10006b58:	400c      	ands	r4, r1
10006b5a:	0063      	lsls	r3, r4, #1
10006b5c:	4c14      	ldr	r4, [pc, #80]	; (10006bb0 <usbd_edpt_claim+0x5c>)
10006b5e:	09c9      	lsrs	r1, r1, #7
10006b60:	18e4      	adds	r4, r4, r3
10006b62:	1864      	adds	r4, r4, r1
10006b64:	3430      	adds	r4, #48	; 0x30
10006b66:	78e3      	ldrb	r3, [r4, #3]
10006b68:	07db      	lsls	r3, r3, #31
10006b6a:	0fdd      	lsrs	r5, r3, #31
10006b6c:	2b00      	cmp	r3, #0
10006b6e:	d118      	bne.n	10006ba2 <usbd_edpt_claim+0x4e>
10006b70:	78e3      	ldrb	r3, [r4, #3]
10006b72:	075b      	lsls	r3, r3, #29
10006b74:	d501      	bpl.n	10006b7a <usbd_edpt_claim+0x26>
10006b76:	0028      	movs	r0, r5
10006b78:	bd70      	pop	{r4, r5, r6, pc}
10006b7a:	2101      	movs	r1, #1
10006b7c:	4e0d      	ldr	r6, [pc, #52]	; (10006bb4 <usbd_edpt_claim+0x60>)
10006b7e:	4249      	negs	r1, r1
10006b80:	6830      	ldr	r0, [r6, #0]
10006b82:	f004 fca9 	bl	1000b4d8 <__mutex_enter_timeout_ms_veneer>
10006b86:	78e3      	ldrb	r3, [r4, #3]
10006b88:	07db      	lsls	r3, r3, #31
10006b8a:	0fdd      	lsrs	r5, r3, #31
10006b8c:	2b00      	cmp	r3, #0
10006b8e:	d10a      	bne.n	10006ba6 <usbd_edpt_claim+0x52>
10006b90:	78e3      	ldrb	r3, [r4, #3]
10006b92:	075b      	lsls	r3, r3, #29
10006b94:	d408      	bmi.n	10006ba8 <usbd_edpt_claim+0x54>
10006b96:	2204      	movs	r2, #4
10006b98:	78e3      	ldrb	r3, [r4, #3]
10006b9a:	2501      	movs	r5, #1
10006b9c:	4313      	orrs	r3, r2
10006b9e:	70e3      	strb	r3, [r4, #3]
10006ba0:	e002      	b.n	10006ba8 <usbd_edpt_claim+0x54>
10006ba2:	2500      	movs	r5, #0
10006ba4:	e7e7      	b.n	10006b76 <usbd_edpt_claim+0x22>
10006ba6:	2500      	movs	r5, #0
10006ba8:	6830      	ldr	r0, [r6, #0]
10006baa:	f004 fc75 	bl	1000b498 <__mutex_exit_veneer>
10006bae:	e7e2      	b.n	10006b76 <usbd_edpt_claim+0x22>
10006bb0:	20001504 	.word	0x20001504
10006bb4:	20001558 	.word	0x20001558

10006bb8 <usbd_edpt_release>:
10006bb8:	b570      	push	{r4, r5, r6, lr}
10006bba:	000c      	movs	r4, r1
10006bbc:	2101      	movs	r1, #1
10006bbe:	4d0f      	ldr	r5, [pc, #60]	; (10006bfc <usbd_edpt_release+0x44>)
10006bc0:	4249      	negs	r1, r1
10006bc2:	6828      	ldr	r0, [r5, #0]
10006bc4:	f004 fc88 	bl	1000b4d8 <__mutex_enter_timeout_ms_veneer>
10006bc8:	217f      	movs	r1, #127	; 0x7f
10006bca:	4021      	ands	r1, r4
10006bcc:	004b      	lsls	r3, r1, #1
10006bce:	490c      	ldr	r1, [pc, #48]	; (10006c00 <usbd_edpt_release+0x48>)
10006bd0:	09e4      	lsrs	r4, r4, #7
10006bd2:	18c9      	adds	r1, r1, r3
10006bd4:	1909      	adds	r1, r1, r4
10006bd6:	3130      	adds	r1, #48	; 0x30
10006bd8:	78cb      	ldrb	r3, [r1, #3]
10006bda:	2400      	movs	r4, #0
10006bdc:	07db      	lsls	r3, r3, #31
10006bde:	d408      	bmi.n	10006bf2 <usbd_edpt_release+0x3a>
10006be0:	78cb      	ldrb	r3, [r1, #3]
10006be2:	075b      	lsls	r3, r3, #29
10006be4:	0fdc      	lsrs	r4, r3, #31
10006be6:	2b00      	cmp	r3, #0
10006be8:	da03      	bge.n	10006bf2 <usbd_edpt_release+0x3a>
10006bea:	2204      	movs	r2, #4
10006bec:	78cb      	ldrb	r3, [r1, #3]
10006bee:	4393      	bics	r3, r2
10006bf0:	70cb      	strb	r3, [r1, #3]
10006bf2:	6828      	ldr	r0, [r5, #0]
10006bf4:	f004 fc50 	bl	1000b498 <__mutex_exit_veneer>
10006bf8:	0020      	movs	r0, r4
10006bfa:	bd70      	pop	{r4, r5, r6, pc}
10006bfc:	20001558 	.word	0x20001558
10006c00:	20001504 	.word	0x20001504

10006c04 <usbd_edpt_xfer>:
10006c04:	b570      	push	{r4, r5, r6, lr}
10006c06:	257f      	movs	r5, #127	; 0x7f
10006c08:	4c0f      	ldr	r4, [pc, #60]	; (10006c48 <usbd_edpt_xfer+0x44>)
10006c0a:	400d      	ands	r5, r1
10006c0c:	006d      	lsls	r5, r5, #1
10006c0e:	1964      	adds	r4, r4, r5
10006c10:	0006      	movs	r6, r0
10006c12:	09c8      	lsrs	r0, r1, #7
10006c14:	1824      	adds	r4, r4, r0
10006c16:	3430      	adds	r4, #48	; 0x30
10006c18:	78e5      	ldrb	r5, [r4, #3]
10006c1a:	2000      	movs	r0, #0
10006c1c:	07ed      	lsls	r5, r5, #31
10006c1e:	d500      	bpl.n	10006c22 <usbd_edpt_xfer+0x1e>
10006c20:	bd70      	pop	{r4, r5, r6, pc}
10006c22:	2501      	movs	r5, #1
10006c24:	78e0      	ldrb	r0, [r4, #3]
10006c26:	4328      	orrs	r0, r5
10006c28:	70e0      	strb	r0, [r4, #3]
10006c2a:	0030      	movs	r0, r6
10006c2c:	f7fe fefc 	bl	10005a28 <dcd_edpt_xfer>
10006c30:	2800      	cmp	r0, #0
10006c32:	d1f5      	bne.n	10006c20 <usbd_edpt_xfer+0x1c>
10006c34:	2201      	movs	r2, #1
10006c36:	78e3      	ldrb	r3, [r4, #3]
10006c38:	4393      	bics	r3, r2
10006c3a:	70e3      	strb	r3, [r4, #3]
10006c3c:	78e3      	ldrb	r3, [r4, #3]
10006c3e:	3203      	adds	r2, #3
10006c40:	4393      	bics	r3, r2
10006c42:	70e3      	strb	r3, [r4, #3]
10006c44:	e7ec      	b.n	10006c20 <usbd_edpt_xfer+0x1c>
10006c46:	46c0      	nop			; (mov r8, r8)
10006c48:	20001504 	.word	0x20001504

10006c4c <tud_control_status>:
10006c4c:	b570      	push	{r4, r5, r6, lr}
10006c4e:	4e0a      	ldr	r6, [pc, #40]	; (10006c78 <tud_control_status+0x2c>)
10006c50:	0005      	movs	r5, r0
10006c52:	0030      	movs	r0, r6
10006c54:	2208      	movs	r2, #8
10006c56:	000c      	movs	r4, r1
10006c58:	f7fe f84a 	bl	10004cf0 <__wrap___aeabi_memcpy>
10006c5c:	2300      	movs	r3, #0
10006c5e:	217f      	movs	r1, #127	; 0x7f
10006c60:	60f3      	str	r3, [r6, #12]
10006c62:	7822      	ldrb	r2, [r4, #0]
10006c64:	60b3      	str	r3, [r6, #8]
10006c66:	4291      	cmp	r1, r2
10006c68:	415b      	adcs	r3, r3
10006c6a:	0028      	movs	r0, r5
10006c6c:	01d9      	lsls	r1, r3, #7
10006c6e:	2200      	movs	r2, #0
10006c70:	2300      	movs	r3, #0
10006c72:	f7ff ffc7 	bl	10006c04 <usbd_edpt_xfer>
10006c76:	bd70      	pop	{r4, r5, r6, pc}
10006c78:	200014a8 	.word	0x200014a8

10006c7c <tud_control_xfer>:
10006c7c:	b5f8      	push	{r3, r4, r5, r6, r7, lr}
10006c7e:	46ce      	mov	lr, r9
10006c80:	4647      	mov	r7, r8
10006c82:	4691      	mov	r9, r2
10006c84:	4e2a      	ldr	r6, [pc, #168]	; (10006d30 <tud_control_xfer+0xb4>)
10006c86:	b580      	push	{r7, lr}
10006c88:	2208      	movs	r2, #8
10006c8a:	0007      	movs	r7, r0
10006c8c:	0030      	movs	r0, r6
10006c8e:	000d      	movs	r5, r1
10006c90:	4698      	mov	r8, r3
10006c92:	f7fe f82d 	bl	10004cf0 <__wrap___aeabi_memcpy>
10006c96:	464b      	mov	r3, r9
10006c98:	60b3      	str	r3, [r6, #8]
10006c9a:	2300      	movs	r3, #0
10006c9c:	81f3      	strh	r3, [r6, #14]
10006c9e:	79ec      	ldrb	r4, [r5, #7]
10006ca0:	79a9      	ldrb	r1, [r5, #6]
10006ca2:	0224      	lsls	r4, r4, #8
10006ca4:	430c      	orrs	r4, r1
10006ca6:	1c23      	adds	r3, r4, #0
10006ca8:	4544      	cmp	r4, r8
10006caa:	d900      	bls.n	10006cae <tud_control_xfer+0x32>
10006cac:	4643      	mov	r3, r8
10006cae:	b29a      	uxth	r2, r3
10006cb0:	4690      	mov	r8, r2
10006cb2:	81b3      	strh	r3, [r6, #12]
10006cb4:	2c00      	cmp	r4, #0
10006cb6:	d013      	beq.n	10006ce0 <tud_control_xfer+0x64>
10006cb8:	2a00      	cmp	r2, #0
10006cba:	d01f      	beq.n	10006cfc <tud_control_xfer+0x80>
10006cbc:	464b      	mov	r3, r9
10006cbe:	2b00      	cmp	r3, #0
10006cc0:	d034      	beq.n	10006d2c <tud_control_xfer+0xb0>
10006cc2:	1c13      	adds	r3, r2, #0
10006cc4:	2a40      	cmp	r2, #64	; 0x40
10006cc6:	d81f      	bhi.n	10006d08 <tud_control_xfer+0x8c>
10006cc8:	b29b      	uxth	r3, r3
10006cca:	4698      	mov	r8, r3
10006ccc:	7833      	ldrb	r3, [r6, #0]
10006cce:	2b7f      	cmp	r3, #127	; 0x7f
10006cd0:	d820      	bhi.n	10006d14 <tud_control_xfer+0x98>
10006cd2:	2100      	movs	r1, #0
10006cd4:	4a17      	ldr	r2, [pc, #92]	; (10006d34 <tud_control_xfer+0xb8>)
10006cd6:	4643      	mov	r3, r8
10006cd8:	0038      	movs	r0, r7
10006cda:	f7ff ff93 	bl	10006c04 <usbd_edpt_xfer>
10006cde:	e009      	b.n	10006cf4 <tud_control_xfer+0x78>
10006ce0:	227f      	movs	r2, #127	; 0x7f
10006ce2:	782b      	ldrb	r3, [r5, #0]
10006ce4:	0038      	movs	r0, r7
10006ce6:	429a      	cmp	r2, r3
10006ce8:	4164      	adcs	r4, r4
10006cea:	2300      	movs	r3, #0
10006cec:	2200      	movs	r2, #0
10006cee:	01e1      	lsls	r1, r4, #7
10006cf0:	f7ff ff88 	bl	10006c04 <usbd_edpt_xfer>
10006cf4:	bcc0      	pop	{r6, r7}
10006cf6:	46b9      	mov	r9, r7
10006cf8:	46b0      	mov	r8, r6
10006cfa:	bdf8      	pop	{r3, r4, r5, r6, r7, pc}
10006cfc:	7833      	ldrb	r3, [r6, #0]
10006cfe:	2b7f      	cmp	r3, #127	; 0x7f
10006d00:	d911      	bls.n	10006d26 <tud_control_xfer+0xaa>
10006d02:	2180      	movs	r1, #128	; 0x80
10006d04:	2200      	movs	r2, #0
10006d06:	e7e6      	b.n	10006cd6 <tud_control_xfer+0x5a>
10006d08:	2340      	movs	r3, #64	; 0x40
10006d0a:	b29b      	uxth	r3, r3
10006d0c:	4698      	mov	r8, r3
10006d0e:	7833      	ldrb	r3, [r6, #0]
10006d10:	2b7f      	cmp	r3, #127	; 0x7f
10006d12:	d9de      	bls.n	10006cd2 <tud_control_xfer+0x56>
10006d14:	4c07      	ldr	r4, [pc, #28]	; (10006d34 <tud_control_xfer+0xb8>)
10006d16:	4642      	mov	r2, r8
10006d18:	4649      	mov	r1, r9
10006d1a:	0020      	movs	r0, r4
10006d1c:	f7fd ffe8 	bl	10004cf0 <__wrap___aeabi_memcpy>
10006d20:	2180      	movs	r1, #128	; 0x80
10006d22:	0022      	movs	r2, r4
10006d24:	e7d7      	b.n	10006cd6 <tud_control_xfer+0x5a>
10006d26:	2100      	movs	r1, #0
10006d28:	2200      	movs	r2, #0
10006d2a:	e7d4      	b.n	10006cd6 <tud_control_xfer+0x5a>
10006d2c:	2000      	movs	r0, #0
10006d2e:	e7e1      	b.n	10006cf4 <tud_control_xfer+0x78>
10006d30:	200014a8 	.word	0x200014a8
10006d34:	200014c4 	.word	0x200014c4

10006d38 <usbd_control_reset>:
10006d38:	b510      	push	{r4, lr}
10006d3a:	2214      	movs	r2, #20
10006d3c:	2100      	movs	r1, #0
10006d3e:	4802      	ldr	r0, [pc, #8]	; (10006d48 <usbd_control_reset+0x10>)
10006d40:	f7fd ffd0 	bl	10004ce4 <__wrap_memset>
10006d44:	bd10      	pop	{r4, pc}
10006d46:	46c0      	nop			; (mov r8, r8)
10006d48:	200014a8 	.word	0x200014a8

10006d4c <usbd_control_set_complete_callback>:
10006d4c:	4b01      	ldr	r3, [pc, #4]	; (10006d54 <usbd_control_set_complete_callback+0x8>)
10006d4e:	6118      	str	r0, [r3, #16]
10006d50:	4770      	bx	lr
10006d52:	46c0      	nop			; (mov r8, r8)
10006d54:	200014a8 	.word	0x200014a8

10006d58 <usbd_control_set_request>:
10006d58:	b510      	push	{r4, lr}
10006d5a:	4c05      	ldr	r4, [pc, #20]	; (10006d70 <usbd_control_set_request+0x18>)
10006d5c:	0001      	movs	r1, r0
10006d5e:	2208      	movs	r2, #8
10006d60:	0020      	movs	r0, r4
10006d62:	f7fd ffc5 	bl	10004cf0 <__wrap___aeabi_memcpy>
10006d66:	2300      	movs	r3, #0
10006d68:	60a3      	str	r3, [r4, #8]
10006d6a:	60e3      	str	r3, [r4, #12]
10006d6c:	bd10      	pop	{r4, pc}
10006d6e:	46c0      	nop			; (mov r8, r8)
10006d70:	200014a8 	.word	0x200014a8

10006d74 <usbd_control_xfer_cb>:
10006d74:	b5f8      	push	{r3, r4, r5, r6, r7, lr}
10006d76:	4c3b      	ldr	r4, [pc, #236]	; (10006e64 <usbd_control_xfer_cb+0xf0>)
10006d78:	001d      	movs	r5, r3
10006d7a:	7823      	ldrb	r3, [r4, #0]
10006d7c:	0006      	movs	r6, r0
10006d7e:	09da      	lsrs	r2, r3, #7
10006d80:	09c9      	lsrs	r1, r1, #7
10006d82:	428a      	cmp	r2, r1
10006d84:	d013      	beq.n	10006dae <usbd_control_xfer_cb+0x3a>
10006d86:	2000      	movs	r0, #0
10006d88:	2d00      	cmp	r5, #0
10006d8a:	d000      	beq.n	10006d8e <usbd_control_xfer_cb+0x1a>
10006d8c:	bdf8      	pop	{r3, r4, r5, r6, r7, pc}
10006d8e:	4b36      	ldr	r3, [pc, #216]	; (10006e68 <usbd_control_xfer_cb+0xf4>)
10006d90:	2b00      	cmp	r3, #0
10006d92:	d003      	beq.n	10006d9c <usbd_control_xfer_cb+0x28>
10006d94:	0021      	movs	r1, r4
10006d96:	0030      	movs	r0, r6
10006d98:	f7fe fd62 	bl	10005860 <dcd_edpt0_status_complete>
10006d9c:	6923      	ldr	r3, [r4, #16]
10006d9e:	2b00      	cmp	r3, #0
10006da0:	d044      	beq.n	10006e2c <usbd_control_xfer_cb+0xb8>
10006da2:	0022      	movs	r2, r4
10006da4:	2102      	movs	r1, #2
10006da6:	0030      	movs	r0, r6
10006da8:	4798      	blx	r3
10006daa:	2001      	movs	r0, #1
10006dac:	e7ee      	b.n	10006d8c <usbd_control_xfer_cb+0x18>
10006dae:	2b7f      	cmp	r3, #127	; 0x7f
10006db0:	d806      	bhi.n	10006dc0 <usbd_control_xfer_cb+0x4c>
10006db2:	68a0      	ldr	r0, [r4, #8]
10006db4:	2800      	cmp	r0, #0
10006db6:	d037      	beq.n	10006e28 <usbd_control_xfer_cb+0xb4>
10006db8:	002a      	movs	r2, r5
10006dba:	492c      	ldr	r1, [pc, #176]	; (10006e6c <usbd_control_xfer_cb+0xf8>)
10006dbc:	f7fd ff98 	bl	10004cf0 <__wrap___aeabi_memcpy>
10006dc0:	68a3      	ldr	r3, [r4, #8]
10006dc2:	89e2      	ldrh	r2, [r4, #14]
10006dc4:	1959      	adds	r1, r3, r5
10006dc6:	1952      	adds	r2, r2, r5
10006dc8:	88e3      	ldrh	r3, [r4, #6]
10006dca:	b292      	uxth	r2, r2
10006dcc:	81e2      	strh	r2, [r4, #14]
10006dce:	60a1      	str	r1, [r4, #8]
10006dd0:	4293      	cmp	r3, r2
10006dd2:	d014      	beq.n	10006dfe <usbd_control_xfer_cb+0x8a>
10006dd4:	2d3f      	cmp	r5, #63	; 0x3f
10006dd6:	d912      	bls.n	10006dfe <usbd_control_xfer_cb+0x8a>
10006dd8:	89a5      	ldrh	r5, [r4, #12]
10006dda:	1aa8      	subs	r0, r5, r2
10006ddc:	1c07      	adds	r7, r0, #0
10006dde:	b280      	uxth	r0, r0
10006de0:	2840      	cmp	r0, #64	; 0x40
10006de2:	d82f      	bhi.n	10006e44 <usbd_control_xfer_cb+0xd0>
10006de4:	7823      	ldrb	r3, [r4, #0]
10006de6:	b2bf      	uxth	r7, r7
10006de8:	2b7f      	cmp	r3, #127	; 0x7f
10006dea:	d82d      	bhi.n	10006e48 <usbd_control_xfer_cb+0xd4>
10006dec:	2100      	movs	r1, #0
10006dee:	42aa      	cmp	r2, r5
10006df0:	d035      	beq.n	10006e5e <usbd_control_xfer_cb+0xea>
10006df2:	4a1e      	ldr	r2, [pc, #120]	; (10006e6c <usbd_control_xfer_cb+0xf8>)
10006df4:	003b      	movs	r3, r7
10006df6:	0030      	movs	r0, r6
10006df8:	f7ff ff04 	bl	10006c04 <usbd_edpt_xfer>
10006dfc:	e7c6      	b.n	10006d8c <usbd_control_xfer_cb+0x18>
10006dfe:	6923      	ldr	r3, [r4, #16]
10006e00:	2b00      	cmp	r3, #0
10006e02:	d005      	beq.n	10006e10 <usbd_control_xfer_cb+0x9c>
10006e04:	0022      	movs	r2, r4
10006e06:	2101      	movs	r1, #1
10006e08:	0030      	movs	r0, r6
10006e0a:	4798      	blx	r3
10006e0c:	2800      	cmp	r0, #0
10006e0e:	d00f      	beq.n	10006e30 <usbd_control_xfer_cb+0xbc>
10006e10:	227f      	movs	r2, #127	; 0x7f
10006e12:	2100      	movs	r1, #0
10006e14:	7823      	ldrb	r3, [r4, #0]
10006e16:	0030      	movs	r0, r6
10006e18:	429a      	cmp	r2, r3
10006e1a:	4149      	adcs	r1, r1
10006e1c:	2300      	movs	r3, #0
10006e1e:	2200      	movs	r2, #0
10006e20:	01c9      	lsls	r1, r1, #7
10006e22:	f7ff feef 	bl	10006c04 <usbd_edpt_xfer>
10006e26:	e7b1      	b.n	10006d8c <usbd_control_xfer_cb+0x18>
10006e28:	2000      	movs	r0, #0
10006e2a:	e7af      	b.n	10006d8c <usbd_control_xfer_cb+0x18>
10006e2c:	2001      	movs	r0, #1
10006e2e:	e7ad      	b.n	10006d8c <usbd_control_xfer_cb+0x18>
10006e30:	2100      	movs	r1, #0
10006e32:	0030      	movs	r0, r6
10006e34:	f7fe fe0a 	bl	10005a4c <dcd_edpt_stall>
10006e38:	0030      	movs	r0, r6
10006e3a:	2180      	movs	r1, #128	; 0x80
10006e3c:	f7fe fe06 	bl	10005a4c <dcd_edpt_stall>
10006e40:	2001      	movs	r0, #1
10006e42:	e7a3      	b.n	10006d8c <usbd_control_xfer_cb+0x18>
10006e44:	2740      	movs	r7, #64	; 0x40
10006e46:	e7cd      	b.n	10006de4 <usbd_control_xfer_cb+0x70>
10006e48:	42aa      	cmp	r2, r5
10006e4a:	d007      	beq.n	10006e5c <usbd_control_xfer_cb+0xe8>
10006e4c:	4c07      	ldr	r4, [pc, #28]	; (10006e6c <usbd_control_xfer_cb+0xf8>)
10006e4e:	003a      	movs	r2, r7
10006e50:	0020      	movs	r0, r4
10006e52:	f7fd ff4d 	bl	10004cf0 <__wrap___aeabi_memcpy>
10006e56:	2180      	movs	r1, #128	; 0x80
10006e58:	0022      	movs	r2, r4
10006e5a:	e7cb      	b.n	10006df4 <usbd_control_xfer_cb+0x80>
10006e5c:	2180      	movs	r1, #128	; 0x80
10006e5e:	2200      	movs	r2, #0
10006e60:	e7c8      	b.n	10006df4 <usbd_control_xfer_cb+0x80>
10006e62:	46c0      	nop			; (mov r8, r8)
10006e64:	200014a8 	.word	0x200014a8
10006e68:	10005861 	.word	0x10005861
10006e6c:	200014c4 	.word	0x200014c4

10006e70 <tud_cdc_n_connected>:
10006e70:	b510      	push	{r4, lr}
10006e72:	0004      	movs	r4, r0
10006e74:	f7ff f808 	bl	10005e88 <tud_mounted>
10006e78:	2800      	cmp	r0, #0
10006e7a:	d101      	bne.n	10006e80 <tud_cdc_n_connected+0x10>
10006e7c:	2000      	movs	r0, #0
10006e7e:	bd10      	pop	{r4, pc}
10006e80:	f7ff f80a 	bl	10005e98 <tud_suspended>
10006e84:	2800      	cmp	r0, #0
10006e86:	d1f9      	bne.n	10006e7c <tud_cdc_n_connected+0xc>
10006e88:	20b6      	movs	r0, #182	; 0xb6
10006e8a:	0080      	lsls	r0, r0, #2
10006e8c:	4344      	muls	r4, r0
10006e8e:	4803      	ldr	r0, [pc, #12]	; (10006e9c <tud_cdc_n_connected+0x2c>)
10006e90:	1900      	adds	r0, r0, r4
10006e92:	7903      	ldrb	r3, [r0, #4]
10006e94:	2001      	movs	r0, #1
10006e96:	4018      	ands	r0, r3
10006e98:	e7f1      	b.n	10006e7e <tud_cdc_n_connected+0xe>
10006e9a:	46c0      	nop			; (mov r8, r8)
10006e9c:	200011d0 	.word	0x200011d0

10006ea0 <tud_cdc_n_available>:
10006ea0:	23b6      	movs	r3, #182	; 0xb6
10006ea2:	009b      	lsls	r3, r3, #2
10006ea4:	4358      	muls	r0, r3
10006ea6:	b510      	push	{r4, lr}
10006ea8:	4b02      	ldr	r3, [pc, #8]	; (10006eb4 <tud_cdc_n_available+0x14>)
10006eaa:	3010      	adds	r0, #16
10006eac:	18c0      	adds	r0, r0, r3
10006eae:	f000 fb11 	bl	100074d4 <tu_fifo_count>
10006eb2:	bd10      	pop	{r4, pc}
10006eb4:	200011d0 	.word	0x200011d0

10006eb8 <tud_cdc_n_read>:
10006eb8:	b5f0      	push	{r4, r5, r6, r7, lr}
10006eba:	25b6      	movs	r5, #182	; 0xb6
10006ebc:	00ad      	lsls	r5, r5, #2
10006ebe:	4345      	muls	r5, r0
10006ec0:	002c      	movs	r4, r5
10006ec2:	46c6      	mov	lr, r8
10006ec4:	4f17      	ldr	r7, [pc, #92]	; (10006f24 <tud_cdc_n_read+0x6c>)
10006ec6:	3410      	adds	r4, #16
10006ec8:	19e4      	adds	r4, r4, r7
10006eca:	b500      	push	{lr}
10006ecc:	0020      	movs	r0, r4
10006ece:	b292      	uxth	r2, r2
10006ed0:	f000 fb74 	bl	100075bc <tu_fifo_read_n>
10006ed4:	0006      	movs	r6, r0
10006ed6:	0020      	movs	r0, r4
10006ed8:	f000 fb14 	bl	10007504 <tu_fifo_remaining>
10006edc:	283f      	cmp	r0, #63	; 0x3f
10006ede:	d803      	bhi.n	10006ee8 <tud_cdc_n_read+0x30>
10006ee0:	0030      	movs	r0, r6
10006ee2:	bc80      	pop	{r7}
10006ee4:	46b8      	mov	r8, r7
10006ee6:	bdf0      	pop	{r4, r5, r6, r7, pc}
10006ee8:	197b      	adds	r3, r7, r5
10006eea:	2000      	movs	r0, #0
10006eec:	78d9      	ldrb	r1, [r3, #3]
10006eee:	4698      	mov	r8, r3
10006ef0:	f7ff fe30 	bl	10006b54 <usbd_edpt_claim>
10006ef4:	2800      	cmp	r0, #0
10006ef6:	d0f3      	beq.n	10006ee0 <tud_cdc_n_read+0x28>
10006ef8:	0020      	movs	r0, r4
10006efa:	f000 fb03 	bl	10007504 <tu_fifo_remaining>
10006efe:	283f      	cmp	r0, #63	; 0x3f
10006f00:	d90a      	bls.n	10006f18 <tud_cdc_n_read+0x60>
10006f02:	2396      	movs	r3, #150	; 0x96
10006f04:	009b      	lsls	r3, r3, #2
10006f06:	18ea      	adds	r2, r5, r3
10006f08:	4643      	mov	r3, r8
10006f0a:	19d2      	adds	r2, r2, r7
10006f0c:	78d9      	ldrb	r1, [r3, #3]
10006f0e:	2000      	movs	r0, #0
10006f10:	2340      	movs	r3, #64	; 0x40
10006f12:	f7ff fe77 	bl	10006c04 <usbd_edpt_xfer>
10006f16:	e7e3      	b.n	10006ee0 <tud_cdc_n_read+0x28>
10006f18:	4643      	mov	r3, r8
10006f1a:	2000      	movs	r0, #0
10006f1c:	78d9      	ldrb	r1, [r3, #3]
10006f1e:	f7ff fe4b 	bl	10006bb8 <usbd_edpt_release>
10006f22:	e7dd      	b.n	10006ee0 <tud_cdc_n_read+0x28>
10006f24:	200011d0 	.word	0x200011d0

10006f28 <tud_cdc_n_write_flush>:
10006f28:	b5f8      	push	{r3, r4, r5, r6, r7, lr}
10006f2a:	0004      	movs	r4, r0
10006f2c:	f7fe ffac 	bl	10005e88 <tud_mounted>
10006f30:	2800      	cmp	r0, #0
10006f32:	d101      	bne.n	10006f38 <tud_cdc_n_write_flush+0x10>
10006f34:	2000      	movs	r0, #0
10006f36:	bdf8      	pop	{r3, r4, r5, r6, r7, pc}
10006f38:	f7fe ffae 	bl	10005e98 <tud_suspended>
10006f3c:	2800      	cmp	r0, #0
10006f3e:	d1f9      	bne.n	10006f34 <tud_cdc_n_write_flush+0xc>
10006f40:	20b6      	movs	r0, #182	; 0xb6
10006f42:	0080      	lsls	r0, r0, #2
10006f44:	4344      	muls	r4, r0
10006f46:	0025      	movs	r5, r4
10006f48:	4e14      	ldr	r6, [pc, #80]	; (10006f9c <tud_cdc_n_write_flush+0x74>)
10006f4a:	352c      	adds	r5, #44	; 0x2c
10006f4c:	19ad      	adds	r5, r5, r6
10006f4e:	0028      	movs	r0, r5
10006f50:	f000 fac0 	bl	100074d4 <tu_fifo_count>
10006f54:	2800      	cmp	r0, #0
10006f56:	d0ed      	beq.n	10006f34 <tud_cdc_n_write_flush+0xc>
10006f58:	1937      	adds	r7, r6, r4
10006f5a:	2000      	movs	r0, #0
10006f5c:	78b9      	ldrb	r1, [r7, #2]
10006f5e:	f7ff fdf9 	bl	10006b54 <usbd_edpt_claim>
10006f62:	2800      	cmp	r0, #0
10006f64:	d0e6      	beq.n	10006f34 <tud_cdc_n_write_flush+0xc>
10006f66:	23a6      	movs	r3, #166	; 0xa6
10006f68:	009b      	lsls	r3, r3, #2
10006f6a:	469c      	mov	ip, r3
10006f6c:	4464      	add	r4, ip
10006f6e:	19a4      	adds	r4, r4, r6
10006f70:	0021      	movs	r1, r4
10006f72:	0028      	movs	r0, r5
10006f74:	2240      	movs	r2, #64	; 0x40
10006f76:	f000 fb21 	bl	100075bc <tu_fifo_read_n>
10006f7a:	78b9      	ldrb	r1, [r7, #2]
10006f7c:	1e05      	subs	r5, r0, #0
10006f7e:	d008      	beq.n	10006f92 <tud_cdc_n_write_flush+0x6a>
10006f80:	0003      	movs	r3, r0
10006f82:	0022      	movs	r2, r4
10006f84:	2000      	movs	r0, #0
10006f86:	f7ff fe3d 	bl	10006c04 <usbd_edpt_xfer>
10006f8a:	2800      	cmp	r0, #0
10006f8c:	d0d2      	beq.n	10006f34 <tud_cdc_n_write_flush+0xc>
10006f8e:	0028      	movs	r0, r5
10006f90:	e7d1      	b.n	10006f36 <tud_cdc_n_write_flush+0xe>
10006f92:	2000      	movs	r0, #0
10006f94:	f7ff fe10 	bl	10006bb8 <usbd_edpt_release>
10006f98:	e7cc      	b.n	10006f34 <tud_cdc_n_write_flush+0xc>
10006f9a:	46c0      	nop			; (mov r8, r8)
10006f9c:	200011d0 	.word	0x200011d0

10006fa0 <tud_cdc_n_write>:
10006fa0:	b570      	push	{r4, r5, r6, lr}
10006fa2:	24b6      	movs	r4, #182	; 0xb6
10006fa4:	00a4      	lsls	r4, r4, #2
10006fa6:	4344      	muls	r4, r0
10006fa8:	4b09      	ldr	r3, [pc, #36]	; (10006fd0 <tud_cdc_n_write+0x30>)
10006faa:	342c      	adds	r4, #44	; 0x2c
10006fac:	18e4      	adds	r4, r4, r3
10006fae:	0005      	movs	r5, r0
10006fb0:	b292      	uxth	r2, r2
10006fb2:	0020      	movs	r0, r4
10006fb4:	f000 fbc0 	bl	10007738 <tu_fifo_write_n>
10006fb8:	0006      	movs	r6, r0
10006fba:	0020      	movs	r0, r4
10006fbc:	f000 fa8a 	bl	100074d4 <tu_fifo_count>
10006fc0:	283f      	cmp	r0, #63	; 0x3f
10006fc2:	d801      	bhi.n	10006fc8 <tud_cdc_n_write+0x28>
10006fc4:	0030      	movs	r0, r6
10006fc6:	bd70      	pop	{r4, r5, r6, pc}
10006fc8:	0028      	movs	r0, r5
10006fca:	f7ff ffad 	bl	10006f28 <tud_cdc_n_write_flush>
10006fce:	e7f9      	b.n	10006fc4 <tud_cdc_n_write+0x24>
10006fd0:	200011d0 	.word	0x200011d0

10006fd4 <tud_cdc_n_write_available>:
10006fd4:	23b6      	movs	r3, #182	; 0xb6
10006fd6:	009b      	lsls	r3, r3, #2
10006fd8:	4358      	muls	r0, r3
10006fda:	b510      	push	{r4, lr}
10006fdc:	4b02      	ldr	r3, [pc, #8]	; (10006fe8 <tud_cdc_n_write_available+0x14>)
10006fde:	302c      	adds	r0, #44	; 0x2c
10006fe0:	18c0      	adds	r0, r0, r3
10006fe2:	f000 fa8f 	bl	10007504 <tu_fifo_remaining>
10006fe6:	bd10      	pop	{r4, pc}
10006fe8:	200011d0 	.word	0x200011d0

10006fec <cdcd_init>:
10006fec:	22b6      	movs	r2, #182	; 0xb6
10006fee:	b5f0      	push	{r4, r5, r6, r7, lr}
10006ff0:	4c1b      	ldr	r4, [pc, #108]	; (10007060 <cdcd_init+0x74>)
10006ff2:	b083      	sub	sp, #12
10006ff4:	2100      	movs	r1, #0
10006ff6:	0020      	movs	r0, r4
10006ff8:	0092      	lsls	r2, r2, #2
10006ffa:	f7fd fe73 	bl	10004ce4 <__wrap_memset>
10006ffe:	23ff      	movs	r3, #255	; 0xff
10007000:	7163      	strb	r3, [r4, #5]
10007002:	4b18      	ldr	r3, [pc, #96]	; (10007064 <cdcd_init+0x78>)
10007004:	2680      	movs	r6, #128	; 0x80
10007006:	2500      	movs	r5, #0
10007008:	80e3      	strh	r3, [r4, #6]
1000700a:	2701      	movs	r7, #1
1000700c:	2308      	movs	r3, #8
1000700e:	0021      	movs	r1, r4
10007010:	0020      	movs	r0, r4
10007012:	0076      	lsls	r6, r6, #1
10007014:	7323      	strb	r3, [r4, #12]
10007016:	0032      	movs	r2, r6
10007018:	8127      	strh	r7, [r4, #8]
1000701a:	3148      	adds	r1, #72	; 0x48
1000701c:	9500      	str	r5, [sp, #0]
1000701e:	3b07      	subs	r3, #7
10007020:	3010      	adds	r0, #16
10007022:	f000 fa1b 	bl	1000745c <tu_fifo_config>
10007026:	0021      	movs	r1, r4
10007028:	0020      	movs	r0, r4
1000702a:	3149      	adds	r1, #73	; 0x49
1000702c:	0032      	movs	r2, r6
1000702e:	31ff      	adds	r1, #255	; 0xff
10007030:	2301      	movs	r3, #1
10007032:	9700      	str	r7, [sp, #0]
10007034:	302c      	adds	r0, #44	; 0x2c
10007036:	f000 fa11 	bl	1000745c <tu_fifo_config>
1000703a:	2392      	movs	r3, #146	; 0x92
1000703c:	009b      	lsls	r3, r3, #2
1000703e:	18e6      	adds	r6, r4, r3
10007040:	0030      	movs	r0, r6
10007042:	f7fb f877 	bl	10002134 <mutex_init>
10007046:	2394      	movs	r3, #148	; 0x94
10007048:	009b      	lsls	r3, r3, #2
1000704a:	62a6      	str	r6, [r4, #40]	; 0x28
1000704c:	18e6      	adds	r6, r4, r3
1000704e:	0030      	movs	r0, r6
10007050:	6265      	str	r5, [r4, #36]	; 0x24
10007052:	f7fb f86f 	bl	10002134 <mutex_init>
10007056:	6426      	str	r6, [r4, #64]	; 0x40
10007058:	6465      	str	r5, [r4, #68]	; 0x44
1000705a:	b003      	add	sp, #12
1000705c:	bdf0      	pop	{r4, r5, r6, r7, pc}
1000705e:	46c0      	nop			; (mov r8, r8)
10007060:	200011d0 	.word	0x200011d0
10007064:	ffffc200 	.word	0xffffc200

10007068 <cdcd_reset>:
10007068:	b510      	push	{r4, lr}
1000706a:	4c09      	ldr	r4, [pc, #36]	; (10007090 <cdcd_reset+0x28>)
1000706c:	2205      	movs	r2, #5
1000706e:	2100      	movs	r1, #0
10007070:	0020      	movs	r0, r4
10007072:	f7fd fe37 	bl	10004ce4 <__wrap_memset>
10007076:	0020      	movs	r0, r4
10007078:	342c      	adds	r4, #44	; 0x2c
1000707a:	3010      	adds	r0, #16
1000707c:	f000 fbdc 	bl	10007838 <tu_fifo_clear>
10007080:	0020      	movs	r0, r4
10007082:	f000 fbd9 	bl	10007838 <tu_fifo_clear>
10007086:	2101      	movs	r1, #1
10007088:	0020      	movs	r0, r4
1000708a:	f000 fbfb 	bl	10007884 <tu_fifo_set_overwritable>
1000708e:	bd10      	pop	{r4, pc}
10007090:	200011d0 	.word	0x200011d0

10007094 <cdcd_open>:
10007094:	b5f0      	push	{r4, r5, r6, r7, lr}
10007096:	794b      	ldrb	r3, [r1, #5]
10007098:	0006      	movs	r6, r0
1000709a:	b083      	sub	sp, #12
1000709c:	2b02      	cmp	r3, #2
1000709e:	d102      	bne.n	100070a6 <cdcd_open+0x12>
100070a0:	798b      	ldrb	r3, [r1, #6]
100070a2:	2b02      	cmp	r3, #2
100070a4:	d003      	beq.n	100070ae <cdcd_open+0x1a>
100070a6:	2500      	movs	r5, #0
100070a8:	0028      	movs	r0, r5
100070aa:	b003      	add	sp, #12
100070ac:	bdf0      	pop	{r4, r5, r6, r7, pc}
100070ae:	4f2f      	ldr	r7, [pc, #188]	; (1000716c <cdcd_open+0xd8>)
100070b0:	78bb      	ldrb	r3, [r7, #2]
100070b2:	2b00      	cmp	r3, #0
100070b4:	d1f7      	bne.n	100070a6 <cdcd_open+0x12>
100070b6:	788b      	ldrb	r3, [r1, #2]
100070b8:	2509      	movs	r5, #9
100070ba:	703b      	strb	r3, [r7, #0]
100070bc:	780c      	ldrb	r4, [r1, #0]
100070be:	190c      	adds	r4, r1, r4
100070c0:	7863      	ldrb	r3, [r4, #1]
100070c2:	2b24      	cmp	r3, #36	; 0x24
100070c4:	d10b      	bne.n	100070de <cdcd_open+0x4a>
100070c6:	2a08      	cmp	r2, #8
100070c8:	d802      	bhi.n	100070d0 <cdcd_open+0x3c>
100070ca:	e00f      	b.n	100070ec <cdcd_open+0x58>
100070cc:	42aa      	cmp	r2, r5
100070ce:	d30d      	bcc.n	100070ec <cdcd_open+0x58>
100070d0:	7823      	ldrb	r3, [r4, #0]
100070d2:	18e4      	adds	r4, r4, r3
100070d4:	18ed      	adds	r5, r5, r3
100070d6:	7863      	ldrb	r3, [r4, #1]
100070d8:	b2ad      	uxth	r5, r5
100070da:	2b24      	cmp	r3, #36	; 0x24
100070dc:	d0f6      	beq.n	100070cc <cdcd_open+0x38>
100070de:	2b05      	cmp	r3, #5
100070e0:	d020      	beq.n	10007124 <cdcd_open+0x90>
100070e2:	2b04      	cmp	r3, #4
100070e4:	d102      	bne.n	100070ec <cdcd_open+0x58>
100070e6:	7963      	ldrb	r3, [r4, #5]
100070e8:	2b0a      	cmp	r3, #10
100070ea:	d02e      	beq.n	1000714a <cdcd_open+0xb6>
100070ec:	4c20      	ldr	r4, [pc, #128]	; (10007170 <cdcd_open+0xdc>)
100070ee:	0020      	movs	r0, r4
100070f0:	f000 fa08 	bl	10007504 <tu_fifo_remaining>
100070f4:	283f      	cmp	r0, #63	; 0x3f
100070f6:	d9d7      	bls.n	100070a8 <cdcd_open+0x14>
100070f8:	0026      	movs	r6, r4
100070fa:	3e10      	subs	r6, #16
100070fc:	2000      	movs	r0, #0
100070fe:	78f1      	ldrb	r1, [r6, #3]
10007100:	f7ff fd28 	bl	10006b54 <usbd_edpt_claim>
10007104:	2800      	cmp	r0, #0
10007106:	d0cf      	beq.n	100070a8 <cdcd_open+0x14>
10007108:	0020      	movs	r0, r4
1000710a:	f000 f9fb 	bl	10007504 <tu_fifo_remaining>
1000710e:	283f      	cmp	r0, #63	; 0x3f
10007110:	d916      	bls.n	10007140 <cdcd_open+0xac>
10007112:	2392      	movs	r3, #146	; 0x92
10007114:	009b      	lsls	r3, r3, #2
10007116:	18e2      	adds	r2, r4, r3
10007118:	78f1      	ldrb	r1, [r6, #3]
1000711a:	2340      	movs	r3, #64	; 0x40
1000711c:	2000      	movs	r0, #0
1000711e:	f7ff fd71 	bl	10006c04 <usbd_edpt_xfer>
10007122:	e7c1      	b.n	100070a8 <cdcd_open+0x14>
10007124:	0021      	movs	r1, r4
10007126:	0030      	movs	r0, r6
10007128:	f7ff fcfc 	bl	10006b24 <usbd_edpt_open>
1000712c:	2800      	cmp	r0, #0
1000712e:	d0ba      	beq.n	100070a6 <cdcd_open+0x12>
10007130:	78a3      	ldrb	r3, [r4, #2]
10007132:	707b      	strb	r3, [r7, #1]
10007134:	7823      	ldrb	r3, [r4, #0]
10007136:	18ed      	adds	r5, r5, r3
10007138:	18e4      	adds	r4, r4, r3
1000713a:	7863      	ldrb	r3, [r4, #1]
1000713c:	b2ad      	uxth	r5, r5
1000713e:	e7d0      	b.n	100070e2 <cdcd_open+0x4e>
10007140:	78f1      	ldrb	r1, [r6, #3]
10007142:	2000      	movs	r0, #0
10007144:	f7ff fd38 	bl	10006bb8 <usbd_edpt_release>
10007148:	e7ae      	b.n	100070a8 <cdcd_open+0x14>
1000714a:	4b0a      	ldr	r3, [pc, #40]	; (10007174 <cdcd_open+0xe0>)
1000714c:	7827      	ldrb	r7, [r4, #0]
1000714e:	9301      	str	r3, [sp, #4]
10007150:	3301      	adds	r3, #1
10007152:	9300      	str	r3, [sp, #0]
10007154:	2202      	movs	r2, #2
10007156:	2302      	movs	r3, #2
10007158:	0030      	movs	r0, r6
1000715a:	19e1      	adds	r1, r4, r7
1000715c:	f7ff fca2 	bl	10006aa4 <usbd_open_edpt_pair>
10007160:	2800      	cmp	r0, #0
10007162:	d0a0      	beq.n	100070a6 <cdcd_open+0x12>
10007164:	350e      	adds	r5, #14
10007166:	19ed      	adds	r5, r5, r7
10007168:	b2ad      	uxth	r5, r5
1000716a:	e7bf      	b.n	100070ec <cdcd_open+0x58>
1000716c:	200011d0 	.word	0x200011d0
10007170:	200011e0 	.word	0x200011e0
10007174:	200011d2 	.word	0x200011d2

10007178 <cdcd_control_xfer_cb>:
10007178:	b5f8      	push	{r3, r4, r5, r6, r7, lr}
1000717a:	2360      	movs	r3, #96	; 0x60
1000717c:	0014      	movs	r4, r2
1000717e:	7812      	ldrb	r2, [r2, #0]
10007180:	0005      	movs	r5, r0
10007182:	4013      	ands	r3, r2
10007184:	2000      	movs	r0, #0
10007186:	2b20      	cmp	r3, #32
10007188:	d112      	bne.n	100071b0 <cdcd_control_xfer_cb+0x38>
1000718a:	4a2f      	ldr	r2, [pc, #188]	; (10007248 <cdcd_control_xfer_cb+0xd0>)
1000718c:	7963      	ldrb	r3, [r4, #5]
1000718e:	7927      	ldrb	r7, [r4, #4]
10007190:	7816      	ldrb	r6, [r2, #0]
10007192:	021b      	lsls	r3, r3, #8
10007194:	433b      	orrs	r3, r7
10007196:	429e      	cmp	r6, r3
10007198:	d10a      	bne.n	100071b0 <cdcd_control_xfer_cb+0x38>
1000719a:	7863      	ldrb	r3, [r4, #1]
1000719c:	2b22      	cmp	r3, #34	; 0x22
1000719e:	d027      	beq.n	100071f0 <cdcd_control_xfer_cb+0x78>
100071a0:	d807      	bhi.n	100071b2 <cdcd_control_xfer_cb+0x3a>
100071a2:	2b20      	cmp	r3, #32
100071a4:	d017      	beq.n	100071d6 <cdcd_control_xfer_cb+0x5e>
100071a6:	2b21      	cmp	r3, #33	; 0x21
100071a8:	d102      	bne.n	100071b0 <cdcd_control_xfer_cb+0x38>
100071aa:	2900      	cmp	r1, #0
100071ac:	d03d      	beq.n	1000722a <cdcd_control_xfer_cb+0xb2>
100071ae:	2001      	movs	r0, #1
100071b0:	bdf8      	pop	{r3, r4, r5, r6, r7, pc}
100071b2:	2b23      	cmp	r3, #35	; 0x23
100071b4:	d1fc      	bne.n	100071b0 <cdcd_control_xfer_cb+0x38>
100071b6:	2900      	cmp	r1, #0
100071b8:	d03f      	beq.n	1000723a <cdcd_control_xfer_cb+0xc2>
100071ba:	2902      	cmp	r1, #2
100071bc:	d1f7      	bne.n	100071ae <cdcd_control_xfer_cb+0x36>
100071be:	4b23      	ldr	r3, [pc, #140]	; (1000724c <cdcd_control_xfer_cb+0xd4>)
100071c0:	2b00      	cmp	r3, #0
100071c2:	d0f4      	beq.n	100071ae <cdcd_control_xfer_cb+0x36>
100071c4:	78e1      	ldrb	r1, [r4, #3]
100071c6:	78a3      	ldrb	r3, [r4, #2]
100071c8:	0209      	lsls	r1, r1, #8
100071ca:	2000      	movs	r0, #0
100071cc:	4319      	orrs	r1, r3
100071ce:	e000      	b.n	100071d2 <cdcd_control_xfer_cb+0x5a>
100071d0:	bf00      	nop
100071d2:	2001      	movs	r0, #1
100071d4:	e7ec      	b.n	100071b0 <cdcd_control_xfer_cb+0x38>
100071d6:	2900      	cmp	r1, #0
100071d8:	d027      	beq.n	1000722a <cdcd_control_xfer_cb+0xb2>
100071da:	2902      	cmp	r1, #2
100071dc:	d1e7      	bne.n	100071ae <cdcd_control_xfer_cb+0x36>
100071de:	4b1c      	ldr	r3, [pc, #112]	; (10007250 <cdcd_control_xfer_cb+0xd8>)
100071e0:	2b00      	cmp	r3, #0
100071e2:	d0e4      	beq.n	100071ae <cdcd_control_xfer_cb+0x36>
100071e4:	2000      	movs	r0, #0
100071e6:	1d91      	adds	r1, r2, #6
100071e8:	f7fd fff2 	bl	100051d0 <tud_cdc_line_coding_cb>
100071ec:	2001      	movs	r0, #1
100071ee:	e7df      	b.n	100071b0 <cdcd_control_xfer_cb+0x38>
100071f0:	2900      	cmp	r1, #0
100071f2:	d022      	beq.n	1000723a <cdcd_control_xfer_cb+0xc2>
100071f4:	2902      	cmp	r1, #2
100071f6:	d1da      	bne.n	100071ae <cdcd_control_xfer_cb+0x36>
100071f8:	2501      	movs	r5, #1
100071fa:	002e      	movs	r6, r5
100071fc:	78a3      	ldrb	r3, [r4, #2]
100071fe:	78e4      	ldrb	r4, [r4, #3]
10007200:	3901      	subs	r1, #1
10007202:	0224      	lsls	r4, r4, #8
10007204:	431c      	orrs	r4, r3
10007206:	7114      	strb	r4, [r2, #4]
10007208:	4026      	ands	r6, r4
1000720a:	322c      	adds	r2, #44	; 0x2c
1000720c:	0010      	movs	r0, r2
1000720e:	4071      	eors	r1, r6
10007210:	f000 fb38 	bl	10007884 <tu_fifo_set_overwritable>
10007214:	4b0f      	ldr	r3, [pc, #60]	; (10007254 <cdcd_control_xfer_cb+0xdc>)
10007216:	2b00      	cmp	r3, #0
10007218:	d0c9      	beq.n	100071ae <cdcd_control_xfer_cb+0x36>
1000721a:	0862      	lsrs	r2, r4, #1
1000721c:	2000      	movs	r0, #0
1000721e:	0031      	movs	r1, r6
10007220:	402a      	ands	r2, r5
10007222:	e000      	b.n	10007226 <cdcd_control_xfer_cb+0xae>
10007224:	bf00      	nop
10007226:	2001      	movs	r0, #1
10007228:	e7c2      	b.n	100071b0 <cdcd_control_xfer_cb+0x38>
1000722a:	2307      	movs	r3, #7
1000722c:	0021      	movs	r1, r4
1000722e:	0028      	movs	r0, r5
10007230:	4a09      	ldr	r2, [pc, #36]	; (10007258 <cdcd_control_xfer_cb+0xe0>)
10007232:	f7ff fd23 	bl	10006c7c <tud_control_xfer>
10007236:	2001      	movs	r0, #1
10007238:	e7ba      	b.n	100071b0 <cdcd_control_xfer_cb+0x38>
1000723a:	0021      	movs	r1, r4
1000723c:	0028      	movs	r0, r5
1000723e:	f7ff fd05 	bl	10006c4c <tud_control_status>
10007242:	2001      	movs	r0, #1
10007244:	e7b4      	b.n	100071b0 <cdcd_control_xfer_cb+0x38>
10007246:	46c0      	nop			; (mov r8, r8)
10007248:	200011d0 	.word	0x200011d0
1000724c:	00000000 	.word	0x00000000
10007250:	100051d1 	.word	0x100051d1
10007254:	00000000 	.word	0x00000000
10007258:	200011d6 	.word	0x200011d6

1000725c <cdcd_xfer_cb>:
1000725c:	b5f8      	push	{r3, r4, r5, r6, r7, lr}
1000725e:	4657      	mov	r7, sl
10007260:	464e      	mov	r6, r9
10007262:	4645      	mov	r5, r8
10007264:	46de      	mov	lr, fp
10007266:	b5e0      	push	{r5, r6, r7, lr}
10007268:	4f49      	ldr	r7, [pc, #292]	; (10007390 <cdcd_xfer_cb+0x134>)
1000726a:	4680      	mov	r8, r0
1000726c:	78fa      	ldrb	r2, [r7, #3]
1000726e:	000c      	movs	r4, r1
10007270:	001e      	movs	r6, r3
10007272:	428a      	cmp	r2, r1
10007274:	d164      	bne.n	10007340 <cdcd_xfer_cb+0xe4>
10007276:	b29a      	uxth	r2, r3
10007278:	2396      	movs	r3, #150	; 0x96
1000727a:	009b      	lsls	r3, r3, #2
1000727c:	18fd      	adds	r5, r7, r3
1000727e:	2310      	movs	r3, #16
10007280:	469b      	mov	fp, r3
10007282:	44bb      	add	fp, r7
10007284:	0029      	movs	r1, r5
10007286:	4658      	mov	r0, fp
10007288:	f000 fa56 	bl	10007738 <tu_fifo_write_n>
1000728c:	4b41      	ldr	r3, [pc, #260]	; (10007394 <cdcd_xfer_cb+0x138>)
1000728e:	46d9      	mov	r9, fp
10007290:	2b00      	cmp	r3, #0
10007292:	d018      	beq.n	100072c6 <cdcd_xfer_cb+0x6a>
10007294:	797b      	ldrb	r3, [r7, #5]
10007296:	46d9      	mov	r9, fp
10007298:	2bff      	cmp	r3, #255	; 0xff
1000729a:	d014      	beq.n	100072c6 <cdcd_xfer_cb+0x6a>
1000729c:	2e00      	cmp	r6, #0
1000729e:	d012      	beq.n	100072c6 <cdcd_xfer_cb+0x6a>
100072a0:	19aa      	adds	r2, r5, r6
100072a2:	4692      	mov	sl, r2
100072a4:	e003      	b.n	100072ae <cdcd_xfer_cb+0x52>
100072a6:	3501      	adds	r5, #1
100072a8:	4555      	cmp	r5, sl
100072aa:	d00c      	beq.n	100072c6 <cdcd_xfer_cb+0x6a>
100072ac:	797b      	ldrb	r3, [r7, #5]
100072ae:	782a      	ldrb	r2, [r5, #0]
100072b0:	429a      	cmp	r2, r3
100072b2:	d1f8      	bne.n	100072a6 <cdcd_xfer_cb+0x4a>
100072b4:	4648      	mov	r0, r9
100072b6:	f000 f91d 	bl	100074f4 <tu_fifo_empty>
100072ba:	2800      	cmp	r0, #0
100072bc:	d1f3      	bne.n	100072a6 <cdcd_xfer_cb+0x4a>
100072be:	7979      	ldrb	r1, [r7, #5]
100072c0:	e000      	b.n	100072c4 <cdcd_xfer_cb+0x68>
100072c2:	bf00      	nop
100072c4:	e7ef      	b.n	100072a6 <cdcd_xfer_cb+0x4a>
100072c6:	4b34      	ldr	r3, [pc, #208]	; (10007398 <cdcd_xfer_cb+0x13c>)
100072c8:	2b00      	cmp	r3, #0
100072ca:	d004      	beq.n	100072d6 <cdcd_xfer_cb+0x7a>
100072cc:	4648      	mov	r0, r9
100072ce:	f000 f911 	bl	100074f4 <tu_fifo_empty>
100072d2:	2800      	cmp	r0, #0
100072d4:	d052      	beq.n	1000737c <cdcd_xfer_cb+0x120>
100072d6:	4648      	mov	r0, r9
100072d8:	f000 f914 	bl	10007504 <tu_fifo_remaining>
100072dc:	283f      	cmp	r0, #63	; 0x3f
100072de:	d834      	bhi.n	1000734a <cdcd_xfer_cb+0xee>
100072e0:	464a      	mov	r2, r9
100072e2:	3a10      	subs	r2, #16
100072e4:	7893      	ldrb	r3, [r2, #2]
100072e6:	42a3      	cmp	r3, r4
100072e8:	d007      	beq.n	100072fa <cdcd_xfer_cb+0x9e>
100072ea:	2401      	movs	r4, #1
100072ec:	0020      	movs	r0, r4
100072ee:	bcf0      	pop	{r4, r5, r6, r7}
100072f0:	46bb      	mov	fp, r7
100072f2:	46b2      	mov	sl, r6
100072f4:	46a9      	mov	r9, r5
100072f6:	46a0      	mov	r8, r4
100072f8:	bdf8      	pop	{r3, r4, r5, r6, r7, pc}
100072fa:	4b28      	ldr	r3, [pc, #160]	; (1000739c <cdcd_xfer_cb+0x140>)
100072fc:	2b00      	cmp	r3, #0
100072fe:	d002      	beq.n	10007306 <cdcd_xfer_cb+0xaa>
10007300:	2000      	movs	r0, #0
10007302:	e000      	b.n	10007306 <cdcd_xfer_cb+0xaa>
10007304:	bf00      	nop
10007306:	2000      	movs	r0, #0
10007308:	f7ff fe0e 	bl	10006f28 <tud_cdc_n_write_flush>
1000730c:	2800      	cmp	r0, #0
1000730e:	d1ec      	bne.n	100072ea <cdcd_xfer_cb+0x8e>
10007310:	4d23      	ldr	r5, [pc, #140]	; (100073a0 <cdcd_xfer_cb+0x144>)
10007312:	0028      	movs	r0, r5
10007314:	f000 f8de 	bl	100074d4 <tu_fifo_count>
10007318:	2800      	cmp	r0, #0
1000731a:	d1e6      	bne.n	100072ea <cdcd_xfer_cb+0x8e>
1000731c:	2e00      	cmp	r6, #0
1000731e:	d0e4      	beq.n	100072ea <cdcd_xfer_cb+0x8e>
10007320:	06b3      	lsls	r3, r6, #26
10007322:	d1e2      	bne.n	100072ea <cdcd_xfer_cb+0x8e>
10007324:	3d2c      	subs	r5, #44	; 0x2c
10007326:	4640      	mov	r0, r8
10007328:	78a9      	ldrb	r1, [r5, #2]
1000732a:	f7ff fc13 	bl	10006b54 <usbd_edpt_claim>
1000732e:	1e04      	subs	r4, r0, #0
10007330:	d0db      	beq.n	100072ea <cdcd_xfer_cb+0x8e>
10007332:	2300      	movs	r3, #0
10007334:	2200      	movs	r2, #0
10007336:	4640      	mov	r0, r8
10007338:	78a9      	ldrb	r1, [r5, #2]
1000733a:	f7ff fc63 	bl	10006c04 <usbd_edpt_xfer>
1000733e:	e7d5      	b.n	100072ec <cdcd_xfer_cb+0x90>
10007340:	78bb      	ldrb	r3, [r7, #2]
10007342:	428b      	cmp	r3, r1
10007344:	d0d9      	beq.n	100072fa <cdcd_xfer_cb+0x9e>
10007346:	2400      	movs	r4, #0
10007348:	e7d0      	b.n	100072ec <cdcd_xfer_cb+0x90>
1000734a:	464d      	mov	r5, r9
1000734c:	3d10      	subs	r5, #16
1000734e:	2000      	movs	r0, #0
10007350:	78e9      	ldrb	r1, [r5, #3]
10007352:	f7ff fbff 	bl	10006b54 <usbd_edpt_claim>
10007356:	2800      	cmp	r0, #0
10007358:	d101      	bne.n	1000735e <cdcd_xfer_cb+0x102>
1000735a:	78ab      	ldrb	r3, [r5, #2]
1000735c:	e7c3      	b.n	100072e6 <cdcd_xfer_cb+0x8a>
1000735e:	4648      	mov	r0, r9
10007360:	f000 f8d0 	bl	10007504 <tu_fifo_remaining>
10007364:	283f      	cmp	r0, #63	; 0x3f
10007366:	d90c      	bls.n	10007382 <cdcd_xfer_cb+0x126>
10007368:	2292      	movs	r2, #146	; 0x92
1000736a:	0092      	lsls	r2, r2, #2
1000736c:	2340      	movs	r3, #64	; 0x40
1000736e:	2000      	movs	r0, #0
10007370:	78e9      	ldrb	r1, [r5, #3]
10007372:	444a      	add	r2, r9
10007374:	f7ff fc46 	bl	10006c04 <usbd_edpt_xfer>
10007378:	78ab      	ldrb	r3, [r5, #2]
1000737a:	e7b4      	b.n	100072e6 <cdcd_xfer_cb+0x8a>
1000737c:	e000      	b.n	10007380 <cdcd_xfer_cb+0x124>
1000737e:	bf00      	nop
10007380:	e7a9      	b.n	100072d6 <cdcd_xfer_cb+0x7a>
10007382:	2000      	movs	r0, #0
10007384:	78e9      	ldrb	r1, [r5, #3]
10007386:	f7ff fc17 	bl	10006bb8 <usbd_edpt_release>
1000738a:	78ab      	ldrb	r3, [r5, #2]
1000738c:	e7ab      	b.n	100072e6 <cdcd_xfer_cb+0x8a>
1000738e:	46c0      	nop			; (mov r8, r8)
10007390:	200011d0 	.word	0x200011d0
	...
100073a0:	200011fc 	.word	0x200011fc

100073a4 <tusb_init>:
100073a4:	b510      	push	{r4, lr}
100073a6:	2000      	movs	r0, #0
100073a8:	f7fe fd84 	bl	10005eb4 <tud_init>
100073ac:	bd10      	pop	{r4, pc}
100073ae:	46c0      	nop			; (mov r8, r8)

100073b0 <tusb_inited>:
100073b0:	b510      	push	{r4, lr}
100073b2:	f7fe fd79 	bl	10005ea8 <tud_inited>
100073b6:	bd10      	pop	{r4, pc}

100073b8 <tu_edpt_validate>:
100073b8:	2207      	movs	r2, #7
100073ba:	b510      	push	{r4, lr}
100073bc:	7944      	ldrb	r4, [r0, #5]
100073be:	7903      	ldrb	r3, [r0, #4]
100073c0:	4022      	ands	r2, r4
100073c2:	0212      	lsls	r2, r2, #8
100073c4:	431a      	orrs	r2, r3
100073c6:	78c3      	ldrb	r3, [r0, #3]
100073c8:	079b      	lsls	r3, r3, #30
100073ca:	0f9b      	lsrs	r3, r3, #30
100073cc:	2b02      	cmp	r3, #2
100073ce:	d005      	beq.n	100073dc <tu_edpt_validate+0x24>
100073d0:	2b03      	cmp	r3, #3
100073d2:	d015      	beq.n	10007400 <tu_edpt_validate+0x48>
100073d4:	2000      	movs	r0, #0
100073d6:	2b01      	cmp	r3, #1
100073d8:	d008      	beq.n	100073ec <tu_edpt_validate+0x34>
100073da:	bd10      	pop	{r4, pc}
100073dc:	2902      	cmp	r1, #2
100073de:	d01c      	beq.n	1000741a <tu_edpt_validate+0x62>
100073e0:	2000      	movs	r0, #0
100073e2:	2340      	movs	r3, #64	; 0x40
100073e4:	4293      	cmp	r3, r2
100073e6:	4140      	adcs	r0, r0
100073e8:	b2c0      	uxtb	r0, r0
100073ea:	e7f6      	b.n	100073da <tu_edpt_validate+0x22>
100073ec:	3902      	subs	r1, #2
100073ee:	424b      	negs	r3, r1
100073f0:	4159      	adcs	r1, r3
100073f2:	4b0d      	ldr	r3, [pc, #52]	; (10007428 <tu_edpt_validate+0x70>)
100073f4:	469c      	mov	ip, r3
100073f6:	4461      	add	r1, ip
100073f8:	4291      	cmp	r1, r2
100073fa:	4140      	adcs	r0, r0
100073fc:	b2c0      	uxtb	r0, r0
100073fe:	e7ec      	b.n	100073da <tu_edpt_validate+0x22>
10007400:	3902      	subs	r1, #2
10007402:	424b      	negs	r3, r1
10007404:	4159      	adcs	r1, r3
10007406:	23f0      	movs	r3, #240	; 0xf0
10007408:	2000      	movs	r0, #0
1000740a:	4249      	negs	r1, r1
1000740c:	009b      	lsls	r3, r3, #2
1000740e:	4019      	ands	r1, r3
10007410:	3140      	adds	r1, #64	; 0x40
10007412:	4291      	cmp	r1, r2
10007414:	4140      	adcs	r0, r0
10007416:	b2c0      	uxtb	r0, r0
10007418:	e7df      	b.n	100073da <tu_edpt_validate+0x22>
1000741a:	4b04      	ldr	r3, [pc, #16]	; (1000742c <tu_edpt_validate+0x74>)
1000741c:	469c      	mov	ip, r3
1000741e:	4462      	add	r2, ip
10007420:	4253      	negs	r3, r2
10007422:	415a      	adcs	r2, r3
10007424:	b2d0      	uxtb	r0, r2
10007426:	e7d8      	b.n	100073da <tu_edpt_validate+0x22>
10007428:	000003ff 	.word	0x000003ff
1000742c:	fffffe00 	.word	0xfffffe00

10007430 <tu_edpt_bind_driver>:
10007430:	b5f0      	push	{r4, r5, r6, r7, lr}
10007432:	2a00      	cmp	r2, #0
10007434:	d011      	beq.n	1000745a <tu_edpt_bind_driver+0x2a>
10007436:	2400      	movs	r4, #0
10007438:	277f      	movs	r7, #127	; 0x7f
1000743a:	784d      	ldrb	r5, [r1, #1]
1000743c:	2d05      	cmp	r5, #5
1000743e:	d106      	bne.n	1000744e <tu_edpt_bind_driver+0x1e>
10007440:	003d      	movs	r5, r7
10007442:	788e      	ldrb	r6, [r1, #2]
10007444:	4035      	ands	r5, r6
10007446:	006d      	lsls	r5, r5, #1
10007448:	09f6      	lsrs	r6, r6, #7
1000744a:	1945      	adds	r5, r0, r5
1000744c:	55ab      	strb	r3, [r5, r6]
1000744e:	780d      	ldrb	r5, [r1, #0]
10007450:	1964      	adds	r4, r4, r5
10007452:	b2a4      	uxth	r4, r4
10007454:	1949      	adds	r1, r1, r5
10007456:	42a2      	cmp	r2, r4
10007458:	d8ef      	bhi.n	1000743a <tu_edpt_bind_driver+0xa>
1000745a:	bdf0      	pop	{r4, r5, r6, r7, pc}

1000745c <tu_fifo_config>:
1000745c:	b5f0      	push	{r4, r5, r6, r7, lr}
1000745e:	46c6      	mov	lr, r8
10007460:	b500      	push	{lr}
10007462:	0015      	movs	r5, r2
10007464:	aa06      	add	r2, sp, #24
10007466:	001e      	movs	r6, r3
10007468:	7813      	ldrb	r3, [r2, #0]
1000746a:	2280      	movs	r2, #128	; 0x80
1000746c:	0004      	movs	r4, r0
1000746e:	000f      	movs	r7, r1
10007470:	4698      	mov	r8, r3
10007472:	0212      	lsls	r2, r2, #8
10007474:	4295      	cmp	r5, r2
10007476:	d82a      	bhi.n	100074ce <tu_fifo_config+0x72>
10007478:	6940      	ldr	r0, [r0, #20]
1000747a:	2800      	cmp	r0, #0
1000747c:	d003      	beq.n	10007486 <tu_fifo_config+0x2a>
1000747e:	2101      	movs	r1, #1
10007480:	4249      	negs	r1, r1
10007482:	f004 f829 	bl	1000b4d8 <__mutex_enter_timeout_ms_veneer>
10007486:	69a0      	ldr	r0, [r4, #24]
10007488:	2800      	cmp	r0, #0
1000748a:	d003      	beq.n	10007494 <tu_fifo_config+0x38>
1000748c:	2101      	movs	r1, #1
1000748e:	4249      	negs	r1, r1
10007490:	f004 f822 	bl	1000b4d8 <__mutex_enter_timeout_ms_veneer>
10007494:	4643      	mov	r3, r8
10007496:	80a5      	strh	r5, [r4, #4]
10007498:	006d      	lsls	r5, r5, #1
1000749a:	b2ad      	uxth	r5, r5
1000749c:	7223      	strb	r3, [r4, #8]
1000749e:	1e6b      	subs	r3, r5, #1
100074a0:	81a3      	strh	r3, [r4, #12]
100074a2:	2300      	movs	r3, #0
100074a4:	6960      	ldr	r0, [r4, #20]
100074a6:	426d      	negs	r5, r5
100074a8:	81e3      	strh	r3, [r4, #14]
100074aa:	6027      	str	r7, [r4, #0]
100074ac:	80e6      	strh	r6, [r4, #6]
100074ae:	8165      	strh	r5, [r4, #10]
100074b0:	8223      	strh	r3, [r4, #16]
100074b2:	2800      	cmp	r0, #0
100074b4:	d001      	beq.n	100074ba <tu_fifo_config+0x5e>
100074b6:	f003 ffef 	bl	1000b498 <__mutex_exit_veneer>
100074ba:	69a0      	ldr	r0, [r4, #24]
100074bc:	2401      	movs	r4, #1
100074be:	2800      	cmp	r0, #0
100074c0:	d001      	beq.n	100074c6 <tu_fifo_config+0x6a>
100074c2:	f003 ffe9 	bl	1000b498 <__mutex_exit_veneer>
100074c6:	0020      	movs	r0, r4
100074c8:	bc80      	pop	{r7}
100074ca:	46b8      	mov	r8, r7
100074cc:	bdf0      	pop	{r4, r5, r6, r7, pc}
100074ce:	2400      	movs	r4, #0
100074d0:	e7f9      	b.n	100074c6 <tu_fifo_config+0x6a>
100074d2:	46c0      	nop			; (mov r8, r8)

100074d4 <tu_fifo_count>:
100074d4:	89c1      	ldrh	r1, [r0, #14]
100074d6:	8a02      	ldrh	r2, [r0, #16]
100074d8:	1a8b      	subs	r3, r1, r2
100074da:	b29b      	uxth	r3, r3
100074dc:	4291      	cmp	r1, r2
100074de:	d202      	bcs.n	100074e6 <tu_fifo_count+0x12>
100074e0:	8942      	ldrh	r2, [r0, #10]
100074e2:	1a9b      	subs	r3, r3, r2
100074e4:	b29b      	uxth	r3, r3
100074e6:	8882      	ldrh	r2, [r0, #4]
100074e8:	1c10      	adds	r0, r2, #0
100074ea:	429a      	cmp	r2, r3
100074ec:	d900      	bls.n	100074f0 <tu_fifo_count+0x1c>
100074ee:	1c18      	adds	r0, r3, #0
100074f0:	b280      	uxth	r0, r0
100074f2:	4770      	bx	lr

100074f4 <tu_fifo_empty>:
100074f4:	0003      	movs	r3, r0
100074f6:	89c0      	ldrh	r0, [r0, #14]
100074f8:	8a1b      	ldrh	r3, [r3, #16]
100074fa:	1ac0      	subs	r0, r0, r3
100074fc:	4243      	negs	r3, r0
100074fe:	4158      	adcs	r0, r3
10007500:	b2c0      	uxtb	r0, r0
10007502:	4770      	bx	lr

10007504 <tu_fifo_remaining>:
10007504:	b510      	push	{r4, lr}
10007506:	89c4      	ldrh	r4, [r0, #14]
10007508:	8a01      	ldrh	r1, [r0, #16]
1000750a:	8883      	ldrh	r3, [r0, #4]
1000750c:	1a62      	subs	r2, r4, r1
1000750e:	b292      	uxth	r2, r2
10007510:	428c      	cmp	r4, r1
10007512:	d202      	bcs.n	1000751a <tu_fifo_remaining+0x16>
10007514:	8940      	ldrh	r0, [r0, #10]
10007516:	1a12      	subs	r2, r2, r0
10007518:	b292      	uxth	r2, r2
1000751a:	1a98      	subs	r0, r3, r2
1000751c:	b280      	uxth	r0, r0
1000751e:	bd10      	pop	{r4, pc}

10007520 <tu_fifo_read>:
10007520:	b570      	push	{r4, r5, r6, lr}
10007522:	0004      	movs	r4, r0
10007524:	6980      	ldr	r0, [r0, #24]
10007526:	000e      	movs	r6, r1
10007528:	2800      	cmp	r0, #0
1000752a:	d003      	beq.n	10007534 <tu_fifo_read+0x14>
1000752c:	2101      	movs	r1, #1
1000752e:	4249      	negs	r1, r1
10007530:	f003 ffd2 	bl	1000b4d8 <__mutex_enter_timeout_ms_veneer>
10007534:	89e1      	ldrh	r1, [r4, #14]
10007536:	8a22      	ldrh	r2, [r4, #16]
10007538:	b288      	uxth	r0, r1
1000753a:	1a8d      	subs	r5, r1, r2
1000753c:	b293      	uxth	r3, r2
1000753e:	b2ad      	uxth	r5, r5
10007540:	4291      	cmp	r1, r2
10007542:	d202      	bcs.n	1000754a <tu_fifo_read+0x2a>
10007544:	8962      	ldrh	r2, [r4, #10]
10007546:	1aad      	subs	r5, r5, r2
10007548:	b2ad      	uxth	r5, r5
1000754a:	88a2      	ldrh	r2, [r4, #4]
1000754c:	42aa      	cmp	r2, r5
1000754e:	d207      	bcs.n	10007560 <tu_fifo_read+0x40>
10007550:	4290      	cmp	r0, r2
10007552:	d225      	bcs.n	100075a0 <tu_fifo_read+0x80>
10007554:	8961      	ldrh	r1, [r4, #10]
10007556:	1851      	adds	r1, r2, r1
10007558:	1a41      	subs	r1, r0, r1
1000755a:	b289      	uxth	r1, r1
1000755c:	0015      	movs	r5, r2
1000755e:	8221      	strh	r1, [r4, #16]
10007560:	2d00      	cmp	r5, #0
10007562:	d102      	bne.n	1000756a <tu_fifo_read+0x4a>
10007564:	e022      	b.n	100075ac <tu_fifo_read+0x8c>
10007566:	1a9b      	subs	r3, r3, r2
10007568:	b29b      	uxth	r3, r3
1000756a:	429a      	cmp	r2, r3
1000756c:	d9fb      	bls.n	10007566 <tu_fifo_read+0x46>
1000756e:	88e2      	ldrh	r2, [r4, #6]
10007570:	6821      	ldr	r1, [r4, #0]
10007572:	4353      	muls	r3, r2
10007574:	0030      	movs	r0, r6
10007576:	18c9      	adds	r1, r1, r3
10007578:	f7fd fbba 	bl	10004cf0 <__wrap___aeabi_memcpy>
1000757c:	8a22      	ldrh	r2, [r4, #16]
1000757e:	2501      	movs	r5, #1
10007580:	1c53      	adds	r3, r2, #1
10007582:	b29b      	uxth	r3, r3
10007584:	429a      	cmp	r2, r3
10007586:	d914      	bls.n	100075b2 <tu_fifo_read+0x92>
10007588:	2300      	movs	r3, #0
1000758a:	8962      	ldrh	r2, [r4, #10]
1000758c:	189b      	adds	r3, r3, r2
1000758e:	b29b      	uxth	r3, r3
10007590:	69a0      	ldr	r0, [r4, #24]
10007592:	8223      	strh	r3, [r4, #16]
10007594:	2800      	cmp	r0, #0
10007596:	d001      	beq.n	1000759c <tu_fifo_read+0x7c>
10007598:	f003 ff7e 	bl	1000b498 <__mutex_exit_veneer>
1000759c:	0028      	movs	r0, r5
1000759e:	bd70      	pop	{r4, r5, r6, pc}
100075a0:	1a81      	subs	r1, r0, r2
100075a2:	89a5      	ldrh	r5, [r4, #12]
100075a4:	b289      	uxth	r1, r1
100075a6:	428d      	cmp	r5, r1
100075a8:	d2d8      	bcs.n	1000755c <tu_fifo_read+0x3c>
100075aa:	e7d3      	b.n	10007554 <tu_fifo_read+0x34>
100075ac:	2500      	movs	r5, #0
100075ae:	8a23      	ldrh	r3, [r4, #16]
100075b0:	b29b      	uxth	r3, r3
100075b2:	89a2      	ldrh	r2, [r4, #12]
100075b4:	429a      	cmp	r2, r3
100075b6:	d2eb      	bcs.n	10007590 <tu_fifo_read+0x70>
100075b8:	e7e7      	b.n	1000758a <tu_fifo_read+0x6a>
100075ba:	46c0      	nop			; (mov r8, r8)

100075bc <tu_fifo_read_n>:
100075bc:	b5f0      	push	{r4, r5, r6, r7, lr}
100075be:	464f      	mov	r7, r9
100075c0:	4646      	mov	r6, r8
100075c2:	46d6      	mov	lr, sl
100075c4:	0005      	movs	r5, r0
100075c6:	6980      	ldr	r0, [r0, #24]
100075c8:	4688      	mov	r8, r1
100075ca:	4691      	mov	r9, r2
100075cc:	b5c0      	push	{r6, r7, lr}
100075ce:	2800      	cmp	r0, #0
100075d0:	d003      	beq.n	100075da <tu_fifo_read_n+0x1e>
100075d2:	2101      	movs	r1, #1
100075d4:	4249      	negs	r1, r1
100075d6:	f003 ff7f 	bl	1000b4d8 <__mutex_enter_timeout_ms_veneer>
100075da:	89ea      	ldrh	r2, [r5, #14]
100075dc:	8a2b      	ldrh	r3, [r5, #16]
100075de:	b291      	uxth	r1, r2
100075e0:	1ad6      	subs	r6, r2, r3
100075e2:	b29c      	uxth	r4, r3
100075e4:	b2b6      	uxth	r6, r6
100075e6:	429a      	cmp	r2, r3
100075e8:	d202      	bcs.n	100075f0 <tu_fifo_read_n+0x34>
100075ea:	896b      	ldrh	r3, [r5, #10]
100075ec:	1af6      	subs	r6, r6, r3
100075ee:	b2b6      	uxth	r6, r6
100075f0:	88af      	ldrh	r7, [r5, #4]
100075f2:	42b7      	cmp	r7, r6
100075f4:	d209      	bcs.n	1000760a <tu_fifo_read_n+0x4e>
100075f6:	42b9      	cmp	r1, r7
100075f8:	d254      	bcs.n	100076a4 <tu_fifo_read_n+0xe8>
100075fa:	896b      	ldrh	r3, [r5, #10]
100075fc:	18fb      	adds	r3, r7, r3
100075fe:	1acb      	subs	r3, r1, r3
10007600:	b29b      	uxth	r3, r3
10007602:	003e      	movs	r6, r7
10007604:	822b      	strh	r3, [r5, #16]
10007606:	8a2c      	ldrh	r4, [r5, #16]
10007608:	b2a4      	uxth	r4, r4
1000760a:	2e00      	cmp	r6, #0
1000760c:	d050      	beq.n	100076b0 <tu_fifo_read_n+0xf4>
1000760e:	464b      	mov	r3, r9
10007610:	45b1      	cmp	r9, r6
10007612:	d845      	bhi.n	100076a0 <tu_fifo_read_n+0xe4>
10007614:	b29e      	uxth	r6, r3
10007616:	42a7      	cmp	r7, r4
10007618:	d803      	bhi.n	10007622 <tu_fifo_read_n+0x66>
1000761a:	1be4      	subs	r4, r4, r7
1000761c:	b2a4      	uxth	r4, r4
1000761e:	42a7      	cmp	r7, r4
10007620:	d9fb      	bls.n	1000761a <tu_fifo_read_n+0x5e>
10007622:	88eb      	ldrh	r3, [r5, #6]
10007624:	1b38      	subs	r0, r7, r4
10007626:	0019      	movs	r1, r3
10007628:	4699      	mov	r9, r3
1000762a:	682b      	ldr	r3, [r5, #0]
1000762c:	4361      	muls	r1, r4
1000762e:	469c      	mov	ip, r3
10007630:	b280      	uxth	r0, r0
10007632:	4461      	add	r1, ip
10007634:	4286      	cmp	r6, r0
10007636:	d925      	bls.n	10007684 <tu_fifo_read_n+0xc8>
10007638:	464b      	mov	r3, r9
1000763a:	4358      	muls	r0, r3
1000763c:	b283      	uxth	r3, r0
1000763e:	001a      	movs	r2, r3
10007640:	4640      	mov	r0, r8
10007642:	469a      	mov	sl, r3
10007644:	f7fd fb54 	bl	10004cf0 <__wrap___aeabi_memcpy>
10007648:	464b      	mov	r3, r9
1000764a:	4640      	mov	r0, r8
1000764c:	1bf7      	subs	r7, r6, r7
1000764e:	19e4      	adds	r4, r4, r7
10007650:	435c      	muls	r4, r3
10007652:	6829      	ldr	r1, [r5, #0]
10007654:	b2a2      	uxth	r2, r4
10007656:	4450      	add	r0, sl
10007658:	f7fd fb4a 	bl	10004cf0 <__wrap___aeabi_memcpy>
1000765c:	8a2a      	ldrh	r2, [r5, #16]
1000765e:	1993      	adds	r3, r2, r6
10007660:	b29b      	uxth	r3, r3
10007662:	429a      	cmp	r2, r3
10007664:	d918      	bls.n	10007698 <tu_fifo_read_n+0xdc>
10007666:	896a      	ldrh	r2, [r5, #10]
10007668:	189b      	adds	r3, r3, r2
1000766a:	b29b      	uxth	r3, r3
1000766c:	69a8      	ldr	r0, [r5, #24]
1000766e:	822b      	strh	r3, [r5, #16]
10007670:	2800      	cmp	r0, #0
10007672:	d001      	beq.n	10007678 <tu_fifo_read_n+0xbc>
10007674:	f003 ff10 	bl	1000b498 <__mutex_exit_veneer>
10007678:	0030      	movs	r0, r6
1000767a:	bce0      	pop	{r5, r6, r7}
1000767c:	46ba      	mov	sl, r7
1000767e:	46b1      	mov	r9, r6
10007680:	46a8      	mov	r8, r5
10007682:	bdf0      	pop	{r4, r5, r6, r7, pc}
10007684:	464a      	mov	r2, r9
10007686:	4640      	mov	r0, r8
10007688:	4372      	muls	r2, r6
1000768a:	f7fd fb31 	bl	10004cf0 <__wrap___aeabi_memcpy>
1000768e:	8a2a      	ldrh	r2, [r5, #16]
10007690:	1993      	adds	r3, r2, r6
10007692:	b29b      	uxth	r3, r3
10007694:	429a      	cmp	r2, r3
10007696:	d8e6      	bhi.n	10007666 <tu_fifo_read_n+0xaa>
10007698:	89aa      	ldrh	r2, [r5, #12]
1000769a:	429a      	cmp	r2, r3
1000769c:	d2e6      	bcs.n	1000766c <tu_fifo_read_n+0xb0>
1000769e:	e7e2      	b.n	10007666 <tu_fifo_read_n+0xaa>
100076a0:	1c33      	adds	r3, r6, #0
100076a2:	e7b7      	b.n	10007614 <tu_fifo_read_n+0x58>
100076a4:	1bcb      	subs	r3, r1, r7
100076a6:	89aa      	ldrh	r2, [r5, #12]
100076a8:	b29b      	uxth	r3, r3
100076aa:	429a      	cmp	r2, r3
100076ac:	d2a9      	bcs.n	10007602 <tu_fifo_read_n+0x46>
100076ae:	e7a4      	b.n	100075fa <tu_fifo_read_n+0x3e>
100076b0:	8a2b      	ldrh	r3, [r5, #16]
100076b2:	89aa      	ldrh	r2, [r5, #12]
100076b4:	b29b      	uxth	r3, r3
100076b6:	429a      	cmp	r2, r3
100076b8:	d2d8      	bcs.n	1000766c <tu_fifo_read_n+0xb0>
100076ba:	e7d4      	b.n	10007666 <tu_fifo_read_n+0xaa>

100076bc <tu_fifo_write>:
100076bc:	b5f8      	push	{r3, r4, r5, r6, r7, lr}
100076be:	0004      	movs	r4, r0
100076c0:	6940      	ldr	r0, [r0, #20]
100076c2:	000e      	movs	r6, r1
100076c4:	2800      	cmp	r0, #0
100076c6:	d003      	beq.n	100076d0 <tu_fifo_write+0x14>
100076c8:	2101      	movs	r1, #1
100076ca:	4249      	negs	r1, r1
100076cc:	f003 ff04 	bl	1000b4d8 <__mutex_enter_timeout_ms_veneer>
100076d0:	89e2      	ldrh	r2, [r4, #14]
100076d2:	8a21      	ldrh	r1, [r4, #16]
100076d4:	b295      	uxth	r5, r2
100076d6:	1a53      	subs	r3, r2, r1
100076d8:	b29b      	uxth	r3, r3
100076da:	4291      	cmp	r1, r2
100076dc:	d902      	bls.n	100076e4 <tu_fifo_write+0x28>
100076de:	8962      	ldrh	r2, [r4, #10]
100076e0:	1a9b      	subs	r3, r3, r2
100076e2:	b29b      	uxth	r3, r3
100076e4:	88a2      	ldrh	r2, [r4, #4]
100076e6:	429a      	cmp	r2, r3
100076e8:	d021      	beq.n	1000772e <tu_fifo_write+0x72>
100076ea:	002b      	movs	r3, r5
100076ec:	4295      	cmp	r5, r2
100076ee:	d303      	bcc.n	100076f8 <tu_fifo_write+0x3c>
100076f0:	1a9b      	subs	r3, r3, r2
100076f2:	b29b      	uxth	r3, r3
100076f4:	429a      	cmp	r2, r3
100076f6:	d9fb      	bls.n	100076f0 <tu_fifo_write+0x34>
100076f8:	88e2      	ldrh	r2, [r4, #6]
100076fa:	6821      	ldr	r1, [r4, #0]
100076fc:	4353      	muls	r3, r2
100076fe:	18c8      	adds	r0, r1, r3
10007700:	0031      	movs	r1, r6
10007702:	f7fd faf5 	bl	10004cf0 <__wrap___aeabi_memcpy>
10007706:	1c6b      	adds	r3, r5, #1
10007708:	b29b      	uxth	r3, r3
1000770a:	429d      	cmp	r5, r3
1000770c:	d90b      	bls.n	10007726 <tu_fifo_write+0x6a>
1000770e:	8962      	ldrh	r2, [r4, #10]
10007710:	189b      	adds	r3, r3, r2
10007712:	b29b      	uxth	r3, r3
10007714:	6960      	ldr	r0, [r4, #20]
10007716:	2701      	movs	r7, #1
10007718:	81e3      	strh	r3, [r4, #14]
1000771a:	2800      	cmp	r0, #0
1000771c:	d001      	beq.n	10007722 <tu_fifo_write+0x66>
1000771e:	f003 febb 	bl	1000b498 <__mutex_exit_veneer>
10007722:	0038      	movs	r0, r7
10007724:	bdf8      	pop	{r3, r4, r5, r6, r7, pc}
10007726:	89a2      	ldrh	r2, [r4, #12]
10007728:	429a      	cmp	r2, r3
1000772a:	d2f3      	bcs.n	10007714 <tu_fifo_write+0x58>
1000772c:	e7ef      	b.n	1000770e <tu_fifo_write+0x52>
1000772e:	7a27      	ldrb	r7, [r4, #8]
10007730:	2f00      	cmp	r7, #0
10007732:	d1da      	bne.n	100076ea <tu_fifo_write+0x2e>
10007734:	e7f5      	b.n	10007722 <tu_fifo_write+0x66>
10007736:	46c0      	nop			; (mov r8, r8)

10007738 <tu_fifo_write_n>:
10007738:	b5f8      	push	{r3, r4, r5, r6, r7, lr}
1000773a:	4645      	mov	r5, r8
1000773c:	464e      	mov	r6, r9
1000773e:	46de      	mov	lr, fp
10007740:	4657      	mov	r7, sl
10007742:	4688      	mov	r8, r1
10007744:	b5e0      	push	{r5, r6, r7, lr}
10007746:	0005      	movs	r5, r0
10007748:	1e16      	subs	r6, r2, #0
1000774a:	d05a      	beq.n	10007802 <tu_fifo_write_n+0xca>
1000774c:	6940      	ldr	r0, [r0, #20]
1000774e:	2800      	cmp	r0, #0
10007750:	d003      	beq.n	1000775a <tu_fifo_write_n+0x22>
10007752:	2101      	movs	r1, #1
10007754:	4249      	negs	r1, r1
10007756:	f003 febf 	bl	1000b4d8 <__mutex_enter_timeout_ms_veneer>
1000775a:	89ef      	ldrh	r7, [r5, #14]
1000775c:	7a2b      	ldrb	r3, [r5, #8]
1000775e:	8a29      	ldrh	r1, [r5, #16]
10007760:	b2bf      	uxth	r7, r7
10007762:	b289      	uxth	r1, r1
10007764:	2b00      	cmp	r3, #0
10007766:	d13b      	bne.n	100077e0 <tu_fifo_write_n+0xa8>
10007768:	1a7a      	subs	r2, r7, r1
1000776a:	88ab      	ldrh	r3, [r5, #4]
1000776c:	b292      	uxth	r2, r2
1000776e:	428f      	cmp	r7, r1
10007770:	d202      	bcs.n	10007778 <tu_fifo_write_n+0x40>
10007772:	8969      	ldrh	r1, [r5, #10]
10007774:	1a52      	subs	r2, r2, r1
10007776:	b292      	uxth	r2, r2
10007778:	1a9a      	subs	r2, r3, r2
1000777a:	1c11      	adds	r1, r2, #0
1000777c:	b292      	uxth	r2, r2
1000777e:	42b2      	cmp	r2, r6
10007780:	d853      	bhi.n	1000782a <tu_fifo_write_n+0xf2>
10007782:	88ea      	ldrh	r2, [r5, #6]
10007784:	b28e      	uxth	r6, r1
10007786:	4692      	mov	sl, r2
10007788:	1af2      	subs	r2, r6, r3
1000778a:	b292      	uxth	r2, r2
1000778c:	4691      	mov	r9, r2
1000778e:	003c      	movs	r4, r7
10007790:	429f      	cmp	r7, r3
10007792:	d303      	bcc.n	1000779c <tu_fifo_write_n+0x64>
10007794:	1ae4      	subs	r4, r4, r3
10007796:	b2a4      	uxth	r4, r4
10007798:	429c      	cmp	r4, r3
1000779a:	d2fb      	bcs.n	10007794 <tu_fifo_write_n+0x5c>
1000779c:	4650      	mov	r0, sl
1000779e:	682a      	ldr	r2, [r5, #0]
100077a0:	4360      	muls	r0, r4
100077a2:	4694      	mov	ip, r2
100077a4:	1b1b      	subs	r3, r3, r4
100077a6:	b29b      	uxth	r3, r3
100077a8:	4652      	mov	r2, sl
100077aa:	4460      	add	r0, ip
100077ac:	429e      	cmp	r6, r3
100077ae:	d82a      	bhi.n	10007806 <tu_fifo_write_n+0xce>
100077b0:	4641      	mov	r1, r8
100077b2:	4372      	muls	r2, r6
100077b4:	f7fd fa9c 	bl	10004cf0 <__wrap___aeabi_memcpy>
100077b8:	19f3      	adds	r3, r6, r7
100077ba:	b29b      	uxth	r3, r3
100077bc:	429f      	cmp	r7, r3
100077be:	d81c      	bhi.n	100077fa <tu_fifo_write_n+0xc2>
100077c0:	89aa      	ldrh	r2, [r5, #12]
100077c2:	429a      	cmp	r2, r3
100077c4:	d319      	bcc.n	100077fa <tu_fifo_write_n+0xc2>
100077c6:	6968      	ldr	r0, [r5, #20]
100077c8:	81eb      	strh	r3, [r5, #14]
100077ca:	2800      	cmp	r0, #0
100077cc:	d001      	beq.n	100077d2 <tu_fifo_write_n+0x9a>
100077ce:	f003 fe63 	bl	1000b498 <__mutex_exit_veneer>
100077d2:	0030      	movs	r0, r6
100077d4:	bcf0      	pop	{r4, r5, r6, r7}
100077d6:	46bb      	mov	fp, r7
100077d8:	46b2      	mov	sl, r6
100077da:	46a9      	mov	r9, r5
100077dc:	46a0      	mov	r8, r4
100077de:	bdf8      	pop	{r3, r4, r5, r6, r7, pc}
100077e0:	88ea      	ldrh	r2, [r5, #6]
100077e2:	88ab      	ldrh	r3, [r5, #4]
100077e4:	4692      	mov	sl, r2
100077e6:	429e      	cmp	r6, r3
100077e8:	d321      	bcc.n	1000782e <tu_fifo_write_n+0xf6>
100077ea:	1af6      	subs	r6, r6, r3
100077ec:	4356      	muls	r6, r2
100077ee:	2200      	movs	r2, #0
100077f0:	44b0      	add	r8, r6
100077f2:	000f      	movs	r7, r1
100077f4:	001e      	movs	r6, r3
100077f6:	4691      	mov	r9, r2
100077f8:	e7c9      	b.n	1000778e <tu_fifo_write_n+0x56>
100077fa:	896a      	ldrh	r2, [r5, #10]
100077fc:	189b      	adds	r3, r3, r2
100077fe:	b29b      	uxth	r3, r3
10007800:	e7e1      	b.n	100077c6 <tu_fifo_write_n+0x8e>
10007802:	2600      	movs	r6, #0
10007804:	e7e5      	b.n	100077d2 <tu_fifo_write_n+0x9a>
10007806:	4353      	muls	r3, r2
10007808:	b29b      	uxth	r3, r3
1000780a:	001a      	movs	r2, r3
1000780c:	4641      	mov	r1, r8
1000780e:	469b      	mov	fp, r3
10007810:	f7fd fa6e 	bl	10004cf0 <__wrap___aeabi_memcpy>
10007814:	0022      	movs	r2, r4
10007816:	4653      	mov	r3, sl
10007818:	4641      	mov	r1, r8
1000781a:	444a      	add	r2, r9
1000781c:	435a      	muls	r2, r3
1000781e:	6828      	ldr	r0, [r5, #0]
10007820:	b292      	uxth	r2, r2
10007822:	4459      	add	r1, fp
10007824:	f7fd fa64 	bl	10004cf0 <__wrap___aeabi_memcpy>
10007828:	e7c6      	b.n	100077b8 <tu_fifo_write_n+0x80>
1000782a:	1c31      	adds	r1, r6, #0
1000782c:	e7a9      	b.n	10007782 <tu_fifo_write_n+0x4a>
1000782e:	1af2      	subs	r2, r6, r3
10007830:	b292      	uxth	r2, r2
10007832:	4691      	mov	r9, r2
10007834:	e7ab      	b.n	1000778e <tu_fifo_write_n+0x56>
10007836:	46c0      	nop			; (mov r8, r8)

10007838 <tu_fifo_clear>:
10007838:	b510      	push	{r4, lr}
1000783a:	0004      	movs	r4, r0
1000783c:	6940      	ldr	r0, [r0, #20]
1000783e:	2800      	cmp	r0, #0
10007840:	d003      	beq.n	1000784a <tu_fifo_clear+0x12>
10007842:	2101      	movs	r1, #1
10007844:	4249      	negs	r1, r1
10007846:	f003 fe47 	bl	1000b4d8 <__mutex_enter_timeout_ms_veneer>
1000784a:	69a0      	ldr	r0, [r4, #24]
1000784c:	2800      	cmp	r0, #0
1000784e:	d003      	beq.n	10007858 <tu_fifo_clear+0x20>
10007850:	2101      	movs	r1, #1
10007852:	4249      	negs	r1, r1
10007854:	f003 fe40 	bl	1000b4d8 <__mutex_enter_timeout_ms_veneer>
10007858:	2300      	movs	r3, #0
1000785a:	81e3      	strh	r3, [r4, #14]
1000785c:	8223      	strh	r3, [r4, #16]
1000785e:	88a3      	ldrh	r3, [r4, #4]
10007860:	6960      	ldr	r0, [r4, #20]
10007862:	005b      	lsls	r3, r3, #1
10007864:	b29b      	uxth	r3, r3
10007866:	1e5a      	subs	r2, r3, #1
10007868:	425b      	negs	r3, r3
1000786a:	81a2      	strh	r2, [r4, #12]
1000786c:	8163      	strh	r3, [r4, #10]
1000786e:	2800      	cmp	r0, #0
10007870:	d001      	beq.n	10007876 <tu_fifo_clear+0x3e>
10007872:	f003 fe11 	bl	1000b498 <__mutex_exit_veneer>
10007876:	69a0      	ldr	r0, [r4, #24]
10007878:	2800      	cmp	r0, #0
1000787a:	d001      	beq.n	10007880 <tu_fifo_clear+0x48>
1000787c:	f003 fe0c 	bl	1000b498 <__mutex_exit_veneer>
10007880:	2001      	movs	r0, #1
10007882:	bd10      	pop	{r4, pc}

10007884 <tu_fifo_set_overwritable>:
10007884:	b570      	push	{r4, r5, r6, lr}
10007886:	0004      	movs	r4, r0
10007888:	6940      	ldr	r0, [r0, #20]
1000788a:	000d      	movs	r5, r1
1000788c:	2800      	cmp	r0, #0
1000788e:	d003      	beq.n	10007898 <tu_fifo_set_overwritable+0x14>
10007890:	2101      	movs	r1, #1
10007892:	4249      	negs	r1, r1
10007894:	f003 fe20 	bl	1000b4d8 <__mutex_enter_timeout_ms_veneer>
10007898:	69a0      	ldr	r0, [r4, #24]
1000789a:	2800      	cmp	r0, #0
1000789c:	d003      	beq.n	100078a6 <tu_fifo_set_overwritable+0x22>
1000789e:	2101      	movs	r1, #1
100078a0:	4249      	negs	r1, r1
100078a2:	f003 fe19 	bl	1000b4d8 <__mutex_enter_timeout_ms_veneer>
100078a6:	6960      	ldr	r0, [r4, #20]
100078a8:	7225      	strb	r5, [r4, #8]
100078aa:	2800      	cmp	r0, #0
100078ac:	d001      	beq.n	100078b2 <tu_fifo_set_overwritable+0x2e>
100078ae:	f003 fdf3 	bl	1000b498 <__mutex_exit_veneer>
100078b2:	69a0      	ldr	r0, [r4, #24]
100078b4:	2800      	cmp	r0, #0
100078b6:	d001      	beq.n	100078bc <tu_fifo_set_overwritable+0x38>
100078b8:	f003 fdee 	bl	1000b498 <__mutex_exit_veneer>
100078bc:	2001      	movs	r0, #1
100078be:	bd70      	pop	{r4, r5, r6, pc}

100078c0 <_retrieve_unique_id_on_boot>:
100078c0:	b510      	push	{r4, lr}
100078c2:	4802      	ldr	r0, [pc, #8]	; (100078cc <_retrieve_unique_id_on_boot+0xc>)
100078c4:	f000 f8d8 	bl	10007a78 <flash_get_unique_id>
100078c8:	bd10      	pop	{r4, pc}
100078ca:	46c0      	nop			; (mov r8, r8)
100078cc:	20001c08 	.word	0x20001c08

100078d0 <pico_get_unique_board_id_string>:
100078d0:	b530      	push	{r4, r5, lr}
100078d2:	1e4b      	subs	r3, r1, #1
100078d4:	2901      	cmp	r1, #1
100078d6:	d100      	bne.n	100078da <pico_get_unique_board_id_string+0xa>
100078d8:	e0a7      	b.n	10007a2a <pico_get_unique_board_id_string+0x15a>
100078da:	4a66      	ldr	r2, [pc, #408]	; (10007a74 <pico_get_unique_board_id_string+0x1a4>)
100078dc:	7811      	ldrb	r1, [r2, #0]
100078de:	110d      	asrs	r5, r1, #4
100078e0:	002c      	movs	r4, r5
100078e2:	3430      	adds	r4, #48	; 0x30
100078e4:	299f      	cmp	r1, #159	; 0x9f
100078e6:	d900      	bls.n	100078ea <pico_get_unique_board_id_string+0x1a>
100078e8:	e0a2      	b.n	10007a30 <pico_get_unique_board_id_string+0x160>
100078ea:	7004      	strb	r4, [r0, #0]
100078ec:	2b01      	cmp	r3, #1
100078ee:	d100      	bne.n	100078f2 <pico_get_unique_board_id_string+0x22>
100078f0:	e0be      	b.n	10007a70 <pico_get_unique_board_id_string+0x1a0>
100078f2:	210f      	movs	r1, #15
100078f4:	7814      	ldrb	r4, [r2, #0]
100078f6:	4021      	ands	r1, r4
100078f8:	000c      	movs	r4, r1
100078fa:	3430      	adds	r4, #48	; 0x30
100078fc:	2909      	cmp	r1, #9
100078fe:	dd00      	ble.n	10007902 <pico_get_unique_board_id_string+0x32>
10007900:	e098      	b.n	10007a34 <pico_get_unique_board_id_string+0x164>
10007902:	7044      	strb	r4, [r0, #1]
10007904:	2b02      	cmp	r3, #2
10007906:	d100      	bne.n	1000790a <pico_get_unique_board_id_string+0x3a>
10007908:	e0b2      	b.n	10007a70 <pico_get_unique_board_id_string+0x1a0>
1000790a:	7854      	ldrb	r4, [r2, #1]
1000790c:	1125      	asrs	r5, r4, #4
1000790e:	0029      	movs	r1, r5
10007910:	3130      	adds	r1, #48	; 0x30
10007912:	2c9f      	cmp	r4, #159	; 0x9f
10007914:	d900      	bls.n	10007918 <pico_get_unique_board_id_string+0x48>
10007916:	e090      	b.n	10007a3a <pico_get_unique_board_id_string+0x16a>
10007918:	7081      	strb	r1, [r0, #2]
1000791a:	2b03      	cmp	r3, #3
1000791c:	d100      	bne.n	10007920 <pico_get_unique_board_id_string+0x50>
1000791e:	e0a7      	b.n	10007a70 <pico_get_unique_board_id_string+0x1a0>
10007920:	210f      	movs	r1, #15
10007922:	4021      	ands	r1, r4
10007924:	000c      	movs	r4, r1
10007926:	3430      	adds	r4, #48	; 0x30
10007928:	2909      	cmp	r1, #9
1000792a:	dd00      	ble.n	1000792e <pico_get_unique_board_id_string+0x5e>
1000792c:	e087      	b.n	10007a3e <pico_get_unique_board_id_string+0x16e>
1000792e:	70c4      	strb	r4, [r0, #3]
10007930:	2b04      	cmp	r3, #4
10007932:	d100      	bne.n	10007936 <pico_get_unique_board_id_string+0x66>
10007934:	e09c      	b.n	10007a70 <pico_get_unique_board_id_string+0x1a0>
10007936:	7894      	ldrb	r4, [r2, #2]
10007938:	1125      	asrs	r5, r4, #4
1000793a:	0029      	movs	r1, r5
1000793c:	3130      	adds	r1, #48	; 0x30
1000793e:	2c9f      	cmp	r4, #159	; 0x9f
10007940:	d900      	bls.n	10007944 <pico_get_unique_board_id_string+0x74>
10007942:	e07f      	b.n	10007a44 <pico_get_unique_board_id_string+0x174>
10007944:	7101      	strb	r1, [r0, #4]
10007946:	2b05      	cmp	r3, #5
10007948:	d100      	bne.n	1000794c <pico_get_unique_board_id_string+0x7c>
1000794a:	e091      	b.n	10007a70 <pico_get_unique_board_id_string+0x1a0>
1000794c:	210f      	movs	r1, #15
1000794e:	4021      	ands	r1, r4
10007950:	000c      	movs	r4, r1
10007952:	3430      	adds	r4, #48	; 0x30
10007954:	2909      	cmp	r1, #9
10007956:	dd00      	ble.n	1000795a <pico_get_unique_board_id_string+0x8a>
10007958:	e076      	b.n	10007a48 <pico_get_unique_board_id_string+0x178>
1000795a:	7144      	strb	r4, [r0, #5]
1000795c:	2b06      	cmp	r3, #6
1000795e:	d100      	bne.n	10007962 <pico_get_unique_board_id_string+0x92>
10007960:	e086      	b.n	10007a70 <pico_get_unique_board_id_string+0x1a0>
10007962:	78d4      	ldrb	r4, [r2, #3]
10007964:	1125      	asrs	r5, r4, #4
10007966:	0029      	movs	r1, r5
10007968:	3130      	adds	r1, #48	; 0x30
1000796a:	2c9f      	cmp	r4, #159	; 0x9f
1000796c:	d900      	bls.n	10007970 <pico_get_unique_board_id_string+0xa0>
1000796e:	e06e      	b.n	10007a4e <pico_get_unique_board_id_string+0x17e>
10007970:	7181      	strb	r1, [r0, #6]
10007972:	2b07      	cmp	r3, #7
10007974:	d100      	bne.n	10007978 <pico_get_unique_board_id_string+0xa8>
10007976:	e07b      	b.n	10007a70 <pico_get_unique_board_id_string+0x1a0>
10007978:	210f      	movs	r1, #15
1000797a:	4021      	ands	r1, r4
1000797c:	000c      	movs	r4, r1
1000797e:	3430      	adds	r4, #48	; 0x30
10007980:	2909      	cmp	r1, #9
10007982:	dc66      	bgt.n	10007a52 <pico_get_unique_board_id_string+0x182>
10007984:	71c4      	strb	r4, [r0, #7]
10007986:	2b08      	cmp	r3, #8
10007988:	d100      	bne.n	1000798c <pico_get_unique_board_id_string+0xbc>
1000798a:	e071      	b.n	10007a70 <pico_get_unique_board_id_string+0x1a0>
1000798c:	7914      	ldrb	r4, [r2, #4]
1000798e:	1125      	asrs	r5, r4, #4
10007990:	0029      	movs	r1, r5
10007992:	3130      	adds	r1, #48	; 0x30
10007994:	2c9f      	cmp	r4, #159	; 0x9f
10007996:	d85f      	bhi.n	10007a58 <pico_get_unique_board_id_string+0x188>
10007998:	7201      	strb	r1, [r0, #8]
1000799a:	2b09      	cmp	r3, #9
1000799c:	d068      	beq.n	10007a70 <pico_get_unique_board_id_string+0x1a0>
1000799e:	210f      	movs	r1, #15
100079a0:	4021      	ands	r1, r4
100079a2:	000c      	movs	r4, r1
100079a4:	3430      	adds	r4, #48	; 0x30
100079a6:	2909      	cmp	r1, #9
100079a8:	dc58      	bgt.n	10007a5c <pico_get_unique_board_id_string+0x18c>
100079aa:	7244      	strb	r4, [r0, #9]
100079ac:	2b0a      	cmp	r3, #10
100079ae:	d05f      	beq.n	10007a70 <pico_get_unique_board_id_string+0x1a0>
100079b0:	7954      	ldrb	r4, [r2, #5]
100079b2:	1125      	asrs	r5, r4, #4
100079b4:	0029      	movs	r1, r5
100079b6:	3130      	adds	r1, #48	; 0x30
100079b8:	2c9f      	cmp	r4, #159	; 0x9f
100079ba:	d852      	bhi.n	10007a62 <pico_get_unique_board_id_string+0x192>
100079bc:	7281      	strb	r1, [r0, #10]
100079be:	2b0b      	cmp	r3, #11
100079c0:	d056      	beq.n	10007a70 <pico_get_unique_board_id_string+0x1a0>
100079c2:	210f      	movs	r1, #15
100079c4:	4021      	ands	r1, r4
100079c6:	000c      	movs	r4, r1
100079c8:	3430      	adds	r4, #48	; 0x30
100079ca:	2909      	cmp	r1, #9
100079cc:	dc4b      	bgt.n	10007a66 <pico_get_unique_board_id_string+0x196>
100079ce:	72c4      	strb	r4, [r0, #11]
100079d0:	2b0c      	cmp	r3, #12
100079d2:	d04d      	beq.n	10007a70 <pico_get_unique_board_id_string+0x1a0>
100079d4:	7994      	ldrb	r4, [r2, #6]
100079d6:	1125      	asrs	r5, r4, #4
100079d8:	0029      	movs	r1, r5
100079da:	3130      	adds	r1, #48	; 0x30
100079dc:	2c9f      	cmp	r4, #159	; 0x9f
100079de:	d900      	bls.n	100079e2 <pico_get_unique_board_id_string+0x112>
100079e0:	3107      	adds	r1, #7
100079e2:	7301      	strb	r1, [r0, #12]
100079e4:	2b0d      	cmp	r3, #13
100079e6:	d043      	beq.n	10007a70 <pico_get_unique_board_id_string+0x1a0>
100079e8:	210f      	movs	r1, #15
100079ea:	4021      	ands	r1, r4
100079ec:	000c      	movs	r4, r1
100079ee:	3430      	adds	r4, #48	; 0x30
100079f0:	2909      	cmp	r1, #9
100079f2:	dd01      	ble.n	100079f8 <pico_get_unique_board_id_string+0x128>
100079f4:	3137      	adds	r1, #55	; 0x37
100079f6:	000c      	movs	r4, r1
100079f8:	7344      	strb	r4, [r0, #13]
100079fa:	2b0e      	cmp	r3, #14
100079fc:	d038      	beq.n	10007a70 <pico_get_unique_board_id_string+0x1a0>
100079fe:	79d1      	ldrb	r1, [r2, #7]
10007a00:	110c      	asrs	r4, r1, #4
10007a02:	0022      	movs	r2, r4
10007a04:	3230      	adds	r2, #48	; 0x30
10007a06:	299f      	cmp	r1, #159	; 0x9f
10007a08:	d900      	bls.n	10007a0c <pico_get_unique_board_id_string+0x13c>
10007a0a:	3207      	adds	r2, #7
10007a0c:	7382      	strb	r2, [r0, #14]
10007a0e:	2b0f      	cmp	r3, #15
10007a10:	d02e      	beq.n	10007a70 <pico_get_unique_board_id_string+0x1a0>
10007a12:	220f      	movs	r2, #15
10007a14:	400a      	ands	r2, r1
10007a16:	0011      	movs	r1, r2
10007a18:	3137      	adds	r1, #55	; 0x37
10007a1a:	2a09      	cmp	r2, #9
10007a1c:	dc01      	bgt.n	10007a22 <pico_get_unique_board_id_string+0x152>
10007a1e:	3230      	adds	r2, #48	; 0x30
10007a20:	0011      	movs	r1, r2
10007a22:	73c1      	strb	r1, [r0, #15]
10007a24:	2b10      	cmp	r3, #16
10007a26:	d023      	beq.n	10007a70 <pico_get_unique_board_id_string+0x1a0>
10007a28:	3010      	adds	r0, #16
10007a2a:	2300      	movs	r3, #0
10007a2c:	7003      	strb	r3, [r0, #0]
10007a2e:	bd30      	pop	{r4, r5, pc}
10007a30:	3407      	adds	r4, #7
10007a32:	e75a      	b.n	100078ea <pico_get_unique_board_id_string+0x1a>
10007a34:	3137      	adds	r1, #55	; 0x37
10007a36:	000c      	movs	r4, r1
10007a38:	e763      	b.n	10007902 <pico_get_unique_board_id_string+0x32>
10007a3a:	3107      	adds	r1, #7
10007a3c:	e76c      	b.n	10007918 <pico_get_unique_board_id_string+0x48>
10007a3e:	3137      	adds	r1, #55	; 0x37
10007a40:	000c      	movs	r4, r1
10007a42:	e774      	b.n	1000792e <pico_get_unique_board_id_string+0x5e>
10007a44:	3107      	adds	r1, #7
10007a46:	e77d      	b.n	10007944 <pico_get_unique_board_id_string+0x74>
10007a48:	3137      	adds	r1, #55	; 0x37
10007a4a:	000c      	movs	r4, r1
10007a4c:	e785      	b.n	1000795a <pico_get_unique_board_id_string+0x8a>
10007a4e:	3107      	adds	r1, #7
10007a50:	e78e      	b.n	10007970 <pico_get_unique_board_id_string+0xa0>
10007a52:	3137      	adds	r1, #55	; 0x37
10007a54:	000c      	movs	r4, r1
10007a56:	e795      	b.n	10007984 <pico_get_unique_board_id_string+0xb4>
10007a58:	3107      	adds	r1, #7
10007a5a:	e79d      	b.n	10007998 <pico_get_unique_board_id_string+0xc8>
10007a5c:	3137      	adds	r1, #55	; 0x37
10007a5e:	000c      	movs	r4, r1
10007a60:	e7a3      	b.n	100079aa <pico_get_unique_board_id_string+0xda>
10007a62:	3107      	adds	r1, #7
10007a64:	e7aa      	b.n	100079bc <pico_get_unique_board_id_string+0xec>
10007a66:	3137      	adds	r1, #55	; 0x37
10007a68:	000c      	movs	r4, r1
10007a6a:	72c4      	strb	r4, [r0, #11]
10007a6c:	2b0c      	cmp	r3, #12
10007a6e:	d1b1      	bne.n	100079d4 <pico_get_unique_board_id_string+0x104>
10007a70:	18c0      	adds	r0, r0, r3
10007a72:	e7da      	b.n	10007a2a <pico_get_unique_board_id_string+0x15a>
10007a74:	20001c08 	.word	0x20001c08

10007a78 <flash_get_unique_id>:
10007a78:	b530      	push	{r4, r5, lr}
10007a7a:	2500      	movs	r5, #0
10007a7c:	b089      	sub	sp, #36	; 0x24
10007a7e:	0004      	movs	r4, r0
10007a80:	2209      	movs	r2, #9
10007a82:	2100      	movs	r1, #0
10007a84:	a801      	add	r0, sp, #4
10007a86:	9500      	str	r5, [sp, #0]
10007a88:	f7fd f92c 	bl	10004ce4 <__wrap_memset>
10007a8c:	2209      	movs	r2, #9
10007a8e:	2100      	movs	r1, #0
10007a90:	a805      	add	r0, sp, #20
10007a92:	9504      	str	r5, [sp, #16]
10007a94:	f7fd f926 	bl	10004ce4 <__wrap_memset>
10007a98:	234b      	movs	r3, #75	; 0x4b
10007a9a:	466a      	mov	r2, sp
10007a9c:	4668      	mov	r0, sp
10007a9e:	7013      	strb	r3, [r2, #0]
10007aa0:	a904      	add	r1, sp, #16
10007aa2:	220d      	movs	r2, #13
10007aa4:	f003 fcf0 	bl	1000b488 <__flash_do_cmd_veneer>
10007aa8:	2115      	movs	r1, #21
10007aaa:	2208      	movs	r2, #8
10007aac:	0020      	movs	r0, r4
10007aae:	4469      	add	r1, sp
10007ab0:	f7fd f91e 	bl	10004cf0 <__wrap___aeabi_memcpy>
10007ab4:	b009      	add	sp, #36	; 0x24
10007ab6:	bd30      	pop	{r4, r5, pc}

10007ab8 <i2c_set_baudrate>:
10007ab8:	b5f8      	push	{r3, r4, r5, r6, r7, lr}
10007aba:	46de      	mov	lr, fp
10007abc:	4657      	mov	r7, sl
10007abe:	464e      	mov	r6, r9
10007ac0:	4645      	mov	r5, r8
10007ac2:	4683      	mov	fp, r0
10007ac4:	b5e0      	push	{r5, r6, r7, lr}
10007ac6:	2005      	movs	r0, #5
10007ac8:	000c      	movs	r4, r1
10007aca:	f7fa fd6f 	bl	100025ac <clock_get_hz>
10007ace:	0006      	movs	r6, r0
10007ad0:	0860      	lsrs	r0, r4, #1
10007ad2:	0021      	movs	r1, r4
10007ad4:	1980      	adds	r0, r0, r6
10007ad6:	f7fc f973 	bl	10003dc0 <__wrap___aeabi_uidiv>
10007ada:	0043      	lsls	r3, r0, #1
10007adc:	4698      	mov	r8, r3
10007ade:	4480      	add	r8, r0
10007ae0:	0007      	movs	r7, r0
10007ae2:	2105      	movs	r1, #5
10007ae4:	4640      	mov	r0, r8
10007ae6:	f7fc f96b 	bl	10003dc0 <__wrap___aeabi_uidiv>
10007aea:	1a3b      	subs	r3, r7, r0
10007aec:	469a      	mov	sl, r3
10007aee:	4b20      	ldr	r3, [pc, #128]	; (10007b70 <i2c_set_baudrate+0xb8>)
10007af0:	4681      	mov	r9, r0
10007af2:	0070      	lsls	r0, r6, #1
10007af4:	1980      	adds	r0, r0, r6
10007af6:	429c      	cmp	r4, r3
10007af8:	d834      	bhi.n	10007b64 <i2c_set_baudrate+0xac>
10007afa:	491e      	ldr	r1, [pc, #120]	; (10007b74 <i2c_set_baudrate+0xbc>)
10007afc:	f7fc f960 	bl	10003dc0 <__wrap___aeabi_uidiv>
10007b00:	1c45      	adds	r5, r0, #1
10007b02:	465b      	mov	r3, fp
10007b04:	681c      	ldr	r4, [r3, #0]
10007b06:	2300      	movs	r3, #0
10007b08:	66e3      	str	r3, [r4, #108]	; 0x6c
10007b0a:	6822      	ldr	r2, [r4, #0]
10007b0c:	3304      	adds	r3, #4
10007b0e:	4053      	eors	r3, r2
10007b10:	2206      	movs	r2, #6
10007b12:	401a      	ands	r2, r3
10007b14:	2380      	movs	r3, #128	; 0x80
10007b16:	015b      	lsls	r3, r3, #5
10007b18:	4323      	orrs	r3, r4
10007b1a:	601a      	str	r2, [r3, #0]
10007b1c:	4653      	mov	r3, sl
10007b1e:	61e3      	str	r3, [r4, #28]
10007b20:	464b      	mov	r3, r9
10007b22:	6223      	str	r3, [r4, #32]
10007b24:	4643      	mov	r3, r8
10007b26:	2001      	movs	r0, #1
10007b28:	2b4f      	cmp	r3, #79	; 0x4f
10007b2a:	d903      	bls.n	10007b34 <i2c_set_baudrate+0x7c>
10007b2c:	2150      	movs	r1, #80	; 0x50
10007b2e:	4640      	mov	r0, r8
10007b30:	f7fc f946 	bl	10003dc0 <__wrap___aeabi_uidiv>
10007b34:	23a0      	movs	r3, #160	; 0xa0
10007b36:	0022      	movs	r2, r4
10007b38:	50e0      	str	r0, [r4, r3]
10007b3a:	2380      	movs	r3, #128	; 0x80
10007b3c:	6fe0      	ldr	r0, [r4, #124]	; 0x7c
10007b3e:	327c      	adds	r2, #124	; 0x7c
10007b40:	4045      	eors	r5, r0
10007b42:	042d      	lsls	r5, r5, #16
10007b44:	015b      	lsls	r3, r3, #5
10007b46:	4313      	orrs	r3, r2
10007b48:	0c2d      	lsrs	r5, r5, #16
10007b4a:	601d      	str	r5, [r3, #0]
10007b4c:	2301      	movs	r3, #1
10007b4e:	0039      	movs	r1, r7
10007b50:	0030      	movs	r0, r6
10007b52:	66e3      	str	r3, [r4, #108]	; 0x6c
10007b54:	f7fc f934 	bl	10003dc0 <__wrap___aeabi_uidiv>
10007b58:	bcf0      	pop	{r4, r5, r6, r7}
10007b5a:	46bb      	mov	fp, r7
10007b5c:	46b2      	mov	sl, r6
10007b5e:	46a9      	mov	r9, r5
10007b60:	46a0      	mov	r8, r4
10007b62:	bdf8      	pop	{r3, r4, r5, r6, r7, pc}
10007b64:	4904      	ldr	r1, [pc, #16]	; (10007b78 <i2c_set_baudrate+0xc0>)
10007b66:	f7fc f92b 	bl	10003dc0 <__wrap___aeabi_uidiv>
10007b6a:	1c45      	adds	r5, r0, #1
10007b6c:	e7c9      	b.n	10007b02 <i2c_set_baudrate+0x4a>
10007b6e:	46c0      	nop			; (mov r8, r8)
10007b70:	000f423f 	.word	0x000f423f
10007b74:	00989680 	.word	0x00989680
10007b78:	017d7840 	.word	0x017d7840

10007b7c <i2c_init>:
10007b7c:	4a10      	ldr	r2, [pc, #64]	; (10007bc0 <i2c_init+0x44>)
10007b7e:	b570      	push	{r4, r5, r6, lr}
10007b80:	1a82      	subs	r2, r0, r2
10007b82:	4253      	negs	r3, r2
10007b84:	415a      	adcs	r2, r3
10007b86:	2307      	movs	r3, #7
10007b88:	4252      	negs	r2, r2
10007b8a:	439a      	bics	r2, r3
10007b8c:	4b0d      	ldr	r3, [pc, #52]	; (10007bc4 <i2c_init+0x48>)
10007b8e:	3210      	adds	r2, #16
10007b90:	601a      	str	r2, [r3, #0]
10007b92:	4b0d      	ldr	r3, [pc, #52]	; (10007bc8 <i2c_init+0x4c>)
10007b94:	4c0d      	ldr	r4, [pc, #52]	; (10007bcc <i2c_init+0x50>)
10007b96:	601a      	str	r2, [r3, #0]
10007b98:	0015      	movs	r5, r2
10007b9a:	68a3      	ldr	r3, [r4, #8]
10007b9c:	439d      	bics	r5, r3
10007b9e:	1e2b      	subs	r3, r5, #0
10007ba0:	d1fa      	bne.n	10007b98 <i2c_init+0x1c>
10007ba2:	2466      	movs	r4, #102	; 0x66
10007ba4:	6802      	ldr	r2, [r0, #0]
10007ba6:	34ff      	adds	r4, #255	; 0xff
10007ba8:	7105      	strb	r5, [r0, #4]
10007baa:	66d5      	str	r5, [r2, #108]	; 0x6c
10007bac:	6014      	str	r4, [r2, #0]
10007bae:	3c63      	subs	r4, #99	; 0x63
10007bb0:	3388      	adds	r3, #136	; 0x88
10007bb2:	3cff      	subs	r4, #255	; 0xff
10007bb4:	63d5      	str	r5, [r2, #60]	; 0x3c
10007bb6:	6395      	str	r5, [r2, #56]	; 0x38
10007bb8:	50d4      	str	r4, [r2, r3]
10007bba:	f7ff ff7d 	bl	10007ab8 <i2c_set_baudrate>
10007bbe:	bd70      	pop	{r4, r5, r6, pc}
10007bc0:	20000460 	.word	0x20000460
10007bc4:	4000e000 	.word	0x4000e000
10007bc8:	4000f000 	.word	0x4000f000
10007bcc:	4000c000 	.word	0x4000c000

10007bd0 <i2c_write_blocking>:
10007bd0:	b5f0      	push	{r4, r5, r6, r7, lr}
10007bd2:	4657      	mov	r7, sl
10007bd4:	464e      	mov	r6, r9
10007bd6:	4645      	mov	r5, r8
10007bd8:	46de      	mov	lr, fp
10007bda:	4690      	mov	r8, r2
10007bdc:	2200      	movs	r2, #0
10007bde:	b5e0      	push	{r5, r6, r7, lr}
10007be0:	b083      	sub	sp, #12
10007be2:	001e      	movs	r6, r3
10007be4:	ab0c      	add	r3, sp, #48	; 0x30
10007be6:	781b      	ldrb	r3, [r3, #0]
10007be8:	4684      	mov	ip, r0
10007bea:	469a      	mov	sl, r3
10007bec:	6803      	ldr	r3, [r0, #0]
10007bee:	66da      	str	r2, [r3, #108]	; 0x6c
10007bf0:	3201      	adds	r2, #1
10007bf2:	6059      	str	r1, [r3, #4]
10007bf4:	66da      	str	r2, [r3, #108]	; 0x6c
10007bf6:	2e00      	cmp	r6, #0
10007bf8:	dd4f      	ble.n	10007c9a <i2c_write_blocking+0xca>
10007bfa:	4651      	mov	r1, sl
10007bfc:	404a      	eors	r2, r1
10007bfe:	0252      	lsls	r2, r2, #9
10007c00:	9201      	str	r2, [sp, #4]
10007c02:	2280      	movs	r2, #128	; 0x80
10007c04:	4691      	mov	r9, r2
10007c06:	0032      	movs	r2, r6
10007c08:	2580      	movs	r5, #128	; 0x80
10007c0a:	1e77      	subs	r7, r6, #1
10007c0c:	2000      	movs	r0, #0
10007c0e:	4646      	mov	r6, r8
10007c10:	2110      	movs	r1, #16
10007c12:	4690      	mov	r8, r2
10007c14:	00ad      	lsls	r5, r5, #2
10007c16:	2400      	movs	r4, #0
10007c18:	2800      	cmp	r0, #0
10007c1a:	d104      	bne.n	10007c26 <i2c_write_blocking+0x56>
10007c1c:	4662      	mov	r2, ip
10007c1e:	7914      	ldrb	r4, [r2, #4]
10007c20:	1e62      	subs	r2, r4, #1
10007c22:	4194      	sbcs	r4, r2
10007c24:	02a4      	lsls	r4, r4, #10
10007c26:	2200      	movs	r2, #0
10007c28:	4693      	mov	fp, r2
10007c2a:	42b8      	cmp	r0, r7
10007c2c:	d01a      	beq.n	10007c64 <i2c_write_blocking+0x94>
10007c2e:	5c32      	ldrb	r2, [r6, r0]
10007c30:	4322      	orrs	r2, r4
10007c32:	465c      	mov	r4, fp
10007c34:	4322      	orrs	r2, r4
10007c36:	611a      	str	r2, [r3, #16]
10007c38:	6b5a      	ldr	r2, [r3, #52]	; 0x34
10007c3a:	4211      	tst	r1, r2
10007c3c:	d0fc      	beq.n	10007c38 <i2c_write_blocking+0x68>
10007c3e:	464a      	mov	r2, r9
10007c40:	589c      	ldr	r4, [r3, r2]
10007c42:	2c00      	cmp	r4, #0
10007c44:	d111      	bne.n	10007c6a <i2c_write_blocking+0x9a>
10007c46:	42b8      	cmp	r0, r7
10007c48:	d022      	beq.n	10007c90 <i2c_write_blocking+0xc0>
10007c4a:	3001      	adds	r0, #1
10007c4c:	4580      	cmp	r8, r0
10007c4e:	d1e2      	bne.n	10007c16 <i2c_write_blocking+0x46>
10007c50:	4663      	mov	r3, ip
10007c52:	4652      	mov	r2, sl
10007c54:	711a      	strb	r2, [r3, #4]
10007c56:	b003      	add	sp, #12
10007c58:	bcf0      	pop	{r4, r5, r6, r7}
10007c5a:	46bb      	mov	fp, r7
10007c5c:	46b2      	mov	sl, r6
10007c5e:	46a9      	mov	r9, r5
10007c60:	46a0      	mov	r8, r4
10007c62:	bdf0      	pop	{r4, r5, r6, r7, pc}
10007c64:	9a01      	ldr	r2, [sp, #4]
10007c66:	4693      	mov	fp, r2
10007c68:	e7e1      	b.n	10007c2e <i2c_write_blocking+0x5e>
10007c6a:	6d5a      	ldr	r2, [r3, #84]	; 0x54
10007c6c:	2201      	movs	r2, #1
10007c6e:	4693      	mov	fp, r2
10007c70:	6b5a      	ldr	r2, [r3, #52]	; 0x34
10007c72:	422a      	tst	r2, r5
10007c74:	d0fc      	beq.n	10007c70 <i2c_write_blocking+0xa0>
10007c76:	6e1a      	ldr	r2, [r3, #96]	; 0x60
10007c78:	465a      	mov	r2, fp
10007c7a:	2a00      	cmp	r2, #0
10007c7c:	d0e5      	beq.n	10007c4a <i2c_write_blocking+0x7a>
10007c7e:	2c00      	cmp	r4, #0
10007c80:	d003      	beq.n	10007c8a <i2c_write_blocking+0xba>
10007c82:	07e3      	lsls	r3, r4, #31
10007c84:	d401      	bmi.n	10007c8a <i2c_write_blocking+0xba>
10007c86:	0723      	lsls	r3, r4, #28
10007c88:	d4e2      	bmi.n	10007c50 <i2c_write_blocking+0x80>
10007c8a:	2002      	movs	r0, #2
10007c8c:	4240      	negs	r0, r0
10007c8e:	e7df      	b.n	10007c50 <i2c_write_blocking+0x80>
10007c90:	4652      	mov	r2, sl
10007c92:	2a00      	cmp	r2, #0
10007c94:	d1d9      	bne.n	10007c4a <i2c_write_blocking+0x7a>
10007c96:	46d3      	mov	fp, sl
10007c98:	e7ea      	b.n	10007c70 <i2c_write_blocking+0xa0>
10007c9a:	2000      	movs	r0, #0
10007c9c:	e7d8      	b.n	10007c50 <i2c_write_blocking+0x80>
10007c9e:	46c0      	nop			; (mov r8, r8)

10007ca0 <i2c_read_blocking>:
10007ca0:	b5f0      	push	{r4, r5, r6, r7, lr}
10007ca2:	4645      	mov	r5, r8
10007ca4:	46de      	mov	lr, fp
10007ca6:	4657      	mov	r7, sl
10007ca8:	464e      	mov	r6, r9
10007caa:	4693      	mov	fp, r2
10007cac:	2200      	movs	r2, #0
10007cae:	b5e0      	push	{r5, r6, r7, lr}
10007cb0:	001d      	movs	r5, r3
10007cb2:	ab09      	add	r3, sp, #36	; 0x24
10007cb4:	781b      	ldrb	r3, [r3, #0]
10007cb6:	0004      	movs	r4, r0
10007cb8:	4698      	mov	r8, r3
10007cba:	6803      	ldr	r3, [r0, #0]
10007cbc:	66da      	str	r2, [r3, #108]	; 0x6c
10007cbe:	3201      	adds	r2, #1
10007cc0:	6059      	str	r1, [r3, #4]
10007cc2:	66da      	str	r2, [r3, #108]	; 0x6c
10007cc4:	2d00      	cmp	r5, #0
10007cc6:	dd3e      	ble.n	10007d46 <i2c_read_blocking+0xa6>
10007cc8:	4641      	mov	r1, r8
10007cca:	404a      	eors	r2, r1
10007ccc:	0252      	lsls	r2, r2, #9
10007cce:	4694      	mov	ip, r2
10007cd0:	2280      	movs	r2, #128	; 0x80
10007cd2:	2000      	movs	r0, #0
10007cd4:	0052      	lsls	r2, r2, #1
10007cd6:	4691      	mov	r9, r2
10007cd8:	1e6f      	subs	r7, r5, #1
10007cda:	3a80      	subs	r2, #128	; 0x80
10007cdc:	6f59      	ldr	r1, [r3, #116]	; 0x74
10007cde:	2910      	cmp	r1, #16
10007ce0:	d0fc      	beq.n	10007cdc <i2c_read_blocking+0x3c>
10007ce2:	2800      	cmp	r0, #0
10007ce4:	d026      	beq.n	10007d34 <i2c_read_blocking+0x94>
10007ce6:	2600      	movs	r6, #0
10007ce8:	2180      	movs	r1, #128	; 0x80
10007cea:	46b2      	mov	sl, r6
10007cec:	0049      	lsls	r1, r1, #1
10007cee:	42b8      	cmp	r0, r7
10007cf0:	d012      	beq.n	10007d18 <i2c_read_blocking+0x78>
10007cf2:	6119      	str	r1, [r3, #16]
10007cf4:	e002      	b.n	10007cfc <i2c_read_blocking+0x5c>
10007cf6:	6f99      	ldr	r1, [r3, #120]	; 0x78
10007cf8:	2900      	cmp	r1, #0
10007cfa:	d113      	bne.n	10007d24 <i2c_read_blocking+0x84>
10007cfc:	5899      	ldr	r1, [r3, r2]
10007cfe:	6d59      	ldr	r1, [r3, #84]	; 0x54
10007d00:	2900      	cmp	r1, #0
10007d02:	d0f8      	beq.n	10007cf6 <i2c_read_blocking+0x56>
10007d04:	2002      	movs	r0, #2
10007d06:	4240      	negs	r0, r0
10007d08:	4643      	mov	r3, r8
10007d0a:	7123      	strb	r3, [r4, #4]
10007d0c:	bcf0      	pop	{r4, r5, r6, r7}
10007d0e:	46bb      	mov	fp, r7
10007d10:	46b2      	mov	sl, r6
10007d12:	46a9      	mov	r9, r5
10007d14:	46a0      	mov	r8, r4
10007d16:	bdf0      	pop	{r4, r5, r6, r7, pc}
10007d18:	4666      	mov	r6, ip
10007d1a:	4651      	mov	r1, sl
10007d1c:	4331      	orrs	r1, r6
10007d1e:	464e      	mov	r6, r9
10007d20:	4331      	orrs	r1, r6
10007d22:	e7e6      	b.n	10007cf2 <i2c_read_blocking+0x52>
10007d24:	4659      	mov	r1, fp
10007d26:	691b      	ldr	r3, [r3, #16]
10007d28:	540b      	strb	r3, [r1, r0]
10007d2a:	3001      	adds	r0, #1
10007d2c:	4285      	cmp	r5, r0
10007d2e:	d0eb      	beq.n	10007d08 <i2c_read_blocking+0x68>
10007d30:	6823      	ldr	r3, [r4, #0]
10007d32:	e7d3      	b.n	10007cdc <i2c_read_blocking+0x3c>
10007d34:	7921      	ldrb	r1, [r4, #4]
10007d36:	2900      	cmp	r1, #0
10007d38:	d0d5      	beq.n	10007ce6 <i2c_read_blocking+0x46>
10007d3a:	2680      	movs	r6, #128	; 0x80
10007d3c:	21a0      	movs	r1, #160	; 0xa0
10007d3e:	00f6      	lsls	r6, r6, #3
10007d40:	46b2      	mov	sl, r6
10007d42:	00c9      	lsls	r1, r1, #3
10007d44:	e7d3      	b.n	10007cee <i2c_read_blocking+0x4e>
10007d46:	2000      	movs	r0, #0
10007d48:	e7de      	b.n	10007d08 <i2c_read_blocking+0x68>
10007d4a:	46c0      	nop			; (mov r8, r8)

10007d4c <prvIdleTask>:
10007d4c:	b570      	push	{r4, r5, r6, lr}
10007d4e:	4c10      	ldr	r4, [pc, #64]	; (10007d90 <prvIdleTask+0x44>)
10007d50:	e014      	b.n	10007d7c <prvIdleTask+0x30>
10007d52:	f001 fd87 	bl	10009864 <vPortEnterCritical>
10007d56:	6923      	ldr	r3, [r4, #16]
10007d58:	68dd      	ldr	r5, [r3, #12]
10007d5a:	1d28      	adds	r0, r5, #4
10007d5c:	f001 fe3e 	bl	100099dc <uxListRemove>
10007d60:	69a3      	ldr	r3, [r4, #24]
10007d62:	3b01      	subs	r3, #1
10007d64:	61a3      	str	r3, [r4, #24]
10007d66:	6823      	ldr	r3, [r4, #0]
10007d68:	3b01      	subs	r3, #1
10007d6a:	6023      	str	r3, [r4, #0]
10007d6c:	f001 fd86 	bl	1000987c <vPortExitCritical>
10007d70:	6b28      	ldr	r0, [r5, #48]	; 0x30
10007d72:	f001 fd29 	bl	100097c8 <vPortFree>
10007d76:	0028      	movs	r0, r5
10007d78:	f001 fd26 	bl	100097c8 <vPortFree>
10007d7c:	6823      	ldr	r3, [r4, #0]
10007d7e:	2b00      	cmp	r3, #0
10007d80:	d1e7      	bne.n	10007d52 <prvIdleTask+0x6>
10007d82:	69e3      	ldr	r3, [r4, #28]
10007d84:	2b01      	cmp	r3, #1
10007d86:	d9f9      	bls.n	10007d7c <prvIdleTask+0x30>
10007d88:	f001 fd60 	bl	1000984c <vPortYield>
10007d8c:	e7f6      	b.n	10007d7c <prvIdleTask+0x30>
10007d8e:	46c0      	nop			; (mov r8, r8)
10007d90:	20001054 	.word	0x20001054

10007d94 <prvAddCurrentTaskToDelayedList>:
10007d94:	b5f8      	push	{r3, r4, r5, r6, r7, lr}
10007d96:	0004      	movs	r4, r0
10007d98:	4d1a      	ldr	r5, [pc, #104]	; (10007e04 <prvAddCurrentTaskToDelayedList+0x70>)
10007d9a:	000e      	movs	r6, r1
10007d9c:	682f      	ldr	r7, [r5, #0]
10007d9e:	6868      	ldr	r0, [r5, #4]
10007da0:	3004      	adds	r0, #4
10007da2:	f001 fe1b 	bl	100099dc <uxListRemove>
10007da6:	1c63      	adds	r3, r4, #1
10007da8:	d014      	beq.n	10007dd4 <prvAddCurrentTaskToDelayedList+0x40>
10007daa:	686b      	ldr	r3, [r5, #4]
10007dac:	193c      	adds	r4, r7, r4
10007dae:	605c      	str	r4, [r3, #4]
10007db0:	42a7      	cmp	r7, r4
10007db2:	d809      	bhi.n	10007dc8 <prvAddCurrentTaskToDelayedList+0x34>
10007db4:	6a28      	ldr	r0, [r5, #32]
10007db6:	6869      	ldr	r1, [r5, #4]
10007db8:	3104      	adds	r1, #4
10007dba:	f001 fdf7 	bl	100099ac <vListInsert>
10007dbe:	6a6b      	ldr	r3, [r5, #36]	; 0x24
10007dc0:	42a3      	cmp	r3, r4
10007dc2:	d900      	bls.n	10007dc6 <prvAddCurrentTaskToDelayedList+0x32>
10007dc4:	626c      	str	r4, [r5, #36]	; 0x24
10007dc6:	bdf8      	pop	{r3, r4, r5, r6, r7, pc}
10007dc8:	69e8      	ldr	r0, [r5, #28]
10007dca:	6869      	ldr	r1, [r5, #4]
10007dcc:	3104      	adds	r1, #4
10007dce:	f001 fded 	bl	100099ac <vListInsert>
10007dd2:	e7f8      	b.n	10007dc6 <prvAddCurrentTaskToDelayedList+0x32>
10007dd4:	2e00      	cmp	r6, #0
10007dd6:	d0e8      	beq.n	10007daa <prvAddCurrentTaskToDelayedList+0x16>
10007dd8:	686a      	ldr	r2, [r5, #4]
10007dda:	68eb      	ldr	r3, [r5, #12]
10007ddc:	6899      	ldr	r1, [r3, #8]
10007dde:	6093      	str	r3, [r2, #8]
10007de0:	686a      	ldr	r2, [r5, #4]
10007de2:	60d1      	str	r1, [r2, #12]
10007de4:	686a      	ldr	r2, [r5, #4]
10007de6:	6899      	ldr	r1, [r3, #8]
10007de8:	3204      	adds	r2, #4
10007dea:	604a      	str	r2, [r1, #4]
10007dec:	686a      	ldr	r2, [r5, #4]
10007dee:	3204      	adds	r2, #4
10007df0:	609a      	str	r2, [r3, #8]
10007df2:	002a      	movs	r2, r5
10007df4:	686b      	ldr	r3, [r5, #4]
10007df6:	3208      	adds	r2, #8
10007df8:	615a      	str	r2, [r3, #20]
10007dfa:	68ab      	ldr	r3, [r5, #8]
10007dfc:	3301      	adds	r3, #1
10007dfe:	60ab      	str	r3, [r5, #8]
10007e00:	e7e1      	b.n	10007dc6 <prvAddCurrentTaskToDelayedList+0x32>
10007e02:	46c0      	nop			; (mov r8, r8)
10007e04:	200010d4 	.word	0x200010d4

10007e08 <xTaskIncrementTick.part.0>:
10007e08:	b5f0      	push	{r4, r5, r6, r7, lr}
10007e0a:	46de      	mov	lr, fp
10007e0c:	4645      	mov	r5, r8
10007e0e:	4657      	mov	r7, sl
10007e10:	464e      	mov	r6, r9
10007e12:	4943      	ldr	r1, [pc, #268]	; (10007f20 <xTaskIncrementTick.part.0+0x118>)
10007e14:	b5e0      	push	{r5, r6, r7, lr}
10007e16:	680d      	ldr	r5, [r1, #0]
10007e18:	1c6b      	adds	r3, r5, #1
10007e1a:	469b      	mov	fp, r3
10007e1c:	600b      	str	r3, [r1, #0]
10007e1e:	2b00      	cmp	r3, #0
10007e20:	d10c      	bne.n	10007e3c <xTaskIncrementTick.part.0+0x34>
10007e22:	6a0b      	ldr	r3, [r1, #32]
10007e24:	69ca      	ldr	r2, [r1, #28]
10007e26:	620a      	str	r2, [r1, #32]
10007e28:	61cb      	str	r3, [r1, #28]
10007e2a:	6a8b      	ldr	r3, [r1, #40]	; 0x28
10007e2c:	3301      	adds	r3, #1
10007e2e:	628b      	str	r3, [r1, #40]	; 0x28
10007e30:	6a0b      	ldr	r3, [r1, #32]
10007e32:	681b      	ldr	r3, [r3, #0]
10007e34:	2b00      	cmp	r3, #0
10007e36:	d169      	bne.n	10007f0c <xTaskIncrementTick.part.0+0x104>
10007e38:	3b01      	subs	r3, #1
10007e3a:	624b      	str	r3, [r1, #36]	; 0x24
10007e3c:	2200      	movs	r2, #0
10007e3e:	6a4b      	ldr	r3, [r1, #36]	; 0x24
10007e40:	4694      	mov	ip, r2
10007e42:	459b      	cmp	fp, r3
10007e44:	d356      	bcc.n	10007ef4 <xTaskIncrementTick.part.0+0xec>
10007e46:	6a0b      	ldr	r3, [r1, #32]
10007e48:	681b      	ldr	r3, [r3, #0]
10007e4a:	2b00      	cmp	r3, #0
10007e4c:	d04f      	beq.n	10007eee <xTaskIncrementTick.part.0+0xe6>
10007e4e:	2300      	movs	r3, #0
10007e50:	469a      	mov	sl, r3
10007e52:	4b34      	ldr	r3, [pc, #208]	; (10007f24 <xTaskIncrementTick.part.0+0x11c>)
10007e54:	4699      	mov	r9, r3
10007e56:	231c      	movs	r3, #28
10007e58:	444b      	add	r3, r9
10007e5a:	4698      	mov	r8, r3
10007e5c:	e036      	b.n	10007ecc <xTaskIncrementTick.part.0+0xc4>
10007e5e:	4650      	mov	r0, sl
10007e60:	6814      	ldr	r4, [r2, #0]
10007e62:	6158      	str	r0, [r3, #20]
10007e64:	3c01      	subs	r4, #1
10007e66:	6014      	str	r4, [r2, #0]
10007e68:	6a9a      	ldr	r2, [r3, #40]	; 0x28
10007e6a:	2a00      	cmp	r2, #0
10007e6c:	d00e      	beq.n	10007e8c <xTaskIncrementTick.part.0+0x84>
10007e6e:	69dc      	ldr	r4, [r3, #28]
10007e70:	6a18      	ldr	r0, [r3, #32]
10007e72:	6855      	ldr	r5, [r2, #4]
10007e74:	60a0      	str	r0, [r4, #8]
10007e76:	6a18      	ldr	r0, [r3, #32]
10007e78:	6044      	str	r4, [r0, #4]
10007e7a:	001c      	movs	r4, r3
10007e7c:	3418      	adds	r4, #24
10007e7e:	42a5      	cmp	r5, r4
10007e80:	d049      	beq.n	10007f16 <xTaskIncrementTick.part.0+0x10e>
10007e82:	4650      	mov	r0, sl
10007e84:	6814      	ldr	r4, [r2, #0]
10007e86:	6298      	str	r0, [r3, #40]	; 0x28
10007e88:	3c01      	subs	r4, #1
10007e8a:	6014      	str	r4, [r2, #0]
10007e8c:	6adc      	ldr	r4, [r3, #44]	; 0x2c
10007e8e:	6aca      	ldr	r2, [r1, #44]	; 0x2c
10007e90:	4294      	cmp	r4, r2
10007e92:	d900      	bls.n	10007e96 <xTaskIncrementTick.part.0+0x8e>
10007e94:	62cc      	str	r4, [r1, #44]	; 0x2c
10007e96:	4648      	mov	r0, r9
10007e98:	00a2      	lsls	r2, r4, #2
10007e9a:	1912      	adds	r2, r2, r4
10007e9c:	0092      	lsls	r2, r2, #2
10007e9e:	1880      	adds	r0, r0, r2
10007ea0:	6a07      	ldr	r7, [r0, #32]
10007ea2:	4442      	add	r2, r8
10007ea4:	68bd      	ldr	r5, [r7, #8]
10007ea6:	609f      	str	r7, [r3, #8]
10007ea8:	60dd      	str	r5, [r3, #12]
10007eaa:	68bd      	ldr	r5, [r7, #8]
10007eac:	606e      	str	r6, [r5, #4]
10007eae:	60be      	str	r6, [r7, #8]
10007eb0:	615a      	str	r2, [r3, #20]
10007eb2:	69c3      	ldr	r3, [r0, #28]
10007eb4:	3301      	adds	r3, #1
10007eb6:	61c3      	str	r3, [r0, #28]
10007eb8:	684b      	ldr	r3, [r1, #4]
10007eba:	6adb      	ldr	r3, [r3, #44]	; 0x2c
10007ebc:	429c      	cmp	r4, r3
10007ebe:	d301      	bcc.n	10007ec4 <xTaskIncrementTick.part.0+0xbc>
10007ec0:	2301      	movs	r3, #1
10007ec2:	469c      	mov	ip, r3
10007ec4:	6a0b      	ldr	r3, [r1, #32]
10007ec6:	681b      	ldr	r3, [r3, #0]
10007ec8:	2b00      	cmp	r3, #0
10007eca:	d010      	beq.n	10007eee <xTaskIncrementTick.part.0+0xe6>
10007ecc:	6a0b      	ldr	r3, [r1, #32]
10007ece:	68db      	ldr	r3, [r3, #12]
10007ed0:	68db      	ldr	r3, [r3, #12]
10007ed2:	685a      	ldr	r2, [r3, #4]
10007ed4:	4593      	cmp	fp, r2
10007ed6:	d320      	bcc.n	10007f1a <xTaskIncrementTick.part.0+0x112>
10007ed8:	695a      	ldr	r2, [r3, #20]
10007eda:	6898      	ldr	r0, [r3, #8]
10007edc:	68dc      	ldr	r4, [r3, #12]
10007ede:	1d1e      	adds	r6, r3, #4
10007ee0:	6084      	str	r4, [r0, #8]
10007ee2:	6060      	str	r0, [r4, #4]
10007ee4:	6850      	ldr	r0, [r2, #4]
10007ee6:	42b0      	cmp	r0, r6
10007ee8:	d1b9      	bne.n	10007e5e <xTaskIncrementTick.part.0+0x56>
10007eea:	6054      	str	r4, [r2, #4]
10007eec:	e7b7      	b.n	10007e5e <xTaskIncrementTick.part.0+0x56>
10007eee:	2301      	movs	r3, #1
10007ef0:	425b      	negs	r3, r3
10007ef2:	624b      	str	r3, [r1, #36]	; 0x24
10007ef4:	6b0b      	ldr	r3, [r1, #48]	; 0x30
10007ef6:	2b00      	cmp	r3, #0
10007ef8:	d001      	beq.n	10007efe <xTaskIncrementTick.part.0+0xf6>
10007efa:	2301      	movs	r3, #1
10007efc:	469c      	mov	ip, r3
10007efe:	4660      	mov	r0, ip
10007f00:	bcf0      	pop	{r4, r5, r6, r7}
10007f02:	46bb      	mov	fp, r7
10007f04:	46b2      	mov	sl, r6
10007f06:	46a9      	mov	r9, r5
10007f08:	46a0      	mov	r8, r4
10007f0a:	bdf0      	pop	{r4, r5, r6, r7, pc}
10007f0c:	6a0b      	ldr	r3, [r1, #32]
10007f0e:	68db      	ldr	r3, [r3, #12]
10007f10:	681b      	ldr	r3, [r3, #0]
10007f12:	624b      	str	r3, [r1, #36]	; 0x24
10007f14:	e792      	b.n	10007e3c <xTaskIncrementTick.part.0+0x34>
10007f16:	6050      	str	r0, [r2, #4]
10007f18:	e7b3      	b.n	10007e82 <xTaskIncrementTick.part.0+0x7a>
10007f1a:	624a      	str	r2, [r1, #36]	; 0x24
10007f1c:	e7ea      	b.n	10007ef4 <xTaskIncrementTick.part.0+0xec>
10007f1e:	46c0      	nop			; (mov r8, r8)
10007f20:	200010d4 	.word	0x200010d4
10007f24:	20001054 	.word	0x20001054

10007f28 <xTaskCreate>:
10007f28:	b5f8      	push	{r3, r4, r5, r6, r7, lr}
10007f2a:	46ce      	mov	lr, r9
10007f2c:	4647      	mov	r7, r8
10007f2e:	4698      	mov	r8, r3
10007f30:	0093      	lsls	r3, r2, #2
10007f32:	b580      	push	{r7, lr}
10007f34:	0007      	movs	r7, r0
10007f36:	0018      	movs	r0, r3
10007f38:	000d      	movs	r5, r1
10007f3a:	4699      	mov	r9, r3
10007f3c:	f001 fc38 	bl	100097b0 <pvPortMalloc>
10007f40:	1e06      	subs	r6, r0, #0
10007f42:	d100      	bne.n	10007f46 <xTaskCreate+0x1e>
10007f44:	e0c2      	b.n	100080cc <xTaskCreate+0x1a4>
10007f46:	2068      	movs	r0, #104	; 0x68
10007f48:	f001 fc32 	bl	100097b0 <pvPortMalloc>
10007f4c:	1e04      	subs	r4, r0, #0
10007f4e:	d100      	bne.n	10007f52 <xTaskCreate+0x2a>
10007f50:	e0c3      	b.n	100080da <xTaskCreate+0x1b2>
10007f52:	2268      	movs	r2, #104	; 0x68
10007f54:	2100      	movs	r1, #0
10007f56:	f7fc fec5 	bl	10004ce4 <__wrap_memset>
10007f5a:	4648      	mov	r0, r9
10007f5c:	2307      	movs	r3, #7
10007f5e:	3804      	subs	r0, #4
10007f60:	6326      	str	r6, [r4, #48]	; 0x30
10007f62:	1836      	adds	r6, r6, r0
10007f64:	439e      	bics	r6, r3
10007f66:	2d00      	cmp	r5, #0
10007f68:	d05f      	beq.n	1000802a <xTaskCreate+0x102>
10007f6a:	2334      	movs	r3, #52	; 0x34
10007f6c:	782a      	ldrb	r2, [r5, #0]
10007f6e:	54e2      	strb	r2, [r4, r3]
10007f70:	782b      	ldrb	r3, [r5, #0]
10007f72:	2b00      	cmp	r3, #0
10007f74:	d056      	beq.n	10008024 <xTaskCreate+0xfc>
10007f76:	2335      	movs	r3, #53	; 0x35
10007f78:	786a      	ldrb	r2, [r5, #1]
10007f7a:	54e2      	strb	r2, [r4, r3]
10007f7c:	786b      	ldrb	r3, [r5, #1]
10007f7e:	2b00      	cmp	r3, #0
10007f80:	d050      	beq.n	10008024 <xTaskCreate+0xfc>
10007f82:	2336      	movs	r3, #54	; 0x36
10007f84:	78aa      	ldrb	r2, [r5, #2]
10007f86:	54e2      	strb	r2, [r4, r3]
10007f88:	78ab      	ldrb	r3, [r5, #2]
10007f8a:	2b00      	cmp	r3, #0
10007f8c:	d04a      	beq.n	10008024 <xTaskCreate+0xfc>
10007f8e:	2337      	movs	r3, #55	; 0x37
10007f90:	78ea      	ldrb	r2, [r5, #3]
10007f92:	54e2      	strb	r2, [r4, r3]
10007f94:	78eb      	ldrb	r3, [r5, #3]
10007f96:	2b00      	cmp	r3, #0
10007f98:	d044      	beq.n	10008024 <xTaskCreate+0xfc>
10007f9a:	2338      	movs	r3, #56	; 0x38
10007f9c:	792a      	ldrb	r2, [r5, #4]
10007f9e:	54e2      	strb	r2, [r4, r3]
10007fa0:	792b      	ldrb	r3, [r5, #4]
10007fa2:	2b00      	cmp	r3, #0
10007fa4:	d03e      	beq.n	10008024 <xTaskCreate+0xfc>
10007fa6:	2339      	movs	r3, #57	; 0x39
10007fa8:	796a      	ldrb	r2, [r5, #5]
10007faa:	54e2      	strb	r2, [r4, r3]
10007fac:	796b      	ldrb	r3, [r5, #5]
10007fae:	2b00      	cmp	r3, #0
10007fb0:	d038      	beq.n	10008024 <xTaskCreate+0xfc>
10007fb2:	233a      	movs	r3, #58	; 0x3a
10007fb4:	79aa      	ldrb	r2, [r5, #6]
10007fb6:	54e2      	strb	r2, [r4, r3]
10007fb8:	79ab      	ldrb	r3, [r5, #6]
10007fba:	2b00      	cmp	r3, #0
10007fbc:	d032      	beq.n	10008024 <xTaskCreate+0xfc>
10007fbe:	233b      	movs	r3, #59	; 0x3b
10007fc0:	79ea      	ldrb	r2, [r5, #7]
10007fc2:	54e2      	strb	r2, [r4, r3]
10007fc4:	79eb      	ldrb	r3, [r5, #7]
10007fc6:	2b00      	cmp	r3, #0
10007fc8:	d02c      	beq.n	10008024 <xTaskCreate+0xfc>
10007fca:	233c      	movs	r3, #60	; 0x3c
10007fcc:	7a2a      	ldrb	r2, [r5, #8]
10007fce:	54e2      	strb	r2, [r4, r3]
10007fd0:	7a2b      	ldrb	r3, [r5, #8]
10007fd2:	2b00      	cmp	r3, #0
10007fd4:	d026      	beq.n	10008024 <xTaskCreate+0xfc>
10007fd6:	233d      	movs	r3, #61	; 0x3d
10007fd8:	7a6a      	ldrb	r2, [r5, #9]
10007fda:	54e2      	strb	r2, [r4, r3]
10007fdc:	7a6b      	ldrb	r3, [r5, #9]
10007fde:	2b00      	cmp	r3, #0
10007fe0:	d020      	beq.n	10008024 <xTaskCreate+0xfc>
10007fe2:	233e      	movs	r3, #62	; 0x3e
10007fe4:	7aaa      	ldrb	r2, [r5, #10]
10007fe6:	54e2      	strb	r2, [r4, r3]
10007fe8:	7aab      	ldrb	r3, [r5, #10]
10007fea:	2b00      	cmp	r3, #0
10007fec:	d01a      	beq.n	10008024 <xTaskCreate+0xfc>
10007fee:	233f      	movs	r3, #63	; 0x3f
10007ff0:	7aea      	ldrb	r2, [r5, #11]
10007ff2:	54e2      	strb	r2, [r4, r3]
10007ff4:	7aeb      	ldrb	r3, [r5, #11]
10007ff6:	2b00      	cmp	r3, #0
10007ff8:	d014      	beq.n	10008024 <xTaskCreate+0xfc>
10007ffa:	2340      	movs	r3, #64	; 0x40
10007ffc:	7b2a      	ldrb	r2, [r5, #12]
10007ffe:	54e2      	strb	r2, [r4, r3]
10008000:	7b2b      	ldrb	r3, [r5, #12]
10008002:	2b00      	cmp	r3, #0
10008004:	d00e      	beq.n	10008024 <xTaskCreate+0xfc>
10008006:	2341      	movs	r3, #65	; 0x41
10008008:	7b6a      	ldrb	r2, [r5, #13]
1000800a:	54e2      	strb	r2, [r4, r3]
1000800c:	7b6b      	ldrb	r3, [r5, #13]
1000800e:	2b00      	cmp	r3, #0
10008010:	d008      	beq.n	10008024 <xTaskCreate+0xfc>
10008012:	2342      	movs	r3, #66	; 0x42
10008014:	7baa      	ldrb	r2, [r5, #14]
10008016:	54e2      	strb	r2, [r4, r3]
10008018:	7bab      	ldrb	r3, [r5, #14]
1000801a:	2b00      	cmp	r3, #0
1000801c:	d002      	beq.n	10008024 <xTaskCreate+0xfc>
1000801e:	2343      	movs	r3, #67	; 0x43
10008020:	7bea      	ldrb	r2, [r5, #15]
10008022:	54e2      	strb	r2, [r4, r3]
10008024:	2343      	movs	r3, #67	; 0x43
10008026:	2200      	movs	r2, #0
10008028:	54e2      	strb	r2, [r4, r3]
1000802a:	9d08      	ldr	r5, [sp, #32]
1000802c:	2d04      	cmp	r5, #4
1000802e:	d85a      	bhi.n	100080e6 <xTaskCreate+0x1be>
10008030:	1d23      	adds	r3, r4, #4
10008032:	0018      	movs	r0, r3
10008034:	62e5      	str	r5, [r4, #44]	; 0x2c
10008036:	4699      	mov	r9, r3
10008038:	f001 fca8 	bl	1000998c <vListInitialiseItem>
1000803c:	0020      	movs	r0, r4
1000803e:	3018      	adds	r0, #24
10008040:	f001 fca4 	bl	1000998c <vListInitialiseItem>
10008044:	2305      	movs	r3, #5
10008046:	1b5d      	subs	r5, r3, r5
10008048:	4642      	mov	r2, r8
1000804a:	0039      	movs	r1, r7
1000804c:	0030      	movs	r0, r6
1000804e:	6124      	str	r4, [r4, #16]
10008050:	61a5      	str	r5, [r4, #24]
10008052:	6264      	str	r4, [r4, #36]	; 0x24
10008054:	f001 fbe6 	bl	10009824 <pxPortInitialiseStack>
10008058:	9b09      	ldr	r3, [sp, #36]	; 0x24
1000805a:	6020      	str	r0, [r4, #0]
1000805c:	2b00      	cmp	r3, #0
1000805e:	d000      	beq.n	10008062 <xTaskCreate+0x13a>
10008060:	601c      	str	r4, [r3, #0]
10008062:	f001 fbff 	bl	10009864 <vPortEnterCritical>
10008066:	4d39      	ldr	r5, [pc, #228]	; (1000814c <xTaskCreate+0x224>)
10008068:	4e39      	ldr	r6, [pc, #228]	; (10008150 <xTaskCreate+0x228>)
1000806a:	69ab      	ldr	r3, [r5, #24]
1000806c:	3301      	adds	r3, #1
1000806e:	61ab      	str	r3, [r5, #24]
10008070:	6873      	ldr	r3, [r6, #4]
10008072:	2b00      	cmp	r3, #0
10008074:	d040      	beq.n	100080f8 <xTaskCreate+0x1d0>
10008076:	6f33      	ldr	r3, [r6, #112]	; 0x70
10008078:	2b00      	cmp	r3, #0
1000807a:	d036      	beq.n	100080ea <xTaskCreate+0x1c2>
1000807c:	6ae2      	ldr	r2, [r4, #44]	; 0x2c
1000807e:	6f73      	ldr	r3, [r6, #116]	; 0x74
10008080:	3301      	adds	r3, #1
10008082:	6773      	str	r3, [r6, #116]	; 0x74
10008084:	6af3      	ldr	r3, [r6, #44]	; 0x2c
10008086:	4293      	cmp	r3, r2
10008088:	d200      	bcs.n	1000808c <xTaskCreate+0x164>
1000808a:	62f2      	str	r2, [r6, #44]	; 0x2c
1000808c:	464f      	mov	r7, r9
1000808e:	0093      	lsls	r3, r2, #2
10008090:	189b      	adds	r3, r3, r2
10008092:	009b      	lsls	r3, r3, #2
10008094:	18e9      	adds	r1, r5, r3
10008096:	6a0a      	ldr	r2, [r1, #32]
10008098:	351c      	adds	r5, #28
1000809a:	6890      	ldr	r0, [r2, #8]
1000809c:	18ed      	adds	r5, r5, r3
1000809e:	60e0      	str	r0, [r4, #12]
100080a0:	69cb      	ldr	r3, [r1, #28]
100080a2:	6890      	ldr	r0, [r2, #8]
100080a4:	3301      	adds	r3, #1
100080a6:	60a2      	str	r2, [r4, #8]
100080a8:	6047      	str	r7, [r0, #4]
100080aa:	6097      	str	r7, [r2, #8]
100080ac:	6165      	str	r5, [r4, #20]
100080ae:	61cb      	str	r3, [r1, #28]
100080b0:	f001 fbe4 	bl	1000987c <vPortExitCritical>
100080b4:	6f33      	ldr	r3, [r6, #112]	; 0x70
100080b6:	2501      	movs	r5, #1
100080b8:	2b00      	cmp	r3, #0
100080ba:	d009      	beq.n	100080d0 <xTaskCreate+0x1a8>
100080bc:	6873      	ldr	r3, [r6, #4]
100080be:	6ada      	ldr	r2, [r3, #44]	; 0x2c
100080c0:	6ae3      	ldr	r3, [r4, #44]	; 0x2c
100080c2:	429a      	cmp	r2, r3
100080c4:	d204      	bcs.n	100080d0 <xTaskCreate+0x1a8>
100080c6:	f001 fbc1 	bl	1000984c <vPortYield>
100080ca:	e001      	b.n	100080d0 <xTaskCreate+0x1a8>
100080cc:	2501      	movs	r5, #1
100080ce:	426d      	negs	r5, r5
100080d0:	0028      	movs	r0, r5
100080d2:	bcc0      	pop	{r6, r7}
100080d4:	46b9      	mov	r9, r7
100080d6:	46b0      	mov	r8, r6
100080d8:	bdf8      	pop	{r3, r4, r5, r6, r7, pc}
100080da:	2501      	movs	r5, #1
100080dc:	0030      	movs	r0, r6
100080de:	f001 fb73 	bl	100097c8 <vPortFree>
100080e2:	426d      	negs	r5, r5
100080e4:	e7f4      	b.n	100080d0 <xTaskCreate+0x1a8>
100080e6:	2504      	movs	r5, #4
100080e8:	e7a2      	b.n	10008030 <xTaskCreate+0x108>
100080ea:	6873      	ldr	r3, [r6, #4]
100080ec:	6ae2      	ldr	r2, [r4, #44]	; 0x2c
100080ee:	6adb      	ldr	r3, [r3, #44]	; 0x2c
100080f0:	4293      	cmp	r3, r2
100080f2:	d8c4      	bhi.n	1000807e <xTaskCreate+0x156>
100080f4:	6074      	str	r4, [r6, #4]
100080f6:	e7c2      	b.n	1000807e <xTaskCreate+0x156>
100080f8:	6074      	str	r4, [r6, #4]
100080fa:	69ab      	ldr	r3, [r5, #24]
100080fc:	2b01      	cmp	r3, #1
100080fe:	d1bd      	bne.n	1000807c <xTaskCreate+0x154>
10008100:	2380      	movs	r3, #128	; 0x80
10008102:	002f      	movs	r7, r5
10008104:	4698      	mov	r8, r3
10008106:	371c      	adds	r7, #28
10008108:	44a8      	add	r8, r5
1000810a:	0038      	movs	r0, r7
1000810c:	3714      	adds	r7, #20
1000810e:	f001 fc31 	bl	10009974 <vListInitialise>
10008112:	45b8      	cmp	r8, r7
10008114:	d1f9      	bne.n	1000810a <xTaskCreate+0x1e2>
10008116:	2334      	movs	r3, #52	; 0x34
10008118:	4698      	mov	r8, r3
1000811a:	0037      	movs	r7, r6
1000811c:	44b0      	add	r8, r6
1000811e:	4640      	mov	r0, r8
10008120:	3748      	adds	r7, #72	; 0x48
10008122:	f001 fc27 	bl	10009974 <vListInitialise>
10008126:	0038      	movs	r0, r7
10008128:	f001 fc24 	bl	10009974 <vListInitialise>
1000812c:	0030      	movs	r0, r6
1000812e:	305c      	adds	r0, #92	; 0x5c
10008130:	f001 fc20 	bl	10009974 <vListInitialise>
10008134:	1d28      	adds	r0, r5, #4
10008136:	f001 fc1d 	bl	10009974 <vListInitialise>
1000813a:	0030      	movs	r0, r6
1000813c:	3008      	adds	r0, #8
1000813e:	f001 fc19 	bl	10009974 <vListInitialise>
10008142:	4643      	mov	r3, r8
10008144:	6233      	str	r3, [r6, #32]
10008146:	61f7      	str	r7, [r6, #28]
10008148:	e798      	b.n	1000807c <xTaskCreate+0x154>
1000814a:	46c0      	nop			; (mov r8, r8)
1000814c:	20001054 	.word	0x20001054
10008150:	200010d4 	.word	0x200010d4

10008154 <vTaskDelete>:
10008154:	b5f8      	push	{r3, r4, r5, r6, r7, lr}
10008156:	0004      	movs	r4, r0
10008158:	f001 fb84 	bl	10009864 <vPortEnterCritical>
1000815c:	4d21      	ldr	r5, [pc, #132]	; (100081e4 <vTaskDelete+0x90>)
1000815e:	2c00      	cmp	r4, #0
10008160:	d031      	beq.n	100081c6 <vTaskDelete+0x72>
10008162:	1d26      	adds	r6, r4, #4
10008164:	0030      	movs	r0, r6
10008166:	f001 fc39 	bl	100099dc <uxListRemove>
1000816a:	6aa3      	ldr	r3, [r4, #40]	; 0x28
1000816c:	2b00      	cmp	r3, #0
1000816e:	d003      	beq.n	10008178 <vTaskDelete+0x24>
10008170:	0020      	movs	r0, r4
10008172:	3018      	adds	r0, #24
10008174:	f001 fc32 	bl	100099dc <uxListRemove>
10008178:	6f6b      	ldr	r3, [r5, #116]	; 0x74
1000817a:	3301      	adds	r3, #1
1000817c:	676b      	str	r3, [r5, #116]	; 0x74
1000817e:	686b      	ldr	r3, [r5, #4]
10008180:	42a3      	cmp	r3, r4
10008182:	d022      	beq.n	100081ca <vTaskDelete+0x76>
10008184:	4a18      	ldr	r2, [pc, #96]	; (100081e8 <vTaskDelete+0x94>)
10008186:	6993      	ldr	r3, [r2, #24]
10008188:	3b01      	subs	r3, #1
1000818a:	6193      	str	r3, [r2, #24]
1000818c:	6a2b      	ldr	r3, [r5, #32]
1000818e:	681b      	ldr	r3, [r3, #0]
10008190:	2b00      	cmp	r3, #0
10008192:	d015      	beq.n	100081c0 <vTaskDelete+0x6c>
10008194:	6a2b      	ldr	r3, [r5, #32]
10008196:	68db      	ldr	r3, [r3, #12]
10008198:	681b      	ldr	r3, [r3, #0]
1000819a:	626b      	str	r3, [r5, #36]	; 0x24
1000819c:	f001 fb6e 	bl	1000987c <vPortExitCritical>
100081a0:	686b      	ldr	r3, [r5, #4]
100081a2:	42a3      	cmp	r3, r4
100081a4:	d005      	beq.n	100081b2 <vTaskDelete+0x5e>
100081a6:	6b20      	ldr	r0, [r4, #48]	; 0x30
100081a8:	f001 fb0e 	bl	100097c8 <vPortFree>
100081ac:	0020      	movs	r0, r4
100081ae:	f001 fb0b 	bl	100097c8 <vPortFree>
100081b2:	6f2b      	ldr	r3, [r5, #112]	; 0x70
100081b4:	2b00      	cmp	r3, #0
100081b6:	d002      	beq.n	100081be <vTaskDelete+0x6a>
100081b8:	686b      	ldr	r3, [r5, #4]
100081ba:	42a3      	cmp	r3, r4
100081bc:	d00e      	beq.n	100081dc <vTaskDelete+0x88>
100081be:	bdf8      	pop	{r3, r4, r5, r6, r7, pc}
100081c0:	3b01      	subs	r3, #1
100081c2:	626b      	str	r3, [r5, #36]	; 0x24
100081c4:	e7ea      	b.n	1000819c <vTaskDelete+0x48>
100081c6:	686c      	ldr	r4, [r5, #4]
100081c8:	e7cb      	b.n	10008162 <vTaskDelete+0xe>
100081ca:	4f07      	ldr	r7, [pc, #28]	; (100081e8 <vTaskDelete+0x94>)
100081cc:	0031      	movs	r1, r6
100081ce:	1d38      	adds	r0, r7, #4
100081d0:	f001 fbe0 	bl	10009994 <vListInsertEnd>
100081d4:	683b      	ldr	r3, [r7, #0]
100081d6:	3301      	adds	r3, #1
100081d8:	603b      	str	r3, [r7, #0]
100081da:	e7df      	b.n	1000819c <vTaskDelete+0x48>
100081dc:	f001 fb36 	bl	1000984c <vPortYield>
100081e0:	e7ed      	b.n	100081be <vTaskDelete+0x6a>
100081e2:	46c0      	nop			; (mov r8, r8)
100081e4:	200010d4 	.word	0x200010d4
100081e8:	20001054 	.word	0x20001054

100081ec <uxTaskPriorityGet>:
100081ec:	b510      	push	{r4, lr}
100081ee:	0004      	movs	r4, r0
100081f0:	f001 fb38 	bl	10009864 <vPortEnterCritical>
100081f4:	2c00      	cmp	r4, #0
100081f6:	d004      	beq.n	10008202 <uxTaskPriorityGet+0x16>
100081f8:	6ae4      	ldr	r4, [r4, #44]	; 0x2c
100081fa:	f001 fb3f 	bl	1000987c <vPortExitCritical>
100081fe:	0020      	movs	r0, r4
10008200:	bd10      	pop	{r4, pc}
10008202:	4b01      	ldr	r3, [pc, #4]	; (10008208 <uxTaskPriorityGet+0x1c>)
10008204:	685c      	ldr	r4, [r3, #4]
10008206:	e7f7      	b.n	100081f8 <uxTaskPriorityGet+0xc>
10008208:	200010d4 	.word	0x200010d4

1000820c <uxTaskPriorityGetFromISR>:
1000820c:	b510      	push	{r4, lr}
1000820e:	0004      	movs	r4, r0
10008210:	f001 fb3e 	bl	10009890 <ulSetInterruptMaskFromISR>
10008214:	2c00      	cmp	r4, #0
10008216:	d004      	beq.n	10008222 <uxTaskPriorityGetFromISR+0x16>
10008218:	6ae4      	ldr	r4, [r4, #44]	; 0x2c
1000821a:	f001 fb3d 	bl	10009898 <vClearInterruptMaskFromISR>
1000821e:	0020      	movs	r0, r4
10008220:	bd10      	pop	{r4, pc}
10008222:	4b01      	ldr	r3, [pc, #4]	; (10008228 <uxTaskPriorityGetFromISR+0x1c>)
10008224:	685c      	ldr	r4, [r3, #4]
10008226:	e7f7      	b.n	10008218 <uxTaskPriorityGetFromISR+0xc>
10008228:	200010d4 	.word	0x200010d4

1000822c <vTaskPrioritySet>:
1000822c:	b5f0      	push	{r4, r5, r6, r7, lr}
1000822e:	46c6      	mov	lr, r8
10008230:	0004      	movs	r4, r0
10008232:	000d      	movs	r5, r1
10008234:	b500      	push	{lr}
10008236:	2904      	cmp	r1, #4
10008238:	d900      	bls.n	1000823c <vTaskPrioritySet+0x10>
1000823a:	2504      	movs	r5, #4
1000823c:	f001 fb12 	bl	10009864 <vPortEnterCritical>
10008240:	2c00      	cmp	r4, #0
10008242:	d02b      	beq.n	1000829c <vTaskPrioritySet+0x70>
10008244:	6ae3      	ldr	r3, [r4, #44]	; 0x2c
10008246:	429d      	cmp	r5, r3
10008248:	d01a      	beq.n	10008280 <vTaskPrioritySet+0x54>
1000824a:	4f25      	ldr	r7, [pc, #148]	; (100082e0 <vTaskPrioritySet+0xb4>)
1000824c:	d81d      	bhi.n	1000828a <vTaskPrioritySet+0x5e>
1000824e:	687e      	ldr	r6, [r7, #4]
10008250:	1b36      	subs	r6, r6, r4
10008252:	4272      	negs	r2, r6
10008254:	4156      	adcs	r6, r2
10008256:	69a2      	ldr	r2, [r4, #24]
10008258:	62e5      	str	r5, [r4, #44]	; 0x2c
1000825a:	2a00      	cmp	r2, #0
1000825c:	db02      	blt.n	10008264 <vTaskPrioritySet+0x38>
1000825e:	2105      	movs	r1, #5
10008260:	1b4d      	subs	r5, r1, r5
10008262:	61a5      	str	r5, [r4, #24]
10008264:	4d1f      	ldr	r5, [pc, #124]	; (100082e4 <vTaskPrioritySet+0xb8>)
10008266:	009a      	lsls	r2, r3, #2
10008268:	0029      	movs	r1, r5
1000826a:	18d3      	adds	r3, r2, r3
1000826c:	311c      	adds	r1, #28
1000826e:	009b      	lsls	r3, r3, #2
10008270:	6962      	ldr	r2, [r4, #20]
10008272:	18cb      	adds	r3, r1, r3
10008274:	429a      	cmp	r2, r3
10008276:	d014      	beq.n	100082a2 <vTaskPrioritySet+0x76>
10008278:	2e00      	cmp	r6, #0
1000827a:	d001      	beq.n	10008280 <vTaskPrioritySet+0x54>
1000827c:	f001 fae6 	bl	1000984c <vPortYield>
10008280:	f001 fafc 	bl	1000987c <vPortExitCritical>
10008284:	bc80      	pop	{r7}
10008286:	46b8      	mov	r8, r7
10008288:	bdf0      	pop	{r4, r5, r6, r7, pc}
1000828a:	687a      	ldr	r2, [r7, #4]
1000828c:	42a2      	cmp	r2, r4
1000828e:	d025      	beq.n	100082dc <vTaskPrioritySet+0xb0>
10008290:	2600      	movs	r6, #0
10008292:	687a      	ldr	r2, [r7, #4]
10008294:	6ad2      	ldr	r2, [r2, #44]	; 0x2c
10008296:	4295      	cmp	r5, r2
10008298:	4176      	adcs	r6, r6
1000829a:	e7dc      	b.n	10008256 <vTaskPrioritySet+0x2a>
1000829c:	4b10      	ldr	r3, [pc, #64]	; (100082e0 <vTaskPrioritySet+0xb4>)
1000829e:	685c      	ldr	r4, [r3, #4]
100082a0:	e7d0      	b.n	10008244 <vTaskPrioritySet+0x18>
100082a2:	1d23      	adds	r3, r4, #4
100082a4:	0018      	movs	r0, r3
100082a6:	4698      	mov	r8, r3
100082a8:	f001 fb98 	bl	100099dc <uxListRemove>
100082ac:	6ae2      	ldr	r2, [r4, #44]	; 0x2c
100082ae:	6afb      	ldr	r3, [r7, #44]	; 0x2c
100082b0:	429a      	cmp	r2, r3
100082b2:	d900      	bls.n	100082b6 <vTaskPrioritySet+0x8a>
100082b4:	62fa      	str	r2, [r7, #44]	; 0x2c
100082b6:	4647      	mov	r7, r8
100082b8:	0093      	lsls	r3, r2, #2
100082ba:	189b      	adds	r3, r3, r2
100082bc:	009b      	lsls	r3, r3, #2
100082be:	18e9      	adds	r1, r5, r3
100082c0:	6a0a      	ldr	r2, [r1, #32]
100082c2:	351c      	adds	r5, #28
100082c4:	6890      	ldr	r0, [r2, #8]
100082c6:	18ed      	adds	r5, r5, r3
100082c8:	60e0      	str	r0, [r4, #12]
100082ca:	69cb      	ldr	r3, [r1, #28]
100082cc:	6890      	ldr	r0, [r2, #8]
100082ce:	3301      	adds	r3, #1
100082d0:	60a2      	str	r2, [r4, #8]
100082d2:	6047      	str	r7, [r0, #4]
100082d4:	6097      	str	r7, [r2, #8]
100082d6:	6165      	str	r5, [r4, #20]
100082d8:	61cb      	str	r3, [r1, #28]
100082da:	e7cd      	b.n	10008278 <vTaskPrioritySet+0x4c>
100082dc:	2600      	movs	r6, #0
100082de:	e7ba      	b.n	10008256 <vTaskPrioritySet+0x2a>
100082e0:	200010d4 	.word	0x200010d4
100082e4:	20001054 	.word	0x20001054

100082e8 <vTaskSuspend>:
100082e8:	b570      	push	{r4, r5, r6, lr}
100082ea:	0004      	movs	r4, r0
100082ec:	f001 faba 	bl	10009864 <vPortEnterCritical>
100082f0:	4d4b      	ldr	r5, [pc, #300]	; (10008420 <vTaskSuspend+0x138>)
100082f2:	2c00      	cmp	r4, #0
100082f4:	d047      	beq.n	10008386 <vTaskSuspend+0x9e>
100082f6:	1d26      	adds	r6, r4, #4
100082f8:	0030      	movs	r0, r6
100082fa:	f001 fb6f 	bl	100099dc <uxListRemove>
100082fe:	6aa3      	ldr	r3, [r4, #40]	; 0x28
10008300:	2b00      	cmp	r3, #0
10008302:	d003      	beq.n	1000830c <vTaskSuspend+0x24>
10008304:	0020      	movs	r0, r4
10008306:	3018      	adds	r0, #24
10008308:	f001 fb68 	bl	100099dc <uxListRemove>
1000830c:	0028      	movs	r0, r5
1000830e:	0031      	movs	r1, r6
10008310:	3008      	adds	r0, #8
10008312:	f001 fb3f 	bl	10009994 <vListInsertEnd>
10008316:	2364      	movs	r3, #100	; 0x64
10008318:	5ce2      	ldrb	r2, [r4, r3]
1000831a:	2a01      	cmp	r2, #1
1000831c:	d101      	bne.n	10008322 <vTaskSuspend+0x3a>
1000831e:	2200      	movs	r2, #0
10008320:	54e2      	strb	r2, [r4, r3]
10008322:	2365      	movs	r3, #101	; 0x65
10008324:	5ce2      	ldrb	r2, [r4, r3]
10008326:	2a01      	cmp	r2, #1
10008328:	d101      	bne.n	1000832e <vTaskSuspend+0x46>
1000832a:	2200      	movs	r2, #0
1000832c:	54e2      	strb	r2, [r4, r3]
1000832e:	2366      	movs	r3, #102	; 0x66
10008330:	5ce2      	ldrb	r2, [r4, r3]
10008332:	2a01      	cmp	r2, #1
10008334:	d101      	bne.n	1000833a <vTaskSuspend+0x52>
10008336:	2200      	movs	r2, #0
10008338:	54e2      	strb	r2, [r4, r3]
1000833a:	f001 fa9f 	bl	1000987c <vPortExitCritical>
1000833e:	6f2b      	ldr	r3, [r5, #112]	; 0x70
10008340:	2b00      	cmp	r3, #0
10008342:	d103      	bne.n	1000834c <vTaskSuspend+0x64>
10008344:	686b      	ldr	r3, [r5, #4]
10008346:	42a3      	cmp	r3, r4
10008348:	d00f      	beq.n	1000836a <vTaskSuspend+0x82>
1000834a:	bd70      	pop	{r4, r5, r6, pc}
1000834c:	f001 fa8a 	bl	10009864 <vPortEnterCritical>
10008350:	6a2b      	ldr	r3, [r5, #32]
10008352:	681b      	ldr	r3, [r3, #0]
10008354:	2b00      	cmp	r3, #0
10008356:	d018      	beq.n	1000838a <vTaskSuspend+0xa2>
10008358:	6a2b      	ldr	r3, [r5, #32]
1000835a:	68db      	ldr	r3, [r3, #12]
1000835c:	681b      	ldr	r3, [r3, #0]
1000835e:	626b      	str	r3, [r5, #36]	; 0x24
10008360:	f001 fa8c 	bl	1000987c <vPortExitCritical>
10008364:	686b      	ldr	r3, [r5, #4]
10008366:	42a3      	cmp	r3, r4
10008368:	d1ef      	bne.n	1000834a <vTaskSuspend+0x62>
1000836a:	6f2a      	ldr	r2, [r5, #112]	; 0x70
1000836c:	2a00      	cmp	r2, #0
1000836e:	d111      	bne.n	10008394 <vTaskSuspend+0xac>
10008370:	4b2c      	ldr	r3, [pc, #176]	; (10008424 <vTaskSuspend+0x13c>)
10008372:	68a8      	ldr	r0, [r5, #8]
10008374:	6999      	ldr	r1, [r3, #24]
10008376:	4288      	cmp	r0, r1
10008378:	d00a      	beq.n	10008390 <vTaskSuspend+0xa8>
1000837a:	6faa      	ldr	r2, [r5, #120]	; 0x78
1000837c:	2a00      	cmp	r2, #0
1000837e:	d00c      	beq.n	1000839a <vTaskSuspend+0xb2>
10008380:	2301      	movs	r3, #1
10008382:	632b      	str	r3, [r5, #48]	; 0x30
10008384:	e7e1      	b.n	1000834a <vTaskSuspend+0x62>
10008386:	686c      	ldr	r4, [r5, #4]
10008388:	e7b5      	b.n	100082f6 <vTaskSuspend+0xe>
1000838a:	3b01      	subs	r3, #1
1000838c:	626b      	str	r3, [r5, #36]	; 0x24
1000838e:	e7e7      	b.n	10008360 <vTaskSuspend+0x78>
10008390:	606a      	str	r2, [r5, #4]
10008392:	e7da      	b.n	1000834a <vTaskSuspend+0x62>
10008394:	f001 fa5a 	bl	1000984c <vPortYield>
10008398:	e7d7      	b.n	1000834a <vTaskSuspend+0x62>
1000839a:	632a      	str	r2, [r5, #48]	; 0x30
1000839c:	6ae9      	ldr	r1, [r5, #44]	; 0x2c
1000839e:	008a      	lsls	r2, r1, #2
100083a0:	1850      	adds	r0, r2, r1
100083a2:	0080      	lsls	r0, r0, #2
100083a4:	1818      	adds	r0, r3, r0
100083a6:	69c0      	ldr	r0, [r0, #28]
100083a8:	2800      	cmp	r0, #0
100083aa:	d125      	bne.n	100083f8 <vTaskSuspend+0x110>
100083ac:	1e4c      	subs	r4, r1, #1
100083ae:	00a2      	lsls	r2, r4, #2
100083b0:	1910      	adds	r0, r2, r4
100083b2:	0080      	lsls	r0, r0, #2
100083b4:	1818      	adds	r0, r3, r0
100083b6:	69c0      	ldr	r0, [r0, #28]
100083b8:	2800      	cmp	r0, #0
100083ba:	d12e      	bne.n	1000841a <vTaskSuspend+0x132>
100083bc:	1e8c      	subs	r4, r1, #2
100083be:	00a2      	lsls	r2, r4, #2
100083c0:	1910      	adds	r0, r2, r4
100083c2:	0080      	lsls	r0, r0, #2
100083c4:	1818      	adds	r0, r3, r0
100083c6:	69c0      	ldr	r0, [r0, #28]
100083c8:	2800      	cmp	r0, #0
100083ca:	d126      	bne.n	1000841a <vTaskSuspend+0x132>
100083cc:	1ecc      	subs	r4, r1, #3
100083ce:	00a2      	lsls	r2, r4, #2
100083d0:	1910      	adds	r0, r2, r4
100083d2:	0080      	lsls	r0, r0, #2
100083d4:	1818      	adds	r0, r3, r0
100083d6:	69c0      	ldr	r0, [r0, #28]
100083d8:	2800      	cmp	r0, #0
100083da:	d11e      	bne.n	1000841a <vTaskSuspend+0x132>
100083dc:	1f0c      	subs	r4, r1, #4
100083de:	00a2      	lsls	r2, r4, #2
100083e0:	1910      	adds	r0, r2, r4
100083e2:	0080      	lsls	r0, r0, #2
100083e4:	1818      	adds	r0, r3, r0
100083e6:	69c0      	ldr	r0, [r0, #28]
100083e8:	2800      	cmp	r0, #0
100083ea:	d116      	bne.n	1000841a <vTaskSuspend+0x132>
100083ec:	3905      	subs	r1, #5
100083ee:	008a      	lsls	r2, r1, #2
100083f0:	1850      	adds	r0, r2, r1
100083f2:	0080      	lsls	r0, r0, #2
100083f4:	1818      	adds	r0, r3, r0
100083f6:	69c0      	ldr	r0, [r0, #28]
100083f8:	1852      	adds	r2, r2, r1
100083fa:	0092      	lsls	r2, r2, #2
100083fc:	189c      	adds	r4, r3, r2
100083fe:	0023      	movs	r3, r4
10008400:	6a20      	ldr	r0, [r4, #32]
10008402:	3324      	adds	r3, #36	; 0x24
10008404:	6840      	ldr	r0, [r0, #4]
10008406:	6220      	str	r0, [r4, #32]
10008408:	4298      	cmp	r0, r3
1000840a:	d003      	beq.n	10008414 <vTaskSuspend+0x12c>
1000840c:	68c3      	ldr	r3, [r0, #12]
1000840e:	606b      	str	r3, [r5, #4]
10008410:	62e9      	str	r1, [r5, #44]	; 0x2c
10008412:	e79a      	b.n	1000834a <vTaskSuspend+0x62>
10008414:	6840      	ldr	r0, [r0, #4]
10008416:	6220      	str	r0, [r4, #32]
10008418:	e7f8      	b.n	1000840c <vTaskSuspend+0x124>
1000841a:	0021      	movs	r1, r4
1000841c:	e7ec      	b.n	100083f8 <vTaskSuspend+0x110>
1000841e:	46c0      	nop			; (mov r8, r8)
10008420:	200010d4 	.word	0x200010d4
10008424:	20001054 	.word	0x20001054

10008428 <vTaskResume>:
10008428:	b5f8      	push	{r3, r4, r5, r6, r7, lr}
1000842a:	4d1e      	ldr	r5, [pc, #120]	; (100084a4 <vTaskResume+0x7c>)
1000842c:	0004      	movs	r4, r0
1000842e:	686b      	ldr	r3, [r5, #4]
10008430:	4283      	cmp	r3, r0
10008432:	d00a      	beq.n	1000844a <vTaskResume+0x22>
10008434:	2800      	cmp	r0, #0
10008436:	d008      	beq.n	1000844a <vTaskResume+0x22>
10008438:	f001 fa14 	bl	10009864 <vPortEnterCritical>
1000843c:	002b      	movs	r3, r5
1000843e:	6962      	ldr	r2, [r4, #20]
10008440:	3308      	adds	r3, #8
10008442:	429a      	cmp	r2, r3
10008444:	d002      	beq.n	1000844c <vTaskResume+0x24>
10008446:	f001 fa19 	bl	1000987c <vPortExitCritical>
1000844a:	bdf8      	pop	{r3, r4, r5, r6, r7, pc}
1000844c:	002a      	movs	r2, r5
1000844e:	6aa3      	ldr	r3, [r4, #40]	; 0x28
10008450:	325c      	adds	r2, #92	; 0x5c
10008452:	4293      	cmp	r3, r2
10008454:	d0f7      	beq.n	10008446 <vTaskResume+0x1e>
10008456:	2b00      	cmp	r3, #0
10008458:	d1f5      	bne.n	10008446 <vTaskResume+0x1e>
1000845a:	1d26      	adds	r6, r4, #4
1000845c:	0030      	movs	r0, r6
1000845e:	f001 fabd 	bl	100099dc <uxListRemove>
10008462:	6ae1      	ldr	r1, [r4, #44]	; 0x2c
10008464:	6aeb      	ldr	r3, [r5, #44]	; 0x2c
10008466:	4299      	cmp	r1, r3
10008468:	d900      	bls.n	1000846c <vTaskResume+0x44>
1000846a:	62e9      	str	r1, [r5, #44]	; 0x2c
1000846c:	4b0e      	ldr	r3, [pc, #56]	; (100084a8 <vTaskResume+0x80>)
1000846e:	008a      	lsls	r2, r1, #2
10008470:	469c      	mov	ip, r3
10008472:	1852      	adds	r2, r2, r1
10008474:	0092      	lsls	r2, r2, #2
10008476:	189f      	adds	r7, r3, r2
10008478:	6a38      	ldr	r0, [r7, #32]
1000847a:	6883      	ldr	r3, [r0, #8]
1000847c:	60a0      	str	r0, [r4, #8]
1000847e:	60e3      	str	r3, [r4, #12]
10008480:	6883      	ldr	r3, [r0, #8]
10008482:	605e      	str	r6, [r3, #4]
10008484:	4663      	mov	r3, ip
10008486:	331c      	adds	r3, #28
10008488:	189b      	adds	r3, r3, r2
1000848a:	6086      	str	r6, [r0, #8]
1000848c:	6163      	str	r3, [r4, #20]
1000848e:	69fb      	ldr	r3, [r7, #28]
10008490:	3301      	adds	r3, #1
10008492:	61fb      	str	r3, [r7, #28]
10008494:	686b      	ldr	r3, [r5, #4]
10008496:	6adb      	ldr	r3, [r3, #44]	; 0x2c
10008498:	4299      	cmp	r1, r3
1000849a:	d3d4      	bcc.n	10008446 <vTaskResume+0x1e>
1000849c:	f001 f9d6 	bl	1000984c <vPortYield>
100084a0:	e7d1      	b.n	10008446 <vTaskResume+0x1e>
100084a2:	46c0      	nop			; (mov r8, r8)
100084a4:	200010d4 	.word	0x200010d4
100084a8:	20001054 	.word	0x20001054

100084ac <xTaskResumeFromISR>:
100084ac:	b5f0      	push	{r4, r5, r6, r7, lr}
100084ae:	46c6      	mov	lr, r8
100084b0:	b500      	push	{lr}
100084b2:	0004      	movs	r4, r0
100084b4:	f001 f9ec 	bl	10009890 <ulSetInterruptMaskFromISR>
100084b8:	4e22      	ldr	r6, [pc, #136]	; (10008544 <xTaskResumeFromISR+0x98>)
100084ba:	6962      	ldr	r2, [r4, #20]
100084bc:	0033      	movs	r3, r6
100084be:	3308      	adds	r3, #8
100084c0:	0005      	movs	r5, r0
100084c2:	2700      	movs	r7, #0
100084c4:	429a      	cmp	r2, r3
100084c6:	d006      	beq.n	100084d6 <xTaskResumeFromISR+0x2a>
100084c8:	0028      	movs	r0, r5
100084ca:	f001 f9e5 	bl	10009898 <vClearInterruptMaskFromISR>
100084ce:	0038      	movs	r0, r7
100084d0:	bc80      	pop	{r7}
100084d2:	46b8      	mov	r8, r7
100084d4:	bdf0      	pop	{r4, r5, r6, r7, pc}
100084d6:	0030      	movs	r0, r6
100084d8:	6aa3      	ldr	r3, [r4, #40]	; 0x28
100084da:	305c      	adds	r0, #92	; 0x5c
100084dc:	4283      	cmp	r3, r0
100084de:	d0f3      	beq.n	100084c8 <xTaskResumeFromISR+0x1c>
100084e0:	2b00      	cmp	r3, #0
100084e2:	d1f1      	bne.n	100084c8 <xTaskResumeFromISR+0x1c>
100084e4:	6fb3      	ldr	r3, [r6, #120]	; 0x78
100084e6:	2b00      	cmp	r3, #0
100084e8:	d127      	bne.n	1000853a <xTaskResumeFromISR+0x8e>
100084ea:	6873      	ldr	r3, [r6, #4]
100084ec:	6ae2      	ldr	r2, [r4, #44]	; 0x2c
100084ee:	6adb      	ldr	r3, [r3, #44]	; 0x2c
100084f0:	429a      	cmp	r2, r3
100084f2:	d302      	bcc.n	100084fa <xTaskResumeFromISR+0x4e>
100084f4:	2301      	movs	r3, #1
100084f6:	3701      	adds	r7, #1
100084f8:	6333      	str	r3, [r6, #48]	; 0x30
100084fa:	1d23      	adds	r3, r4, #4
100084fc:	0018      	movs	r0, r3
100084fe:	4698      	mov	r8, r3
10008500:	f001 fa6c 	bl	100099dc <uxListRemove>
10008504:	6ae1      	ldr	r1, [r4, #44]	; 0x2c
10008506:	6af3      	ldr	r3, [r6, #44]	; 0x2c
10008508:	4299      	cmp	r1, r3
1000850a:	d900      	bls.n	1000850e <xTaskResumeFromISR+0x62>
1000850c:	62f1      	str	r1, [r6, #44]	; 0x2c
1000850e:	008a      	lsls	r2, r1, #2
10008510:	4b0d      	ldr	r3, [pc, #52]	; (10008548 <xTaskResumeFromISR+0x9c>)
10008512:	1852      	adds	r2, r2, r1
10008514:	0092      	lsls	r2, r2, #2
10008516:	189e      	adds	r6, r3, r2
10008518:	469c      	mov	ip, r3
1000851a:	4643      	mov	r3, r8
1000851c:	6a31      	ldr	r1, [r6, #32]
1000851e:	6888      	ldr	r0, [r1, #8]
10008520:	60a1      	str	r1, [r4, #8]
10008522:	60e0      	str	r0, [r4, #12]
10008524:	6888      	ldr	r0, [r1, #8]
10008526:	6043      	str	r3, [r0, #4]
10008528:	608b      	str	r3, [r1, #8]
1000852a:	4663      	mov	r3, ip
1000852c:	331c      	adds	r3, #28
1000852e:	189b      	adds	r3, r3, r2
10008530:	6163      	str	r3, [r4, #20]
10008532:	69f3      	ldr	r3, [r6, #28]
10008534:	3301      	adds	r3, #1
10008536:	61f3      	str	r3, [r6, #28]
10008538:	e7c6      	b.n	100084c8 <xTaskResumeFromISR+0x1c>
1000853a:	0021      	movs	r1, r4
1000853c:	3118      	adds	r1, #24
1000853e:	f001 fa29 	bl	10009994 <vListInsertEnd>
10008542:	e7c1      	b.n	100084c8 <xTaskResumeFromISR+0x1c>
10008544:	200010d4 	.word	0x200010d4
10008548:	20001054 	.word	0x20001054

1000854c <vTaskStartScheduler>:
1000854c:	b5f8      	push	{r3, r4, r5, r6, r7, lr}
1000854e:	2080      	movs	r0, #128	; 0x80
10008550:	46ce      	mov	lr, r9
10008552:	4647      	mov	r7, r8
10008554:	0080      	lsls	r0, r0, #2
10008556:	b580      	push	{r7, lr}
10008558:	f001 f92a 	bl	100097b0 <pvPortMalloc>
1000855c:	1e05      	subs	r5, r0, #0
1000855e:	d05f      	beq.n	10008620 <vTaskStartScheduler+0xd4>
10008560:	2068      	movs	r0, #104	; 0x68
10008562:	f001 f925 	bl	100097b0 <pvPortMalloc>
10008566:	1e04      	subs	r4, r0, #0
10008568:	d060      	beq.n	1000862c <vTaskStartScheduler+0xe0>
1000856a:	2268      	movs	r2, #104	; 0x68
1000856c:	2100      	movs	r1, #0
1000856e:	f7fc fbb9 	bl	10004ce4 <__wrap_memset>
10008572:	2307      	movs	r3, #7
10008574:	6325      	str	r5, [r4, #48]	; 0x30
10008576:	35fd      	adds	r5, #253	; 0xfd
10008578:	35ff      	adds	r5, #255	; 0xff
1000857a:	439d      	bics	r5, r3
1000857c:	4b49      	ldr	r3, [pc, #292]	; (100086a4 <vTaskStartScheduler+0x158>)
1000857e:	1d27      	adds	r7, r4, #4
10008580:	6363      	str	r3, [r4, #52]	; 0x34
10008582:	0038      	movs	r0, r7
10008584:	f001 fa02 	bl	1000998c <vListInitialiseItem>
10008588:	0020      	movs	r0, r4
1000858a:	3018      	adds	r0, #24
1000858c:	f001 f9fe 	bl	1000998c <vListInitialiseItem>
10008590:	2305      	movs	r3, #5
10008592:	2200      	movs	r2, #0
10008594:	61a3      	str	r3, [r4, #24]
10008596:	0028      	movs	r0, r5
10008598:	4943      	ldr	r1, [pc, #268]	; (100086a8 <vTaskStartScheduler+0x15c>)
1000859a:	6124      	str	r4, [r4, #16]
1000859c:	6264      	str	r4, [r4, #36]	; 0x24
1000859e:	f001 f941 	bl	10009824 <pxPortInitialiseStack>
100085a2:	4d42      	ldr	r5, [pc, #264]	; (100086ac <vTaskStartScheduler+0x160>)
100085a4:	6020      	str	r0, [r4, #0]
100085a6:	67ec      	str	r4, [r5, #124]	; 0x7c
100085a8:	f001 f95c 	bl	10009864 <vPortEnterCritical>
100085ac:	4e40      	ldr	r6, [pc, #256]	; (100086b0 <vTaskStartScheduler+0x164>)
100085ae:	69b3      	ldr	r3, [r6, #24]
100085b0:	3301      	adds	r3, #1
100085b2:	61b3      	str	r3, [r6, #24]
100085b4:	686b      	ldr	r3, [r5, #4]
100085b6:	2b00      	cmp	r3, #0
100085b8:	d043      	beq.n	10008642 <vTaskStartScheduler+0xf6>
100085ba:	6f2b      	ldr	r3, [r5, #112]	; 0x70
100085bc:	2b00      	cmp	r3, #0
100085be:	d039      	beq.n	10008634 <vTaskStartScheduler+0xe8>
100085c0:	6ae2      	ldr	r2, [r4, #44]	; 0x2c
100085c2:	6f6b      	ldr	r3, [r5, #116]	; 0x74
100085c4:	3301      	adds	r3, #1
100085c6:	676b      	str	r3, [r5, #116]	; 0x74
100085c8:	6aeb      	ldr	r3, [r5, #44]	; 0x2c
100085ca:	4293      	cmp	r3, r2
100085cc:	d200      	bcs.n	100085d0 <vTaskStartScheduler+0x84>
100085ce:	62ea      	str	r2, [r5, #44]	; 0x2c
100085d0:	0093      	lsls	r3, r2, #2
100085d2:	189b      	adds	r3, r3, r2
100085d4:	009b      	lsls	r3, r3, #2
100085d6:	18f1      	adds	r1, r6, r3
100085d8:	6a0a      	ldr	r2, [r1, #32]
100085da:	361c      	adds	r6, #28
100085dc:	6890      	ldr	r0, [r2, #8]
100085de:	18f6      	adds	r6, r6, r3
100085e0:	60e0      	str	r0, [r4, #12]
100085e2:	69cb      	ldr	r3, [r1, #28]
100085e4:	6890      	ldr	r0, [r2, #8]
100085e6:	3301      	adds	r3, #1
100085e8:	60a2      	str	r2, [r4, #8]
100085ea:	6047      	str	r7, [r0, #4]
100085ec:	6097      	str	r7, [r2, #8]
100085ee:	6166      	str	r6, [r4, #20]
100085f0:	61cb      	str	r3, [r1, #28]
100085f2:	f001 f943 	bl	1000987c <vPortExitCritical>
100085f6:	6f2b      	ldr	r3, [r5, #112]	; 0x70
100085f8:	2b00      	cmp	r3, #0
100085fa:	d004      	beq.n	10008606 <vTaskStartScheduler+0xba>
100085fc:	686b      	ldr	r3, [r5, #4]
100085fe:	6ada      	ldr	r2, [r3, #44]	; 0x2c
10008600:	6ae3      	ldr	r3, [r4, #44]	; 0x2c
10008602:	429a      	cmp	r2, r3
10008604:	d34b      	bcc.n	1000869e <vTaskStartScheduler+0x152>
10008606:	f000 ffc5 	bl	10009594 <xTimerCreateTimerTask>
1000860a:	2801      	cmp	r0, #1
1000860c:	d108      	bne.n	10008620 <vTaskStartScheduler+0xd4>
1000860e:	b672      	cpsid	i
10008610:	2301      	movs	r3, #1
10008612:	425b      	negs	r3, r3
10008614:	626b      	str	r3, [r5, #36]	; 0x24
10008616:	2300      	movs	r3, #0
10008618:	6728      	str	r0, [r5, #112]	; 0x70
1000861a:	602b      	str	r3, [r5, #0]
1000861c:	f001 f988 	bl	10009930 <xPortStartScheduler>
10008620:	4b24      	ldr	r3, [pc, #144]	; (100086b4 <vTaskStartScheduler+0x168>)
10008622:	681b      	ldr	r3, [r3, #0]
10008624:	bcc0      	pop	{r6, r7}
10008626:	46b9      	mov	r9, r7
10008628:	46b0      	mov	r8, r6
1000862a:	bdf8      	pop	{r3, r4, r5, r6, r7, pc}
1000862c:	0028      	movs	r0, r5
1000862e:	f001 f8cb 	bl	100097c8 <vPortFree>
10008632:	e7f5      	b.n	10008620 <vTaskStartScheduler+0xd4>
10008634:	686b      	ldr	r3, [r5, #4]
10008636:	6ae2      	ldr	r2, [r4, #44]	; 0x2c
10008638:	6adb      	ldr	r3, [r3, #44]	; 0x2c
1000863a:	4293      	cmp	r3, r2
1000863c:	d8c1      	bhi.n	100085c2 <vTaskStartScheduler+0x76>
1000863e:	606c      	str	r4, [r5, #4]
10008640:	e7bf      	b.n	100085c2 <vTaskStartScheduler+0x76>
10008642:	606c      	str	r4, [r5, #4]
10008644:	69b3      	ldr	r3, [r6, #24]
10008646:	2b01      	cmp	r3, #1
10008648:	d1ba      	bne.n	100085c0 <vTaskStartScheduler+0x74>
1000864a:	231c      	movs	r3, #28
1000864c:	4698      	mov	r8, r3
1000864e:	3364      	adds	r3, #100	; 0x64
10008650:	4699      	mov	r9, r3
10008652:	44b0      	add	r8, r6
10008654:	44b1      	add	r9, r6
10008656:	4640      	mov	r0, r8
10008658:	f001 f98c 	bl	10009974 <vListInitialise>
1000865c:	2314      	movs	r3, #20
1000865e:	469c      	mov	ip, r3
10008660:	44e0      	add	r8, ip
10008662:	45c8      	cmp	r8, r9
10008664:	d1f7      	bne.n	10008656 <vTaskStartScheduler+0x10a>
10008666:	3320      	adds	r3, #32
10008668:	4699      	mov	r9, r3
1000866a:	44a9      	add	r9, r5
1000866c:	4648      	mov	r0, r9
1000866e:	f001 f981 	bl	10009974 <vListInitialise>
10008672:	2348      	movs	r3, #72	; 0x48
10008674:	4698      	mov	r8, r3
10008676:	44a8      	add	r8, r5
10008678:	4640      	mov	r0, r8
1000867a:	f001 f97b 	bl	10009974 <vListInitialise>
1000867e:	0028      	movs	r0, r5
10008680:	305c      	adds	r0, #92	; 0x5c
10008682:	f001 f977 	bl	10009974 <vListInitialise>
10008686:	1d30      	adds	r0, r6, #4
10008688:	f001 f974 	bl	10009974 <vListInitialise>
1000868c:	0028      	movs	r0, r5
1000868e:	3008      	adds	r0, #8
10008690:	f001 f970 	bl	10009974 <vListInitialise>
10008694:	464b      	mov	r3, r9
10008696:	622b      	str	r3, [r5, #32]
10008698:	4643      	mov	r3, r8
1000869a:	61eb      	str	r3, [r5, #28]
1000869c:	e790      	b.n	100085c0 <vTaskStartScheduler+0x74>
1000869e:	f001 f8d5 	bl	1000984c <vPortYield>
100086a2:	e7b0      	b.n	10008606 <vTaskStartScheduler+0xba>
100086a4:	454c4449 	.word	0x454c4449
100086a8:	10007d4d 	.word	0x10007d4d
100086ac:	200010d4 	.word	0x200010d4
100086b0:	20001054 	.word	0x20001054
100086b4:	20000468 	.word	0x20000468

100086b8 <vTaskEndScheduler>:
100086b8:	b510      	push	{r4, lr}
100086ba:	b672      	cpsid	i
100086bc:	2200      	movs	r2, #0
100086be:	4b02      	ldr	r3, [pc, #8]	; (100086c8 <vTaskEndScheduler+0x10>)
100086c0:	671a      	str	r2, [r3, #112]	; 0x70
100086c2:	f001 f8c1 	bl	10009848 <vPortEndScheduler>
100086c6:	bd10      	pop	{r4, pc}
100086c8:	200010d4 	.word	0x200010d4

100086cc <vTaskSuspendAll>:
100086cc:	4a02      	ldr	r2, [pc, #8]	; (100086d8 <vTaskSuspendAll+0xc>)
100086ce:	6f93      	ldr	r3, [r2, #120]	; 0x78
100086d0:	3301      	adds	r3, #1
100086d2:	6793      	str	r3, [r2, #120]	; 0x78
100086d4:	4770      	bx	lr
100086d6:	46c0      	nop			; (mov r8, r8)
100086d8:	200010d4 	.word	0x200010d4

100086dc <xTaskResumeAll>:
100086dc:	b5f0      	push	{r4, r5, r6, r7, lr}
100086de:	46d6      	mov	lr, sl
100086e0:	464f      	mov	r7, r9
100086e2:	4646      	mov	r6, r8
100086e4:	b5c0      	push	{r6, r7, lr}
100086e6:	f001 f8bd 	bl	10009864 <vPortEnterCritical>
100086ea:	4c46      	ldr	r4, [pc, #280]	; (10008804 <xTaskResumeAll+0x128>)
100086ec:	6fa3      	ldr	r3, [r4, #120]	; 0x78
100086ee:	3b01      	subs	r3, #1
100086f0:	67a3      	str	r3, [r4, #120]	; 0x78
100086f2:	6fa3      	ldr	r3, [r4, #120]	; 0x78
100086f4:	2b00      	cmp	r3, #0
100086f6:	d16b      	bne.n	100087d0 <xTaskResumeAll+0xf4>
100086f8:	4b43      	ldr	r3, [pc, #268]	; (10008808 <xTaskResumeAll+0x12c>)
100086fa:	469a      	mov	sl, r3
100086fc:	699b      	ldr	r3, [r3, #24]
100086fe:	2b00      	cmp	r3, #0
10008700:	d066      	beq.n	100087d0 <xTaskResumeAll+0xf4>
10008702:	6de3      	ldr	r3, [r4, #92]	; 0x5c
10008704:	2b00      	cmp	r3, #0
10008706:	d048      	beq.n	1000879a <xTaskResumeAll+0xbe>
10008708:	2300      	movs	r3, #0
1000870a:	4699      	mov	r9, r3
1000870c:	331c      	adds	r3, #28
1000870e:	4698      	mov	r8, r3
10008710:	3b1b      	subs	r3, #27
10008712:	469c      	mov	ip, r3
10008714:	44d0      	add	r8, sl
10008716:	6ea3      	ldr	r3, [r4, #104]	; 0x68
10008718:	68db      	ldr	r3, [r3, #12]
1000871a:	69d8      	ldr	r0, [r3, #28]
1000871c:	6a19      	ldr	r1, [r3, #32]
1000871e:	6a9a      	ldr	r2, [r3, #40]	; 0x28
10008720:	6081      	str	r1, [r0, #8]
10008722:	6048      	str	r0, [r1, #4]
10008724:	0018      	movs	r0, r3
10008726:	6856      	ldr	r6, [r2, #4]
10008728:	3018      	adds	r0, #24
1000872a:	4286      	cmp	r6, r0
1000872c:	d05f      	beq.n	100087ee <xTaskResumeAll+0x112>
1000872e:	4649      	mov	r1, r9
10008730:	6299      	str	r1, [r3, #40]	; 0x28
10008732:	6811      	ldr	r1, [r2, #0]
10008734:	3901      	subs	r1, #1
10008736:	6011      	str	r1, [r2, #0]
10008738:	695a      	ldr	r2, [r3, #20]
1000873a:	6898      	ldr	r0, [r3, #8]
1000873c:	68d9      	ldr	r1, [r3, #12]
1000873e:	1d1f      	adds	r7, r3, #4
10008740:	6081      	str	r1, [r0, #8]
10008742:	6048      	str	r0, [r1, #4]
10008744:	6850      	ldr	r0, [r2, #4]
10008746:	42b8      	cmp	r0, r7
10008748:	d04f      	beq.n	100087ea <xTaskResumeAll+0x10e>
1000874a:	6811      	ldr	r1, [r2, #0]
1000874c:	3901      	subs	r1, #1
1000874e:	6011      	str	r1, [r2, #0]
10008750:	6ae2      	ldr	r2, [r4, #44]	; 0x2c
10008752:	6ad9      	ldr	r1, [r3, #44]	; 0x2c
10008754:	4291      	cmp	r1, r2
10008756:	d900      	bls.n	1000875a <xTaskResumeAll+0x7e>
10008758:	62e1      	str	r1, [r4, #44]	; 0x2c
1000875a:	4650      	mov	r0, sl
1000875c:	008a      	lsls	r2, r1, #2
1000875e:	1852      	adds	r2, r2, r1
10008760:	0092      	lsls	r2, r2, #2
10008762:	1886      	adds	r6, r0, r2
10008764:	6a30      	ldr	r0, [r6, #32]
10008766:	4442      	add	r2, r8
10008768:	6885      	ldr	r5, [r0, #8]
1000876a:	6098      	str	r0, [r3, #8]
1000876c:	60dd      	str	r5, [r3, #12]
1000876e:	6885      	ldr	r5, [r0, #8]
10008770:	606f      	str	r7, [r5, #4]
10008772:	6087      	str	r7, [r0, #8]
10008774:	615a      	str	r2, [r3, #20]
10008776:	69f3      	ldr	r3, [r6, #28]
10008778:	3301      	adds	r3, #1
1000877a:	61f3      	str	r3, [r6, #28]
1000877c:	6863      	ldr	r3, [r4, #4]
1000877e:	6adb      	ldr	r3, [r3, #44]	; 0x2c
10008780:	4299      	cmp	r1, r3
10008782:	d32e      	bcc.n	100087e2 <xTaskResumeAll+0x106>
10008784:	4663      	mov	r3, ip
10008786:	6323      	str	r3, [r4, #48]	; 0x30
10008788:	6de3      	ldr	r3, [r4, #92]	; 0x5c
1000878a:	2b00      	cmp	r3, #0
1000878c:	d1c3      	bne.n	10008716 <xTaskResumeAll+0x3a>
1000878e:	6a23      	ldr	r3, [r4, #32]
10008790:	681b      	ldr	r3, [r3, #0]
10008792:	2b00      	cmp	r3, #0
10008794:	d12d      	bne.n	100087f2 <xTaskResumeAll+0x116>
10008796:	3b01      	subs	r3, #1
10008798:	6263      	str	r3, [r4, #36]	; 0x24
1000879a:	4e1c      	ldr	r6, [pc, #112]	; (1000880c <xTaskResumeAll+0x130>)
1000879c:	6835      	ldr	r5, [r6, #0]
1000879e:	2d00      	cmp	r5, #0
100087a0:	d013      	beq.n	100087ca <xTaskResumeAll+0xee>
100087a2:	2701      	movs	r7, #1
100087a4:	e007      	b.n	100087b6 <xTaskResumeAll+0xda>
100087a6:	f7ff fb2f 	bl	10007e08 <xTaskIncrementTick.part.0>
100087aa:	2800      	cmp	r0, #0
100087ac:	d000      	beq.n	100087b0 <xTaskResumeAll+0xd4>
100087ae:	6327      	str	r7, [r4, #48]	; 0x30
100087b0:	3d01      	subs	r5, #1
100087b2:	2d00      	cmp	r5, #0
100087b4:	d008      	beq.n	100087c8 <xTaskResumeAll+0xec>
100087b6:	6fa3      	ldr	r3, [r4, #120]	; 0x78
100087b8:	2b00      	cmp	r3, #0
100087ba:	d0f4      	beq.n	100087a6 <xTaskResumeAll+0xca>
100087bc:	6833      	ldr	r3, [r6, #0]
100087be:	3d01      	subs	r5, #1
100087c0:	3301      	adds	r3, #1
100087c2:	6033      	str	r3, [r6, #0]
100087c4:	2d00      	cmp	r5, #0
100087c6:	d1f6      	bne.n	100087b6 <xTaskResumeAll+0xda>
100087c8:	6035      	str	r5, [r6, #0]
100087ca:	6b23      	ldr	r3, [r4, #48]	; 0x30
100087cc:	2b00      	cmp	r3, #0
100087ce:	d115      	bne.n	100087fc <xTaskResumeAll+0x120>
100087d0:	2400      	movs	r4, #0
100087d2:	f001 f853 	bl	1000987c <vPortExitCritical>
100087d6:	0020      	movs	r0, r4
100087d8:	bce0      	pop	{r5, r6, r7}
100087da:	46ba      	mov	sl, r7
100087dc:	46b1      	mov	r9, r6
100087de:	46a8      	mov	r8, r5
100087e0:	bdf0      	pop	{r4, r5, r6, r7, pc}
100087e2:	6de3      	ldr	r3, [r4, #92]	; 0x5c
100087e4:	2b00      	cmp	r3, #0
100087e6:	d196      	bne.n	10008716 <xTaskResumeAll+0x3a>
100087e8:	e7d1      	b.n	1000878e <xTaskResumeAll+0xb2>
100087ea:	6051      	str	r1, [r2, #4]
100087ec:	e7ad      	b.n	1000874a <xTaskResumeAll+0x6e>
100087ee:	6051      	str	r1, [r2, #4]
100087f0:	e79d      	b.n	1000872e <xTaskResumeAll+0x52>
100087f2:	6a23      	ldr	r3, [r4, #32]
100087f4:	68db      	ldr	r3, [r3, #12]
100087f6:	681b      	ldr	r3, [r3, #0]
100087f8:	6263      	str	r3, [r4, #36]	; 0x24
100087fa:	e7ce      	b.n	1000879a <xTaskResumeAll+0xbe>
100087fc:	f001 f826 	bl	1000984c <vPortYield>
10008800:	2401      	movs	r4, #1
10008802:	e7e6      	b.n	100087d2 <xTaskResumeAll+0xf6>
10008804:	200010d4 	.word	0x200010d4
10008808:	20001054 	.word	0x20001054
1000880c:	20001154 	.word	0x20001154

10008810 <xTaskDelayUntil>:
10008810:	b5f8      	push	{r3, r4, r5, r6, r7, lr}
10008812:	4e1d      	ldr	r6, [pc, #116]	; (10008888 <xTaskDelayUntil+0x78>)
10008814:	6fb3      	ldr	r3, [r6, #120]	; 0x78
10008816:	3301      	adds	r3, #1
10008818:	67b3      	str	r3, [r6, #120]	; 0x78
1000881a:	6802      	ldr	r2, [r0, #0]
1000881c:	6835      	ldr	r5, [r6, #0]
1000881e:	1854      	adds	r4, r2, r1
10008820:	6004      	str	r4, [r0, #0]
10008822:	42aa      	cmp	r2, r5
10008824:	d908      	bls.n	10008838 <xTaskDelayUntil+0x28>
10008826:	42a2      	cmp	r2, r4
10008828:	d808      	bhi.n	1000883c <xTaskDelayUntil+0x2c>
1000882a:	2500      	movs	r5, #0
1000882c:	f7ff ff56 	bl	100086dc <xTaskResumeAll>
10008830:	2800      	cmp	r0, #0
10008832:	d01a      	beq.n	1000886a <xTaskDelayUntil+0x5a>
10008834:	0028      	movs	r0, r5
10008836:	bdf8      	pop	{r3, r4, r5, r6, r7, pc}
10008838:	42a2      	cmp	r2, r4
1000883a:	d801      	bhi.n	10008840 <xTaskDelayUntil+0x30>
1000883c:	42a5      	cmp	r5, r4
1000883e:	d2f4      	bcs.n	1000882a <xTaskDelayUntil+0x1a>
10008840:	6837      	ldr	r7, [r6, #0]
10008842:	6870      	ldr	r0, [r6, #4]
10008844:	1b7d      	subs	r5, r7, r5
10008846:	3004      	adds	r0, #4
10008848:	f001 f8c8 	bl	100099dc <uxListRemove>
1000884c:	6873      	ldr	r3, [r6, #4]
1000884e:	1964      	adds	r4, r4, r5
10008850:	605c      	str	r4, [r3, #4]
10008852:	42a7      	cmp	r7, r4
10008854:	d90c      	bls.n	10008870 <xTaskDelayUntil+0x60>
10008856:	69f0      	ldr	r0, [r6, #28]
10008858:	6871      	ldr	r1, [r6, #4]
1000885a:	2501      	movs	r5, #1
1000885c:	3104      	adds	r1, #4
1000885e:	f001 f8a5 	bl	100099ac <vListInsert>
10008862:	f7ff ff3b 	bl	100086dc <xTaskResumeAll>
10008866:	2800      	cmp	r0, #0
10008868:	d1e4      	bne.n	10008834 <xTaskDelayUntil+0x24>
1000886a:	f000 ffef 	bl	1000984c <vPortYield>
1000886e:	e7e1      	b.n	10008834 <xTaskDelayUntil+0x24>
10008870:	6a30      	ldr	r0, [r6, #32]
10008872:	6871      	ldr	r1, [r6, #4]
10008874:	2501      	movs	r5, #1
10008876:	3104      	adds	r1, #4
10008878:	f001 f898 	bl	100099ac <vListInsert>
1000887c:	6a73      	ldr	r3, [r6, #36]	; 0x24
1000887e:	429c      	cmp	r4, r3
10008880:	d2d4      	bcs.n	1000882c <xTaskDelayUntil+0x1c>
10008882:	6274      	str	r4, [r6, #36]	; 0x24
10008884:	e7d2      	b.n	1000882c <xTaskDelayUntil+0x1c>
10008886:	46c0      	nop			; (mov r8, r8)
10008888:	200010d4 	.word	0x200010d4

1000888c <vTaskDelay>:
1000888c:	b570      	push	{r4, r5, r6, lr}
1000888e:	1e04      	subs	r4, r0, #0
10008890:	d016      	beq.n	100088c0 <vTaskDelay+0x34>
10008892:	4d12      	ldr	r5, [pc, #72]	; (100088dc <vTaskDelay+0x50>)
10008894:	6fab      	ldr	r3, [r5, #120]	; 0x78
10008896:	3301      	adds	r3, #1
10008898:	67ab      	str	r3, [r5, #120]	; 0x78
1000889a:	682e      	ldr	r6, [r5, #0]
1000889c:	6868      	ldr	r0, [r5, #4]
1000889e:	19a4      	adds	r4, r4, r6
100088a0:	3004      	adds	r0, #4
100088a2:	f001 f89b 	bl	100099dc <uxListRemove>
100088a6:	686b      	ldr	r3, [r5, #4]
100088a8:	605c      	str	r4, [r3, #4]
100088aa:	42a6      	cmp	r6, r4
100088ac:	d90b      	bls.n	100088c6 <vTaskDelay+0x3a>
100088ae:	69e8      	ldr	r0, [r5, #28]
100088b0:	6869      	ldr	r1, [r5, #4]
100088b2:	3104      	adds	r1, #4
100088b4:	f001 f87a 	bl	100099ac <vListInsert>
100088b8:	f7ff ff10 	bl	100086dc <xTaskResumeAll>
100088bc:	2800      	cmp	r0, #0
100088be:	d101      	bne.n	100088c4 <vTaskDelay+0x38>
100088c0:	f000 ffc4 	bl	1000984c <vPortYield>
100088c4:	bd70      	pop	{r4, r5, r6, pc}
100088c6:	6a28      	ldr	r0, [r5, #32]
100088c8:	6869      	ldr	r1, [r5, #4]
100088ca:	3104      	adds	r1, #4
100088cc:	f001 f86e 	bl	100099ac <vListInsert>
100088d0:	6a6b      	ldr	r3, [r5, #36]	; 0x24
100088d2:	429c      	cmp	r4, r3
100088d4:	d2f0      	bcs.n	100088b8 <vTaskDelay+0x2c>
100088d6:	626c      	str	r4, [r5, #36]	; 0x24
100088d8:	e7ee      	b.n	100088b8 <vTaskDelay+0x2c>
100088da:	46c0      	nop			; (mov r8, r8)
100088dc:	200010d4 	.word	0x200010d4

100088e0 <xTaskGetTickCount>:
100088e0:	4b01      	ldr	r3, [pc, #4]	; (100088e8 <xTaskGetTickCount+0x8>)
100088e2:	6818      	ldr	r0, [r3, #0]
100088e4:	4770      	bx	lr
100088e6:	46c0      	nop			; (mov r8, r8)
100088e8:	200010d4 	.word	0x200010d4

100088ec <xTaskGetTickCountFromISR>:
100088ec:	4b01      	ldr	r3, [pc, #4]	; (100088f4 <xTaskGetTickCountFromISR+0x8>)
100088ee:	6818      	ldr	r0, [r3, #0]
100088f0:	4770      	bx	lr
100088f2:	46c0      	nop			; (mov r8, r8)
100088f4:	200010d4 	.word	0x200010d4

100088f8 <uxTaskGetNumberOfTasks>:
100088f8:	4b01      	ldr	r3, [pc, #4]	; (10008900 <uxTaskGetNumberOfTasks+0x8>)
100088fa:	6998      	ldr	r0, [r3, #24]
100088fc:	4770      	bx	lr
100088fe:	46c0      	nop			; (mov r8, r8)
10008900:	20001054 	.word	0x20001054

10008904 <pcTaskGetName>:
10008904:	2800      	cmp	r0, #0
10008906:	d001      	beq.n	1000890c <pcTaskGetName+0x8>
10008908:	3034      	adds	r0, #52	; 0x34
1000890a:	4770      	bx	lr
1000890c:	4b01      	ldr	r3, [pc, #4]	; (10008914 <pcTaskGetName+0x10>)
1000890e:	6858      	ldr	r0, [r3, #4]
10008910:	e7fa      	b.n	10008908 <pcTaskGetName+0x4>
10008912:	46c0      	nop			; (mov r8, r8)
10008914:	200010d4 	.word	0x200010d4

10008918 <xTaskCatchUpTicks>:
10008918:	4a08      	ldr	r2, [pc, #32]	; (1000893c <xTaskCatchUpTicks+0x24>)
1000891a:	b510      	push	{r4, lr}
1000891c:	6f93      	ldr	r3, [r2, #120]	; 0x78
1000891e:	0004      	movs	r4, r0
10008920:	3301      	adds	r3, #1
10008922:	6793      	str	r3, [r2, #120]	; 0x78
10008924:	f000 ff9e 	bl	10009864 <vPortEnterCritical>
10008928:	4b05      	ldr	r3, [pc, #20]	; (10008940 <xTaskCatchUpTicks+0x28>)
1000892a:	6818      	ldr	r0, [r3, #0]
1000892c:	1900      	adds	r0, r0, r4
1000892e:	6018      	str	r0, [r3, #0]
10008930:	f000 ffa4 	bl	1000987c <vPortExitCritical>
10008934:	f7ff fed2 	bl	100086dc <xTaskResumeAll>
10008938:	bd10      	pop	{r4, pc}
1000893a:	46c0      	nop			; (mov r8, r8)
1000893c:	200010d4 	.word	0x200010d4
10008940:	20001154 	.word	0x20001154

10008944 <xTaskIncrementTick>:
10008944:	4b06      	ldr	r3, [pc, #24]	; (10008960 <xTaskIncrementTick+0x1c>)
10008946:	b510      	push	{r4, lr}
10008948:	6f9b      	ldr	r3, [r3, #120]	; 0x78
1000894a:	2b00      	cmp	r3, #0
1000894c:	d102      	bne.n	10008954 <xTaskIncrementTick+0x10>
1000894e:	f7ff fa5b 	bl	10007e08 <xTaskIncrementTick.part.0>
10008952:	bd10      	pop	{r4, pc}
10008954:	4a03      	ldr	r2, [pc, #12]	; (10008964 <xTaskIncrementTick+0x20>)
10008956:	2000      	movs	r0, #0
10008958:	6813      	ldr	r3, [r2, #0]
1000895a:	3301      	adds	r3, #1
1000895c:	6013      	str	r3, [r2, #0]
1000895e:	e7f8      	b.n	10008952 <xTaskIncrementTick+0xe>
10008960:	200010d4 	.word	0x200010d4
10008964:	20001154 	.word	0x20001154

10008968 <vTaskSwitchContext>:
10008968:	4826      	ldr	r0, [pc, #152]	; (10008a04 <vTaskSwitchContext+0x9c>)
1000896a:	b530      	push	{r4, r5, lr}
1000896c:	6f83      	ldr	r3, [r0, #120]	; 0x78
1000896e:	2b00      	cmp	r3, #0
10008970:	d002      	beq.n	10008978 <vTaskSwitchContext+0x10>
10008972:	2301      	movs	r3, #1
10008974:	6303      	str	r3, [r0, #48]	; 0x30
10008976:	bd30      	pop	{r4, r5, pc}
10008978:	6303      	str	r3, [r0, #48]	; 0x30
1000897a:	6ac1      	ldr	r1, [r0, #44]	; 0x2c
1000897c:	4a22      	ldr	r2, [pc, #136]	; (10008a08 <vTaskSwitchContext+0xa0>)
1000897e:	008b      	lsls	r3, r1, #2
10008980:	185c      	adds	r4, r3, r1
10008982:	00a4      	lsls	r4, r4, #2
10008984:	1914      	adds	r4, r2, r4
10008986:	69e4      	ldr	r4, [r4, #28]
10008988:	2c00      	cmp	r4, #0
1000898a:	d125      	bne.n	100089d8 <vTaskSwitchContext+0x70>
1000898c:	1e4d      	subs	r5, r1, #1
1000898e:	00ab      	lsls	r3, r5, #2
10008990:	195c      	adds	r4, r3, r5
10008992:	00a4      	lsls	r4, r4, #2
10008994:	1914      	adds	r4, r2, r4
10008996:	69e4      	ldr	r4, [r4, #28]
10008998:	2c00      	cmp	r4, #0
1000899a:	d12b      	bne.n	100089f4 <vTaskSwitchContext+0x8c>
1000899c:	1e8d      	subs	r5, r1, #2
1000899e:	00ab      	lsls	r3, r5, #2
100089a0:	195c      	adds	r4, r3, r5
100089a2:	00a4      	lsls	r4, r4, #2
100089a4:	1914      	adds	r4, r2, r4
100089a6:	69e4      	ldr	r4, [r4, #28]
100089a8:	2c00      	cmp	r4, #0
100089aa:	d123      	bne.n	100089f4 <vTaskSwitchContext+0x8c>
100089ac:	1ecd      	subs	r5, r1, #3
100089ae:	00ab      	lsls	r3, r5, #2
100089b0:	195c      	adds	r4, r3, r5
100089b2:	00a4      	lsls	r4, r4, #2
100089b4:	1914      	adds	r4, r2, r4
100089b6:	69e4      	ldr	r4, [r4, #28]
100089b8:	2c00      	cmp	r4, #0
100089ba:	d11b      	bne.n	100089f4 <vTaskSwitchContext+0x8c>
100089bc:	1f0d      	subs	r5, r1, #4
100089be:	00ab      	lsls	r3, r5, #2
100089c0:	195c      	adds	r4, r3, r5
100089c2:	00a4      	lsls	r4, r4, #2
100089c4:	1914      	adds	r4, r2, r4
100089c6:	69e4      	ldr	r4, [r4, #28]
100089c8:	2c00      	cmp	r4, #0
100089ca:	d113      	bne.n	100089f4 <vTaskSwitchContext+0x8c>
100089cc:	3905      	subs	r1, #5
100089ce:	008b      	lsls	r3, r1, #2
100089d0:	185c      	adds	r4, r3, r1
100089d2:	00a4      	lsls	r4, r4, #2
100089d4:	1914      	adds	r4, r2, r4
100089d6:	69e4      	ldr	r4, [r4, #28]
100089d8:	185b      	adds	r3, r3, r1
100089da:	009b      	lsls	r3, r3, #2
100089dc:	18d5      	adds	r5, r2, r3
100089de:	002b      	movs	r3, r5
100089e0:	6a2c      	ldr	r4, [r5, #32]
100089e2:	3324      	adds	r3, #36	; 0x24
100089e4:	6864      	ldr	r4, [r4, #4]
100089e6:	622c      	str	r4, [r5, #32]
100089e8:	429c      	cmp	r4, r3
100089ea:	d005      	beq.n	100089f8 <vTaskSwitchContext+0x90>
100089ec:	68e3      	ldr	r3, [r4, #12]
100089ee:	6043      	str	r3, [r0, #4]
100089f0:	62c1      	str	r1, [r0, #44]	; 0x2c
100089f2:	e7c0      	b.n	10008976 <vTaskSwitchContext+0xe>
100089f4:	0029      	movs	r1, r5
100089f6:	e7ef      	b.n	100089d8 <vTaskSwitchContext+0x70>
100089f8:	6864      	ldr	r4, [r4, #4]
100089fa:	68e3      	ldr	r3, [r4, #12]
100089fc:	622c      	str	r4, [r5, #32]
100089fe:	6043      	str	r3, [r0, #4]
10008a00:	62c1      	str	r1, [r0, #44]	; 0x2c
10008a02:	e7b8      	b.n	10008976 <vTaskSwitchContext+0xe>
10008a04:	200010d4 	.word	0x200010d4
10008a08:	20001054 	.word	0x20001054

10008a0c <vTaskPlaceOnEventList>:
10008a0c:	b570      	push	{r4, r5, r6, lr}
10008a0e:	000d      	movs	r5, r1
10008a10:	4c1a      	ldr	r4, [pc, #104]	; (10008a7c <vTaskPlaceOnEventList+0x70>)
10008a12:	6861      	ldr	r1, [r4, #4]
10008a14:	3118      	adds	r1, #24
10008a16:	f000 ffc9 	bl	100099ac <vListInsert>
10008a1a:	6826      	ldr	r6, [r4, #0]
10008a1c:	6860      	ldr	r0, [r4, #4]
10008a1e:	3004      	adds	r0, #4
10008a20:	f000 ffdc 	bl	100099dc <uxListRemove>
10008a24:	1c6b      	adds	r3, r5, #1
10008a26:	d014      	beq.n	10008a52 <vTaskPlaceOnEventList+0x46>
10008a28:	6863      	ldr	r3, [r4, #4]
10008a2a:	19ad      	adds	r5, r5, r6
10008a2c:	605d      	str	r5, [r3, #4]
10008a2e:	42ae      	cmp	r6, r5
10008a30:	d905      	bls.n	10008a3e <vTaskPlaceOnEventList+0x32>
10008a32:	69e0      	ldr	r0, [r4, #28]
10008a34:	6861      	ldr	r1, [r4, #4]
10008a36:	3104      	adds	r1, #4
10008a38:	f000 ffb8 	bl	100099ac <vListInsert>
10008a3c:	bd70      	pop	{r4, r5, r6, pc}
10008a3e:	6a20      	ldr	r0, [r4, #32]
10008a40:	6861      	ldr	r1, [r4, #4]
10008a42:	3104      	adds	r1, #4
10008a44:	f000 ffb2 	bl	100099ac <vListInsert>
10008a48:	6a63      	ldr	r3, [r4, #36]	; 0x24
10008a4a:	429d      	cmp	r5, r3
10008a4c:	d2f6      	bcs.n	10008a3c <vTaskPlaceOnEventList+0x30>
10008a4e:	6265      	str	r5, [r4, #36]	; 0x24
10008a50:	e7f4      	b.n	10008a3c <vTaskPlaceOnEventList+0x30>
10008a52:	6862      	ldr	r2, [r4, #4]
10008a54:	68e3      	ldr	r3, [r4, #12]
10008a56:	6899      	ldr	r1, [r3, #8]
10008a58:	6093      	str	r3, [r2, #8]
10008a5a:	6862      	ldr	r2, [r4, #4]
10008a5c:	60d1      	str	r1, [r2, #12]
10008a5e:	6862      	ldr	r2, [r4, #4]
10008a60:	6899      	ldr	r1, [r3, #8]
10008a62:	3204      	adds	r2, #4
10008a64:	604a      	str	r2, [r1, #4]
10008a66:	6862      	ldr	r2, [r4, #4]
10008a68:	3204      	adds	r2, #4
10008a6a:	609a      	str	r2, [r3, #8]
10008a6c:	0022      	movs	r2, r4
10008a6e:	6863      	ldr	r3, [r4, #4]
10008a70:	3208      	adds	r2, #8
10008a72:	615a      	str	r2, [r3, #20]
10008a74:	68a3      	ldr	r3, [r4, #8]
10008a76:	3301      	adds	r3, #1
10008a78:	60a3      	str	r3, [r4, #8]
10008a7a:	e7df      	b.n	10008a3c <vTaskPlaceOnEventList+0x30>
10008a7c:	200010d4 	.word	0x200010d4

10008a80 <vTaskPlaceOnUnorderedEventList>:
10008a80:	2380      	movs	r3, #128	; 0x80
10008a82:	b570      	push	{r4, r5, r6, lr}
10008a84:	0015      	movs	r5, r2
10008a86:	4c24      	ldr	r4, [pc, #144]	; (10008b18 <vTaskPlaceOnUnorderedEventList+0x98>)
10008a88:	061b      	lsls	r3, r3, #24
10008a8a:	6862      	ldr	r2, [r4, #4]
10008a8c:	430b      	orrs	r3, r1
10008a8e:	6193      	str	r3, [r2, #24]
10008a90:	6843      	ldr	r3, [r0, #4]
10008a92:	6862      	ldr	r2, [r4, #4]
10008a94:	6899      	ldr	r1, [r3, #8]
10008a96:	61d3      	str	r3, [r2, #28]
10008a98:	6862      	ldr	r2, [r4, #4]
10008a9a:	6211      	str	r1, [r2, #32]
10008a9c:	6862      	ldr	r2, [r4, #4]
10008a9e:	6899      	ldr	r1, [r3, #8]
10008aa0:	3218      	adds	r2, #24
10008aa2:	604a      	str	r2, [r1, #4]
10008aa4:	6862      	ldr	r2, [r4, #4]
10008aa6:	3218      	adds	r2, #24
10008aa8:	609a      	str	r2, [r3, #8]
10008aaa:	6863      	ldr	r3, [r4, #4]
10008aac:	6298      	str	r0, [r3, #40]	; 0x28
10008aae:	6803      	ldr	r3, [r0, #0]
10008ab0:	3301      	adds	r3, #1
10008ab2:	6003      	str	r3, [r0, #0]
10008ab4:	6826      	ldr	r6, [r4, #0]
10008ab6:	6860      	ldr	r0, [r4, #4]
10008ab8:	3004      	adds	r0, #4
10008aba:	f000 ff8f 	bl	100099dc <uxListRemove>
10008abe:	1c6b      	adds	r3, r5, #1
10008ac0:	d014      	beq.n	10008aec <vTaskPlaceOnUnorderedEventList+0x6c>
10008ac2:	6863      	ldr	r3, [r4, #4]
10008ac4:	19ad      	adds	r5, r5, r6
10008ac6:	605d      	str	r5, [r3, #4]
10008ac8:	42ae      	cmp	r6, r5
10008aca:	d905      	bls.n	10008ad8 <vTaskPlaceOnUnorderedEventList+0x58>
10008acc:	69e0      	ldr	r0, [r4, #28]
10008ace:	6861      	ldr	r1, [r4, #4]
10008ad0:	3104      	adds	r1, #4
10008ad2:	f000 ff6b 	bl	100099ac <vListInsert>
10008ad6:	bd70      	pop	{r4, r5, r6, pc}
10008ad8:	6a20      	ldr	r0, [r4, #32]
10008ada:	6861      	ldr	r1, [r4, #4]
10008adc:	3104      	adds	r1, #4
10008ade:	f000 ff65 	bl	100099ac <vListInsert>
10008ae2:	6a63      	ldr	r3, [r4, #36]	; 0x24
10008ae4:	429d      	cmp	r5, r3
10008ae6:	d2f6      	bcs.n	10008ad6 <vTaskPlaceOnUnorderedEventList+0x56>
10008ae8:	6265      	str	r5, [r4, #36]	; 0x24
10008aea:	e7f4      	b.n	10008ad6 <vTaskPlaceOnUnorderedEventList+0x56>
10008aec:	6862      	ldr	r2, [r4, #4]
10008aee:	68e3      	ldr	r3, [r4, #12]
10008af0:	6899      	ldr	r1, [r3, #8]
10008af2:	6093      	str	r3, [r2, #8]
10008af4:	6862      	ldr	r2, [r4, #4]
10008af6:	60d1      	str	r1, [r2, #12]
10008af8:	6862      	ldr	r2, [r4, #4]
10008afa:	6899      	ldr	r1, [r3, #8]
10008afc:	3204      	adds	r2, #4
10008afe:	604a      	str	r2, [r1, #4]
10008b00:	6862      	ldr	r2, [r4, #4]
10008b02:	3204      	adds	r2, #4
10008b04:	609a      	str	r2, [r3, #8]
10008b06:	0022      	movs	r2, r4
10008b08:	6863      	ldr	r3, [r4, #4]
10008b0a:	3208      	adds	r2, #8
10008b0c:	615a      	str	r2, [r3, #20]
10008b0e:	68a3      	ldr	r3, [r4, #8]
10008b10:	3301      	adds	r3, #1
10008b12:	60a3      	str	r3, [r4, #8]
10008b14:	e7df      	b.n	10008ad6 <vTaskPlaceOnUnorderedEventList+0x56>
10008b16:	46c0      	nop			; (mov r8, r8)
10008b18:	200010d4 	.word	0x200010d4

10008b1c <vTaskPlaceOnEventListRestricted>:
10008b1c:	b570      	push	{r4, r5, r6, lr}
10008b1e:	4c25      	ldr	r4, [pc, #148]	; (10008bb4 <vTaskPlaceOnEventListRestricted+0x98>)
10008b20:	6843      	ldr	r3, [r0, #4]
10008b22:	000d      	movs	r5, r1
10008b24:	6861      	ldr	r1, [r4, #4]
10008b26:	689e      	ldr	r6, [r3, #8]
10008b28:	61cb      	str	r3, [r1, #28]
10008b2a:	6861      	ldr	r1, [r4, #4]
10008b2c:	620e      	str	r6, [r1, #32]
10008b2e:	6861      	ldr	r1, [r4, #4]
10008b30:	689e      	ldr	r6, [r3, #8]
10008b32:	3118      	adds	r1, #24
10008b34:	6071      	str	r1, [r6, #4]
10008b36:	6861      	ldr	r1, [r4, #4]
10008b38:	3118      	adds	r1, #24
10008b3a:	6099      	str	r1, [r3, #8]
10008b3c:	6863      	ldr	r3, [r4, #4]
10008b3e:	6298      	str	r0, [r3, #40]	; 0x28
10008b40:	6803      	ldr	r3, [r0, #0]
10008b42:	3301      	adds	r3, #1
10008b44:	6003      	str	r3, [r0, #0]
10008b46:	2a00      	cmp	r2, #0
10008b48:	d019      	beq.n	10008b7e <vTaskPlaceOnEventListRestricted+0x62>
10008b4a:	6823      	ldr	r3, [r4, #0]
10008b4c:	6860      	ldr	r0, [r4, #4]
10008b4e:	3004      	adds	r0, #4
10008b50:	f000 ff44 	bl	100099dc <uxListRemove>
10008b54:	6862      	ldr	r2, [r4, #4]
10008b56:	68e3      	ldr	r3, [r4, #12]
10008b58:	6899      	ldr	r1, [r3, #8]
10008b5a:	6093      	str	r3, [r2, #8]
10008b5c:	6862      	ldr	r2, [r4, #4]
10008b5e:	60d1      	str	r1, [r2, #12]
10008b60:	6862      	ldr	r2, [r4, #4]
10008b62:	6899      	ldr	r1, [r3, #8]
10008b64:	3204      	adds	r2, #4
10008b66:	604a      	str	r2, [r1, #4]
10008b68:	6862      	ldr	r2, [r4, #4]
10008b6a:	3204      	adds	r2, #4
10008b6c:	609a      	str	r2, [r3, #8]
10008b6e:	0022      	movs	r2, r4
10008b70:	6863      	ldr	r3, [r4, #4]
10008b72:	3208      	adds	r2, #8
10008b74:	615a      	str	r2, [r3, #20]
10008b76:	68a3      	ldr	r3, [r4, #8]
10008b78:	3301      	adds	r3, #1
10008b7a:	60a3      	str	r3, [r4, #8]
10008b7c:	bd70      	pop	{r4, r5, r6, pc}
10008b7e:	6826      	ldr	r6, [r4, #0]
10008b80:	6860      	ldr	r0, [r4, #4]
10008b82:	19ad      	adds	r5, r5, r6
10008b84:	3004      	adds	r0, #4
10008b86:	f000 ff29 	bl	100099dc <uxListRemove>
10008b8a:	6863      	ldr	r3, [r4, #4]
10008b8c:	605d      	str	r5, [r3, #4]
10008b8e:	42ae      	cmp	r6, r5
10008b90:	d809      	bhi.n	10008ba6 <vTaskPlaceOnEventListRestricted+0x8a>
10008b92:	6a20      	ldr	r0, [r4, #32]
10008b94:	6861      	ldr	r1, [r4, #4]
10008b96:	3104      	adds	r1, #4
10008b98:	f000 ff08 	bl	100099ac <vListInsert>
10008b9c:	6a63      	ldr	r3, [r4, #36]	; 0x24
10008b9e:	429d      	cmp	r5, r3
10008ba0:	d2ec      	bcs.n	10008b7c <vTaskPlaceOnEventListRestricted+0x60>
10008ba2:	6265      	str	r5, [r4, #36]	; 0x24
10008ba4:	e7ea      	b.n	10008b7c <vTaskPlaceOnEventListRestricted+0x60>
10008ba6:	69e0      	ldr	r0, [r4, #28]
10008ba8:	6861      	ldr	r1, [r4, #4]
10008baa:	3104      	adds	r1, #4
10008bac:	f000 fefe 	bl	100099ac <vListInsert>
10008bb0:	e7e4      	b.n	10008b7c <vTaskPlaceOnEventListRestricted+0x60>
10008bb2:	46c0      	nop			; (mov r8, r8)
10008bb4:	200010d4 	.word	0x200010d4

10008bb8 <xTaskRemoveFromEventList>:
10008bb8:	68c3      	ldr	r3, [r0, #12]
10008bba:	b5f0      	push	{r4, r5, r6, r7, lr}
10008bbc:	68db      	ldr	r3, [r3, #12]
10008bbe:	69d8      	ldr	r0, [r3, #28]
10008bc0:	6a19      	ldr	r1, [r3, #32]
10008bc2:	6a9a      	ldr	r2, [r3, #40]	; 0x28
10008bc4:	6081      	str	r1, [r0, #8]
10008bc6:	6048      	str	r0, [r1, #4]
10008bc8:	0018      	movs	r0, r3
10008bca:	6854      	ldr	r4, [r2, #4]
10008bcc:	3018      	adds	r0, #24
10008bce:	4284      	cmp	r4, r0
10008bd0:	d047      	beq.n	10008c62 <xTaskRemoveFromEventList+0xaa>
10008bd2:	2100      	movs	r1, #0
10008bd4:	6299      	str	r1, [r3, #40]	; 0x28
10008bd6:	6811      	ldr	r1, [r2, #0]
10008bd8:	3901      	subs	r1, #1
10008bda:	6011      	str	r1, [r2, #0]
10008bdc:	4a26      	ldr	r2, [pc, #152]	; (10008c78 <xTaskRemoveFromEventList+0xc0>)
10008bde:	6f91      	ldr	r1, [r2, #120]	; 0x78
10008be0:	2900      	cmp	r1, #0
10008be2:	d12d      	bne.n	10008c40 <xTaskRemoveFromEventList+0x88>
10008be4:	6898      	ldr	r0, [r3, #8]
10008be6:	68dc      	ldr	r4, [r3, #12]
10008be8:	6959      	ldr	r1, [r3, #20]
10008bea:	6084      	str	r4, [r0, #8]
10008bec:	68dc      	ldr	r4, [r3, #12]
10008bee:	1d1f      	adds	r7, r3, #4
10008bf0:	6060      	str	r0, [r4, #4]
10008bf2:	6848      	ldr	r0, [r1, #4]
10008bf4:	42b8      	cmp	r0, r7
10008bf6:	d036      	beq.n	10008c66 <xTaskRemoveFromEventList+0xae>
10008bf8:	6808      	ldr	r0, [r1, #0]
10008bfa:	3801      	subs	r0, #1
10008bfc:	6008      	str	r0, [r1, #0]
10008bfe:	6ad0      	ldr	r0, [r2, #44]	; 0x2c
10008c00:	6ad9      	ldr	r1, [r3, #44]	; 0x2c
10008c02:	4281      	cmp	r1, r0
10008c04:	d82b      	bhi.n	10008c5e <xTaskRemoveFromEventList+0xa6>
10008c06:	481d      	ldr	r0, [pc, #116]	; (10008c7c <xTaskRemoveFromEventList+0xc4>)
10008c08:	008c      	lsls	r4, r1, #2
10008c0a:	4684      	mov	ip, r0
10008c0c:	1864      	adds	r4, r4, r1
10008c0e:	00a4      	lsls	r4, r4, #2
10008c10:	1906      	adds	r6, r0, r4
10008c12:	6a35      	ldr	r5, [r6, #32]
10008c14:	68a8      	ldr	r0, [r5, #8]
10008c16:	609d      	str	r5, [r3, #8]
10008c18:	60d8      	str	r0, [r3, #12]
10008c1a:	68a8      	ldr	r0, [r5, #8]
10008c1c:	6047      	str	r7, [r0, #4]
10008c1e:	4660      	mov	r0, ip
10008c20:	301c      	adds	r0, #28
10008c22:	1900      	adds	r0, r0, r4
10008c24:	60af      	str	r7, [r5, #8]
10008c26:	6158      	str	r0, [r3, #20]
10008c28:	69f3      	ldr	r3, [r6, #28]
10008c2a:	3301      	adds	r3, #1
10008c2c:	61f3      	str	r3, [r6, #28]
10008c2e:	6853      	ldr	r3, [r2, #4]
10008c30:	2000      	movs	r0, #0
10008c32:	6adb      	ldr	r3, [r3, #44]	; 0x2c
10008c34:	428b      	cmp	r3, r1
10008c36:	d202      	bcs.n	10008c3e <xTaskRemoveFromEventList+0x86>
10008c38:	2301      	movs	r3, #1
10008c3a:	3001      	adds	r0, #1
10008c3c:	6313      	str	r3, [r2, #48]	; 0x30
10008c3e:	bdf0      	pop	{r4, r5, r6, r7, pc}
10008c40:	6e11      	ldr	r1, [r2, #96]	; 0x60
10008c42:	688c      	ldr	r4, [r1, #8]
10008c44:	61d9      	str	r1, [r3, #28]
10008c46:	621c      	str	r4, [r3, #32]
10008c48:	688c      	ldr	r4, [r1, #8]
10008c4a:	6060      	str	r0, [r4, #4]
10008c4c:	6088      	str	r0, [r1, #8]
10008c4e:	0011      	movs	r1, r2
10008c50:	315c      	adds	r1, #92	; 0x5c
10008c52:	6299      	str	r1, [r3, #40]	; 0x28
10008c54:	6dd1      	ldr	r1, [r2, #92]	; 0x5c
10008c56:	3101      	adds	r1, #1
10008c58:	65d1      	str	r1, [r2, #92]	; 0x5c
10008c5a:	6ad9      	ldr	r1, [r3, #44]	; 0x2c
10008c5c:	e7e7      	b.n	10008c2e <xTaskRemoveFromEventList+0x76>
10008c5e:	62d1      	str	r1, [r2, #44]	; 0x2c
10008c60:	e7d1      	b.n	10008c06 <xTaskRemoveFromEventList+0x4e>
10008c62:	6051      	str	r1, [r2, #4]
10008c64:	e7b5      	b.n	10008bd2 <xTaskRemoveFromEventList+0x1a>
10008c66:	6808      	ldr	r0, [r1, #0]
10008c68:	604c      	str	r4, [r1, #4]
10008c6a:	3801      	subs	r0, #1
10008c6c:	6008      	str	r0, [r1, #0]
10008c6e:	6ad0      	ldr	r0, [r2, #44]	; 0x2c
10008c70:	6ad9      	ldr	r1, [r3, #44]	; 0x2c
10008c72:	4281      	cmp	r1, r0
10008c74:	d9c7      	bls.n	10008c06 <xTaskRemoveFromEventList+0x4e>
10008c76:	e7f2      	b.n	10008c5e <xTaskRemoveFromEventList+0xa6>
10008c78:	200010d4 	.word	0x200010d4
10008c7c:	20001054 	.word	0x20001054

10008c80 <vTaskRemoveFromUnorderedEventList>:
10008c80:	2380      	movs	r3, #128	; 0x80
10008c82:	061b      	lsls	r3, r3, #24
10008c84:	b5f0      	push	{r4, r5, r6, r7, lr}
10008c86:	430b      	orrs	r3, r1
10008c88:	6884      	ldr	r4, [r0, #8]
10008c8a:	6841      	ldr	r1, [r0, #4]
10008c8c:	6902      	ldr	r2, [r0, #16]
10008c8e:	6003      	str	r3, [r0, #0]
10008c90:	68c3      	ldr	r3, [r0, #12]
10008c92:	608c      	str	r4, [r1, #8]
10008c94:	6884      	ldr	r4, [r0, #8]
10008c96:	6061      	str	r1, [r4, #4]
10008c98:	6851      	ldr	r1, [r2, #4]
10008c9a:	4281      	cmp	r1, r0
10008c9c:	d032      	beq.n	10008d04 <vTaskRemoveFromUnorderedEventList+0x84>
10008c9e:	2100      	movs	r1, #0
10008ca0:	6101      	str	r1, [r0, #16]
10008ca2:	6811      	ldr	r1, [r2, #0]
10008ca4:	68d8      	ldr	r0, [r3, #12]
10008ca6:	3901      	subs	r1, #1
10008ca8:	6011      	str	r1, [r2, #0]
10008caa:	6899      	ldr	r1, [r3, #8]
10008cac:	695a      	ldr	r2, [r3, #20]
10008cae:	6088      	str	r0, [r1, #8]
10008cb0:	68d8      	ldr	r0, [r3, #12]
10008cb2:	1d1f      	adds	r7, r3, #4
10008cb4:	6041      	str	r1, [r0, #4]
10008cb6:	6851      	ldr	r1, [r2, #4]
10008cb8:	42b9      	cmp	r1, r7
10008cba:	d025      	beq.n	10008d08 <vTaskRemoveFromUnorderedEventList+0x88>
10008cbc:	6811      	ldr	r1, [r2, #0]
10008cbe:	4d13      	ldr	r5, [pc, #76]	; (10008d0c <vTaskRemoveFromUnorderedEventList+0x8c>)
10008cc0:	3901      	subs	r1, #1
10008cc2:	6011      	str	r1, [r2, #0]
10008cc4:	6ad8      	ldr	r0, [r3, #44]	; 0x2c
10008cc6:	6aea      	ldr	r2, [r5, #44]	; 0x2c
10008cc8:	4290      	cmp	r0, r2
10008cca:	d900      	bls.n	10008cce <vTaskRemoveFromUnorderedEventList+0x4e>
10008ccc:	62e8      	str	r0, [r5, #44]	; 0x2c
10008cce:	4a10      	ldr	r2, [pc, #64]	; (10008d10 <vTaskRemoveFromUnorderedEventList+0x90>)
10008cd0:	0081      	lsls	r1, r0, #2
10008cd2:	4694      	mov	ip, r2
10008cd4:	1809      	adds	r1, r1, r0
10008cd6:	0089      	lsls	r1, r1, #2
10008cd8:	1856      	adds	r6, r2, r1
10008cda:	6a34      	ldr	r4, [r6, #32]
10008cdc:	68a2      	ldr	r2, [r4, #8]
10008cde:	609c      	str	r4, [r3, #8]
10008ce0:	60da      	str	r2, [r3, #12]
10008ce2:	68a2      	ldr	r2, [r4, #8]
10008ce4:	6057      	str	r7, [r2, #4]
10008ce6:	4662      	mov	r2, ip
10008ce8:	321c      	adds	r2, #28
10008cea:	1852      	adds	r2, r2, r1
10008cec:	60a7      	str	r7, [r4, #8]
10008cee:	615a      	str	r2, [r3, #20]
10008cf0:	69f3      	ldr	r3, [r6, #28]
10008cf2:	3301      	adds	r3, #1
10008cf4:	61f3      	str	r3, [r6, #28]
10008cf6:	686b      	ldr	r3, [r5, #4]
10008cf8:	6adb      	ldr	r3, [r3, #44]	; 0x2c
10008cfa:	4298      	cmp	r0, r3
10008cfc:	d901      	bls.n	10008d02 <vTaskRemoveFromUnorderedEventList+0x82>
10008cfe:	2301      	movs	r3, #1
10008d00:	632b      	str	r3, [r5, #48]	; 0x30
10008d02:	bdf0      	pop	{r4, r5, r6, r7, pc}
10008d04:	6054      	str	r4, [r2, #4]
10008d06:	e7ca      	b.n	10008c9e <vTaskRemoveFromUnorderedEventList+0x1e>
10008d08:	6050      	str	r0, [r2, #4]
10008d0a:	e7d7      	b.n	10008cbc <vTaskRemoveFromUnorderedEventList+0x3c>
10008d0c:	200010d4 	.word	0x200010d4
10008d10:	20001054 	.word	0x20001054

10008d14 <vTaskSetTimeOutState>:
10008d14:	b510      	push	{r4, lr}
10008d16:	0004      	movs	r4, r0
10008d18:	f000 fda4 	bl	10009864 <vPortEnterCritical>
10008d1c:	4b03      	ldr	r3, [pc, #12]	; (10008d2c <vTaskSetTimeOutState+0x18>)
10008d1e:	6a9a      	ldr	r2, [r3, #40]	; 0x28
10008d20:	681b      	ldr	r3, [r3, #0]
10008d22:	6022      	str	r2, [r4, #0]
10008d24:	6063      	str	r3, [r4, #4]
10008d26:	f000 fda9 	bl	1000987c <vPortExitCritical>
10008d2a:	bd10      	pop	{r4, pc}
10008d2c:	200010d4 	.word	0x200010d4

10008d30 <vTaskInternalSetTimeOutState>:
10008d30:	4b02      	ldr	r3, [pc, #8]	; (10008d3c <vTaskInternalSetTimeOutState+0xc>)
10008d32:	6a9a      	ldr	r2, [r3, #40]	; 0x28
10008d34:	681b      	ldr	r3, [r3, #0]
10008d36:	6002      	str	r2, [r0, #0]
10008d38:	6043      	str	r3, [r0, #4]
10008d3a:	4770      	bx	lr
10008d3c:	200010d4 	.word	0x200010d4

10008d40 <xTaskCheckForTimeOut>:
10008d40:	b5f8      	push	{r3, r4, r5, r6, r7, lr}
10008d42:	000d      	movs	r5, r1
10008d44:	0004      	movs	r4, r0
10008d46:	f000 fd8d 	bl	10009864 <vPortEnterCritical>
10008d4a:	4a10      	ldr	r2, [pc, #64]	; (10008d8c <xTaskCheckForTimeOut+0x4c>)
10008d4c:	682b      	ldr	r3, [r5, #0]
10008d4e:	6811      	ldr	r1, [r2, #0]
10008d50:	1c58      	adds	r0, r3, #1
10008d52:	d019      	beq.n	10008d88 <xTaskCheckForTimeOut+0x48>
10008d54:	6a96      	ldr	r6, [r2, #40]	; 0x28
10008d56:	6827      	ldr	r7, [r4, #0]
10008d58:	6860      	ldr	r0, [r4, #4]
10008d5a:	42b7      	cmp	r7, r6
10008d5c:	d008      	beq.n	10008d70 <xTaskCheckForTimeOut+0x30>
10008d5e:	4288      	cmp	r0, r1
10008d60:	d806      	bhi.n	10008d70 <xTaskCheckForTimeOut+0x30>
10008d62:	2300      	movs	r3, #0
10008d64:	2401      	movs	r4, #1
10008d66:	602b      	str	r3, [r5, #0]
10008d68:	f000 fd88 	bl	1000987c <vPortExitCritical>
10008d6c:	0020      	movs	r0, r4
10008d6e:	bdf8      	pop	{r3, r4, r5, r6, r7, pc}
10008d70:	1a0e      	subs	r6, r1, r0
10008d72:	42b3      	cmp	r3, r6
10008d74:	d9f5      	bls.n	10008d62 <xTaskCheckForTimeOut+0x22>
10008d76:	1a5b      	subs	r3, r3, r1
10008d78:	181b      	adds	r3, r3, r0
10008d7a:	602b      	str	r3, [r5, #0]
10008d7c:	6a93      	ldr	r3, [r2, #40]	; 0x28
10008d7e:	6023      	str	r3, [r4, #0]
10008d80:	6813      	ldr	r3, [r2, #0]
10008d82:	6063      	str	r3, [r4, #4]
10008d84:	2400      	movs	r4, #0
10008d86:	e7ef      	b.n	10008d68 <xTaskCheckForTimeOut+0x28>
10008d88:	2400      	movs	r4, #0
10008d8a:	e7ed      	b.n	10008d68 <xTaskCheckForTimeOut+0x28>
10008d8c:	200010d4 	.word	0x200010d4

10008d90 <vTaskMissedYield>:
10008d90:	2201      	movs	r2, #1
10008d92:	4b01      	ldr	r3, [pc, #4]	; (10008d98 <vTaskMissedYield+0x8>)
10008d94:	631a      	str	r2, [r3, #48]	; 0x30
10008d96:	4770      	bx	lr
10008d98:	200010d4 	.word	0x200010d4

10008d9c <vTaskSetThreadLocalStoragePointer>:
10008d9c:	2904      	cmp	r1, #4
10008d9e:	d805      	bhi.n	10008dac <vTaskSetThreadLocalStoragePointer+0x10>
10008da0:	2800      	cmp	r0, #0
10008da2:	d004      	beq.n	10008dae <vTaskSetThreadLocalStoragePointer+0x12>
10008da4:	3110      	adds	r1, #16
10008da6:	0089      	lsls	r1, r1, #2
10008da8:	1841      	adds	r1, r0, r1
10008daa:	604a      	str	r2, [r1, #4]
10008dac:	4770      	bx	lr
10008dae:	4b01      	ldr	r3, [pc, #4]	; (10008db4 <vTaskSetThreadLocalStoragePointer+0x18>)
10008db0:	6858      	ldr	r0, [r3, #4]
10008db2:	e7f7      	b.n	10008da4 <vTaskSetThreadLocalStoragePointer+0x8>
10008db4:	200010d4 	.word	0x200010d4

10008db8 <pvTaskGetThreadLocalStoragePointer>:
10008db8:	2904      	cmp	r1, #4
10008dba:	d809      	bhi.n	10008dd0 <pvTaskGetThreadLocalStoragePointer+0x18>
10008dbc:	2800      	cmp	r0, #0
10008dbe:	d004      	beq.n	10008dca <pvTaskGetThreadLocalStoragePointer+0x12>
10008dc0:	3110      	adds	r1, #16
10008dc2:	0089      	lsls	r1, r1, #2
10008dc4:	1841      	adds	r1, r0, r1
10008dc6:	6848      	ldr	r0, [r1, #4]
10008dc8:	4770      	bx	lr
10008dca:	4b02      	ldr	r3, [pc, #8]	; (10008dd4 <pvTaskGetThreadLocalStoragePointer+0x1c>)
10008dcc:	6858      	ldr	r0, [r3, #4]
10008dce:	e7f7      	b.n	10008dc0 <pvTaskGetThreadLocalStoragePointer+0x8>
10008dd0:	2000      	movs	r0, #0
10008dd2:	e7f9      	b.n	10008dc8 <pvTaskGetThreadLocalStoragePointer+0x10>
10008dd4:	200010d4 	.word	0x200010d4

10008dd8 <xTaskGetCurrentTaskHandle>:
10008dd8:	4b01      	ldr	r3, [pc, #4]	; (10008de0 <xTaskGetCurrentTaskHandle+0x8>)
10008dda:	6858      	ldr	r0, [r3, #4]
10008ddc:	4770      	bx	lr
10008dde:	46c0      	nop			; (mov r8, r8)
10008de0:	200010d4 	.word	0x200010d4

10008de4 <xTaskGetSchedulerState>:
10008de4:	4b04      	ldr	r3, [pc, #16]	; (10008df8 <xTaskGetSchedulerState+0x14>)
10008de6:	2001      	movs	r0, #1
10008de8:	6f1a      	ldr	r2, [r3, #112]	; 0x70
10008dea:	2a00      	cmp	r2, #0
10008dec:	d003      	beq.n	10008df6 <xTaskGetSchedulerState+0x12>
10008dee:	6f98      	ldr	r0, [r3, #120]	; 0x78
10008df0:	4243      	negs	r3, r0
10008df2:	4158      	adcs	r0, r3
10008df4:	0040      	lsls	r0, r0, #1
10008df6:	4770      	bx	lr
10008df8:	200010d4 	.word	0x200010d4

10008dfc <uxTaskResetEventItemValue>:
10008dfc:	4b04      	ldr	r3, [pc, #16]	; (10008e10 <uxTaskResetEventItemValue+0x14>)
10008dfe:	685a      	ldr	r2, [r3, #4]
10008e00:	6859      	ldr	r1, [r3, #4]
10008e02:	6990      	ldr	r0, [r2, #24]
10008e04:	685a      	ldr	r2, [r3, #4]
10008e06:	2305      	movs	r3, #5
10008e08:	6ac9      	ldr	r1, [r1, #44]	; 0x2c
10008e0a:	1a5b      	subs	r3, r3, r1
10008e0c:	6193      	str	r3, [r2, #24]
10008e0e:	4770      	bx	lr
10008e10:	200010d4 	.word	0x200010d4

10008e14 <ulTaskGenericNotifyTake>:
10008e14:	b5f0      	push	{r4, r5, r6, r7, lr}
10008e16:	0004      	movs	r4, r0
10008e18:	46c6      	mov	lr, r8
10008e1a:	0025      	movs	r5, r4
10008e1c:	b500      	push	{lr}
10008e1e:	0017      	movs	r7, r2
10008e20:	4688      	mov	r8, r1
10008e22:	f000 fd1f 	bl	10009864 <vPortEnterCritical>
10008e26:	4e19      	ldr	r6, [pc, #100]	; (10008e8c <ulTaskGenericNotifyTake+0x78>)
10008e28:	3516      	adds	r5, #22
10008e2a:	6873      	ldr	r3, [r6, #4]
10008e2c:	00aa      	lsls	r2, r5, #2
10008e2e:	58d3      	ldr	r3, [r2, r3]
10008e30:	2b00      	cmp	r3, #0
10008e32:	d106      	bne.n	10008e42 <ulTaskGenericNotifyTake+0x2e>
10008e34:	2201      	movs	r2, #1
10008e36:	6873      	ldr	r3, [r6, #4]
10008e38:	191b      	adds	r3, r3, r4
10008e3a:	3364      	adds	r3, #100	; 0x64
10008e3c:	701a      	strb	r2, [r3, #0]
10008e3e:	2f00      	cmp	r7, #0
10008e40:	d11d      	bne.n	10008e7e <ulTaskGenericNotifyTake+0x6a>
10008e42:	f000 fd1b 	bl	1000987c <vPortExitCritical>
10008e46:	f000 fd0d 	bl	10009864 <vPortEnterCritical>
10008e4a:	6873      	ldr	r3, [r6, #4]
10008e4c:	00ad      	lsls	r5, r5, #2
10008e4e:	58ef      	ldr	r7, [r5, r3]
10008e50:	2f00      	cmp	r7, #0
10008e52:	d005      	beq.n	10008e60 <ulTaskGenericNotifyTake+0x4c>
10008e54:	4643      	mov	r3, r8
10008e56:	2b00      	cmp	r3, #0
10008e58:	d00d      	beq.n	10008e76 <ulTaskGenericNotifyTake+0x62>
10008e5a:	2200      	movs	r2, #0
10008e5c:	6873      	ldr	r3, [r6, #4]
10008e5e:	50ea      	str	r2, [r5, r3]
10008e60:	2300      	movs	r3, #0
10008e62:	6870      	ldr	r0, [r6, #4]
10008e64:	1900      	adds	r0, r0, r4
10008e66:	3064      	adds	r0, #100	; 0x64
10008e68:	7003      	strb	r3, [r0, #0]
10008e6a:	f000 fd07 	bl	1000987c <vPortExitCritical>
10008e6e:	0038      	movs	r0, r7
10008e70:	bc80      	pop	{r7}
10008e72:	46b8      	mov	r8, r7
10008e74:	bdf0      	pop	{r4, r5, r6, r7, pc}
10008e76:	6873      	ldr	r3, [r6, #4]
10008e78:	1e7a      	subs	r2, r7, #1
10008e7a:	50ea      	str	r2, [r5, r3]
10008e7c:	e7f0      	b.n	10008e60 <ulTaskGenericNotifyTake+0x4c>
10008e7e:	2101      	movs	r1, #1
10008e80:	0038      	movs	r0, r7
10008e82:	f7fe ff87 	bl	10007d94 <prvAddCurrentTaskToDelayedList>
10008e86:	f000 fce1 	bl	1000984c <vPortYield>
10008e8a:	e7da      	b.n	10008e42 <ulTaskGenericNotifyTake+0x2e>
10008e8c:	200010d4 	.word	0x200010d4

10008e90 <xTaskGenericNotifyWait>:
10008e90:	b5f0      	push	{r4, r5, r6, r7, lr}
10008e92:	46c6      	mov	lr, r8
10008e94:	0004      	movs	r4, r0
10008e96:	b500      	push	{lr}
10008e98:	001f      	movs	r7, r3
10008e9a:	4688      	mov	r8, r1
10008e9c:	0016      	movs	r6, r2
10008e9e:	f000 fce1 	bl	10009864 <vPortEnterCritical>
10008ea2:	4d21      	ldr	r5, [pc, #132]	; (10008f28 <xTaskGenericNotifyWait+0x98>)
10008ea4:	6868      	ldr	r0, [r5, #4]
10008ea6:	1900      	adds	r0, r0, r4
10008ea8:	3064      	adds	r0, #100	; 0x64
10008eaa:	7803      	ldrb	r3, [r0, #0]
10008eac:	2b02      	cmp	r3, #2
10008eae:	d00e      	beq.n	10008ece <xTaskGenericNotifyWait+0x3e>
10008eb0:	4641      	mov	r1, r8
10008eb2:	686b      	ldr	r3, [r5, #4]
10008eb4:	00a2      	lsls	r2, r4, #2
10008eb6:	189b      	adds	r3, r3, r2
10008eb8:	6d9a      	ldr	r2, [r3, #88]	; 0x58
10008eba:	438a      	bics	r2, r1
10008ebc:	659a      	str	r2, [r3, #88]	; 0x58
10008ebe:	2201      	movs	r2, #1
10008ec0:	686b      	ldr	r3, [r5, #4]
10008ec2:	191b      	adds	r3, r3, r4
10008ec4:	3364      	adds	r3, #100	; 0x64
10008ec6:	701a      	strb	r2, [r3, #0]
10008ec8:	9b06      	ldr	r3, [sp, #24]
10008eca:	2b00      	cmp	r3, #0
10008ecc:	d124      	bne.n	10008f18 <xTaskGenericNotifyWait+0x88>
10008ece:	f000 fcd5 	bl	1000987c <vPortExitCritical>
10008ed2:	f000 fcc7 	bl	10009864 <vPortEnterCritical>
10008ed6:	2f00      	cmp	r7, #0
10008ed8:	d005      	beq.n	10008ee6 <xTaskGenericNotifyWait+0x56>
10008eda:	0023      	movs	r3, r4
10008edc:	686a      	ldr	r2, [r5, #4]
10008ede:	3316      	adds	r3, #22
10008ee0:	009b      	lsls	r3, r3, #2
10008ee2:	589b      	ldr	r3, [r3, r2]
10008ee4:	603b      	str	r3, [r7, #0]
10008ee6:	686b      	ldr	r3, [r5, #4]
10008ee8:	2700      	movs	r7, #0
10008eea:	191b      	adds	r3, r3, r4
10008eec:	3364      	adds	r3, #100	; 0x64
10008eee:	781b      	ldrb	r3, [r3, #0]
10008ef0:	2b02      	cmp	r3, #2
10008ef2:	d106      	bne.n	10008f02 <xTaskGenericNotifyWait+0x72>
10008ef4:	686b      	ldr	r3, [r5, #4]
10008ef6:	00a2      	lsls	r2, r4, #2
10008ef8:	189b      	adds	r3, r3, r2
10008efa:	6d9a      	ldr	r2, [r3, #88]	; 0x58
10008efc:	3701      	adds	r7, #1
10008efe:	43b2      	bics	r2, r6
10008f00:	659a      	str	r2, [r3, #88]	; 0x58
10008f02:	2300      	movs	r3, #0
10008f04:	6868      	ldr	r0, [r5, #4]
10008f06:	1904      	adds	r4, r0, r4
10008f08:	3464      	adds	r4, #100	; 0x64
10008f0a:	7023      	strb	r3, [r4, #0]
10008f0c:	f000 fcb6 	bl	1000987c <vPortExitCritical>
10008f10:	0038      	movs	r0, r7
10008f12:	bc80      	pop	{r7}
10008f14:	46b8      	mov	r8, r7
10008f16:	bdf0      	pop	{r4, r5, r6, r7, pc}
10008f18:	2101      	movs	r1, #1
10008f1a:	0018      	movs	r0, r3
10008f1c:	f7fe ff3a 	bl	10007d94 <prvAddCurrentTaskToDelayedList>
10008f20:	f000 fc94 	bl	1000984c <vPortYield>
10008f24:	e7d3      	b.n	10008ece <xTaskGenericNotifyWait+0x3e>
10008f26:	46c0      	nop			; (mov r8, r8)
10008f28:	200010d4 	.word	0x200010d4

10008f2c <xTaskGenericNotify>:
10008f2c:	b5f0      	push	{r4, r5, r6, r7, lr}
10008f2e:	46c6      	mov	lr, r8
10008f30:	b500      	push	{lr}
10008f32:	9d06      	ldr	r5, [sp, #24]
10008f34:	0006      	movs	r6, r0
10008f36:	000c      	movs	r4, r1
10008f38:	4690      	mov	r8, r2
10008f3a:	001f      	movs	r7, r3
10008f3c:	f000 fc92 	bl	10009864 <vPortEnterCritical>
10008f40:	2d00      	cmp	r5, #0
10008f42:	d004      	beq.n	10008f4e <xTaskGenericNotify+0x22>
10008f44:	0023      	movs	r3, r4
10008f46:	3316      	adds	r3, #22
10008f48:	009b      	lsls	r3, r3, #2
10008f4a:	599b      	ldr	r3, [r3, r6]
10008f4c:	602b      	str	r3, [r5, #0]
10008f4e:	2302      	movs	r3, #2
10008f50:	1931      	adds	r1, r6, r4
10008f52:	3164      	adds	r1, #100	; 0x64
10008f54:	780d      	ldrb	r5, [r1, #0]
10008f56:	700b      	strb	r3, [r1, #0]
10008f58:	b2ed      	uxtb	r5, r5
10008f5a:	2f03      	cmp	r7, #3
10008f5c:	d016      	beq.n	10008f8c <xTaskGenericNotify+0x60>
10008f5e:	d811      	bhi.n	10008f84 <xTaskGenericNotify+0x58>
10008f60:	2f01      	cmp	r7, #1
10008f62:	d046      	beq.n	10008ff2 <xTaskGenericNotify+0xc6>
10008f64:	2f02      	cmp	r7, #2
10008f66:	d104      	bne.n	10008f72 <xTaskGenericNotify+0x46>
10008f68:	00a4      	lsls	r4, r4, #2
10008f6a:	1934      	adds	r4, r6, r4
10008f6c:	6da3      	ldr	r3, [r4, #88]	; 0x58
10008f6e:	3301      	adds	r3, #1
10008f70:	65a3      	str	r3, [r4, #88]	; 0x58
10008f72:	2d01      	cmp	r5, #1
10008f74:	d010      	beq.n	10008f98 <xTaskGenericNotify+0x6c>
10008f76:	2401      	movs	r4, #1
10008f78:	f000 fc80 	bl	1000987c <vPortExitCritical>
10008f7c:	0020      	movs	r0, r4
10008f7e:	bc80      	pop	{r7}
10008f80:	46b8      	mov	r8, r7
10008f82:	bdf0      	pop	{r4, r5, r6, r7, pc}
10008f84:	2f04      	cmp	r7, #4
10008f86:	d1f4      	bne.n	10008f72 <xTaskGenericNotify+0x46>
10008f88:	2d02      	cmp	r5, #2
10008f8a:	d03b      	beq.n	10009004 <xTaskGenericNotify+0xd8>
10008f8c:	4643      	mov	r3, r8
10008f8e:	3416      	adds	r4, #22
10008f90:	00a4      	lsls	r4, r4, #2
10008f92:	51a3      	str	r3, [r4, r6]
10008f94:	2d01      	cmp	r5, #1
10008f96:	d1ee      	bne.n	10008f76 <xTaskGenericNotify+0x4a>
10008f98:	6973      	ldr	r3, [r6, #20]
10008f9a:	68b1      	ldr	r1, [r6, #8]
10008f9c:	68f2      	ldr	r2, [r6, #12]
10008f9e:	1d37      	adds	r7, r6, #4
10008fa0:	608a      	str	r2, [r1, #8]
10008fa2:	6051      	str	r1, [r2, #4]
10008fa4:	6859      	ldr	r1, [r3, #4]
10008fa6:	42b9      	cmp	r1, r7
10008fa8:	d02e      	beq.n	10009008 <xTaskGenericNotify+0xdc>
10008faa:	681a      	ldr	r2, [r3, #0]
10008fac:	4d17      	ldr	r5, [pc, #92]	; (1000900c <xTaskGenericNotify+0xe0>)
10008fae:	3a01      	subs	r2, #1
10008fb0:	601a      	str	r2, [r3, #0]
10008fb2:	6af1      	ldr	r1, [r6, #44]	; 0x2c
10008fb4:	6aeb      	ldr	r3, [r5, #44]	; 0x2c
10008fb6:	4299      	cmp	r1, r3
10008fb8:	d900      	bls.n	10008fbc <xTaskGenericNotify+0x90>
10008fba:	62e9      	str	r1, [r5, #44]	; 0x2c
10008fbc:	4b14      	ldr	r3, [pc, #80]	; (10009010 <xTaskGenericNotify+0xe4>)
10008fbe:	008a      	lsls	r2, r1, #2
10008fc0:	469c      	mov	ip, r3
10008fc2:	1852      	adds	r2, r2, r1
10008fc4:	0092      	lsls	r2, r2, #2
10008fc6:	189c      	adds	r4, r3, r2
10008fc8:	6a20      	ldr	r0, [r4, #32]
10008fca:	6883      	ldr	r3, [r0, #8]
10008fcc:	60b0      	str	r0, [r6, #8]
10008fce:	60f3      	str	r3, [r6, #12]
10008fd0:	6883      	ldr	r3, [r0, #8]
10008fd2:	605f      	str	r7, [r3, #4]
10008fd4:	4663      	mov	r3, ip
10008fd6:	331c      	adds	r3, #28
10008fd8:	189b      	adds	r3, r3, r2
10008fda:	6087      	str	r7, [r0, #8]
10008fdc:	6173      	str	r3, [r6, #20]
10008fde:	69e3      	ldr	r3, [r4, #28]
10008fe0:	3301      	adds	r3, #1
10008fe2:	61e3      	str	r3, [r4, #28]
10008fe4:	686b      	ldr	r3, [r5, #4]
10008fe6:	6adb      	ldr	r3, [r3, #44]	; 0x2c
10008fe8:	4299      	cmp	r1, r3
10008fea:	d9c4      	bls.n	10008f76 <xTaskGenericNotify+0x4a>
10008fec:	f000 fc2e 	bl	1000984c <vPortYield>
10008ff0:	e7c1      	b.n	10008f76 <xTaskGenericNotify+0x4a>
10008ff2:	4647      	mov	r7, r8
10008ff4:	00a4      	lsls	r4, r4, #2
10008ff6:	1934      	adds	r4, r6, r4
10008ff8:	6da2      	ldr	r2, [r4, #88]	; 0x58
10008ffa:	4317      	orrs	r7, r2
10008ffc:	65a7      	str	r7, [r4, #88]	; 0x58
10008ffe:	2d01      	cmp	r5, #1
10009000:	d1b9      	bne.n	10008f76 <xTaskGenericNotify+0x4a>
10009002:	e7c9      	b.n	10008f98 <xTaskGenericNotify+0x6c>
10009004:	2400      	movs	r4, #0
10009006:	e7b7      	b.n	10008f78 <xTaskGenericNotify+0x4c>
10009008:	605a      	str	r2, [r3, #4]
1000900a:	e7ce      	b.n	10008faa <xTaskGenericNotify+0x7e>
1000900c:	200010d4 	.word	0x200010d4
10009010:	20001054 	.word	0x20001054

10009014 <xTaskGenericNotifyFromISR>:
10009014:	b5f8      	push	{r3, r4, r5, r6, r7, lr}
10009016:	4647      	mov	r7, r8
10009018:	46ce      	mov	lr, r9
1000901a:	b580      	push	{r7, lr}
1000901c:	9f08      	ldr	r7, [sp, #32]
1000901e:	0006      	movs	r6, r0
10009020:	000c      	movs	r4, r1
10009022:	4690      	mov	r8, r2
10009024:	001d      	movs	r5, r3
10009026:	f000 fc33 	bl	10009890 <ulSetInterruptMaskFromISR>
1000902a:	2f00      	cmp	r7, #0
1000902c:	d004      	beq.n	10009038 <xTaskGenericNotifyFromISR+0x24>
1000902e:	0023      	movs	r3, r4
10009030:	3316      	adds	r3, #22
10009032:	009b      	lsls	r3, r3, #2
10009034:	599b      	ldr	r3, [r3, r6]
10009036:	603b      	str	r3, [r7, #0]
10009038:	2202      	movs	r2, #2
1000903a:	1933      	adds	r3, r6, r4
1000903c:	3364      	adds	r3, #100	; 0x64
1000903e:	781f      	ldrb	r7, [r3, #0]
10009040:	701a      	strb	r2, [r3, #0]
10009042:	b2ff      	uxtb	r7, r7
10009044:	2d03      	cmp	r5, #3
10009046:	d017      	beq.n	10009078 <xTaskGenericNotifyFromISR+0x64>
10009048:	d812      	bhi.n	10009070 <xTaskGenericNotifyFromISR+0x5c>
1000904a:	2d01      	cmp	r5, #1
1000904c:	d03b      	beq.n	100090c6 <xTaskGenericNotifyFromISR+0xb2>
1000904e:	2d02      	cmp	r5, #2
10009050:	d104      	bne.n	1000905c <xTaskGenericNotifyFromISR+0x48>
10009052:	00a4      	lsls	r4, r4, #2
10009054:	1934      	adds	r4, r6, r4
10009056:	6da3      	ldr	r3, [r4, #88]	; 0x58
10009058:	3301      	adds	r3, #1
1000905a:	65a3      	str	r3, [r4, #88]	; 0x58
1000905c:	2f01      	cmp	r7, #1
1000905e:	d011      	beq.n	10009084 <xTaskGenericNotifyFromISR+0x70>
10009060:	2401      	movs	r4, #1
10009062:	f000 fc19 	bl	10009898 <vClearInterruptMaskFromISR>
10009066:	0020      	movs	r0, r4
10009068:	bcc0      	pop	{r6, r7}
1000906a:	46b9      	mov	r9, r7
1000906c:	46b0      	mov	r8, r6
1000906e:	bdf8      	pop	{r3, r4, r5, r6, r7, pc}
10009070:	2d04      	cmp	r5, #4
10009072:	d1f3      	bne.n	1000905c <xTaskGenericNotifyFromISR+0x48>
10009074:	2f02      	cmp	r7, #2
10009076:	d059      	beq.n	1000912c <xTaskGenericNotifyFromISR+0x118>
10009078:	4643      	mov	r3, r8
1000907a:	3416      	adds	r4, #22
1000907c:	00a4      	lsls	r4, r4, #2
1000907e:	51a3      	str	r3, [r4, r6]
10009080:	2f01      	cmp	r7, #1
10009082:	d1ed      	bne.n	10009060 <xTaskGenericNotifyFromISR+0x4c>
10009084:	4b2b      	ldr	r3, [pc, #172]	; (10009134 <xTaskGenericNotifyFromISR+0x120>)
10009086:	6f9a      	ldr	r2, [r3, #120]	; 0x78
10009088:	2a00      	cmp	r2, #0
1000908a:	d025      	beq.n	100090d8 <xTaskGenericNotifyFromISR+0xc4>
1000908c:	6e1a      	ldr	r2, [r3, #96]	; 0x60
1000908e:	6891      	ldr	r1, [r2, #8]
10009090:	61f2      	str	r2, [r6, #28]
10009092:	6231      	str	r1, [r6, #32]
10009094:	0031      	movs	r1, r6
10009096:	6894      	ldr	r4, [r2, #8]
10009098:	3118      	adds	r1, #24
1000909a:	6061      	str	r1, [r4, #4]
1000909c:	6091      	str	r1, [r2, #8]
1000909e:	001a      	movs	r2, r3
100090a0:	325c      	adds	r2, #92	; 0x5c
100090a2:	62b2      	str	r2, [r6, #40]	; 0x28
100090a4:	6dda      	ldr	r2, [r3, #92]	; 0x5c
100090a6:	3201      	adds	r2, #1
100090a8:	65da      	str	r2, [r3, #92]	; 0x5c
100090aa:	6af2      	ldr	r2, [r6, #44]	; 0x2c
100090ac:	6859      	ldr	r1, [r3, #4]
100090ae:	6ac9      	ldr	r1, [r1, #44]	; 0x2c
100090b0:	4291      	cmp	r1, r2
100090b2:	d2d5      	bcs.n	10009060 <xTaskGenericNotifyFromISR+0x4c>
100090b4:	9a09      	ldr	r2, [sp, #36]	; 0x24
100090b6:	2a00      	cmp	r2, #0
100090b8:	d002      	beq.n	100090c0 <xTaskGenericNotifyFromISR+0xac>
100090ba:	0011      	movs	r1, r2
100090bc:	2201      	movs	r2, #1
100090be:	600a      	str	r2, [r1, #0]
100090c0:	2201      	movs	r2, #1
100090c2:	631a      	str	r2, [r3, #48]	; 0x30
100090c4:	e7cc      	b.n	10009060 <xTaskGenericNotifyFromISR+0x4c>
100090c6:	4643      	mov	r3, r8
100090c8:	00a4      	lsls	r4, r4, #2
100090ca:	1934      	adds	r4, r6, r4
100090cc:	6da2      	ldr	r2, [r4, #88]	; 0x58
100090ce:	431a      	orrs	r2, r3
100090d0:	65a2      	str	r2, [r4, #88]	; 0x58
100090d2:	2f01      	cmp	r7, #1
100090d4:	d1c4      	bne.n	10009060 <xTaskGenericNotifyFromISR+0x4c>
100090d6:	e7d5      	b.n	10009084 <xTaskGenericNotifyFromISR+0x70>
100090d8:	68b4      	ldr	r4, [r6, #8]
100090da:	68f1      	ldr	r1, [r6, #12]
100090dc:	6972      	ldr	r2, [r6, #20]
100090de:	60a1      	str	r1, [r4, #8]
100090e0:	604c      	str	r4, [r1, #4]
100090e2:	1d34      	adds	r4, r6, #4
100090e4:	46a0      	mov	r8, r4
100090e6:	6854      	ldr	r4, [r2, #4]
100090e8:	4544      	cmp	r4, r8
100090ea:	d021      	beq.n	10009130 <xTaskGenericNotifyFromISR+0x11c>
100090ec:	6811      	ldr	r1, [r2, #0]
100090ee:	3901      	subs	r1, #1
100090f0:	6011      	str	r1, [r2, #0]
100090f2:	6ad9      	ldr	r1, [r3, #44]	; 0x2c
100090f4:	6af2      	ldr	r2, [r6, #44]	; 0x2c
100090f6:	428a      	cmp	r2, r1
100090f8:	d900      	bls.n	100090fc <xTaskGenericNotifyFromISR+0xe8>
100090fa:	62da      	str	r2, [r3, #44]	; 0x2c
100090fc:	490e      	ldr	r1, [pc, #56]	; (10009138 <xTaskGenericNotifyFromISR+0x124>)
100090fe:	0094      	lsls	r4, r2, #2
10009100:	468c      	mov	ip, r1
10009102:	18a4      	adds	r4, r4, r2
10009104:	00a1      	lsls	r1, r4, #2
10009106:	4689      	mov	r9, r1
10009108:	4667      	mov	r7, ip
1000910a:	4644      	mov	r4, r8
1000910c:	444f      	add	r7, r9
1000910e:	6a3d      	ldr	r5, [r7, #32]
10009110:	68a9      	ldr	r1, [r5, #8]
10009112:	60b5      	str	r5, [r6, #8]
10009114:	60f1      	str	r1, [r6, #12]
10009116:	68a9      	ldr	r1, [r5, #8]
10009118:	604c      	str	r4, [r1, #4]
1000911a:	4661      	mov	r1, ip
1000911c:	311c      	adds	r1, #28
1000911e:	4449      	add	r1, r9
10009120:	60ac      	str	r4, [r5, #8]
10009122:	6171      	str	r1, [r6, #20]
10009124:	69f9      	ldr	r1, [r7, #28]
10009126:	3101      	adds	r1, #1
10009128:	61f9      	str	r1, [r7, #28]
1000912a:	e7bf      	b.n	100090ac <xTaskGenericNotifyFromISR+0x98>
1000912c:	2400      	movs	r4, #0
1000912e:	e798      	b.n	10009062 <xTaskGenericNotifyFromISR+0x4e>
10009130:	6051      	str	r1, [r2, #4]
10009132:	e7db      	b.n	100090ec <xTaskGenericNotifyFromISR+0xd8>
10009134:	200010d4 	.word	0x200010d4
10009138:	20001054 	.word	0x20001054

1000913c <vTaskGenericNotifyGiveFromISR>:
1000913c:	b5f0      	push	{r4, r5, r6, r7, lr}
1000913e:	46d6      	mov	lr, sl
10009140:	4646      	mov	r6, r8
10009142:	464f      	mov	r7, r9
10009144:	000c      	movs	r4, r1
10009146:	0005      	movs	r5, r0
10009148:	b5c0      	push	{r6, r7, lr}
1000914a:	0016      	movs	r6, r2
1000914c:	f000 fba0 	bl	10009890 <ulSetInterruptMaskFromISR>
10009150:	2102      	movs	r1, #2
10009152:	192b      	adds	r3, r5, r4
10009154:	3364      	adds	r3, #100	; 0x64
10009156:	00a4      	lsls	r4, r4, #2
10009158:	781a      	ldrb	r2, [r3, #0]
1000915a:	192c      	adds	r4, r5, r4
1000915c:	7019      	strb	r1, [r3, #0]
1000915e:	6da3      	ldr	r3, [r4, #88]	; 0x58
10009160:	3301      	adds	r3, #1
10009162:	65a3      	str	r3, [r4, #88]	; 0x58
10009164:	2a01      	cmp	r2, #1
10009166:	d006      	beq.n	10009176 <vTaskGenericNotifyGiveFromISR+0x3a>
10009168:	f000 fb96 	bl	10009898 <vClearInterruptMaskFromISR>
1000916c:	bce0      	pop	{r5, r6, r7}
1000916e:	46ba      	mov	sl, r7
10009170:	46b1      	mov	r9, r6
10009172:	46a8      	mov	r8, r5
10009174:	bdf0      	pop	{r4, r5, r6, r7, pc}
10009176:	4b27      	ldr	r3, [pc, #156]	; (10009214 <vTaskGenericNotifyGiveFromISR+0xd8>)
10009178:	6f9a      	ldr	r2, [r3, #120]	; 0x78
1000917a:	2a00      	cmp	r2, #0
1000917c:	d01a      	beq.n	100091b4 <vTaskGenericNotifyGiveFromISR+0x78>
1000917e:	6e1a      	ldr	r2, [r3, #96]	; 0x60
10009180:	6891      	ldr	r1, [r2, #8]
10009182:	61ea      	str	r2, [r5, #28]
10009184:	6229      	str	r1, [r5, #32]
10009186:	0029      	movs	r1, r5
10009188:	6894      	ldr	r4, [r2, #8]
1000918a:	3118      	adds	r1, #24
1000918c:	6061      	str	r1, [r4, #4]
1000918e:	6091      	str	r1, [r2, #8]
10009190:	001a      	movs	r2, r3
10009192:	325c      	adds	r2, #92	; 0x5c
10009194:	62aa      	str	r2, [r5, #40]	; 0x28
10009196:	6dda      	ldr	r2, [r3, #92]	; 0x5c
10009198:	3201      	adds	r2, #1
1000919a:	65da      	str	r2, [r3, #92]	; 0x5c
1000919c:	6aea      	ldr	r2, [r5, #44]	; 0x2c
1000919e:	6859      	ldr	r1, [r3, #4]
100091a0:	6ac9      	ldr	r1, [r1, #44]	; 0x2c
100091a2:	4291      	cmp	r1, r2
100091a4:	d2e0      	bcs.n	10009168 <vTaskGenericNotifyGiveFromISR+0x2c>
100091a6:	2e00      	cmp	r6, #0
100091a8:	d001      	beq.n	100091ae <vTaskGenericNotifyGiveFromISR+0x72>
100091aa:	2201      	movs	r2, #1
100091ac:	6032      	str	r2, [r6, #0]
100091ae:	2201      	movs	r2, #1
100091b0:	631a      	str	r2, [r3, #48]	; 0x30
100091b2:	e7d9      	b.n	10009168 <vTaskGenericNotifyGiveFromISR+0x2c>
100091b4:	68ac      	ldr	r4, [r5, #8]
100091b6:	68e9      	ldr	r1, [r5, #12]
100091b8:	696a      	ldr	r2, [r5, #20]
100091ba:	60a1      	str	r1, [r4, #8]
100091bc:	604c      	str	r4, [r1, #4]
100091be:	1d2c      	adds	r4, r5, #4
100091c0:	46a4      	mov	ip, r4
100091c2:	6854      	ldr	r4, [r2, #4]
100091c4:	4564      	cmp	r4, ip
100091c6:	d022      	beq.n	1000920e <vTaskGenericNotifyGiveFromISR+0xd2>
100091c8:	6811      	ldr	r1, [r2, #0]
100091ca:	3901      	subs	r1, #1
100091cc:	6011      	str	r1, [r2, #0]
100091ce:	6ad9      	ldr	r1, [r3, #44]	; 0x2c
100091d0:	6aea      	ldr	r2, [r5, #44]	; 0x2c
100091d2:	428a      	cmp	r2, r1
100091d4:	d900      	bls.n	100091d8 <vTaskGenericNotifyGiveFromISR+0x9c>
100091d6:	62da      	str	r2, [r3, #44]	; 0x2c
100091d8:	490f      	ldr	r1, [pc, #60]	; (10009218 <vTaskGenericNotifyGiveFromISR+0xdc>)
100091da:	0094      	lsls	r4, r2, #2
100091dc:	4689      	mov	r9, r1
100091de:	18a4      	adds	r4, r4, r2
100091e0:	00a1      	lsls	r1, r4, #2
100091e2:	468a      	mov	sl, r1
100091e4:	4649      	mov	r1, r9
100091e6:	4664      	mov	r4, ip
100091e8:	4451      	add	r1, sl
100091ea:	6a0f      	ldr	r7, [r1, #32]
100091ec:	4688      	mov	r8, r1
100091ee:	68b9      	ldr	r1, [r7, #8]
100091f0:	60af      	str	r7, [r5, #8]
100091f2:	60e9      	str	r1, [r5, #12]
100091f4:	68b9      	ldr	r1, [r7, #8]
100091f6:	604c      	str	r4, [r1, #4]
100091f8:	4649      	mov	r1, r9
100091fa:	311c      	adds	r1, #28
100091fc:	4451      	add	r1, sl
100091fe:	60bc      	str	r4, [r7, #8]
10009200:	6169      	str	r1, [r5, #20]
10009202:	4641      	mov	r1, r8
10009204:	4644      	mov	r4, r8
10009206:	69c9      	ldr	r1, [r1, #28]
10009208:	3101      	adds	r1, #1
1000920a:	61e1      	str	r1, [r4, #28]
1000920c:	e7c7      	b.n	1000919e <vTaskGenericNotifyGiveFromISR+0x62>
1000920e:	6051      	str	r1, [r2, #4]
10009210:	e7da      	b.n	100091c8 <vTaskGenericNotifyGiveFromISR+0x8c>
10009212:	46c0      	nop			; (mov r8, r8)
10009214:	200010d4 	.word	0x200010d4
10009218:	20001054 	.word	0x20001054

1000921c <xTaskGenericNotifyStateClear>:
1000921c:	b570      	push	{r4, r5, r6, lr}
1000921e:	0004      	movs	r4, r0
10009220:	000d      	movs	r5, r1
10009222:	2800      	cmp	r0, #0
10009224:	d00d      	beq.n	10009242 <xTaskGenericNotifyStateClear+0x26>
10009226:	1964      	adds	r4, r4, r5
10009228:	3464      	adds	r4, #100	; 0x64
1000922a:	f000 fb1b 	bl	10009864 <vPortEnterCritical>
1000922e:	7823      	ldrb	r3, [r4, #0]
10009230:	2500      	movs	r5, #0
10009232:	2b02      	cmp	r3, #2
10009234:	d101      	bne.n	1000923a <xTaskGenericNotifyStateClear+0x1e>
10009236:	7025      	strb	r5, [r4, #0]
10009238:	3501      	adds	r5, #1
1000923a:	f000 fb1f 	bl	1000987c <vPortExitCritical>
1000923e:	0028      	movs	r0, r5
10009240:	bd70      	pop	{r4, r5, r6, pc}
10009242:	4b01      	ldr	r3, [pc, #4]	; (10009248 <xTaskGenericNotifyStateClear+0x2c>)
10009244:	685c      	ldr	r4, [r3, #4]
10009246:	e7ee      	b.n	10009226 <xTaskGenericNotifyStateClear+0xa>
10009248:	200010d4 	.word	0x200010d4

1000924c <ulTaskGenericNotifyValueClear>:
1000924c:	b570      	push	{r4, r5, r6, lr}
1000924e:	0004      	movs	r4, r0
10009250:	000d      	movs	r5, r1
10009252:	0016      	movs	r6, r2
10009254:	2800      	cmp	r0, #0
10009256:	d00b      	beq.n	10009270 <ulTaskGenericNotifyValueClear+0x24>
10009258:	f000 fb04 	bl	10009864 <vPortEnterCritical>
1000925c:	00a8      	lsls	r0, r5, #2
1000925e:	1820      	adds	r0, r4, r0
10009260:	6d84      	ldr	r4, [r0, #88]	; 0x58
10009262:	6d83      	ldr	r3, [r0, #88]	; 0x58
10009264:	43b3      	bics	r3, r6
10009266:	6583      	str	r3, [r0, #88]	; 0x58
10009268:	f000 fb08 	bl	1000987c <vPortExitCritical>
1000926c:	0020      	movs	r0, r4
1000926e:	bd70      	pop	{r4, r5, r6, pc}
10009270:	4b01      	ldr	r3, [pc, #4]	; (10009278 <ulTaskGenericNotifyValueClear+0x2c>)
10009272:	685c      	ldr	r4, [r3, #4]
10009274:	e7f0      	b.n	10009258 <ulTaskGenericNotifyValueClear+0xc>
10009276:	46c0      	nop			; (mov r8, r8)
10009278:	200010d4 	.word	0x200010d4

1000927c <prvTimerTask>:
1000927c:	b5f0      	push	{r4, r5, r6, r7, lr}
1000927e:	4645      	mov	r5, r8
10009280:	46de      	mov	lr, fp
10009282:	4657      	mov	r7, sl
10009284:	464e      	mov	r6, r9
10009286:	b5e0      	push	{r5, r6, r7, lr}
10009288:	4dc0      	ldr	r5, [pc, #768]	; (1000958c <prvTimerTask+0x310>)
1000928a:	b087      	sub	sp, #28
1000928c:	682b      	ldr	r3, [r5, #0]
1000928e:	681c      	ldr	r4, [r3, #0]
10009290:	2c00      	cmp	r4, #0
10009292:	d100      	bne.n	10009296 <prvTimerTask+0x1a>
10009294:	e0d6      	b.n	10009444 <prvTimerTask+0x1c8>
10009296:	68db      	ldr	r3, [r3, #12]
10009298:	681c      	ldr	r4, [r3, #0]
1000929a:	f7ff fa17 	bl	100086cc <vTaskSuspendAll>
1000929e:	f7ff fb1f 	bl	100088e0 <xTaskGetTickCount>
100092a2:	686b      	ldr	r3, [r5, #4]
100092a4:	4681      	mov	r9, r0
100092a6:	4298      	cmp	r0, r3
100092a8:	d200      	bcs.n	100092ac <prvTimerTask+0x30>
100092aa:	e0da      	b.n	10009462 <prvTimerTask+0x1e6>
100092ac:	6068      	str	r0, [r5, #4]
100092ae:	4284      	cmp	r4, r0
100092b0:	d800      	bhi.n	100092b4 <prvTimerTask+0x38>
100092b2:	e12e      	b.n	10009512 <prvTimerTask+0x296>
100092b4:	2200      	movs	r2, #0
100092b6:	464b      	mov	r3, r9
100092b8:	68e8      	ldr	r0, [r5, #12]
100092ba:	1ae1      	subs	r1, r4, r3
100092bc:	f001 fc36 	bl	1000ab2c <vQueueWaitForMessageRestricted>
100092c0:	f7ff fa0c 	bl	100086dc <xTaskResumeAll>
100092c4:	2800      	cmp	r0, #0
100092c6:	d100      	bne.n	100092ca <prvTimerTask+0x4e>
100092c8:	e115      	b.n	100094f6 <prvTimerTask+0x27a>
100092ca:	2324      	movs	r3, #36	; 0x24
100092cc:	469a      	mov	sl, r3
100092ce:	2200      	movs	r2, #0
100092d0:	68e8      	ldr	r0, [r5, #12]
100092d2:	a903      	add	r1, sp, #12
100092d4:	f000 fe7e 	bl	10009fd4 <xQueueReceive>
100092d8:	2800      	cmp	r0, #0
100092da:	d0d7      	beq.n	1000928c <prvTimerTask+0x10>
100092dc:	9b03      	ldr	r3, [sp, #12]
100092de:	9301      	str	r3, [sp, #4]
100092e0:	2b00      	cmp	r3, #0
100092e2:	dbf4      	blt.n	100092ce <prvTimerTask+0x52>
100092e4:	9b05      	ldr	r3, [sp, #20]
100092e6:	4698      	mov	r8, r3
100092e8:	695b      	ldr	r3, [r3, #20]
100092ea:	2b00      	cmp	r3, #0
100092ec:	d003      	beq.n	100092f6 <prvTimerTask+0x7a>
100092ee:	4643      	mov	r3, r8
100092f0:	1d18      	adds	r0, r3, #4
100092f2:	f000 fb73 	bl	100099dc <uxListRemove>
100092f6:	f7ff faf3 	bl	100088e0 <xTaskGetTickCount>
100092fa:	686b      	ldr	r3, [r5, #4]
100092fc:	4683      	mov	fp, r0
100092fe:	4298      	cmp	r0, r3
10009300:	d30f      	bcc.n	10009322 <prvTimerTask+0xa6>
10009302:	465b      	mov	r3, fp
10009304:	606b      	str	r3, [r5, #4]
10009306:	9b03      	ldr	r3, [sp, #12]
10009308:	2b09      	cmp	r3, #9
1000930a:	d8e0      	bhi.n	100092ce <prvTimerTask+0x52>
1000930c:	4aa0      	ldr	r2, [pc, #640]	; (10009590 <prvTimerTask+0x314>)
1000930e:	009b      	lsls	r3, r3, #2
10009310:	58d3      	ldr	r3, [r2, r3]
10009312:	469f      	mov	pc, r3
10009314:	2201      	movs	r2, #1
10009316:	4393      	bics	r3, r2
10009318:	4652      	mov	r2, sl
1000931a:	54a3      	strb	r3, [r4, r2]
1000931c:	0020      	movs	r0, r4
1000931e:	6a23      	ldr	r3, [r4, #32]
10009320:	4798      	blx	r3
10009322:	682b      	ldr	r3, [r5, #0]
10009324:	681a      	ldr	r2, [r3, #0]
10009326:	2a00      	cmp	r2, #0
10009328:	d100      	bne.n	1000932c <prvTimerTask+0xb0>
1000932a:	e0e0      	b.n	100094ee <prvTimerTask+0x272>
1000932c:	68db      	ldr	r3, [r3, #12]
1000932e:	68dc      	ldr	r4, [r3, #12]
10009330:	681e      	ldr	r6, [r3, #0]
10009332:	1d23      	adds	r3, r4, #4
10009334:	0018      	movs	r0, r3
10009336:	4699      	mov	r9, r3
10009338:	f000 fb50 	bl	100099dc <uxListRemove>
1000933c:	4653      	mov	r3, sl
1000933e:	2204      	movs	r2, #4
10009340:	5ce3      	ldrb	r3, [r4, r3]
10009342:	421a      	tst	r2, r3
10009344:	d0e6      	beq.n	10009314 <prvTimerTask+0x98>
10009346:	69a3      	ldr	r3, [r4, #24]
10009348:	6124      	str	r4, [r4, #16]
1000934a:	18f7      	adds	r7, r6, r3
1000934c:	43f6      	mvns	r6, r6
1000934e:	6067      	str	r7, [r4, #4]
10009350:	42b3      	cmp	r3, r6
10009352:	d80a      	bhi.n	1000936a <prvTimerTask+0xee>
10009354:	003e      	movs	r6, r7
10009356:	43f6      	mvns	r6, r6
10009358:	6a23      	ldr	r3, [r4, #32]
1000935a:	0020      	movs	r0, r4
1000935c:	4798      	blx	r3
1000935e:	69a3      	ldr	r3, [r4, #24]
10009360:	6124      	str	r4, [r4, #16]
10009362:	18ff      	adds	r7, r7, r3
10009364:	6067      	str	r7, [r4, #4]
10009366:	42b3      	cmp	r3, r6
10009368:	d9f4      	bls.n	10009354 <prvTimerTask+0xd8>
1000936a:	4649      	mov	r1, r9
1000936c:	68a8      	ldr	r0, [r5, #8]
1000936e:	f000 fb1d 	bl	100099ac <vListInsert>
10009372:	e7d3      	b.n	1000931c <prvTimerTask+0xa0>
10009374:	4643      	mov	r3, r8
10009376:	4652      	mov	r2, sl
10009378:	5c98      	ldrb	r0, [r3, r2]
1000937a:	2301      	movs	r3, #1
1000937c:	4642      	mov	r2, r8
1000937e:	4651      	mov	r1, sl
10009380:	4644      	mov	r4, r8
10009382:	4303      	orrs	r3, r0
10009384:	5453      	strb	r3, [r2, r1]
10009386:	6992      	ldr	r2, [r2, #24]
10009388:	9904      	ldr	r1, [sp, #16]
1000938a:	6124      	str	r4, [r4, #16]
1000938c:	188b      	adds	r3, r1, r2
1000938e:	6063      	str	r3, [r4, #4]
10009390:	455b      	cmp	r3, fp
10009392:	d900      	bls.n	10009396 <prvTimerTask+0x11a>
10009394:	e0b2      	b.n	100094fc <prvTimerTask+0x280>
10009396:	465c      	mov	r4, fp
10009398:	1a61      	subs	r1, r4, r1
1000939a:	428a      	cmp	r2, r1
1000939c:	d900      	bls.n	100093a0 <prvTimerTask+0x124>
1000939e:	e0ef      	b.n	10009580 <prvTimerTask+0x304>
100093a0:	0741      	lsls	r1, r0, #29
100093a2:	d414      	bmi.n	100093ce <prvTimerTask+0x152>
100093a4:	2301      	movs	r3, #1
100093a6:	4652      	mov	r2, sl
100093a8:	4398      	bics	r0, r3
100093aa:	4643      	mov	r3, r8
100093ac:	5498      	strb	r0, [r3, r2]
100093ae:	4643      	mov	r3, r8
100093b0:	4640      	mov	r0, r8
100093b2:	6a1b      	ldr	r3, [r3, #32]
100093b4:	4798      	blx	r3
100093b6:	e78a      	b.n	100092ce <prvTimerTask+0x52>
100093b8:	4659      	mov	r1, fp
100093ba:	1acb      	subs	r3, r1, r3
100093bc:	4293      	cmp	r3, r2
100093be:	d200      	bcs.n	100093c2 <prvTimerTask+0x146>
100093c0:	e0d8      	b.n	10009574 <prvTimerTask+0x2f8>
100093c2:	4640      	mov	r0, r8
100093c4:	6a03      	ldr	r3, [r0, #32]
100093c6:	4798      	blx	r3
100093c8:	4643      	mov	r3, r8
100093ca:	699a      	ldr	r2, [r3, #24]
100093cc:	0023      	movs	r3, r4
100093ce:	4641      	mov	r1, r8
100093d0:	189c      	adds	r4, r3, r2
100093d2:	604c      	str	r4, [r1, #4]
100093d4:	6109      	str	r1, [r1, #16]
100093d6:	45a3      	cmp	fp, r4
100093d8:	d2ee      	bcs.n	100093b8 <prvTimerTask+0x13c>
100093da:	459b      	cmp	fp, r3
100093dc:	d201      	bcs.n	100093e2 <prvTimerTask+0x166>
100093de:	42a3      	cmp	r3, r4
100093e0:	d9ef      	bls.n	100093c2 <prvTimerTask+0x146>
100093e2:	4643      	mov	r3, r8
100093e4:	6828      	ldr	r0, [r5, #0]
100093e6:	1d19      	adds	r1, r3, #4
100093e8:	f000 fae0 	bl	100099ac <vListInsert>
100093ec:	e7df      	b.n	100093ae <prvTimerTask+0x132>
100093ee:	4643      	mov	r3, r8
100093f0:	4652      	mov	r2, sl
100093f2:	5c9b      	ldrb	r3, [r3, r2]
100093f4:	2201      	movs	r2, #1
100093f6:	4651      	mov	r1, sl
100093f8:	4393      	bics	r3, r2
100093fa:	4642      	mov	r2, r8
100093fc:	5453      	strb	r3, [r2, r1]
100093fe:	e766      	b.n	100092ce <prvTimerTask+0x52>
10009400:	4652      	mov	r2, sl
10009402:	4643      	mov	r3, r8
10009404:	5c9b      	ldrb	r3, [r3, r2]
10009406:	2201      	movs	r2, #1
10009408:	4651      	mov	r1, sl
1000940a:	4313      	orrs	r3, r2
1000940c:	4642      	mov	r2, r8
1000940e:	5453      	strb	r3, [r2, r1]
10009410:	9b04      	ldr	r3, [sp, #16]
10009412:	4641      	mov	r1, r8
10009414:	6193      	str	r3, [r2, #24]
10009416:	465a      	mov	r2, fp
10009418:	189a      	adds	r2, r3, r2
1000941a:	604a      	str	r2, [r1, #4]
1000941c:	6109      	str	r1, [r1, #16]
1000941e:	455a      	cmp	r2, fp
10009420:	d871      	bhi.n	10009506 <prvTimerTask+0x28a>
10009422:	2b00      	cmp	r3, #0
10009424:	d100      	bne.n	10009428 <prvTimerTask+0x1ac>
10009426:	e752      	b.n	100092ce <prvTimerTask+0x52>
10009428:	68a8      	ldr	r0, [r5, #8]
1000942a:	3104      	adds	r1, #4
1000942c:	f000 fabe 	bl	100099ac <vListInsert>
10009430:	e74d      	b.n	100092ce <prvTimerTask+0x52>
10009432:	4643      	mov	r3, r8
10009434:	4652      	mov	r2, sl
10009436:	5c9b      	ldrb	r3, [r3, r2]
10009438:	079a      	lsls	r2, r3, #30
1000943a:	d4db      	bmi.n	100093f4 <prvTimerTask+0x178>
1000943c:	4640      	mov	r0, r8
1000943e:	f000 f9c3 	bl	100097c8 <vPortFree>
10009442:	e744      	b.n	100092ce <prvTimerTask+0x52>
10009444:	f7ff f942 	bl	100086cc <vTaskSuspendAll>
10009448:	f7ff fa4a 	bl	100088e0 <xTaskGetTickCount>
1000944c:	686b      	ldr	r3, [r5, #4]
1000944e:	4681      	mov	r9, r0
10009450:	4298      	cmp	r0, r3
10009452:	d306      	bcc.n	10009462 <prvTimerTask+0x1e6>
10009454:	464b      	mov	r3, r9
10009456:	606b      	str	r3, [r5, #4]
10009458:	68ab      	ldr	r3, [r5, #8]
1000945a:	681a      	ldr	r2, [r3, #0]
1000945c:	4253      	negs	r3, r2
1000945e:	415a      	adcs	r2, r3
10009460:	e729      	b.n	100092b6 <prvTimerTask+0x3a>
10009462:	682b      	ldr	r3, [r5, #0]
10009464:	681a      	ldr	r2, [r3, #0]
10009466:	2a00      	cmp	r2, #0
10009468:	d039      	beq.n	100094de <prvTimerTask+0x262>
1000946a:	2224      	movs	r2, #36	; 0x24
1000946c:	4692      	mov	sl, r2
1000946e:	3a20      	subs	r2, #32
10009470:	4693      	mov	fp, r2
10009472:	e00a      	b.n	1000948a <prvTimerTask+0x20e>
10009474:	2201      	movs	r2, #1
10009476:	4393      	bics	r3, r2
10009478:	4652      	mov	r2, sl
1000947a:	54a3      	strb	r3, [r4, r2]
1000947c:	6a23      	ldr	r3, [r4, #32]
1000947e:	0020      	movs	r0, r4
10009480:	4798      	blx	r3
10009482:	682b      	ldr	r3, [r5, #0]
10009484:	681a      	ldr	r2, [r3, #0]
10009486:	2a00      	cmp	r2, #0
10009488:	d029      	beq.n	100094de <prvTimerTask+0x262>
1000948a:	68db      	ldr	r3, [r3, #12]
1000948c:	68dc      	ldr	r4, [r3, #12]
1000948e:	681e      	ldr	r6, [r3, #0]
10009490:	1d23      	adds	r3, r4, #4
10009492:	0018      	movs	r0, r3
10009494:	4698      	mov	r8, r3
10009496:	f000 faa1 	bl	100099dc <uxListRemove>
1000949a:	4653      	mov	r3, sl
1000949c:	465a      	mov	r2, fp
1000949e:	5ce3      	ldrb	r3, [r4, r3]
100094a0:	421a      	tst	r2, r3
100094a2:	d0e7      	beq.n	10009474 <prvTimerTask+0x1f8>
100094a4:	69a3      	ldr	r3, [r4, #24]
100094a6:	6124      	str	r4, [r4, #16]
100094a8:	18f7      	adds	r7, r6, r3
100094aa:	43f6      	mvns	r6, r6
100094ac:	6067      	str	r7, [r4, #4]
100094ae:	42b3      	cmp	r3, r6
100094b0:	d80a      	bhi.n	100094c8 <prvTimerTask+0x24c>
100094b2:	003e      	movs	r6, r7
100094b4:	43f6      	mvns	r6, r6
100094b6:	6a23      	ldr	r3, [r4, #32]
100094b8:	0020      	movs	r0, r4
100094ba:	4798      	blx	r3
100094bc:	69a3      	ldr	r3, [r4, #24]
100094be:	6124      	str	r4, [r4, #16]
100094c0:	18ff      	adds	r7, r7, r3
100094c2:	6067      	str	r7, [r4, #4]
100094c4:	42b3      	cmp	r3, r6
100094c6:	d9f4      	bls.n	100094b2 <prvTimerTask+0x236>
100094c8:	4641      	mov	r1, r8
100094ca:	68a8      	ldr	r0, [r5, #8]
100094cc:	f000 fa6e 	bl	100099ac <vListInsert>
100094d0:	6a23      	ldr	r3, [r4, #32]
100094d2:	0020      	movs	r0, r4
100094d4:	4798      	blx	r3
100094d6:	682b      	ldr	r3, [r5, #0]
100094d8:	681a      	ldr	r2, [r3, #0]
100094da:	2a00      	cmp	r2, #0
100094dc:	d1d5      	bne.n	1000948a <prvTimerTask+0x20e>
100094de:	68aa      	ldr	r2, [r5, #8]
100094e0:	60ab      	str	r3, [r5, #8]
100094e2:	464b      	mov	r3, r9
100094e4:	602a      	str	r2, [r5, #0]
100094e6:	606b      	str	r3, [r5, #4]
100094e8:	f7ff f8f8 	bl	100086dc <xTaskResumeAll>
100094ec:	e6ed      	b.n	100092ca <prvTimerTask+0x4e>
100094ee:	68aa      	ldr	r2, [r5, #8]
100094f0:	60ab      	str	r3, [r5, #8]
100094f2:	602a      	str	r2, [r5, #0]
100094f4:	e705      	b.n	10009302 <prvTimerTask+0x86>
100094f6:	f000 f9a9 	bl	1000984c <vPortYield>
100094fa:	e6e6      	b.n	100092ca <prvTimerTask+0x4e>
100094fc:	4559      	cmp	r1, fp
100094fe:	d902      	bls.n	10009506 <prvTimerTask+0x28a>
10009500:	4299      	cmp	r1, r3
10009502:	d800      	bhi.n	10009506 <prvTimerTask+0x28a>
10009504:	e74c      	b.n	100093a0 <prvTimerTask+0x124>
10009506:	4641      	mov	r1, r8
10009508:	6828      	ldr	r0, [r5, #0]
1000950a:	3104      	adds	r1, #4
1000950c:	f000 fa4e 	bl	100099ac <vListInsert>
10009510:	e6dd      	b.n	100092ce <prvTimerTask+0x52>
10009512:	f7ff f8e3 	bl	100086dc <xTaskResumeAll>
10009516:	682b      	ldr	r3, [r5, #0]
10009518:	68db      	ldr	r3, [r3, #12]
1000951a:	68de      	ldr	r6, [r3, #12]
1000951c:	1d33      	adds	r3, r6, #4
1000951e:	0018      	movs	r0, r3
10009520:	4698      	mov	r8, r3
10009522:	f000 fa5b 	bl	100099dc <uxListRemove>
10009526:	2224      	movs	r2, #36	; 0x24
10009528:	5cb3      	ldrb	r3, [r6, r2]
1000952a:	0759      	lsls	r1, r3, #29
1000952c:	d40e      	bmi.n	1000954c <prvTimerTask+0x2d0>
1000952e:	2101      	movs	r1, #1
10009530:	438b      	bics	r3, r1
10009532:	54b3      	strb	r3, [r6, r2]
10009534:	0030      	movs	r0, r6
10009536:	6a33      	ldr	r3, [r6, #32]
10009538:	4798      	blx	r3
1000953a:	e6c6      	b.n	100092ca <prvTimerTask+0x4e>
1000953c:	464a      	mov	r2, r9
1000953e:	1b14      	subs	r4, r2, r4
10009540:	42a3      	cmp	r3, r4
10009542:	d812      	bhi.n	1000956a <prvTimerTask+0x2ee>
10009544:	0030      	movs	r0, r6
10009546:	6a33      	ldr	r3, [r6, #32]
10009548:	4798      	blx	r3
1000954a:	003c      	movs	r4, r7
1000954c:	69b3      	ldr	r3, [r6, #24]
1000954e:	6136      	str	r6, [r6, #16]
10009550:	18e7      	adds	r7, r4, r3
10009552:	6077      	str	r7, [r6, #4]
10009554:	45b9      	cmp	r9, r7
10009556:	d2f1      	bcs.n	1000953c <prvTimerTask+0x2c0>
10009558:	45a1      	cmp	r9, r4
1000955a:	d201      	bcs.n	10009560 <prvTimerTask+0x2e4>
1000955c:	42bc      	cmp	r4, r7
1000955e:	d9f1      	bls.n	10009544 <prvTimerTask+0x2c8>
10009560:	4641      	mov	r1, r8
10009562:	6828      	ldr	r0, [r5, #0]
10009564:	f000 fa22 	bl	100099ac <vListInsert>
10009568:	e7e4      	b.n	10009534 <prvTimerTask+0x2b8>
1000956a:	4641      	mov	r1, r8
1000956c:	68a8      	ldr	r0, [r5, #8]
1000956e:	f000 fa1d 	bl	100099ac <vListInsert>
10009572:	e7df      	b.n	10009534 <prvTimerTask+0x2b8>
10009574:	4643      	mov	r3, r8
10009576:	68a8      	ldr	r0, [r5, #8]
10009578:	1d19      	adds	r1, r3, #4
1000957a:	f000 fa17 	bl	100099ac <vListInsert>
1000957e:	e716      	b.n	100093ae <prvTimerTask+0x132>
10009580:	4641      	mov	r1, r8
10009582:	68a8      	ldr	r0, [r5, #8]
10009584:	3104      	adds	r1, #4
10009586:	f000 fa11 	bl	100099ac <vListInsert>
1000958a:	e6a0      	b.n	100092ce <prvTimerTask+0x52>
1000958c:	20001158 	.word	0x20001158
10009590:	1000bb28 	.word	0x1000bb28

10009594 <xTimerCreateTimerTask>:
10009594:	b570      	push	{r4, r5, r6, lr}
10009596:	b082      	sub	sp, #8
10009598:	f000 f964 	bl	10009864 <vPortEnterCritical>
1000959c:	4c16      	ldr	r4, [pc, #88]	; (100095f8 <xTimerCreateTimerTask+0x64>)
1000959e:	68e3      	ldr	r3, [r4, #12]
100095a0:	2b00      	cmp	r3, #0
100095a2:	d011      	beq.n	100095c8 <xTimerCreateTimerTask+0x34>
100095a4:	f000 f96a 	bl	1000987c <vPortExitCritical>
100095a8:	68e3      	ldr	r3, [r4, #12]
100095aa:	2000      	movs	r0, #0
100095ac:	2b00      	cmp	r3, #0
100095ae:	d009      	beq.n	100095c4 <xTimerCreateTimerTask+0x30>
100095b0:	2303      	movs	r3, #3
100095b2:	3438      	adds	r4, #56	; 0x38
100095b4:	9300      	str	r3, [sp, #0]
100095b6:	2280      	movs	r2, #128	; 0x80
100095b8:	2300      	movs	r3, #0
100095ba:	4910      	ldr	r1, [pc, #64]	; (100095fc <xTimerCreateTimerTask+0x68>)
100095bc:	4810      	ldr	r0, [pc, #64]	; (10009600 <xTimerCreateTimerTask+0x6c>)
100095be:	9401      	str	r4, [sp, #4]
100095c0:	f7fe fcb2 	bl	10007f28 <xTaskCreate>
100095c4:	b002      	add	sp, #8
100095c6:	bd70      	pop	{r4, r5, r6, pc}
100095c8:	0026      	movs	r6, r4
100095ca:	0025      	movs	r5, r4
100095cc:	3610      	adds	r6, #16
100095ce:	0030      	movs	r0, r6
100095d0:	3524      	adds	r5, #36	; 0x24
100095d2:	f000 f9cf 	bl	10009974 <vListInitialise>
100095d6:	0028      	movs	r0, r5
100095d8:	f000 f9cc 	bl	10009974 <vListInitialise>
100095dc:	2200      	movs	r2, #0
100095de:	210c      	movs	r1, #12
100095e0:	200a      	movs	r0, #10
100095e2:	6026      	str	r6, [r4, #0]
100095e4:	60a5      	str	r5, [r4, #8]
100095e6:	f000 fa5b 	bl	10009aa0 <xQueueGenericCreate>
100095ea:	60e0      	str	r0, [r4, #12]
100095ec:	2800      	cmp	r0, #0
100095ee:	d0d9      	beq.n	100095a4 <xTimerCreateTimerTask+0x10>
100095f0:	4904      	ldr	r1, [pc, #16]	; (10009604 <xTimerCreateTimerTask+0x70>)
100095f2:	f001 f999 	bl	1000a928 <vQueueAddToRegistry>
100095f6:	e7d5      	b.n	100095a4 <xTimerCreateTimerTask+0x10>
100095f8:	20001158 	.word	0x20001158
100095fc:	1000bb58 	.word	0x1000bb58
10009600:	1000927d 	.word	0x1000927d
10009604:	1000bb50 	.word	0x1000bb50

10009608 <xTimerCreate>:
10009608:	b5f8      	push	{r3, r4, r5, r6, r7, lr}
1000960a:	4645      	mov	r5, r8
1000960c:	46de      	mov	lr, fp
1000960e:	4657      	mov	r7, sl
10009610:	464e      	mov	r6, r9
10009612:	b5e0      	push	{r5, r6, r7, lr}
10009614:	0007      	movs	r7, r0
10009616:	2028      	movs	r0, #40	; 0x28
10009618:	4688      	mov	r8, r1
1000961a:	0016      	movs	r6, r2
1000961c:	001d      	movs	r5, r3
1000961e:	f000 f8c7 	bl	100097b0 <pvPortMalloc>
10009622:	1e04      	subs	r4, r0, #0
10009624:	d01b      	beq.n	1000965e <xTimerCreate+0x56>
10009626:	2324      	movs	r3, #36	; 0x24
10009628:	2200      	movs	r2, #0
1000962a:	54c2      	strb	r2, [r0, r3]
1000962c:	f000 f91a 	bl	10009864 <vPortEnterCritical>
10009630:	4b1d      	ldr	r3, [pc, #116]	; (100096a8 <xTimerCreate+0xa0>)
10009632:	4699      	mov	r9, r3
10009634:	68db      	ldr	r3, [r3, #12]
10009636:	2b00      	cmp	r3, #0
10009638:	d018      	beq.n	1000966c <xTimerCreate+0x64>
1000963a:	f000 f91f 	bl	1000987c <vPortExitCritical>
1000963e:	4643      	mov	r3, r8
10009640:	61a3      	str	r3, [r4, #24]
10009642:	9b0a      	ldr	r3, [sp, #40]	; 0x28
10009644:	6027      	str	r7, [r4, #0]
10009646:	61e5      	str	r5, [r4, #28]
10009648:	6223      	str	r3, [r4, #32]
1000964a:	1d20      	adds	r0, r4, #4
1000964c:	f000 f99e 	bl	1000998c <vListInitialiseItem>
10009650:	2e00      	cmp	r6, #0
10009652:	d004      	beq.n	1000965e <xTimerCreate+0x56>
10009654:	2224      	movs	r2, #36	; 0x24
10009656:	2104      	movs	r1, #4
10009658:	5ca3      	ldrb	r3, [r4, r2]
1000965a:	430b      	orrs	r3, r1
1000965c:	54a3      	strb	r3, [r4, r2]
1000965e:	0020      	movs	r0, r4
10009660:	bcf0      	pop	{r4, r5, r6, r7}
10009662:	46bb      	mov	fp, r7
10009664:	46b2      	mov	sl, r6
10009666:	46a9      	mov	r9, r5
10009668:	46a0      	mov	r8, r4
1000966a:	bdf8      	pop	{r3, r4, r5, r6, r7, pc}
1000966c:	3310      	adds	r3, #16
1000966e:	444b      	add	r3, r9
10009670:	0018      	movs	r0, r3
10009672:	469b      	mov	fp, r3
10009674:	f000 f97e 	bl	10009974 <vListInitialise>
10009678:	2324      	movs	r3, #36	; 0x24
1000967a:	444b      	add	r3, r9
1000967c:	0018      	movs	r0, r3
1000967e:	469a      	mov	sl, r3
10009680:	f000 f978 	bl	10009974 <vListInitialise>
10009684:	464b      	mov	r3, r9
10009686:	465a      	mov	r2, fp
10009688:	601a      	str	r2, [r3, #0]
1000968a:	4652      	mov	r2, sl
1000968c:	210c      	movs	r1, #12
1000968e:	609a      	str	r2, [r3, #8]
10009690:	200a      	movs	r0, #10
10009692:	2200      	movs	r2, #0
10009694:	f000 fa04 	bl	10009aa0 <xQueueGenericCreate>
10009698:	464b      	mov	r3, r9
1000969a:	60d8      	str	r0, [r3, #12]
1000969c:	2800      	cmp	r0, #0
1000969e:	d0cc      	beq.n	1000963a <xTimerCreate+0x32>
100096a0:	4902      	ldr	r1, [pc, #8]	; (100096ac <xTimerCreate+0xa4>)
100096a2:	f001 f941 	bl	1000a928 <vQueueAddToRegistry>
100096a6:	e7c8      	b.n	1000963a <xTimerCreate+0x32>
100096a8:	20001158 	.word	0x20001158
100096ac:	1000bb50 	.word	0x1000bb50

100096b0 <xTimerGenericCommand>:
100096b0:	b570      	push	{r4, r5, r6, lr}
100096b2:	4e13      	ldr	r6, [pc, #76]	; (10009700 <xTimerGenericCommand+0x50>)
100096b4:	001c      	movs	r4, r3
100096b6:	68f5      	ldr	r5, [r6, #12]
100096b8:	b084      	sub	sp, #16
100096ba:	2d00      	cmp	r5, #0
100096bc:	d017      	beq.n	100096ee <xTimerGenericCommand+0x3e>
100096be:	9101      	str	r1, [sp, #4]
100096c0:	9202      	str	r2, [sp, #8]
100096c2:	9003      	str	r0, [sp, #12]
100096c4:	2905      	cmp	r1, #5
100096c6:	dc0a      	bgt.n	100096de <xTimerGenericCommand+0x2e>
100096c8:	f7ff fb8c 	bl	10008de4 <xTaskGetSchedulerState>
100096cc:	2802      	cmp	r0, #2
100096ce:	d010      	beq.n	100096f2 <xTimerGenericCommand+0x42>
100096d0:	2300      	movs	r3, #0
100096d2:	2200      	movs	r2, #0
100096d4:	68f0      	ldr	r0, [r6, #12]
100096d6:	a901      	add	r1, sp, #4
100096d8:	f000 fa2e 	bl	10009b38 <xQueueGenericSend>
100096dc:	e005      	b.n	100096ea <xTimerGenericCommand+0x3a>
100096de:	2300      	movs	r3, #0
100096e0:	0022      	movs	r2, r4
100096e2:	0028      	movs	r0, r5
100096e4:	a901      	add	r1, sp, #4
100096e6:	f000 fbb3 	bl	10009e50 <xQueueGenericSendFromISR>
100096ea:	b004      	add	sp, #16
100096ec:	bd70      	pop	{r4, r5, r6, pc}
100096ee:	2000      	movs	r0, #0
100096f0:	e7fb      	b.n	100096ea <xTimerGenericCommand+0x3a>
100096f2:	2300      	movs	r3, #0
100096f4:	68f0      	ldr	r0, [r6, #12]
100096f6:	9a08      	ldr	r2, [sp, #32]
100096f8:	a901      	add	r1, sp, #4
100096fa:	f000 fa1d 	bl	10009b38 <xQueueGenericSend>
100096fe:	e7f4      	b.n	100096ea <xTimerGenericCommand+0x3a>
10009700:	20001158 	.word	0x20001158

10009704 <xTimerGetTimerDaemonTaskHandle>:
10009704:	4b01      	ldr	r3, [pc, #4]	; (1000970c <xTimerGetTimerDaemonTaskHandle+0x8>)
10009706:	6b98      	ldr	r0, [r3, #56]	; 0x38
10009708:	4770      	bx	lr
1000970a:	46c0      	nop			; (mov r8, r8)
1000970c:	20001158 	.word	0x20001158

10009710 <xTimerGetPeriod>:
10009710:	6980      	ldr	r0, [r0, #24]
10009712:	4770      	bx	lr

10009714 <vTimerSetReloadMode>:
10009714:	b570      	push	{r4, r5, r6, lr}
10009716:	0004      	movs	r4, r0
10009718:	000d      	movs	r5, r1
1000971a:	f000 f8a3 	bl	10009864 <vPortEnterCritical>
1000971e:	2324      	movs	r3, #36	; 0x24
10009720:	2204      	movs	r2, #4
10009722:	5ce3      	ldrb	r3, [r4, r3]
10009724:	2d00      	cmp	r5, #0
10009726:	d005      	beq.n	10009734 <vTimerSetReloadMode+0x20>
10009728:	4313      	orrs	r3, r2
1000972a:	2224      	movs	r2, #36	; 0x24
1000972c:	54a3      	strb	r3, [r4, r2]
1000972e:	f000 f8a5 	bl	1000987c <vPortExitCritical>
10009732:	bd70      	pop	{r4, r5, r6, pc}
10009734:	4393      	bics	r3, r2
10009736:	e7f8      	b.n	1000972a <vTimerSetReloadMode+0x16>

10009738 <xTimerGetReloadMode>:
10009738:	b510      	push	{r4, lr}
1000973a:	0004      	movs	r4, r0
1000973c:	f000 f892 	bl	10009864 <vPortEnterCritical>
10009740:	2324      	movs	r3, #36	; 0x24
10009742:	5ce4      	ldrb	r4, [r4, r3]
10009744:	f000 f89a 	bl	1000987c <vPortExitCritical>
10009748:	0764      	lsls	r4, r4, #29
1000974a:	0fe4      	lsrs	r4, r4, #31
1000974c:	0020      	movs	r0, r4
1000974e:	bd10      	pop	{r4, pc}

10009750 <uxTimerGetReloadMode>:
10009750:	b510      	push	{r4, lr}
10009752:	0004      	movs	r4, r0
10009754:	f000 f886 	bl	10009864 <vPortEnterCritical>
10009758:	2324      	movs	r3, #36	; 0x24
1000975a:	5ce4      	ldrb	r4, [r4, r3]
1000975c:	f000 f88e 	bl	1000987c <vPortExitCritical>
10009760:	0764      	lsls	r4, r4, #29
10009762:	0fe4      	lsrs	r4, r4, #31
10009764:	0020      	movs	r0, r4
10009766:	bd10      	pop	{r4, pc}

10009768 <xTimerGetExpiryTime>:
10009768:	6840      	ldr	r0, [r0, #4]
1000976a:	4770      	bx	lr

1000976c <pcTimerGetName>:
1000976c:	6800      	ldr	r0, [r0, #0]
1000976e:	4770      	bx	lr

10009770 <xTimerIsTimerActive>:
10009770:	b510      	push	{r4, lr}
10009772:	0004      	movs	r4, r0
10009774:	f000 f876 	bl	10009864 <vPortEnterCritical>
10009778:	2324      	movs	r3, #36	; 0x24
1000977a:	5ce3      	ldrb	r3, [r4, r3]
1000977c:	2401      	movs	r4, #1
1000977e:	401c      	ands	r4, r3
10009780:	f000 f87c 	bl	1000987c <vPortExitCritical>
10009784:	0020      	movs	r0, r4
10009786:	bd10      	pop	{r4, pc}

10009788 <pvTimerGetTimerID>:
10009788:	b510      	push	{r4, lr}
1000978a:	0004      	movs	r4, r0
1000978c:	f000 f86a 	bl	10009864 <vPortEnterCritical>
10009790:	69e4      	ldr	r4, [r4, #28]
10009792:	f000 f873 	bl	1000987c <vPortExitCritical>
10009796:	0020      	movs	r0, r4
10009798:	bd10      	pop	{r4, pc}
1000979a:	46c0      	nop			; (mov r8, r8)

1000979c <vTimerSetTimerID>:
1000979c:	b570      	push	{r4, r5, r6, lr}
1000979e:	000d      	movs	r5, r1
100097a0:	0004      	movs	r4, r0
100097a2:	f000 f85f 	bl	10009864 <vPortEnterCritical>
100097a6:	61e5      	str	r5, [r4, #28]
100097a8:	f000 f868 	bl	1000987c <vPortExitCritical>
100097ac:	bd70      	pop	{r4, r5, r6, pc}
100097ae:	46c0      	nop			; (mov r8, r8)

100097b0 <pvPortMalloc>:
100097b0:	b510      	push	{r4, lr}
100097b2:	0004      	movs	r4, r0
100097b4:	f7fe ff8a 	bl	100086cc <vTaskSuspendAll>
100097b8:	0020      	movs	r0, r4
100097ba:	f7fb fa75 	bl	10004ca8 <__wrap_malloc>
100097be:	0004      	movs	r4, r0
100097c0:	f7fe ff8c 	bl	100086dc <xTaskResumeAll>
100097c4:	0020      	movs	r0, r4
100097c6:	bd10      	pop	{r4, pc}

100097c8 <vPortFree>:
100097c8:	b510      	push	{r4, lr}
100097ca:	1e04      	subs	r4, r0, #0
100097cc:	d006      	beq.n	100097dc <vPortFree+0x14>
100097ce:	f7fe ff7d 	bl	100086cc <vTaskSuspendAll>
100097d2:	0020      	movs	r0, r4
100097d4:	f7fb fa7a 	bl	10004ccc <__wrap_free>
100097d8:	f7fe ff80 	bl	100086dc <xTaskResumeAll>
100097dc:	bd10      	pop	{r4, pc}
100097de:	46c0      	nop			; (mov r8, r8)

100097e0 <prvTaskExitError>:
100097e0:	2300      	movs	r3, #0
100097e2:	b082      	sub	sp, #8
100097e4:	9301      	str	r3, [sp, #4]
100097e6:	b672      	cpsid	i
100097e8:	9b01      	ldr	r3, [sp, #4]
100097ea:	2b00      	cmp	r3, #0
100097ec:	d0fc      	beq.n	100097e8 <prvTaskExitError+0x8>
100097ee:	b002      	add	sp, #8
100097f0:	4770      	bx	lr
100097f2:	46c0      	nop			; (mov r8, r8)

100097f4 <vPortStartFirstTask>:
100097f4:	4a0a      	ldr	r2, [pc, #40]	; (10009820 <pxCurrentTCBConst2>)
100097f6:	6813      	ldr	r3, [r2, #0]
100097f8:	6818      	ldr	r0, [r3, #0]
100097fa:	3020      	adds	r0, #32
100097fc:	f380 8809 	msr	PSP, r0
10009800:	2002      	movs	r0, #2
10009802:	f380 8814 	msr	CONTROL, r0
10009806:	f3bf 8f6f 	isb	sy
1000980a:	bc3f      	pop	{r0, r1, r2, r3, r4, r5}
1000980c:	46ae      	mov	lr, r5
1000980e:	bc08      	pop	{r3}
10009810:	bc04      	pop	{r2}
10009812:	b662      	cpsie	i
10009814:	4718      	bx	r3
10009816:	46c0      	nop			; (mov r8, r8)
10009818:	46c0      	nop			; (mov r8, r8)
1000981a:	46c0      	nop			; (mov r8, r8)
1000981c:	46c0      	nop			; (mov r8, r8)
1000981e:	46c0      	nop			; (mov r8, r8)

10009820 <pxCurrentTCBConst2>:
10009820:	200010d8 	.word	0x200010d8

10009824 <pxPortInitialiseStack>:
10009824:	b510      	push	{r4, lr}
10009826:	2480      	movs	r4, #128	; 0x80
10009828:	1f03      	subs	r3, r0, #4
1000982a:	0464      	lsls	r4, r4, #17
1000982c:	601c      	str	r4, [r3, #0]
1000982e:	3b04      	subs	r3, #4
10009830:	6019      	str	r1, [r3, #0]
10009832:	4903      	ldr	r1, [pc, #12]	; (10009840 <pxPortInitialiseStack+0x1c>)
10009834:	3b04      	subs	r3, #4
10009836:	6019      	str	r1, [r3, #0]
10009838:	3b14      	subs	r3, #20
1000983a:	3840      	subs	r0, #64	; 0x40
1000983c:	601a      	str	r2, [r3, #0]
1000983e:	bd10      	pop	{r4, pc}
10009840:	100097e1 	.word	0x100097e1

10009844 <isr_svcall>:
10009844:	4770      	bx	lr
10009846:	46c0      	nop			; (mov r8, r8)

10009848 <vPortEndScheduler>:
10009848:	4770      	bx	lr
1000984a:	46c0      	nop			; (mov r8, r8)

1000984c <vPortYield>:
1000984c:	2280      	movs	r2, #128	; 0x80
1000984e:	4b04      	ldr	r3, [pc, #16]	; (10009860 <vPortYield+0x14>)
10009850:	0552      	lsls	r2, r2, #21
10009852:	601a      	str	r2, [r3, #0]
10009854:	f3bf 8f4f 	dsb	sy
10009858:	f3bf 8f6f 	isb	sy
1000985c:	4770      	bx	lr
1000985e:	46c0      	nop			; (mov r8, r8)
10009860:	e000ed04 	.word	0xe000ed04

10009864 <vPortEnterCritical>:
10009864:	b672      	cpsid	i
10009866:	4a04      	ldr	r2, [pc, #16]	; (10009878 <vPortEnterCritical+0x14>)
10009868:	6813      	ldr	r3, [r2, #0]
1000986a:	3301      	adds	r3, #1
1000986c:	6013      	str	r3, [r2, #0]
1000986e:	f3bf 8f4f 	dsb	sy
10009872:	f3bf 8f6f 	isb	sy
10009876:	4770      	bx	lr
10009878:	2000046c 	.word	0x2000046c

1000987c <vPortExitCritical>:
1000987c:	4a03      	ldr	r2, [pc, #12]	; (1000988c <vPortExitCritical+0x10>)
1000987e:	6813      	ldr	r3, [r2, #0]
10009880:	3b01      	subs	r3, #1
10009882:	6013      	str	r3, [r2, #0]
10009884:	2b00      	cmp	r3, #0
10009886:	d100      	bne.n	1000988a <vPortExitCritical+0xe>
10009888:	b662      	cpsie	i
1000988a:	4770      	bx	lr
1000988c:	2000046c 	.word	0x2000046c

10009890 <ulSetInterruptMaskFromISR>:
10009890:	f3ef 8010 	mrs	r0, PRIMASK
10009894:	b672      	cpsid	i
10009896:	4770      	bx	lr

10009898 <vClearInterruptMaskFromISR>:
10009898:	f380 8810 	msr	PRIMASK, r0
1000989c:	4770      	bx	lr
1000989e:	46c0      	nop			; (mov r8, r8)

100098a0 <isr_pendsv>:
100098a0:	f3ef 8009 	mrs	r0, PSP
100098a4:	4b0e      	ldr	r3, [pc, #56]	; (100098e0 <pxCurrentTCBConst>)
100098a6:	681a      	ldr	r2, [r3, #0]
100098a8:	3820      	subs	r0, #32
100098aa:	6010      	str	r0, [r2, #0]
100098ac:	c0f0      	stmia	r0!, {r4, r5, r6, r7}
100098ae:	4644      	mov	r4, r8
100098b0:	464d      	mov	r5, r9
100098b2:	4656      	mov	r6, sl
100098b4:	465f      	mov	r7, fp
100098b6:	c0f0      	stmia	r0!, {r4, r5, r6, r7}
100098b8:	b508      	push	{r3, lr}
100098ba:	b672      	cpsid	i
100098bc:	f7ff f854 	bl	10008968 <vTaskSwitchContext>
100098c0:	b662      	cpsie	i
100098c2:	bc0c      	pop	{r2, r3}
100098c4:	6811      	ldr	r1, [r2, #0]
100098c6:	6808      	ldr	r0, [r1, #0]
100098c8:	3010      	adds	r0, #16
100098ca:	c8f0      	ldmia	r0!, {r4, r5, r6, r7}
100098cc:	46a0      	mov	r8, r4
100098ce:	46a9      	mov	r9, r5
100098d0:	46b2      	mov	sl, r6
100098d2:	46bb      	mov	fp, r7
100098d4:	f380 8809 	msr	PSP, r0
100098d8:	3820      	subs	r0, #32
100098da:	c8f0      	ldmia	r0!, {r4, r5, r6, r7}
100098dc:	4718      	bx	r3
100098de:	46c0      	nop			; (mov r8, r8)

100098e0 <pxCurrentTCBConst>:
100098e0:	200010d8 	.word	0x200010d8

100098e4 <isr_systick>:
100098e4:	b510      	push	{r4, lr}
100098e6:	f7ff ffd3 	bl	10009890 <ulSetInterruptMaskFromISR>
100098ea:	0004      	movs	r4, r0
100098ec:	f7ff f82a 	bl	10008944 <xTaskIncrementTick>
100098f0:	2800      	cmp	r0, #0
100098f2:	d003      	beq.n	100098fc <isr_systick+0x18>
100098f4:	2280      	movs	r2, #128	; 0x80
100098f6:	4b03      	ldr	r3, [pc, #12]	; (10009904 <isr_systick+0x20>)
100098f8:	0552      	lsls	r2, r2, #21
100098fa:	601a      	str	r2, [r3, #0]
100098fc:	0020      	movs	r0, r4
100098fe:	f7ff ffcb 	bl	10009898 <vClearInterruptMaskFromISR>
10009902:	bd10      	pop	{r4, pc}
10009904:	e000ed04 	.word	0xe000ed04

10009908 <vPortSetupTimerInterrupt>:
10009908:	2200      	movs	r2, #0
1000990a:	4b05      	ldr	r3, [pc, #20]	; (10009920 <vPortSetupTimerInterrupt+0x18>)
1000990c:	4905      	ldr	r1, [pc, #20]	; (10009924 <vPortSetupTimerInterrupt+0x1c>)
1000990e:	601a      	str	r2, [r3, #0]
10009910:	600a      	str	r2, [r1, #0]
10009912:	4a05      	ldr	r2, [pc, #20]	; (10009928 <vPortSetupTimerInterrupt+0x20>)
10009914:	4905      	ldr	r1, [pc, #20]	; (1000992c <vPortSetupTimerInterrupt+0x24>)
10009916:	6011      	str	r1, [r2, #0]
10009918:	2207      	movs	r2, #7
1000991a:	601a      	str	r2, [r3, #0]
1000991c:	4770      	bx	lr
1000991e:	46c0      	nop			; (mov r8, r8)
10009920:	e000e010 	.word	0xe000e010
10009924:	e000e018 	.word	0xe000e018
10009928:	e000e014 	.word	0xe000e014
1000992c:	00020787 	.word	0x00020787

10009930 <xPortStartScheduler>:
10009930:	22ff      	movs	r2, #255	; 0xff
10009932:	4b0e      	ldr	r3, [pc, #56]	; (1000996c <xPortStartScheduler+0x3c>)
10009934:	0412      	lsls	r2, r2, #16
10009936:	6819      	ldr	r1, [r3, #0]
10009938:	b510      	push	{r4, lr}
1000993a:	430a      	orrs	r2, r1
1000993c:	601a      	str	r2, [r3, #0]
1000993e:	22ff      	movs	r2, #255	; 0xff
10009940:	2400      	movs	r4, #0
10009942:	6819      	ldr	r1, [r3, #0]
10009944:	0612      	lsls	r2, r2, #24
10009946:	430a      	orrs	r2, r1
10009948:	b082      	sub	sp, #8
1000994a:	601a      	str	r2, [r3, #0]
1000994c:	f7ff ffdc 	bl	10009908 <vPortSetupTimerInterrupt>
10009950:	4b07      	ldr	r3, [pc, #28]	; (10009970 <xPortStartScheduler+0x40>)
10009952:	601c      	str	r4, [r3, #0]
10009954:	f7ff ff4e 	bl	100097f4 <vPortStartFirstTask>
10009958:	f7ff f806 	bl	10008968 <vTaskSwitchContext>
1000995c:	9401      	str	r4, [sp, #4]
1000995e:	b672      	cpsid	i
10009960:	9b01      	ldr	r3, [sp, #4]
10009962:	2b00      	cmp	r3, #0
10009964:	d0fc      	beq.n	10009960 <xPortStartScheduler+0x30>
10009966:	2000      	movs	r0, #0
10009968:	b002      	add	sp, #8
1000996a:	bd10      	pop	{r4, pc}
1000996c:	e000ed20 	.word	0xe000ed20
10009970:	2000046c 	.word	0x2000046c

10009974 <vListInitialise>:
10009974:	0003      	movs	r3, r0
10009976:	3308      	adds	r3, #8
10009978:	2201      	movs	r2, #1
1000997a:	6043      	str	r3, [r0, #4]
1000997c:	60c3      	str	r3, [r0, #12]
1000997e:	6103      	str	r3, [r0, #16]
10009980:	2300      	movs	r3, #0
10009982:	4252      	negs	r2, r2
10009984:	6082      	str	r2, [r0, #8]
10009986:	6003      	str	r3, [r0, #0]
10009988:	4770      	bx	lr
1000998a:	46c0      	nop			; (mov r8, r8)

1000998c <vListInitialiseItem>:
1000998c:	2300      	movs	r3, #0
1000998e:	6103      	str	r3, [r0, #16]
10009990:	4770      	bx	lr
10009992:	46c0      	nop			; (mov r8, r8)

10009994 <vListInsertEnd>:
10009994:	6843      	ldr	r3, [r0, #4]
10009996:	689a      	ldr	r2, [r3, #8]
10009998:	604b      	str	r3, [r1, #4]
1000999a:	608a      	str	r2, [r1, #8]
1000999c:	689a      	ldr	r2, [r3, #8]
1000999e:	6051      	str	r1, [r2, #4]
100099a0:	6099      	str	r1, [r3, #8]
100099a2:	6803      	ldr	r3, [r0, #0]
100099a4:	6108      	str	r0, [r1, #16]
100099a6:	3301      	adds	r3, #1
100099a8:	6003      	str	r3, [r0, #0]
100099aa:	4770      	bx	lr

100099ac <vListInsert>:
100099ac:	0003      	movs	r3, r0
100099ae:	b530      	push	{r4, r5, lr}
100099b0:	680c      	ldr	r4, [r1, #0]
100099b2:	3308      	adds	r3, #8
100099b4:	1c62      	adds	r2, r4, #1
100099b6:	d00d      	beq.n	100099d4 <vListInsert+0x28>
100099b8:	001a      	movs	r2, r3
100099ba:	685b      	ldr	r3, [r3, #4]
100099bc:	681d      	ldr	r5, [r3, #0]
100099be:	42a5      	cmp	r5, r4
100099c0:	d9fa      	bls.n	100099b8 <vListInsert+0xc>
100099c2:	604b      	str	r3, [r1, #4]
100099c4:	6099      	str	r1, [r3, #8]
100099c6:	6803      	ldr	r3, [r0, #0]
100099c8:	608a      	str	r2, [r1, #8]
100099ca:	3301      	adds	r3, #1
100099cc:	6051      	str	r1, [r2, #4]
100099ce:	6108      	str	r0, [r1, #16]
100099d0:	6003      	str	r3, [r0, #0]
100099d2:	bd30      	pop	{r4, r5, pc}
100099d4:	6902      	ldr	r2, [r0, #16]
100099d6:	6853      	ldr	r3, [r2, #4]
100099d8:	e7f3      	b.n	100099c2 <vListInsert+0x16>
100099da:	46c0      	nop			; (mov r8, r8)

100099dc <uxListRemove>:
100099dc:	6903      	ldr	r3, [r0, #16]
100099de:	6841      	ldr	r1, [r0, #4]
100099e0:	6882      	ldr	r2, [r0, #8]
100099e2:	608a      	str	r2, [r1, #8]
100099e4:	6051      	str	r1, [r2, #4]
100099e6:	6859      	ldr	r1, [r3, #4]
100099e8:	4281      	cmp	r1, r0
100099ea:	d006      	beq.n	100099fa <uxListRemove+0x1e>
100099ec:	2200      	movs	r2, #0
100099ee:	6102      	str	r2, [r0, #16]
100099f0:	681a      	ldr	r2, [r3, #0]
100099f2:	3a01      	subs	r2, #1
100099f4:	601a      	str	r2, [r3, #0]
100099f6:	6818      	ldr	r0, [r3, #0]
100099f8:	4770      	bx	lr
100099fa:	605a      	str	r2, [r3, #4]
100099fc:	e7f6      	b.n	100099ec <uxListRemove+0x10>
100099fe:	46c0      	nop			; (mov r8, r8)

10009a00 <xQueueGenericReset>:
10009a00:	b570      	push	{r4, r5, r6, lr}
10009a02:	0004      	movs	r4, r0
10009a04:	000d      	movs	r5, r1
10009a06:	2800      	cmp	r0, #0
10009a08:	d032      	beq.n	10009a70 <xQueueGenericReset+0x70>
10009a0a:	6bc3      	ldr	r3, [r0, #60]	; 0x3c
10009a0c:	2000      	movs	r0, #0
10009a0e:	2b00      	cmp	r3, #0
10009a10:	d020      	beq.n	10009a54 <xQueueGenericReset+0x54>
10009a12:	6c21      	ldr	r1, [r4, #64]	; 0x40
10009a14:	0c18      	lsrs	r0, r3, #16
10009a16:	0c0a      	lsrs	r2, r1, #16
10009a18:	d11d      	bne.n	10009a56 <xQueueGenericReset+0x56>
10009a1a:	2800      	cmp	r0, #0
10009a1c:	d12a      	bne.n	10009a74 <xQueueGenericReset+0x74>
10009a1e:	f7ff ff21 	bl	10009864 <vPortEnterCritical>
10009a22:	6c21      	ldr	r1, [r4, #64]	; 0x40
10009a24:	6be3      	ldr	r3, [r4, #60]	; 0x3c
10009a26:	6822      	ldr	r2, [r4, #0]
10009a28:	434b      	muls	r3, r1
10009a2a:	18d0      	adds	r0, r2, r3
10009a2c:	1a5b      	subs	r3, r3, r1
10009a2e:	18d3      	adds	r3, r2, r3
10009a30:	60a0      	str	r0, [r4, #8]
10009a32:	6062      	str	r2, [r4, #4]
10009a34:	60e3      	str	r3, [r4, #12]
10009a36:	2244      	movs	r2, #68	; 0x44
10009a38:	23ff      	movs	r3, #255	; 0xff
10009a3a:	2000      	movs	r0, #0
10009a3c:	63a0      	str	r0, [r4, #56]	; 0x38
10009a3e:	54a3      	strb	r3, [r4, r2]
10009a40:	3201      	adds	r2, #1
10009a42:	54a3      	strb	r3, [r4, r2]
10009a44:	2d00      	cmp	r5, #0
10009a46:	d118      	bne.n	10009a7a <xQueueGenericReset+0x7a>
10009a48:	6923      	ldr	r3, [r4, #16]
10009a4a:	2b00      	cmp	r3, #0
10009a4c:	d11e      	bne.n	10009a8c <xQueueGenericReset+0x8c>
10009a4e:	f7ff ff15 	bl	1000987c <vPortExitCritical>
10009a52:	2001      	movs	r0, #1
10009a54:	bd70      	pop	{r4, r5, r6, pc}
10009a56:	2800      	cmp	r0, #0
10009a58:	d10a      	bne.n	10009a70 <xQueueGenericReset+0x70>
10009a5a:	1c18      	adds	r0, r3, #0
10009a5c:	b289      	uxth	r1, r1
10009a5e:	b29b      	uxth	r3, r3
10009a60:	434b      	muls	r3, r1
10009a62:	b280      	uxth	r0, r0
10009a64:	b292      	uxth	r2, r2
10009a66:	4342      	muls	r2, r0
10009a68:	0c1b      	lsrs	r3, r3, #16
10009a6a:	18d3      	adds	r3, r2, r3
10009a6c:	0c1b      	lsrs	r3, r3, #16
10009a6e:	d0d6      	beq.n	10009a1e <xQueueGenericReset+0x1e>
10009a70:	2000      	movs	r0, #0
10009a72:	e7ef      	b.n	10009a54 <xQueueGenericReset+0x54>
10009a74:	1c02      	adds	r2, r0, #0
10009a76:	1c08      	adds	r0, r1, #0
10009a78:	e7f0      	b.n	10009a5c <xQueueGenericReset+0x5c>
10009a7a:	0020      	movs	r0, r4
10009a7c:	3010      	adds	r0, #16
10009a7e:	f7ff ff79 	bl	10009974 <vListInitialise>
10009a82:	0020      	movs	r0, r4
10009a84:	3024      	adds	r0, #36	; 0x24
10009a86:	f7ff ff75 	bl	10009974 <vListInitialise>
10009a8a:	e7e0      	b.n	10009a4e <xQueueGenericReset+0x4e>
10009a8c:	0020      	movs	r0, r4
10009a8e:	3010      	adds	r0, #16
10009a90:	f7ff f892 	bl	10008bb8 <xTaskRemoveFromEventList>
10009a94:	2800      	cmp	r0, #0
10009a96:	d0da      	beq.n	10009a4e <xQueueGenericReset+0x4e>
10009a98:	f7ff fed8 	bl	1000984c <vPortYield>
10009a9c:	e7d7      	b.n	10009a4e <xQueueGenericReset+0x4e>
10009a9e:	46c0      	nop			; (mov r8, r8)

10009aa0 <xQueueGenericCreate>:
10009aa0:	b570      	push	{r4, r5, r6, lr}
10009aa2:	0005      	movs	r5, r0
10009aa4:	000e      	movs	r6, r1
10009aa6:	2800      	cmp	r0, #0
10009aa8:	d043      	beq.n	10009b32 <xQueueGenericCreate+0x92>
10009aaa:	0c0b      	lsrs	r3, r1, #16
10009aac:	0c02      	lsrs	r2, r0, #16
10009aae:	2b00      	cmp	r3, #0
10009ab0:	d131      	bne.n	10009b16 <xQueueGenericCreate+0x76>
10009ab2:	1c33      	adds	r3, r6, #0
10009ab4:	2a00      	cmp	r2, #0
10009ab6:	d132      	bne.n	10009b1e <xQueueGenericCreate+0x7e>
10009ab8:	0030      	movs	r0, r6
10009aba:	4368      	muls	r0, r5
10009abc:	0003      	movs	r3, r0
10009abe:	3349      	adds	r3, #73	; 0x49
10009ac0:	d837      	bhi.n	10009b32 <xQueueGenericCreate+0x92>
10009ac2:	3048      	adds	r0, #72	; 0x48
10009ac4:	f7ff fe74 	bl	100097b0 <pvPortMalloc>
10009ac8:	1e04      	subs	r4, r0, #0
10009aca:	d032      	beq.n	10009b32 <xQueueGenericCreate+0x92>
10009acc:	0003      	movs	r3, r0
10009ace:	2e00      	cmp	r6, #0
10009ad0:	d000      	beq.n	10009ad4 <xQueueGenericCreate+0x34>
10009ad2:	3348      	adds	r3, #72	; 0x48
10009ad4:	6023      	str	r3, [r4, #0]
10009ad6:	63e5      	str	r5, [r4, #60]	; 0x3c
10009ad8:	6426      	str	r6, [r4, #64]	; 0x40
10009ada:	f7ff fec3 	bl	10009864 <vPortEnterCritical>
10009ade:	6c21      	ldr	r1, [r4, #64]	; 0x40
10009ae0:	6be3      	ldr	r3, [r4, #60]	; 0x3c
10009ae2:	6822      	ldr	r2, [r4, #0]
10009ae4:	434b      	muls	r3, r1
10009ae6:	18d0      	adds	r0, r2, r3
10009ae8:	60a0      	str	r0, [r4, #8]
10009aea:	2000      	movs	r0, #0
10009aec:	1a5b      	subs	r3, r3, r1
10009aee:	18d3      	adds	r3, r2, r3
10009af0:	6062      	str	r2, [r4, #4]
10009af2:	60e3      	str	r3, [r4, #12]
10009af4:	2244      	movs	r2, #68	; 0x44
10009af6:	23ff      	movs	r3, #255	; 0xff
10009af8:	63a0      	str	r0, [r4, #56]	; 0x38
10009afa:	0020      	movs	r0, r4
10009afc:	54a3      	strb	r3, [r4, r2]
10009afe:	3201      	adds	r2, #1
10009b00:	54a3      	strb	r3, [r4, r2]
10009b02:	3010      	adds	r0, #16
10009b04:	f7ff ff36 	bl	10009974 <vListInitialise>
10009b08:	0020      	movs	r0, r4
10009b0a:	3024      	adds	r0, #36	; 0x24
10009b0c:	f7ff ff32 	bl	10009974 <vListInitialise>
10009b10:	f7ff feb4 	bl	1000987c <vPortExitCritical>
10009b14:	e00e      	b.n	10009b34 <xQueueGenericCreate+0x94>
10009b16:	2a00      	cmp	r2, #0
10009b18:	d10b      	bne.n	10009b32 <xQueueGenericCreate+0x92>
10009b1a:	1c1a      	adds	r2, r3, #0
10009b1c:	1c03      	adds	r3, r0, #0
10009b1e:	b2b0      	uxth	r0, r6
10009b20:	b2a9      	uxth	r1, r5
10009b22:	4341      	muls	r1, r0
10009b24:	b298      	uxth	r0, r3
10009b26:	b293      	uxth	r3, r2
10009b28:	4343      	muls	r3, r0
10009b2a:	0c09      	lsrs	r1, r1, #16
10009b2c:	185b      	adds	r3, r3, r1
10009b2e:	0c1b      	lsrs	r3, r3, #16
10009b30:	d0c2      	beq.n	10009ab8 <xQueueGenericCreate+0x18>
10009b32:	2400      	movs	r4, #0
10009b34:	0020      	movs	r0, r4
10009b36:	bd70      	pop	{r4, r5, r6, pc}

10009b38 <xQueueGenericSend>:
10009b38:	b5f0      	push	{r4, r5, r6, r7, lr}
10009b3a:	46ce      	mov	lr, r9
10009b3c:	4647      	mov	r7, r8
10009b3e:	0004      	movs	r4, r0
10009b40:	0006      	movs	r6, r0
10009b42:	b580      	push	{r7, lr}
10009b44:	b085      	sub	sp, #20
10009b46:	4699      	mov	r9, r3
10009b48:	9201      	str	r2, [sp, #4]
10009b4a:	4688      	mov	r8, r1
10009b4c:	f7ff fe8a 	bl	10009864 <vPortEnterCritical>
10009b50:	6ba3      	ldr	r3, [r4, #56]	; 0x38
10009b52:	6be2      	ldr	r2, [r4, #60]	; 0x3c
10009b54:	2500      	movs	r5, #0
10009b56:	3624      	adds	r6, #36	; 0x24
10009b58:	4293      	cmp	r3, r2
10009b5a:	d37c      	bcc.n	10009c56 <xQueueGenericSend+0x11e>
10009b5c:	464b      	mov	r3, r9
10009b5e:	2b02      	cmp	r3, #2
10009b60:	d100      	bne.n	10009b64 <xQueueGenericSend+0x2c>
10009b62:	e0e1      	b.n	10009d28 <xQueueGenericSend+0x1f0>
10009b64:	9b01      	ldr	r3, [sp, #4]
10009b66:	2b00      	cmp	r3, #0
10009b68:	d100      	bne.n	10009b6c <xQueueGenericSend+0x34>
10009b6a:	e0f9      	b.n	10009d60 <xQueueGenericSend+0x228>
10009b6c:	2d00      	cmp	r5, #0
10009b6e:	d100      	bne.n	10009b72 <xQueueGenericSend+0x3a>
10009b70:	e0d6      	b.n	10009d20 <xQueueGenericSend+0x1e8>
10009b72:	f7ff fe83 	bl	1000987c <vPortExitCritical>
10009b76:	f7fe fda9 	bl	100086cc <vTaskSuspendAll>
10009b7a:	f7ff fe73 	bl	10009864 <vPortEnterCritical>
10009b7e:	2244      	movs	r2, #68	; 0x44
10009b80:	5ca3      	ldrb	r3, [r4, r2]
10009b82:	b25b      	sxtb	r3, r3
10009b84:	3301      	adds	r3, #1
10009b86:	d101      	bne.n	10009b8c <xQueueGenericSend+0x54>
10009b88:	2300      	movs	r3, #0
10009b8a:	54a3      	strb	r3, [r4, r2]
10009b8c:	2245      	movs	r2, #69	; 0x45
10009b8e:	5ca3      	ldrb	r3, [r4, r2]
10009b90:	b25b      	sxtb	r3, r3
10009b92:	3301      	adds	r3, #1
10009b94:	d101      	bne.n	10009b9a <xQueueGenericSend+0x62>
10009b96:	2300      	movs	r3, #0
10009b98:	54a3      	strb	r3, [r4, r2]
10009b9a:	f7ff fe6f 	bl	1000987c <vPortExitCritical>
10009b9e:	a901      	add	r1, sp, #4
10009ba0:	a802      	add	r0, sp, #8
10009ba2:	f7ff f8cd 	bl	10008d40 <xTaskCheckForTimeOut>
10009ba6:	2800      	cmp	r0, #0
10009ba8:	d000      	beq.n	10009bac <xQueueGenericSend+0x74>
10009baa:	e0dd      	b.n	10009d68 <xQueueGenericSend+0x230>
10009bac:	f7ff fe5a 	bl	10009864 <vPortEnterCritical>
10009bb0:	6ba3      	ldr	r3, [r4, #56]	; 0x38
10009bb2:	6be2      	ldr	r2, [r4, #60]	; 0x3c
10009bb4:	4293      	cmp	r3, r2
10009bb6:	d061      	beq.n	10009c7c <xQueueGenericSend+0x144>
10009bb8:	f7ff fe60 	bl	1000987c <vPortExitCritical>
10009bbc:	f7ff fe52 	bl	10009864 <vPortEnterCritical>
10009bc0:	2345      	movs	r3, #69	; 0x45
10009bc2:	5ce5      	ldrb	r5, [r4, r3]
10009bc4:	b26d      	sxtb	r5, r5
10009bc6:	2d00      	cmp	r5, #0
10009bc8:	dc05      	bgt.n	10009bd6 <xQueueGenericSend+0x9e>
10009bca:	e013      	b.n	10009bf4 <xQueueGenericSend+0xbc>
10009bcc:	3d01      	subs	r5, #1
10009bce:	b2eb      	uxtb	r3, r5
10009bd0:	b26d      	sxtb	r5, r5
10009bd2:	2b00      	cmp	r3, #0
10009bd4:	d00e      	beq.n	10009bf4 <xQueueGenericSend+0xbc>
10009bd6:	6a63      	ldr	r3, [r4, #36]	; 0x24
10009bd8:	2b00      	cmp	r3, #0
10009bda:	d00b      	beq.n	10009bf4 <xQueueGenericSend+0xbc>
10009bdc:	0030      	movs	r0, r6
10009bde:	f7fe ffeb 	bl	10008bb8 <xTaskRemoveFromEventList>
10009be2:	2800      	cmp	r0, #0
10009be4:	d0f2      	beq.n	10009bcc <xQueueGenericSend+0x94>
10009be6:	3d01      	subs	r5, #1
10009be8:	f7ff f8d2 	bl	10008d90 <vTaskMissedYield>
10009bec:	b2eb      	uxtb	r3, r5
10009bee:	b26d      	sxtb	r5, r5
10009bf0:	2b00      	cmp	r3, #0
10009bf2:	d1f0      	bne.n	10009bd6 <xQueueGenericSend+0x9e>
10009bf4:	2345      	movs	r3, #69	; 0x45
10009bf6:	22ff      	movs	r2, #255	; 0xff
10009bf8:	54e2      	strb	r2, [r4, r3]
10009bfa:	f7ff fe3f 	bl	1000987c <vPortExitCritical>
10009bfe:	f7ff fe31 	bl	10009864 <vPortEnterCritical>
10009c02:	2344      	movs	r3, #68	; 0x44
10009c04:	0027      	movs	r7, r4
10009c06:	5ce5      	ldrb	r5, [r4, r3]
10009c08:	3710      	adds	r7, #16
10009c0a:	b26d      	sxtb	r5, r5
10009c0c:	2d00      	cmp	r5, #0
10009c0e:	dc05      	bgt.n	10009c1c <xQueueGenericSend+0xe4>
10009c10:	e013      	b.n	10009c3a <xQueueGenericSend+0x102>
10009c12:	3d01      	subs	r5, #1
10009c14:	b2eb      	uxtb	r3, r5
10009c16:	b26d      	sxtb	r5, r5
10009c18:	2b00      	cmp	r3, #0
10009c1a:	d00e      	beq.n	10009c3a <xQueueGenericSend+0x102>
10009c1c:	6923      	ldr	r3, [r4, #16]
10009c1e:	2b00      	cmp	r3, #0
10009c20:	d00b      	beq.n	10009c3a <xQueueGenericSend+0x102>
10009c22:	0038      	movs	r0, r7
10009c24:	f7fe ffc8 	bl	10008bb8 <xTaskRemoveFromEventList>
10009c28:	2800      	cmp	r0, #0
10009c2a:	d0f2      	beq.n	10009c12 <xQueueGenericSend+0xda>
10009c2c:	3d01      	subs	r5, #1
10009c2e:	f7ff f8af 	bl	10008d90 <vTaskMissedYield>
10009c32:	b2eb      	uxtb	r3, r5
10009c34:	b26d      	sxtb	r5, r5
10009c36:	2b00      	cmp	r3, #0
10009c38:	d1f0      	bne.n	10009c1c <xQueueGenericSend+0xe4>
10009c3a:	2344      	movs	r3, #68	; 0x44
10009c3c:	22ff      	movs	r2, #255	; 0xff
10009c3e:	54e2      	strb	r2, [r4, r3]
10009c40:	f7ff fe1c 	bl	1000987c <vPortExitCritical>
10009c44:	f7fe fd4a 	bl	100086dc <xTaskResumeAll>
10009c48:	2501      	movs	r5, #1
10009c4a:	f7ff fe0b 	bl	10009864 <vPortEnterCritical>
10009c4e:	6ba3      	ldr	r3, [r4, #56]	; 0x38
10009c50:	6be2      	ldr	r2, [r4, #60]	; 0x3c
10009c52:	4293      	cmp	r3, r2
10009c54:	d282      	bcs.n	10009b5c <xQueueGenericSend+0x24>
10009c56:	6c22      	ldr	r2, [r4, #64]	; 0x40
10009c58:	6ba5      	ldr	r5, [r4, #56]	; 0x38
10009c5a:	2a00      	cmp	r2, #0
10009c5c:	d000      	beq.n	10009c60 <xQueueGenericSend+0x128>
10009c5e:	e0cd      	b.n	10009dfc <xQueueGenericSend+0x2c4>
10009c60:	3501      	adds	r5, #1
10009c62:	63a5      	str	r5, [r4, #56]	; 0x38
10009c64:	6a63      	ldr	r3, [r4, #36]	; 0x24
10009c66:	2b00      	cmp	r3, #0
10009c68:	d000      	beq.n	10009c6c <xQueueGenericSend+0x134>
10009c6a:	e0db      	b.n	10009e24 <xQueueGenericSend+0x2ec>
10009c6c:	f7ff fe06 	bl	1000987c <vPortExitCritical>
10009c70:	2001      	movs	r0, #1
10009c72:	b005      	add	sp, #20
10009c74:	bcc0      	pop	{r6, r7}
10009c76:	46b9      	mov	r9, r7
10009c78:	46b0      	mov	r8, r6
10009c7a:	bdf0      	pop	{r4, r5, r6, r7, pc}
10009c7c:	0027      	movs	r7, r4
10009c7e:	3710      	adds	r7, #16
10009c80:	f7ff fdfc 	bl	1000987c <vPortExitCritical>
10009c84:	0038      	movs	r0, r7
10009c86:	9901      	ldr	r1, [sp, #4]
10009c88:	f7fe fec0 	bl	10008a0c <vTaskPlaceOnEventList>
10009c8c:	f7ff fdea 	bl	10009864 <vPortEnterCritical>
10009c90:	2345      	movs	r3, #69	; 0x45
10009c92:	5ce5      	ldrb	r5, [r4, r3]
10009c94:	b26d      	sxtb	r5, r5
10009c96:	2d00      	cmp	r5, #0
10009c98:	dc05      	bgt.n	10009ca6 <xQueueGenericSend+0x16e>
10009c9a:	e013      	b.n	10009cc4 <xQueueGenericSend+0x18c>
10009c9c:	3d01      	subs	r5, #1
10009c9e:	b2ea      	uxtb	r2, r5
10009ca0:	b26d      	sxtb	r5, r5
10009ca2:	2a00      	cmp	r2, #0
10009ca4:	d00e      	beq.n	10009cc4 <xQueueGenericSend+0x18c>
10009ca6:	6a63      	ldr	r3, [r4, #36]	; 0x24
10009ca8:	2b00      	cmp	r3, #0
10009caa:	d00b      	beq.n	10009cc4 <xQueueGenericSend+0x18c>
10009cac:	0030      	movs	r0, r6
10009cae:	f7fe ff83 	bl	10008bb8 <xTaskRemoveFromEventList>
10009cb2:	2800      	cmp	r0, #0
10009cb4:	d0f2      	beq.n	10009c9c <xQueueGenericSend+0x164>
10009cb6:	3d01      	subs	r5, #1
10009cb8:	f7ff f86a 	bl	10008d90 <vTaskMissedYield>
10009cbc:	b2ea      	uxtb	r2, r5
10009cbe:	b26d      	sxtb	r5, r5
10009cc0:	2a00      	cmp	r2, #0
10009cc2:	d1f0      	bne.n	10009ca6 <xQueueGenericSend+0x16e>
10009cc4:	2345      	movs	r3, #69	; 0x45
10009cc6:	22ff      	movs	r2, #255	; 0xff
10009cc8:	54e2      	strb	r2, [r4, r3]
10009cca:	f7ff fdd7 	bl	1000987c <vPortExitCritical>
10009cce:	f7ff fdc9 	bl	10009864 <vPortEnterCritical>
10009cd2:	2344      	movs	r3, #68	; 0x44
10009cd4:	5ce5      	ldrb	r5, [r4, r3]
10009cd6:	b26d      	sxtb	r5, r5
10009cd8:	2d00      	cmp	r5, #0
10009cda:	dc05      	bgt.n	10009ce8 <xQueueGenericSend+0x1b0>
10009cdc:	e013      	b.n	10009d06 <xQueueGenericSend+0x1ce>
10009cde:	3d01      	subs	r5, #1
10009ce0:	b2ea      	uxtb	r2, r5
10009ce2:	b26d      	sxtb	r5, r5
10009ce4:	2a00      	cmp	r2, #0
10009ce6:	d00e      	beq.n	10009d06 <xQueueGenericSend+0x1ce>
10009ce8:	6923      	ldr	r3, [r4, #16]
10009cea:	2b00      	cmp	r3, #0
10009cec:	d00b      	beq.n	10009d06 <xQueueGenericSend+0x1ce>
10009cee:	0038      	movs	r0, r7
10009cf0:	f7fe ff62 	bl	10008bb8 <xTaskRemoveFromEventList>
10009cf4:	2800      	cmp	r0, #0
10009cf6:	d0f2      	beq.n	10009cde <xQueueGenericSend+0x1a6>
10009cf8:	3d01      	subs	r5, #1
10009cfa:	f7ff f849 	bl	10008d90 <vTaskMissedYield>
10009cfe:	b2ea      	uxtb	r2, r5
10009d00:	b26d      	sxtb	r5, r5
10009d02:	2a00      	cmp	r2, #0
10009d04:	d1f0      	bne.n	10009ce8 <xQueueGenericSend+0x1b0>
10009d06:	2344      	movs	r3, #68	; 0x44
10009d08:	22ff      	movs	r2, #255	; 0xff
10009d0a:	54e2      	strb	r2, [r4, r3]
10009d0c:	f7ff fdb6 	bl	1000987c <vPortExitCritical>
10009d10:	f7fe fce4 	bl	100086dc <xTaskResumeAll>
10009d14:	2800      	cmp	r0, #0
10009d16:	d197      	bne.n	10009c48 <xQueueGenericSend+0x110>
10009d18:	f7ff fd98 	bl	1000984c <vPortYield>
10009d1c:	2501      	movs	r5, #1
10009d1e:	e794      	b.n	10009c4a <xQueueGenericSend+0x112>
10009d20:	a802      	add	r0, sp, #8
10009d22:	f7ff f805 	bl	10008d30 <vTaskInternalSetTimeOutState>
10009d26:	e724      	b.n	10009b72 <xQueueGenericSend+0x3a>
10009d28:	6c22      	ldr	r2, [r4, #64]	; 0x40
10009d2a:	6ba5      	ldr	r5, [r4, #56]	; 0x38
10009d2c:	2a00      	cmp	r2, #0
10009d2e:	d097      	beq.n	10009c60 <xQueueGenericSend+0x128>
10009d30:	4641      	mov	r1, r8
10009d32:	68e0      	ldr	r0, [r4, #12]
10009d34:	f7fa ffdc 	bl	10004cf0 <__wrap___aeabi_memcpy>
10009d38:	68e1      	ldr	r1, [r4, #12]
10009d3a:	6c23      	ldr	r3, [r4, #64]	; 0x40
10009d3c:	425a      	negs	r2, r3
10009d3e:	1acb      	subs	r3, r1, r3
10009d40:	6821      	ldr	r1, [r4, #0]
10009d42:	60e3      	str	r3, [r4, #12]
10009d44:	428b      	cmp	r3, r1
10009d46:	d207      	bcs.n	10009d58 <xQueueGenericSend+0x220>
10009d48:	68a3      	ldr	r3, [r4, #8]
10009d4a:	469c      	mov	ip, r3
10009d4c:	4462      	add	r2, ip
10009d4e:	60e2      	str	r2, [r4, #12]
10009d50:	464b      	mov	r3, r9
10009d52:	2b02      	cmp	r3, #2
10009d54:	d000      	beq.n	10009d58 <xQueueGenericSend+0x220>
10009d56:	e783      	b.n	10009c60 <xQueueGenericSend+0x128>
10009d58:	2d00      	cmp	r5, #0
10009d5a:	d000      	beq.n	10009d5e <xQueueGenericSend+0x226>
10009d5c:	e781      	b.n	10009c62 <xQueueGenericSend+0x12a>
10009d5e:	e77f      	b.n	10009c60 <xQueueGenericSend+0x128>
10009d60:	f7ff fd8c 	bl	1000987c <vPortExitCritical>
10009d64:	2000      	movs	r0, #0
10009d66:	e784      	b.n	10009c72 <xQueueGenericSend+0x13a>
10009d68:	f7ff fd7c 	bl	10009864 <vPortEnterCritical>
10009d6c:	2345      	movs	r3, #69	; 0x45
10009d6e:	0026      	movs	r6, r4
10009d70:	5ce5      	ldrb	r5, [r4, r3]
10009d72:	3624      	adds	r6, #36	; 0x24
10009d74:	b26d      	sxtb	r5, r5
10009d76:	2d00      	cmp	r5, #0
10009d78:	dc05      	bgt.n	10009d86 <xQueueGenericSend+0x24e>
10009d7a:	e013      	b.n	10009da4 <xQueueGenericSend+0x26c>
10009d7c:	3d01      	subs	r5, #1
10009d7e:	b2ea      	uxtb	r2, r5
10009d80:	b26d      	sxtb	r5, r5
10009d82:	2a00      	cmp	r2, #0
10009d84:	d00e      	beq.n	10009da4 <xQueueGenericSend+0x26c>
10009d86:	6a63      	ldr	r3, [r4, #36]	; 0x24
10009d88:	2b00      	cmp	r3, #0
10009d8a:	d00b      	beq.n	10009da4 <xQueueGenericSend+0x26c>
10009d8c:	0030      	movs	r0, r6
10009d8e:	f7fe ff13 	bl	10008bb8 <xTaskRemoveFromEventList>
10009d92:	2800      	cmp	r0, #0
10009d94:	d0f2      	beq.n	10009d7c <xQueueGenericSend+0x244>
10009d96:	3d01      	subs	r5, #1
10009d98:	f7fe fffa 	bl	10008d90 <vTaskMissedYield>
10009d9c:	b2ea      	uxtb	r2, r5
10009d9e:	b26d      	sxtb	r5, r5
10009da0:	2a00      	cmp	r2, #0
10009da2:	d1f0      	bne.n	10009d86 <xQueueGenericSend+0x24e>
10009da4:	2345      	movs	r3, #69	; 0x45
10009da6:	22ff      	movs	r2, #255	; 0xff
10009da8:	54e2      	strb	r2, [r4, r3]
10009daa:	f7ff fd67 	bl	1000987c <vPortExitCritical>
10009dae:	f7ff fd59 	bl	10009864 <vPortEnterCritical>
10009db2:	2344      	movs	r3, #68	; 0x44
10009db4:	0026      	movs	r6, r4
10009db6:	5ce5      	ldrb	r5, [r4, r3]
10009db8:	3610      	adds	r6, #16
10009dba:	b26d      	sxtb	r5, r5
10009dbc:	2d00      	cmp	r5, #0
10009dbe:	dc05      	bgt.n	10009dcc <xQueueGenericSend+0x294>
10009dc0:	e013      	b.n	10009dea <xQueueGenericSend+0x2b2>
10009dc2:	3d01      	subs	r5, #1
10009dc4:	b2ea      	uxtb	r2, r5
10009dc6:	b26d      	sxtb	r5, r5
10009dc8:	2a00      	cmp	r2, #0
10009dca:	d00e      	beq.n	10009dea <xQueueGenericSend+0x2b2>
10009dcc:	6923      	ldr	r3, [r4, #16]
10009dce:	2b00      	cmp	r3, #0
10009dd0:	d00b      	beq.n	10009dea <xQueueGenericSend+0x2b2>
10009dd2:	0030      	movs	r0, r6
10009dd4:	f7fe fef0 	bl	10008bb8 <xTaskRemoveFromEventList>
10009dd8:	2800      	cmp	r0, #0
10009dda:	d0f2      	beq.n	10009dc2 <xQueueGenericSend+0x28a>
10009ddc:	3d01      	subs	r5, #1
10009dde:	f7fe ffd7 	bl	10008d90 <vTaskMissedYield>
10009de2:	b2ea      	uxtb	r2, r5
10009de4:	b26d      	sxtb	r5, r5
10009de6:	2a00      	cmp	r2, #0
10009de8:	d1f0      	bne.n	10009dcc <xQueueGenericSend+0x294>
10009dea:	2344      	movs	r3, #68	; 0x44
10009dec:	22ff      	movs	r2, #255	; 0xff
10009dee:	54e2      	strb	r2, [r4, r3]
10009df0:	f7ff fd44 	bl	1000987c <vPortExitCritical>
10009df4:	f7fe fc72 	bl	100086dc <xTaskResumeAll>
10009df8:	2000      	movs	r0, #0
10009dfa:	e73a      	b.n	10009c72 <xQueueGenericSend+0x13a>
10009dfc:	464b      	mov	r3, r9
10009dfe:	4641      	mov	r1, r8
10009e00:	2b00      	cmp	r3, #0
10009e02:	d119      	bne.n	10009e38 <xQueueGenericSend+0x300>
10009e04:	6860      	ldr	r0, [r4, #4]
10009e06:	f7fa ff73 	bl	10004cf0 <__wrap___aeabi_memcpy>
10009e0a:	6c22      	ldr	r2, [r4, #64]	; 0x40
10009e0c:	6863      	ldr	r3, [r4, #4]
10009e0e:	4694      	mov	ip, r2
10009e10:	68a2      	ldr	r2, [r4, #8]
10009e12:	4463      	add	r3, ip
10009e14:	6063      	str	r3, [r4, #4]
10009e16:	4293      	cmp	r3, r2
10009e18:	d200      	bcs.n	10009e1c <xQueueGenericSend+0x2e4>
10009e1a:	e721      	b.n	10009c60 <xQueueGenericSend+0x128>
10009e1c:	6823      	ldr	r3, [r4, #0]
10009e1e:	3501      	adds	r5, #1
10009e20:	6063      	str	r3, [r4, #4]
10009e22:	e71e      	b.n	10009c62 <xQueueGenericSend+0x12a>
10009e24:	0020      	movs	r0, r4
10009e26:	3024      	adds	r0, #36	; 0x24
10009e28:	f7fe fec6 	bl	10008bb8 <xTaskRemoveFromEventList>
10009e2c:	2800      	cmp	r0, #0
10009e2e:	d100      	bne.n	10009e32 <xQueueGenericSend+0x2fa>
10009e30:	e71c      	b.n	10009c6c <xQueueGenericSend+0x134>
10009e32:	f7ff fd0b 	bl	1000984c <vPortYield>
10009e36:	e719      	b.n	10009c6c <xQueueGenericSend+0x134>
10009e38:	68e0      	ldr	r0, [r4, #12]
10009e3a:	f7fa ff59 	bl	10004cf0 <__wrap___aeabi_memcpy>
10009e3e:	68e1      	ldr	r1, [r4, #12]
10009e40:	6c23      	ldr	r3, [r4, #64]	; 0x40
10009e42:	425a      	negs	r2, r3
10009e44:	1acb      	subs	r3, r1, r3
10009e46:	6821      	ldr	r1, [r4, #0]
10009e48:	60e3      	str	r3, [r4, #12]
10009e4a:	428b      	cmp	r3, r1
10009e4c:	d280      	bcs.n	10009d50 <xQueueGenericSend+0x218>
10009e4e:	e77b      	b.n	10009d48 <xQueueGenericSend+0x210>

10009e50 <xQueueGenericSendFromISR>:
10009e50:	b5f0      	push	{r4, r5, r6, r7, lr}
10009e52:	464f      	mov	r7, r9
10009e54:	46d6      	mov	lr, sl
10009e56:	4646      	mov	r6, r8
10009e58:	b5c0      	push	{r6, r7, lr}
10009e5a:	0004      	movs	r4, r0
10009e5c:	4699      	mov	r9, r3
10009e5e:	000f      	movs	r7, r1
10009e60:	4690      	mov	r8, r2
10009e62:	f7ff fd15 	bl	10009890 <ulSetInterruptMaskFromISR>
10009e66:	6be3      	ldr	r3, [r4, #60]	; 0x3c
10009e68:	0005      	movs	r5, r0
10009e6a:	6ba0      	ldr	r0, [r4, #56]	; 0x38
10009e6c:	4298      	cmp	r0, r3
10009e6e:	d337      	bcc.n	10009ee0 <xQueueGenericSendFromISR+0x90>
10009e70:	464b      	mov	r3, r9
10009e72:	2b02      	cmp	r3, #2
10009e74:	d009      	beq.n	10009e8a <xQueueGenericSendFromISR+0x3a>
10009e76:	2400      	movs	r4, #0
10009e78:	0028      	movs	r0, r5
10009e7a:	f7ff fd0d 	bl	10009898 <vClearInterruptMaskFromISR>
10009e7e:	0020      	movs	r0, r4
10009e80:	bce0      	pop	{r5, r6, r7}
10009e82:	46ba      	mov	sl, r7
10009e84:	46b1      	mov	r9, r6
10009e86:	46a8      	mov	r8, r5
10009e88:	bdf0      	pop	{r4, r5, r6, r7, pc}
10009e8a:	2345      	movs	r3, #69	; 0x45
10009e8c:	6c22      	ldr	r2, [r4, #64]	; 0x40
10009e8e:	5ce6      	ldrb	r6, [r4, r3]
10009e90:	6ba3      	ldr	r3, [r4, #56]	; 0x38
10009e92:	6ba3      	ldr	r3, [r4, #56]	; 0x38
10009e94:	b276      	sxtb	r6, r6
10009e96:	469a      	mov	sl, r3
10009e98:	2a00      	cmp	r2, #0
10009e9a:	d02a      	beq.n	10009ef2 <xQueueGenericSendFromISR+0xa2>
10009e9c:	0039      	movs	r1, r7
10009e9e:	68e0      	ldr	r0, [r4, #12]
10009ea0:	f7fa ff26 	bl	10004cf0 <__wrap___aeabi_memcpy>
10009ea4:	68e1      	ldr	r1, [r4, #12]
10009ea6:	6c23      	ldr	r3, [r4, #64]	; 0x40
10009ea8:	425a      	negs	r2, r3
10009eaa:	1acb      	subs	r3, r1, r3
10009eac:	6821      	ldr	r1, [r4, #0]
10009eae:	60e3      	str	r3, [r4, #12]
10009eb0:	428b      	cmp	r3, r1
10009eb2:	d249      	bcs.n	10009f48 <xQueueGenericSendFromISR+0xf8>
10009eb4:	68a3      	ldr	r3, [r4, #8]
10009eb6:	469c      	mov	ip, r3
10009eb8:	4462      	add	r2, ip
10009eba:	60e2      	str	r2, [r4, #12]
10009ebc:	464b      	mov	r3, r9
10009ebe:	2b02      	cmp	r3, #2
10009ec0:	d042      	beq.n	10009f48 <xQueueGenericSendFromISR+0xf8>
10009ec2:	4653      	mov	r3, sl
10009ec4:	3301      	adds	r3, #1
10009ec6:	63a3      	str	r3, [r4, #56]	; 0x38
10009ec8:	1c73      	adds	r3, r6, #1
10009eca:	d016      	beq.n	10009efa <xQueueGenericSendFromISR+0xaa>
10009ecc:	f7fe fd14 	bl	100088f8 <uxTaskGetNumberOfTasks>
10009ed0:	4286      	cmp	r6, r0
10009ed2:	d215      	bcs.n	10009f00 <xQueueGenericSendFromISR+0xb0>
10009ed4:	2345      	movs	r3, #69	; 0x45
10009ed6:	3601      	adds	r6, #1
10009ed8:	b276      	sxtb	r6, r6
10009eda:	54e6      	strb	r6, [r4, r3]
10009edc:	2401      	movs	r4, #1
10009ede:	e7cb      	b.n	10009e78 <xQueueGenericSendFromISR+0x28>
10009ee0:	2345      	movs	r3, #69	; 0x45
10009ee2:	6c22      	ldr	r2, [r4, #64]	; 0x40
10009ee4:	5ce6      	ldrb	r6, [r4, r3]
10009ee6:	6ba3      	ldr	r3, [r4, #56]	; 0x38
10009ee8:	6ba3      	ldr	r3, [r4, #56]	; 0x38
10009eea:	b276      	sxtb	r6, r6
10009eec:	469a      	mov	sl, r3
10009eee:	2a00      	cmp	r2, #0
10009ef0:	d108      	bne.n	10009f04 <xQueueGenericSendFromISR+0xb4>
10009ef2:	3301      	adds	r3, #1
10009ef4:	63a3      	str	r3, [r4, #56]	; 0x38
10009ef6:	1c73      	adds	r3, r6, #1
10009ef8:	d1e8      	bne.n	10009ecc <xQueueGenericSendFromISR+0x7c>
10009efa:	6a63      	ldr	r3, [r4, #36]	; 0x24
10009efc:	2b00      	cmp	r3, #0
10009efe:	d115      	bne.n	10009f2c <xQueueGenericSendFromISR+0xdc>
10009f00:	2401      	movs	r4, #1
10009f02:	e7b9      	b.n	10009e78 <xQueueGenericSendFromISR+0x28>
10009f04:	464b      	mov	r3, r9
10009f06:	0039      	movs	r1, r7
10009f08:	2b00      	cmp	r3, #0
10009f0a:	d121      	bne.n	10009f50 <xQueueGenericSendFromISR+0x100>
10009f0c:	6860      	ldr	r0, [r4, #4]
10009f0e:	f7fa feef 	bl	10004cf0 <__wrap___aeabi_memcpy>
10009f12:	6c22      	ldr	r2, [r4, #64]	; 0x40
10009f14:	6863      	ldr	r3, [r4, #4]
10009f16:	4694      	mov	ip, r2
10009f18:	68a2      	ldr	r2, [r4, #8]
10009f1a:	4463      	add	r3, ip
10009f1c:	6063      	str	r3, [r4, #4]
10009f1e:	4293      	cmp	r3, r2
10009f20:	d3cf      	bcc.n	10009ec2 <xQueueGenericSendFromISR+0x72>
10009f22:	6823      	ldr	r3, [r4, #0]
10009f24:	6063      	str	r3, [r4, #4]
10009f26:	4653      	mov	r3, sl
10009f28:	3301      	adds	r3, #1
10009f2a:	e7e3      	b.n	10009ef4 <xQueueGenericSendFromISR+0xa4>
10009f2c:	0020      	movs	r0, r4
10009f2e:	3024      	adds	r0, #36	; 0x24
10009f30:	f7fe fe42 	bl	10008bb8 <xTaskRemoveFromEventList>
10009f34:	2800      	cmp	r0, #0
10009f36:	d0e3      	beq.n	10009f00 <xQueueGenericSendFromISR+0xb0>
10009f38:	4643      	mov	r3, r8
10009f3a:	2b00      	cmp	r3, #0
10009f3c:	d0e0      	beq.n	10009f00 <xQueueGenericSendFromISR+0xb0>
10009f3e:	2301      	movs	r3, #1
10009f40:	4642      	mov	r2, r8
10009f42:	2401      	movs	r4, #1
10009f44:	6013      	str	r3, [r2, #0]
10009f46:	e797      	b.n	10009e78 <xQueueGenericSendFromISR+0x28>
10009f48:	4653      	mov	r3, sl
10009f4a:	2b00      	cmp	r3, #0
10009f4c:	d1d2      	bne.n	10009ef4 <xQueueGenericSendFromISR+0xa4>
10009f4e:	e7d0      	b.n	10009ef2 <xQueueGenericSendFromISR+0xa2>
10009f50:	68e0      	ldr	r0, [r4, #12]
10009f52:	f7fa fecd 	bl	10004cf0 <__wrap___aeabi_memcpy>
10009f56:	68e1      	ldr	r1, [r4, #12]
10009f58:	6c23      	ldr	r3, [r4, #64]	; 0x40
10009f5a:	425a      	negs	r2, r3
10009f5c:	1acb      	subs	r3, r1, r3
10009f5e:	6821      	ldr	r1, [r4, #0]
10009f60:	60e3      	str	r3, [r4, #12]
10009f62:	428b      	cmp	r3, r1
10009f64:	d2aa      	bcs.n	10009ebc <xQueueGenericSendFromISR+0x6c>
10009f66:	e7a5      	b.n	10009eb4 <xQueueGenericSendFromISR+0x64>

10009f68 <xQueueGiveFromISR>:
10009f68:	b5f0      	push	{r4, r5, r6, r7, lr}
10009f6a:	46c6      	mov	lr, r8
10009f6c:	0004      	movs	r4, r0
10009f6e:	b500      	push	{lr}
10009f70:	000e      	movs	r6, r1
10009f72:	f7ff fc8d 	bl	10009890 <ulSetInterruptMaskFromISR>
10009f76:	6ba3      	ldr	r3, [r4, #56]	; 0x38
10009f78:	6be2      	ldr	r2, [r4, #60]	; 0x3c
10009f7a:	0005      	movs	r5, r0
10009f7c:	2700      	movs	r7, #0
10009f7e:	429a      	cmp	r2, r3
10009f80:	d90b      	bls.n	10009f9a <xQueueGiveFromISR+0x32>
10009f82:	2245      	movs	r2, #69	; 0x45
10009f84:	5ca7      	ldrb	r7, [r4, r2]
10009f86:	3301      	adds	r3, #1
10009f88:	b27f      	sxtb	r7, r7
10009f8a:	4690      	mov	r8, r2
10009f8c:	63a3      	str	r3, [r4, #56]	; 0x38
10009f8e:	1c7b      	adds	r3, r7, #1
10009f90:	d10a      	bne.n	10009fa8 <xQueueGiveFromISR+0x40>
10009f92:	6a63      	ldr	r3, [r4, #36]	; 0x24
10009f94:	2b00      	cmp	r3, #0
10009f96:	d111      	bne.n	10009fbc <xQueueGiveFromISR+0x54>
10009f98:	2701      	movs	r7, #1
10009f9a:	0028      	movs	r0, r5
10009f9c:	f7ff fc7c 	bl	10009898 <vClearInterruptMaskFromISR>
10009fa0:	0038      	movs	r0, r7
10009fa2:	bc80      	pop	{r7}
10009fa4:	46b8      	mov	r8, r7
10009fa6:	bdf0      	pop	{r4, r5, r6, r7, pc}
10009fa8:	f7fe fca6 	bl	100088f8 <uxTaskGetNumberOfTasks>
10009fac:	4287      	cmp	r7, r0
10009fae:	d2f3      	bcs.n	10009f98 <xQueueGiveFromISR+0x30>
10009fb0:	4643      	mov	r3, r8
10009fb2:	3701      	adds	r7, #1
10009fb4:	b27f      	sxtb	r7, r7
10009fb6:	54e7      	strb	r7, [r4, r3]
10009fb8:	2701      	movs	r7, #1
10009fba:	e7ee      	b.n	10009f9a <xQueueGiveFromISR+0x32>
10009fbc:	0020      	movs	r0, r4
10009fbe:	3024      	adds	r0, #36	; 0x24
10009fc0:	f7fe fdfa 	bl	10008bb8 <xTaskRemoveFromEventList>
10009fc4:	2800      	cmp	r0, #0
10009fc6:	d0e7      	beq.n	10009f98 <xQueueGiveFromISR+0x30>
10009fc8:	2e00      	cmp	r6, #0
10009fca:	d0e5      	beq.n	10009f98 <xQueueGiveFromISR+0x30>
10009fcc:	2301      	movs	r3, #1
10009fce:	2701      	movs	r7, #1
10009fd0:	6033      	str	r3, [r6, #0]
10009fd2:	e7e2      	b.n	10009f9a <xQueueGiveFromISR+0x32>

10009fd4 <xQueueReceive>:
10009fd4:	b5f0      	push	{r4, r5, r6, r7, lr}
10009fd6:	46ce      	mov	lr, r9
10009fd8:	4647      	mov	r7, r8
10009fda:	0004      	movs	r4, r0
10009fdc:	b580      	push	{r7, lr}
10009fde:	b085      	sub	sp, #20
10009fe0:	4688      	mov	r8, r1
10009fe2:	9201      	str	r2, [sp, #4]
10009fe4:	f7ff fc3e 	bl	10009864 <vPortEnterCritical>
10009fe8:	6ba5      	ldr	r5, [r4, #56]	; 0x38
10009fea:	2d00      	cmp	r5, #0
10009fec:	d000      	beq.n	10009ff0 <xQueueReceive+0x1c>
10009fee:	e11f      	b.n	1000a230 <xQueueReceive+0x25c>
10009ff0:	9b01      	ldr	r3, [sp, #4]
10009ff2:	2b00      	cmp	r3, #0
10009ff4:	d100      	bne.n	10009ff8 <xQueueReceive+0x24>
10009ff6:	e0cb      	b.n	1000a190 <xQueueReceive+0x1bc>
10009ff8:	0026      	movs	r6, r4
10009ffa:	a802      	add	r0, sp, #8
10009ffc:	f7fe fe98 	bl	10008d30 <vTaskInternalSetTimeOutState>
1000a000:	2744      	movs	r7, #68	; 0x44
1000a002:	3624      	adds	r6, #36	; 0x24
1000a004:	f7ff fc3a 	bl	1000987c <vPortExitCritical>
1000a008:	f7fe fb60 	bl	100086cc <vTaskSuspendAll>
1000a00c:	f7ff fc2a 	bl	10009864 <vPortEnterCritical>
1000a010:	5de3      	ldrb	r3, [r4, r7]
1000a012:	b25b      	sxtb	r3, r3
1000a014:	3301      	adds	r3, #1
1000a016:	d101      	bne.n	1000a01c <xQueueReceive+0x48>
1000a018:	2300      	movs	r3, #0
1000a01a:	55e3      	strb	r3, [r4, r7]
1000a01c:	2245      	movs	r2, #69	; 0x45
1000a01e:	5ca3      	ldrb	r3, [r4, r2]
1000a020:	b25b      	sxtb	r3, r3
1000a022:	3301      	adds	r3, #1
1000a024:	d101      	bne.n	1000a02a <xQueueReceive+0x56>
1000a026:	2300      	movs	r3, #0
1000a028:	54a3      	strb	r3, [r4, r2]
1000a02a:	f7ff fc27 	bl	1000987c <vPortExitCritical>
1000a02e:	a901      	add	r1, sp, #4
1000a030:	a802      	add	r0, sp, #8
1000a032:	f7fe fe85 	bl	10008d40 <xTaskCheckForTimeOut>
1000a036:	2800      	cmp	r0, #0
1000a038:	d155      	bne.n	1000a0e6 <xQueueReceive+0x112>
1000a03a:	f7ff fc13 	bl	10009864 <vPortEnterCritical>
1000a03e:	6ba3      	ldr	r3, [r4, #56]	; 0x38
1000a040:	2b00      	cmp	r3, #0
1000a042:	d000      	beq.n	1000a046 <xQueueReceive+0x72>
1000a044:	e0ac      	b.n	1000a1a0 <xQueueReceive+0x1cc>
1000a046:	f7ff fc19 	bl	1000987c <vPortExitCritical>
1000a04a:	0030      	movs	r0, r6
1000a04c:	9901      	ldr	r1, [sp, #4]
1000a04e:	f7fe fcdd 	bl	10008a0c <vTaskPlaceOnEventList>
1000a052:	f7ff fc07 	bl	10009864 <vPortEnterCritical>
1000a056:	2345      	movs	r3, #69	; 0x45
1000a058:	5ce5      	ldrb	r5, [r4, r3]
1000a05a:	b26d      	sxtb	r5, r5
1000a05c:	2d00      	cmp	r5, #0
1000a05e:	dc05      	bgt.n	1000a06c <xQueueReceive+0x98>
1000a060:	e013      	b.n	1000a08a <xQueueReceive+0xb6>
1000a062:	3d01      	subs	r5, #1
1000a064:	b2ea      	uxtb	r2, r5
1000a066:	b26d      	sxtb	r5, r5
1000a068:	2a00      	cmp	r2, #0
1000a06a:	d00e      	beq.n	1000a08a <xQueueReceive+0xb6>
1000a06c:	6a63      	ldr	r3, [r4, #36]	; 0x24
1000a06e:	2b00      	cmp	r3, #0
1000a070:	d00b      	beq.n	1000a08a <xQueueReceive+0xb6>
1000a072:	0030      	movs	r0, r6
1000a074:	f7fe fda0 	bl	10008bb8 <xTaskRemoveFromEventList>
1000a078:	2800      	cmp	r0, #0
1000a07a:	d0f2      	beq.n	1000a062 <xQueueReceive+0x8e>
1000a07c:	3d01      	subs	r5, #1
1000a07e:	f7fe fe87 	bl	10008d90 <vTaskMissedYield>
1000a082:	b2ea      	uxtb	r2, r5
1000a084:	b26d      	sxtb	r5, r5
1000a086:	2a00      	cmp	r2, #0
1000a088:	d1f0      	bne.n	1000a06c <xQueueReceive+0x98>
1000a08a:	2345      	movs	r3, #69	; 0x45
1000a08c:	22ff      	movs	r2, #255	; 0xff
1000a08e:	54e2      	strb	r2, [r4, r3]
1000a090:	f7ff fbf4 	bl	1000987c <vPortExitCritical>
1000a094:	f7ff fbe6 	bl	10009864 <vPortEnterCritical>
1000a098:	2310      	movs	r3, #16
1000a09a:	4699      	mov	r9, r3
1000a09c:	5de5      	ldrb	r5, [r4, r7]
1000a09e:	44a1      	add	r9, r4
1000a0a0:	b26d      	sxtb	r5, r5
1000a0a2:	2d00      	cmp	r5, #0
1000a0a4:	dc05      	bgt.n	1000a0b2 <xQueueReceive+0xde>
1000a0a6:	e013      	b.n	1000a0d0 <xQueueReceive+0xfc>
1000a0a8:	3d01      	subs	r5, #1
1000a0aa:	b2ea      	uxtb	r2, r5
1000a0ac:	b26d      	sxtb	r5, r5
1000a0ae:	2a00      	cmp	r2, #0
1000a0b0:	d00e      	beq.n	1000a0d0 <xQueueReceive+0xfc>
1000a0b2:	6923      	ldr	r3, [r4, #16]
1000a0b4:	2b00      	cmp	r3, #0
1000a0b6:	d00b      	beq.n	1000a0d0 <xQueueReceive+0xfc>
1000a0b8:	4648      	mov	r0, r9
1000a0ba:	f7fe fd7d 	bl	10008bb8 <xTaskRemoveFromEventList>
1000a0be:	2800      	cmp	r0, #0
1000a0c0:	d0f2      	beq.n	1000a0a8 <xQueueReceive+0xd4>
1000a0c2:	3d01      	subs	r5, #1
1000a0c4:	f7fe fe64 	bl	10008d90 <vTaskMissedYield>
1000a0c8:	b2ea      	uxtb	r2, r5
1000a0ca:	b26d      	sxtb	r5, r5
1000a0cc:	2a00      	cmp	r2, #0
1000a0ce:	d1f0      	bne.n	1000a0b2 <xQueueReceive+0xde>
1000a0d0:	23ff      	movs	r3, #255	; 0xff
1000a0d2:	55e3      	strb	r3, [r4, r7]
1000a0d4:	f7ff fbd2 	bl	1000987c <vPortExitCritical>
1000a0d8:	f7fe fb00 	bl	100086dc <xTaskResumeAll>
1000a0dc:	2800      	cmp	r0, #0
1000a0de:	d14e      	bne.n	1000a17e <xQueueReceive+0x1aa>
1000a0e0:	f7ff fbb4 	bl	1000984c <vPortYield>
1000a0e4:	e04b      	b.n	1000a17e <xQueueReceive+0x1aa>
1000a0e6:	f7ff fbbd 	bl	10009864 <vPortEnterCritical>
1000a0ea:	2345      	movs	r3, #69	; 0x45
1000a0ec:	5ce5      	ldrb	r5, [r4, r3]
1000a0ee:	b26d      	sxtb	r5, r5
1000a0f0:	2d00      	cmp	r5, #0
1000a0f2:	dc05      	bgt.n	1000a100 <xQueueReceive+0x12c>
1000a0f4:	e013      	b.n	1000a11e <xQueueReceive+0x14a>
1000a0f6:	3d01      	subs	r5, #1
1000a0f8:	b2ea      	uxtb	r2, r5
1000a0fa:	b26d      	sxtb	r5, r5
1000a0fc:	2a00      	cmp	r2, #0
1000a0fe:	d00e      	beq.n	1000a11e <xQueueReceive+0x14a>
1000a100:	6a63      	ldr	r3, [r4, #36]	; 0x24
1000a102:	2b00      	cmp	r3, #0
1000a104:	d00b      	beq.n	1000a11e <xQueueReceive+0x14a>
1000a106:	0030      	movs	r0, r6
1000a108:	f7fe fd56 	bl	10008bb8 <xTaskRemoveFromEventList>
1000a10c:	2800      	cmp	r0, #0
1000a10e:	d0f2      	beq.n	1000a0f6 <xQueueReceive+0x122>
1000a110:	3d01      	subs	r5, #1
1000a112:	f7fe fe3d 	bl	10008d90 <vTaskMissedYield>
1000a116:	b2ea      	uxtb	r2, r5
1000a118:	b26d      	sxtb	r5, r5
1000a11a:	2a00      	cmp	r2, #0
1000a11c:	d1f0      	bne.n	1000a100 <xQueueReceive+0x12c>
1000a11e:	2345      	movs	r3, #69	; 0x45
1000a120:	22ff      	movs	r2, #255	; 0xff
1000a122:	54e2      	strb	r2, [r4, r3]
1000a124:	f7ff fbaa 	bl	1000987c <vPortExitCritical>
1000a128:	f7ff fb9c 	bl	10009864 <vPortEnterCritical>
1000a12c:	2310      	movs	r3, #16
1000a12e:	4699      	mov	r9, r3
1000a130:	5de5      	ldrb	r5, [r4, r7]
1000a132:	44a1      	add	r9, r4
1000a134:	b26d      	sxtb	r5, r5
1000a136:	2d00      	cmp	r5, #0
1000a138:	dc05      	bgt.n	1000a146 <xQueueReceive+0x172>
1000a13a:	e013      	b.n	1000a164 <xQueueReceive+0x190>
1000a13c:	3d01      	subs	r5, #1
1000a13e:	b2ea      	uxtb	r2, r5
1000a140:	b26d      	sxtb	r5, r5
1000a142:	2a00      	cmp	r2, #0
1000a144:	d00e      	beq.n	1000a164 <xQueueReceive+0x190>
1000a146:	6923      	ldr	r3, [r4, #16]
1000a148:	2b00      	cmp	r3, #0
1000a14a:	d00b      	beq.n	1000a164 <xQueueReceive+0x190>
1000a14c:	4648      	mov	r0, r9
1000a14e:	f7fe fd33 	bl	10008bb8 <xTaskRemoveFromEventList>
1000a152:	2800      	cmp	r0, #0
1000a154:	d0f2      	beq.n	1000a13c <xQueueReceive+0x168>
1000a156:	3d01      	subs	r5, #1
1000a158:	f7fe fe1a 	bl	10008d90 <vTaskMissedYield>
1000a15c:	b2ea      	uxtb	r2, r5
1000a15e:	b26d      	sxtb	r5, r5
1000a160:	2a00      	cmp	r2, #0
1000a162:	d1f0      	bne.n	1000a146 <xQueueReceive+0x172>
1000a164:	23ff      	movs	r3, #255	; 0xff
1000a166:	55e3      	strb	r3, [r4, r7]
1000a168:	f7ff fb88 	bl	1000987c <vPortExitCritical>
1000a16c:	f7fe fab6 	bl	100086dc <xTaskResumeAll>
1000a170:	f7ff fb78 	bl	10009864 <vPortEnterCritical>
1000a174:	6ba3      	ldr	r3, [r4, #56]	; 0x38
1000a176:	2b00      	cmp	r3, #0
1000a178:	d00a      	beq.n	1000a190 <xQueueReceive+0x1bc>
1000a17a:	f7ff fb7f 	bl	1000987c <vPortExitCritical>
1000a17e:	f7ff fb71 	bl	10009864 <vPortEnterCritical>
1000a182:	6ba5      	ldr	r5, [r4, #56]	; 0x38
1000a184:	2d00      	cmp	r5, #0
1000a186:	d153      	bne.n	1000a230 <xQueueReceive+0x25c>
1000a188:	9b01      	ldr	r3, [sp, #4]
1000a18a:	2b00      	cmp	r3, #0
1000a18c:	d000      	beq.n	1000a190 <xQueueReceive+0x1bc>
1000a18e:	e739      	b.n	1000a004 <xQueueReceive+0x30>
1000a190:	f7ff fb74 	bl	1000987c <vPortExitCritical>
1000a194:	2000      	movs	r0, #0
1000a196:	b005      	add	sp, #20
1000a198:	bcc0      	pop	{r6, r7}
1000a19a:	46b9      	mov	r9, r7
1000a19c:	46b0      	mov	r8, r6
1000a19e:	bdf0      	pop	{r4, r5, r6, r7, pc}
1000a1a0:	f7ff fb6c 	bl	1000987c <vPortExitCritical>
1000a1a4:	f7ff fb5e 	bl	10009864 <vPortEnterCritical>
1000a1a8:	2345      	movs	r3, #69	; 0x45
1000a1aa:	5ce5      	ldrb	r5, [r4, r3]
1000a1ac:	b26d      	sxtb	r5, r5
1000a1ae:	2d00      	cmp	r5, #0
1000a1b0:	dc05      	bgt.n	1000a1be <xQueueReceive+0x1ea>
1000a1b2:	e013      	b.n	1000a1dc <xQueueReceive+0x208>
1000a1b4:	3d01      	subs	r5, #1
1000a1b6:	b2ea      	uxtb	r2, r5
1000a1b8:	b26d      	sxtb	r5, r5
1000a1ba:	2a00      	cmp	r2, #0
1000a1bc:	d00e      	beq.n	1000a1dc <xQueueReceive+0x208>
1000a1be:	6a63      	ldr	r3, [r4, #36]	; 0x24
1000a1c0:	2b00      	cmp	r3, #0
1000a1c2:	d00b      	beq.n	1000a1dc <xQueueReceive+0x208>
1000a1c4:	0030      	movs	r0, r6
1000a1c6:	f7fe fcf7 	bl	10008bb8 <xTaskRemoveFromEventList>
1000a1ca:	2800      	cmp	r0, #0
1000a1cc:	d0f2      	beq.n	1000a1b4 <xQueueReceive+0x1e0>
1000a1ce:	3d01      	subs	r5, #1
1000a1d0:	f7fe fdde 	bl	10008d90 <vTaskMissedYield>
1000a1d4:	b2ea      	uxtb	r2, r5
1000a1d6:	b26d      	sxtb	r5, r5
1000a1d8:	2a00      	cmp	r2, #0
1000a1da:	d1f0      	bne.n	1000a1be <xQueueReceive+0x1ea>
1000a1dc:	2345      	movs	r3, #69	; 0x45
1000a1de:	22ff      	movs	r2, #255	; 0xff
1000a1e0:	54e2      	strb	r2, [r4, r3]
1000a1e2:	f7ff fb4b 	bl	1000987c <vPortExitCritical>
1000a1e6:	f7ff fb3d 	bl	10009864 <vPortEnterCritical>
1000a1ea:	2310      	movs	r3, #16
1000a1ec:	4699      	mov	r9, r3
1000a1ee:	5de5      	ldrb	r5, [r4, r7]
1000a1f0:	44a1      	add	r9, r4
1000a1f2:	b26d      	sxtb	r5, r5
1000a1f4:	2d00      	cmp	r5, #0
1000a1f6:	dc05      	bgt.n	1000a204 <xQueueReceive+0x230>
1000a1f8:	e013      	b.n	1000a222 <xQueueReceive+0x24e>
1000a1fa:	3d01      	subs	r5, #1
1000a1fc:	b2ea      	uxtb	r2, r5
1000a1fe:	b26d      	sxtb	r5, r5
1000a200:	2a00      	cmp	r2, #0
1000a202:	d00e      	beq.n	1000a222 <xQueueReceive+0x24e>
1000a204:	6923      	ldr	r3, [r4, #16]
1000a206:	2b00      	cmp	r3, #0
1000a208:	d00b      	beq.n	1000a222 <xQueueReceive+0x24e>
1000a20a:	4648      	mov	r0, r9
1000a20c:	f7fe fcd4 	bl	10008bb8 <xTaskRemoveFromEventList>
1000a210:	2800      	cmp	r0, #0
1000a212:	d0f2      	beq.n	1000a1fa <xQueueReceive+0x226>
1000a214:	3d01      	subs	r5, #1
1000a216:	f7fe fdbb 	bl	10008d90 <vTaskMissedYield>
1000a21a:	b2ea      	uxtb	r2, r5
1000a21c:	b26d      	sxtb	r5, r5
1000a21e:	2a00      	cmp	r2, #0
1000a220:	d1f0      	bne.n	1000a204 <xQueueReceive+0x230>
1000a222:	23ff      	movs	r3, #255	; 0xff
1000a224:	55e3      	strb	r3, [r4, r7]
1000a226:	f7ff fb29 	bl	1000987c <vPortExitCritical>
1000a22a:	f7fe fa57 	bl	100086dc <xTaskResumeAll>
1000a22e:	e7a6      	b.n	1000a17e <xQueueReceive+0x1aa>
1000a230:	6c22      	ldr	r2, [r4, #64]	; 0x40
1000a232:	2a00      	cmp	r2, #0
1000a234:	d008      	beq.n	1000a248 <xQueueReceive+0x274>
1000a236:	68e3      	ldr	r3, [r4, #12]
1000a238:	1899      	adds	r1, r3, r2
1000a23a:	68a3      	ldr	r3, [r4, #8]
1000a23c:	60e1      	str	r1, [r4, #12]
1000a23e:	4299      	cmp	r1, r3
1000a240:	d20b      	bcs.n	1000a25a <xQueueReceive+0x286>
1000a242:	4640      	mov	r0, r8
1000a244:	f7fa fd54 	bl	10004cf0 <__wrap___aeabi_memcpy>
1000a248:	3d01      	subs	r5, #1
1000a24a:	63a5      	str	r5, [r4, #56]	; 0x38
1000a24c:	6923      	ldr	r3, [r4, #16]
1000a24e:	2b00      	cmp	r3, #0
1000a250:	d106      	bne.n	1000a260 <xQueueReceive+0x28c>
1000a252:	f7ff fb13 	bl	1000987c <vPortExitCritical>
1000a256:	2001      	movs	r0, #1
1000a258:	e79d      	b.n	1000a196 <xQueueReceive+0x1c2>
1000a25a:	6821      	ldr	r1, [r4, #0]
1000a25c:	60e1      	str	r1, [r4, #12]
1000a25e:	e7f0      	b.n	1000a242 <xQueueReceive+0x26e>
1000a260:	0020      	movs	r0, r4
1000a262:	3010      	adds	r0, #16
1000a264:	f7fe fca8 	bl	10008bb8 <xTaskRemoveFromEventList>
1000a268:	2800      	cmp	r0, #0
1000a26a:	d0f2      	beq.n	1000a252 <xQueueReceive+0x27e>
1000a26c:	f7ff faee 	bl	1000984c <vPortYield>
1000a270:	e7ef      	b.n	1000a252 <xQueueReceive+0x27e>
1000a272:	46c0      	nop			; (mov r8, r8)

1000a274 <xQueueSemaphoreTake>:
1000a274:	b5f0      	push	{r4, r5, r6, r7, lr}
1000a276:	46c6      	mov	lr, r8
1000a278:	0004      	movs	r4, r0
1000a27a:	b500      	push	{lr}
1000a27c:	b084      	sub	sp, #16
1000a27e:	9101      	str	r1, [sp, #4]
1000a280:	f7ff faf0 	bl	10009864 <vPortEnterCritical>
1000a284:	6ba3      	ldr	r3, [r4, #56]	; 0x38
1000a286:	2b00      	cmp	r3, #0
1000a288:	d000      	beq.n	1000a28c <xQueueSemaphoreTake+0x18>
1000a28a:	e122      	b.n	1000a4d2 <xQueueSemaphoreTake+0x25e>
1000a28c:	9b01      	ldr	r3, [sp, #4]
1000a28e:	2b00      	cmp	r3, #0
1000a290:	d100      	bne.n	1000a294 <xQueueSemaphoreTake+0x20>
1000a292:	e0cb      	b.n	1000a42c <xQueueSemaphoreTake+0x1b8>
1000a294:	0026      	movs	r6, r4
1000a296:	a802      	add	r0, sp, #8
1000a298:	f7fe fd4a 	bl	10008d30 <vTaskInternalSetTimeOutState>
1000a29c:	2744      	movs	r7, #68	; 0x44
1000a29e:	3624      	adds	r6, #36	; 0x24
1000a2a0:	f7ff faec 	bl	1000987c <vPortExitCritical>
1000a2a4:	f7fe fa12 	bl	100086cc <vTaskSuspendAll>
1000a2a8:	f7ff fadc 	bl	10009864 <vPortEnterCritical>
1000a2ac:	5de3      	ldrb	r3, [r4, r7]
1000a2ae:	b25b      	sxtb	r3, r3
1000a2b0:	3301      	adds	r3, #1
1000a2b2:	d101      	bne.n	1000a2b8 <xQueueSemaphoreTake+0x44>
1000a2b4:	2300      	movs	r3, #0
1000a2b6:	55e3      	strb	r3, [r4, r7]
1000a2b8:	2245      	movs	r2, #69	; 0x45
1000a2ba:	5ca3      	ldrb	r3, [r4, r2]
1000a2bc:	b25b      	sxtb	r3, r3
1000a2be:	3301      	adds	r3, #1
1000a2c0:	d101      	bne.n	1000a2c6 <xQueueSemaphoreTake+0x52>
1000a2c2:	2300      	movs	r3, #0
1000a2c4:	54a3      	strb	r3, [r4, r2]
1000a2c6:	f7ff fad9 	bl	1000987c <vPortExitCritical>
1000a2ca:	a901      	add	r1, sp, #4
1000a2cc:	a802      	add	r0, sp, #8
1000a2ce:	f7fe fd37 	bl	10008d40 <xTaskCheckForTimeOut>
1000a2d2:	2800      	cmp	r0, #0
1000a2d4:	d155      	bne.n	1000a382 <xQueueSemaphoreTake+0x10e>
1000a2d6:	f7ff fac5 	bl	10009864 <vPortEnterCritical>
1000a2da:	6ba3      	ldr	r3, [r4, #56]	; 0x38
1000a2dc:	2b00      	cmp	r3, #0
1000a2de:	d000      	beq.n	1000a2e2 <xQueueSemaphoreTake+0x6e>
1000a2e0:	e0ab      	b.n	1000a43a <xQueueSemaphoreTake+0x1c6>
1000a2e2:	f7ff facb 	bl	1000987c <vPortExitCritical>
1000a2e6:	0030      	movs	r0, r6
1000a2e8:	9901      	ldr	r1, [sp, #4]
1000a2ea:	f7fe fb8f 	bl	10008a0c <vTaskPlaceOnEventList>
1000a2ee:	f7ff fab9 	bl	10009864 <vPortEnterCritical>
1000a2f2:	2345      	movs	r3, #69	; 0x45
1000a2f4:	5ce5      	ldrb	r5, [r4, r3]
1000a2f6:	b26d      	sxtb	r5, r5
1000a2f8:	2d00      	cmp	r5, #0
1000a2fa:	dc05      	bgt.n	1000a308 <xQueueSemaphoreTake+0x94>
1000a2fc:	e013      	b.n	1000a326 <xQueueSemaphoreTake+0xb2>
1000a2fe:	3d01      	subs	r5, #1
1000a300:	b2ea      	uxtb	r2, r5
1000a302:	b26d      	sxtb	r5, r5
1000a304:	2a00      	cmp	r2, #0
1000a306:	d00e      	beq.n	1000a326 <xQueueSemaphoreTake+0xb2>
1000a308:	6a63      	ldr	r3, [r4, #36]	; 0x24
1000a30a:	2b00      	cmp	r3, #0
1000a30c:	d00b      	beq.n	1000a326 <xQueueSemaphoreTake+0xb2>
1000a30e:	0030      	movs	r0, r6
1000a310:	f7fe fc52 	bl	10008bb8 <xTaskRemoveFromEventList>
1000a314:	2800      	cmp	r0, #0
1000a316:	d0f2      	beq.n	1000a2fe <xQueueSemaphoreTake+0x8a>
1000a318:	3d01      	subs	r5, #1
1000a31a:	f7fe fd39 	bl	10008d90 <vTaskMissedYield>
1000a31e:	b2ea      	uxtb	r2, r5
1000a320:	b26d      	sxtb	r5, r5
1000a322:	2a00      	cmp	r2, #0
1000a324:	d1f0      	bne.n	1000a308 <xQueueSemaphoreTake+0x94>
1000a326:	2345      	movs	r3, #69	; 0x45
1000a328:	22ff      	movs	r2, #255	; 0xff
1000a32a:	54e2      	strb	r2, [r4, r3]
1000a32c:	f7ff faa6 	bl	1000987c <vPortExitCritical>
1000a330:	f7ff fa98 	bl	10009864 <vPortEnterCritical>
1000a334:	5de5      	ldrb	r5, [r4, r7]
1000a336:	b26d      	sxtb	r5, r5
1000a338:	2d00      	cmp	r5, #0
1000a33a:	dd17      	ble.n	1000a36c <xQueueSemaphoreTake+0xf8>
1000a33c:	2310      	movs	r3, #16
1000a33e:	4698      	mov	r8, r3
1000a340:	44a0      	add	r8, r4
1000a342:	e004      	b.n	1000a34e <xQueueSemaphoreTake+0xda>
1000a344:	3d01      	subs	r5, #1
1000a346:	b2ea      	uxtb	r2, r5
1000a348:	b26d      	sxtb	r5, r5
1000a34a:	2a00      	cmp	r2, #0
1000a34c:	d00e      	beq.n	1000a36c <xQueueSemaphoreTake+0xf8>
1000a34e:	6923      	ldr	r3, [r4, #16]
1000a350:	2b00      	cmp	r3, #0
1000a352:	d00b      	beq.n	1000a36c <xQueueSemaphoreTake+0xf8>
1000a354:	4640      	mov	r0, r8
1000a356:	f7fe fc2f 	bl	10008bb8 <xTaskRemoveFromEventList>
1000a35a:	2800      	cmp	r0, #0
1000a35c:	d0f2      	beq.n	1000a344 <xQueueSemaphoreTake+0xd0>
1000a35e:	3d01      	subs	r5, #1
1000a360:	f7fe fd16 	bl	10008d90 <vTaskMissedYield>
1000a364:	b2ea      	uxtb	r2, r5
1000a366:	b26d      	sxtb	r5, r5
1000a368:	2a00      	cmp	r2, #0
1000a36a:	d1f0      	bne.n	1000a34e <xQueueSemaphoreTake+0xda>
1000a36c:	23ff      	movs	r3, #255	; 0xff
1000a36e:	55e3      	strb	r3, [r4, r7]
1000a370:	f7ff fa84 	bl	1000987c <vPortExitCritical>
1000a374:	f7fe f9b2 	bl	100086dc <xTaskResumeAll>
1000a378:	2800      	cmp	r0, #0
1000a37a:	d14e      	bne.n	1000a41a <xQueueSemaphoreTake+0x1a6>
1000a37c:	f7ff fa66 	bl	1000984c <vPortYield>
1000a380:	e04b      	b.n	1000a41a <xQueueSemaphoreTake+0x1a6>
1000a382:	f7ff fa6f 	bl	10009864 <vPortEnterCritical>
1000a386:	2345      	movs	r3, #69	; 0x45
1000a388:	5ce5      	ldrb	r5, [r4, r3]
1000a38a:	b26d      	sxtb	r5, r5
1000a38c:	2d00      	cmp	r5, #0
1000a38e:	dc05      	bgt.n	1000a39c <xQueueSemaphoreTake+0x128>
1000a390:	e013      	b.n	1000a3ba <xQueueSemaphoreTake+0x146>
1000a392:	3d01      	subs	r5, #1
1000a394:	b2ea      	uxtb	r2, r5
1000a396:	b26d      	sxtb	r5, r5
1000a398:	2a00      	cmp	r2, #0
1000a39a:	d00e      	beq.n	1000a3ba <xQueueSemaphoreTake+0x146>
1000a39c:	6a63      	ldr	r3, [r4, #36]	; 0x24
1000a39e:	2b00      	cmp	r3, #0
1000a3a0:	d00b      	beq.n	1000a3ba <xQueueSemaphoreTake+0x146>
1000a3a2:	0030      	movs	r0, r6
1000a3a4:	f7fe fc08 	bl	10008bb8 <xTaskRemoveFromEventList>
1000a3a8:	2800      	cmp	r0, #0
1000a3aa:	d0f2      	beq.n	1000a392 <xQueueSemaphoreTake+0x11e>
1000a3ac:	3d01      	subs	r5, #1
1000a3ae:	f7fe fcef 	bl	10008d90 <vTaskMissedYield>
1000a3b2:	b2ea      	uxtb	r2, r5
1000a3b4:	b26d      	sxtb	r5, r5
1000a3b6:	2a00      	cmp	r2, #0
1000a3b8:	d1f0      	bne.n	1000a39c <xQueueSemaphoreTake+0x128>
1000a3ba:	2345      	movs	r3, #69	; 0x45
1000a3bc:	22ff      	movs	r2, #255	; 0xff
1000a3be:	54e2      	strb	r2, [r4, r3]
1000a3c0:	f7ff fa5c 	bl	1000987c <vPortExitCritical>
1000a3c4:	f7ff fa4e 	bl	10009864 <vPortEnterCritical>
1000a3c8:	5de5      	ldrb	r5, [r4, r7]
1000a3ca:	b26d      	sxtb	r5, r5
1000a3cc:	2d00      	cmp	r5, #0
1000a3ce:	dd17      	ble.n	1000a400 <xQueueSemaphoreTake+0x18c>
1000a3d0:	2310      	movs	r3, #16
1000a3d2:	4698      	mov	r8, r3
1000a3d4:	44a0      	add	r8, r4
1000a3d6:	e004      	b.n	1000a3e2 <xQueueSemaphoreTake+0x16e>
1000a3d8:	3d01      	subs	r5, #1
1000a3da:	b2ea      	uxtb	r2, r5
1000a3dc:	b26d      	sxtb	r5, r5
1000a3de:	2a00      	cmp	r2, #0
1000a3e0:	d00e      	beq.n	1000a400 <xQueueSemaphoreTake+0x18c>
1000a3e2:	6923      	ldr	r3, [r4, #16]
1000a3e4:	2b00      	cmp	r3, #0
1000a3e6:	d00b      	beq.n	1000a400 <xQueueSemaphoreTake+0x18c>
1000a3e8:	4640      	mov	r0, r8
1000a3ea:	f7fe fbe5 	bl	10008bb8 <xTaskRemoveFromEventList>
1000a3ee:	2800      	cmp	r0, #0
1000a3f0:	d0f2      	beq.n	1000a3d8 <xQueueSemaphoreTake+0x164>
1000a3f2:	3d01      	subs	r5, #1
1000a3f4:	f7fe fccc 	bl	10008d90 <vTaskMissedYield>
1000a3f8:	b2ea      	uxtb	r2, r5
1000a3fa:	b26d      	sxtb	r5, r5
1000a3fc:	2a00      	cmp	r2, #0
1000a3fe:	d1f0      	bne.n	1000a3e2 <xQueueSemaphoreTake+0x16e>
1000a400:	23ff      	movs	r3, #255	; 0xff
1000a402:	55e3      	strb	r3, [r4, r7]
1000a404:	f7ff fa3a 	bl	1000987c <vPortExitCritical>
1000a408:	f7fe f968 	bl	100086dc <xTaskResumeAll>
1000a40c:	f7ff fa2a 	bl	10009864 <vPortEnterCritical>
1000a410:	6ba3      	ldr	r3, [r4, #56]	; 0x38
1000a412:	2b00      	cmp	r3, #0
1000a414:	d00a      	beq.n	1000a42c <xQueueSemaphoreTake+0x1b8>
1000a416:	f7ff fa31 	bl	1000987c <vPortExitCritical>
1000a41a:	f7ff fa23 	bl	10009864 <vPortEnterCritical>
1000a41e:	6ba3      	ldr	r3, [r4, #56]	; 0x38
1000a420:	2b00      	cmp	r3, #0
1000a422:	d156      	bne.n	1000a4d2 <xQueueSemaphoreTake+0x25e>
1000a424:	9b01      	ldr	r3, [sp, #4]
1000a426:	2b00      	cmp	r3, #0
1000a428:	d000      	beq.n	1000a42c <xQueueSemaphoreTake+0x1b8>
1000a42a:	e739      	b.n	1000a2a0 <xQueueSemaphoreTake+0x2c>
1000a42c:	f7ff fa26 	bl	1000987c <vPortExitCritical>
1000a430:	2000      	movs	r0, #0
1000a432:	b004      	add	sp, #16
1000a434:	bc80      	pop	{r7}
1000a436:	46b8      	mov	r8, r7
1000a438:	bdf0      	pop	{r4, r5, r6, r7, pc}
1000a43a:	f7ff fa1f 	bl	1000987c <vPortExitCritical>
1000a43e:	f7ff fa11 	bl	10009864 <vPortEnterCritical>
1000a442:	2345      	movs	r3, #69	; 0x45
1000a444:	5ce5      	ldrb	r5, [r4, r3]
1000a446:	b26d      	sxtb	r5, r5
1000a448:	2d00      	cmp	r5, #0
1000a44a:	dc05      	bgt.n	1000a458 <xQueueSemaphoreTake+0x1e4>
1000a44c:	e013      	b.n	1000a476 <xQueueSemaphoreTake+0x202>
1000a44e:	3d01      	subs	r5, #1
1000a450:	b2ea      	uxtb	r2, r5
1000a452:	b26d      	sxtb	r5, r5
1000a454:	2a00      	cmp	r2, #0
1000a456:	d00e      	beq.n	1000a476 <xQueueSemaphoreTake+0x202>
1000a458:	6a63      	ldr	r3, [r4, #36]	; 0x24
1000a45a:	2b00      	cmp	r3, #0
1000a45c:	d00b      	beq.n	1000a476 <xQueueSemaphoreTake+0x202>
1000a45e:	0030      	movs	r0, r6
1000a460:	f7fe fbaa 	bl	10008bb8 <xTaskRemoveFromEventList>
1000a464:	2800      	cmp	r0, #0
1000a466:	d0f2      	beq.n	1000a44e <xQueueSemaphoreTake+0x1da>
1000a468:	3d01      	subs	r5, #1
1000a46a:	f7fe fc91 	bl	10008d90 <vTaskMissedYield>
1000a46e:	b2ea      	uxtb	r2, r5
1000a470:	b26d      	sxtb	r5, r5
1000a472:	2a00      	cmp	r2, #0
1000a474:	d1f0      	bne.n	1000a458 <xQueueSemaphoreTake+0x1e4>
1000a476:	2345      	movs	r3, #69	; 0x45
1000a478:	22ff      	movs	r2, #255	; 0xff
1000a47a:	54e2      	strb	r2, [r4, r3]
1000a47c:	f7ff f9fe 	bl	1000987c <vPortExitCritical>
1000a480:	f7ff f9f0 	bl	10009864 <vPortEnterCritical>
1000a484:	5de5      	ldrb	r5, [r4, r7]
1000a486:	b26d      	sxtb	r5, r5
1000a488:	2d00      	cmp	r5, #0
1000a48a:	dd17      	ble.n	1000a4bc <xQueueSemaphoreTake+0x248>
1000a48c:	2310      	movs	r3, #16
1000a48e:	4698      	mov	r8, r3
1000a490:	44a0      	add	r8, r4
1000a492:	e004      	b.n	1000a49e <xQueueSemaphoreTake+0x22a>
1000a494:	3d01      	subs	r5, #1
1000a496:	b2ea      	uxtb	r2, r5
1000a498:	b26d      	sxtb	r5, r5
1000a49a:	2a00      	cmp	r2, #0
1000a49c:	d00e      	beq.n	1000a4bc <xQueueSemaphoreTake+0x248>
1000a49e:	6923      	ldr	r3, [r4, #16]
1000a4a0:	2b00      	cmp	r3, #0
1000a4a2:	d00b      	beq.n	1000a4bc <xQueueSemaphoreTake+0x248>
1000a4a4:	4640      	mov	r0, r8
1000a4a6:	f7fe fb87 	bl	10008bb8 <xTaskRemoveFromEventList>
1000a4aa:	2800      	cmp	r0, #0
1000a4ac:	d0f2      	beq.n	1000a494 <xQueueSemaphoreTake+0x220>
1000a4ae:	3d01      	subs	r5, #1
1000a4b0:	f7fe fc6e 	bl	10008d90 <vTaskMissedYield>
1000a4b4:	b2ea      	uxtb	r2, r5
1000a4b6:	b26d      	sxtb	r5, r5
1000a4b8:	2a00      	cmp	r2, #0
1000a4ba:	d1f0      	bne.n	1000a49e <xQueueSemaphoreTake+0x22a>
1000a4bc:	23ff      	movs	r3, #255	; 0xff
1000a4be:	55e3      	strb	r3, [r4, r7]
1000a4c0:	f7ff f9dc 	bl	1000987c <vPortExitCritical>
1000a4c4:	f7fe f90a 	bl	100086dc <xTaskResumeAll>
1000a4c8:	f7ff f9cc 	bl	10009864 <vPortEnterCritical>
1000a4cc:	6ba3      	ldr	r3, [r4, #56]	; 0x38
1000a4ce:	2b00      	cmp	r3, #0
1000a4d0:	d0a8      	beq.n	1000a424 <xQueueSemaphoreTake+0x1b0>
1000a4d2:	3b01      	subs	r3, #1
1000a4d4:	63a3      	str	r3, [r4, #56]	; 0x38
1000a4d6:	6923      	ldr	r3, [r4, #16]
1000a4d8:	2b00      	cmp	r3, #0
1000a4da:	d103      	bne.n	1000a4e4 <xQueueSemaphoreTake+0x270>
1000a4dc:	f7ff f9ce 	bl	1000987c <vPortExitCritical>
1000a4e0:	2001      	movs	r0, #1
1000a4e2:	e7a6      	b.n	1000a432 <xQueueSemaphoreTake+0x1be>
1000a4e4:	0020      	movs	r0, r4
1000a4e6:	3010      	adds	r0, #16
1000a4e8:	f7fe fb66 	bl	10008bb8 <xTaskRemoveFromEventList>
1000a4ec:	2800      	cmp	r0, #0
1000a4ee:	d0f5      	beq.n	1000a4dc <xQueueSemaphoreTake+0x268>
1000a4f0:	f7ff f9ac 	bl	1000984c <vPortYield>
1000a4f4:	e7f2      	b.n	1000a4dc <xQueueSemaphoreTake+0x268>
1000a4f6:	46c0      	nop			; (mov r8, r8)

1000a4f8 <xQueuePeek>:
1000a4f8:	b5f0      	push	{r4, r5, r6, r7, lr}
1000a4fa:	46ce      	mov	lr, r9
1000a4fc:	4647      	mov	r7, r8
1000a4fe:	0004      	movs	r4, r0
1000a500:	b580      	push	{r7, lr}
1000a502:	b085      	sub	sp, #20
1000a504:	4688      	mov	r8, r1
1000a506:	9201      	str	r2, [sp, #4]
1000a508:	f7ff f9ac 	bl	10009864 <vPortEnterCritical>
1000a50c:	6ba3      	ldr	r3, [r4, #56]	; 0x38
1000a50e:	2b00      	cmp	r3, #0
1000a510:	d000      	beq.n	1000a514 <xQueuePeek+0x1c>
1000a512:	e11f      	b.n	1000a754 <xQueuePeek+0x25c>
1000a514:	9b01      	ldr	r3, [sp, #4]
1000a516:	2b00      	cmp	r3, #0
1000a518:	d100      	bne.n	1000a51c <xQueuePeek+0x24>
1000a51a:	e0cb      	b.n	1000a6b4 <xQueuePeek+0x1bc>
1000a51c:	0026      	movs	r6, r4
1000a51e:	a802      	add	r0, sp, #8
1000a520:	f7fe fc06 	bl	10008d30 <vTaskInternalSetTimeOutState>
1000a524:	2744      	movs	r7, #68	; 0x44
1000a526:	3624      	adds	r6, #36	; 0x24
1000a528:	f7ff f9a8 	bl	1000987c <vPortExitCritical>
1000a52c:	f7fe f8ce 	bl	100086cc <vTaskSuspendAll>
1000a530:	f7ff f998 	bl	10009864 <vPortEnterCritical>
1000a534:	5de3      	ldrb	r3, [r4, r7]
1000a536:	b25b      	sxtb	r3, r3
1000a538:	3301      	adds	r3, #1
1000a53a:	d101      	bne.n	1000a540 <xQueuePeek+0x48>
1000a53c:	2300      	movs	r3, #0
1000a53e:	55e3      	strb	r3, [r4, r7]
1000a540:	2245      	movs	r2, #69	; 0x45
1000a542:	5ca3      	ldrb	r3, [r4, r2]
1000a544:	b25b      	sxtb	r3, r3
1000a546:	3301      	adds	r3, #1
1000a548:	d101      	bne.n	1000a54e <xQueuePeek+0x56>
1000a54a:	2300      	movs	r3, #0
1000a54c:	54a3      	strb	r3, [r4, r2]
1000a54e:	f7ff f995 	bl	1000987c <vPortExitCritical>
1000a552:	a901      	add	r1, sp, #4
1000a554:	a802      	add	r0, sp, #8
1000a556:	f7fe fbf3 	bl	10008d40 <xTaskCheckForTimeOut>
1000a55a:	2800      	cmp	r0, #0
1000a55c:	d155      	bne.n	1000a60a <xQueuePeek+0x112>
1000a55e:	f7ff f981 	bl	10009864 <vPortEnterCritical>
1000a562:	6ba3      	ldr	r3, [r4, #56]	; 0x38
1000a564:	2b00      	cmp	r3, #0
1000a566:	d000      	beq.n	1000a56a <xQueuePeek+0x72>
1000a568:	e0ac      	b.n	1000a6c4 <xQueuePeek+0x1cc>
1000a56a:	f7ff f987 	bl	1000987c <vPortExitCritical>
1000a56e:	0030      	movs	r0, r6
1000a570:	9901      	ldr	r1, [sp, #4]
1000a572:	f7fe fa4b 	bl	10008a0c <vTaskPlaceOnEventList>
1000a576:	f7ff f975 	bl	10009864 <vPortEnterCritical>
1000a57a:	2345      	movs	r3, #69	; 0x45
1000a57c:	5ce5      	ldrb	r5, [r4, r3]
1000a57e:	b26d      	sxtb	r5, r5
1000a580:	2d00      	cmp	r5, #0
1000a582:	dc05      	bgt.n	1000a590 <xQueuePeek+0x98>
1000a584:	e013      	b.n	1000a5ae <xQueuePeek+0xb6>
1000a586:	3d01      	subs	r5, #1
1000a588:	b2ea      	uxtb	r2, r5
1000a58a:	b26d      	sxtb	r5, r5
1000a58c:	2a00      	cmp	r2, #0
1000a58e:	d00e      	beq.n	1000a5ae <xQueuePeek+0xb6>
1000a590:	6a63      	ldr	r3, [r4, #36]	; 0x24
1000a592:	2b00      	cmp	r3, #0
1000a594:	d00b      	beq.n	1000a5ae <xQueuePeek+0xb6>
1000a596:	0030      	movs	r0, r6
1000a598:	f7fe fb0e 	bl	10008bb8 <xTaskRemoveFromEventList>
1000a59c:	2800      	cmp	r0, #0
1000a59e:	d0f2      	beq.n	1000a586 <xQueuePeek+0x8e>
1000a5a0:	3d01      	subs	r5, #1
1000a5a2:	f7fe fbf5 	bl	10008d90 <vTaskMissedYield>
1000a5a6:	b2ea      	uxtb	r2, r5
1000a5a8:	b26d      	sxtb	r5, r5
1000a5aa:	2a00      	cmp	r2, #0
1000a5ac:	d1f0      	bne.n	1000a590 <xQueuePeek+0x98>
1000a5ae:	2345      	movs	r3, #69	; 0x45
1000a5b0:	22ff      	movs	r2, #255	; 0xff
1000a5b2:	54e2      	strb	r2, [r4, r3]
1000a5b4:	f7ff f962 	bl	1000987c <vPortExitCritical>
1000a5b8:	f7ff f954 	bl	10009864 <vPortEnterCritical>
1000a5bc:	2310      	movs	r3, #16
1000a5be:	4699      	mov	r9, r3
1000a5c0:	5de5      	ldrb	r5, [r4, r7]
1000a5c2:	44a1      	add	r9, r4
1000a5c4:	b26d      	sxtb	r5, r5
1000a5c6:	2d00      	cmp	r5, #0
1000a5c8:	dc05      	bgt.n	1000a5d6 <xQueuePeek+0xde>
1000a5ca:	e013      	b.n	1000a5f4 <xQueuePeek+0xfc>
1000a5cc:	3d01      	subs	r5, #1
1000a5ce:	b2ea      	uxtb	r2, r5
1000a5d0:	b26d      	sxtb	r5, r5
1000a5d2:	2a00      	cmp	r2, #0
1000a5d4:	d00e      	beq.n	1000a5f4 <xQueuePeek+0xfc>
1000a5d6:	6923      	ldr	r3, [r4, #16]
1000a5d8:	2b00      	cmp	r3, #0
1000a5da:	d00b      	beq.n	1000a5f4 <xQueuePeek+0xfc>
1000a5dc:	4648      	mov	r0, r9
1000a5de:	f7fe faeb 	bl	10008bb8 <xTaskRemoveFromEventList>
1000a5e2:	2800      	cmp	r0, #0
1000a5e4:	d0f2      	beq.n	1000a5cc <xQueuePeek+0xd4>
1000a5e6:	3d01      	subs	r5, #1
1000a5e8:	f7fe fbd2 	bl	10008d90 <vTaskMissedYield>
1000a5ec:	b2ea      	uxtb	r2, r5
1000a5ee:	b26d      	sxtb	r5, r5
1000a5f0:	2a00      	cmp	r2, #0
1000a5f2:	d1f0      	bne.n	1000a5d6 <xQueuePeek+0xde>
1000a5f4:	23ff      	movs	r3, #255	; 0xff
1000a5f6:	55e3      	strb	r3, [r4, r7]
1000a5f8:	f7ff f940 	bl	1000987c <vPortExitCritical>
1000a5fc:	f7fe f86e 	bl	100086dc <xTaskResumeAll>
1000a600:	2800      	cmp	r0, #0
1000a602:	d14e      	bne.n	1000a6a2 <xQueuePeek+0x1aa>
1000a604:	f7ff f922 	bl	1000984c <vPortYield>
1000a608:	e04b      	b.n	1000a6a2 <xQueuePeek+0x1aa>
1000a60a:	f7ff f92b 	bl	10009864 <vPortEnterCritical>
1000a60e:	2345      	movs	r3, #69	; 0x45
1000a610:	5ce5      	ldrb	r5, [r4, r3]
1000a612:	b26d      	sxtb	r5, r5
1000a614:	2d00      	cmp	r5, #0
1000a616:	dc05      	bgt.n	1000a624 <xQueuePeek+0x12c>
1000a618:	e013      	b.n	1000a642 <xQueuePeek+0x14a>
1000a61a:	3d01      	subs	r5, #1
1000a61c:	b2ea      	uxtb	r2, r5
1000a61e:	b26d      	sxtb	r5, r5
1000a620:	2a00      	cmp	r2, #0
1000a622:	d00e      	beq.n	1000a642 <xQueuePeek+0x14a>
1000a624:	6a63      	ldr	r3, [r4, #36]	; 0x24
1000a626:	2b00      	cmp	r3, #0
1000a628:	d00b      	beq.n	1000a642 <xQueuePeek+0x14a>
1000a62a:	0030      	movs	r0, r6
1000a62c:	f7fe fac4 	bl	10008bb8 <xTaskRemoveFromEventList>
1000a630:	2800      	cmp	r0, #0
1000a632:	d0f2      	beq.n	1000a61a <xQueuePeek+0x122>
1000a634:	3d01      	subs	r5, #1
1000a636:	f7fe fbab 	bl	10008d90 <vTaskMissedYield>
1000a63a:	b2ea      	uxtb	r2, r5
1000a63c:	b26d      	sxtb	r5, r5
1000a63e:	2a00      	cmp	r2, #0
1000a640:	d1f0      	bne.n	1000a624 <xQueuePeek+0x12c>
1000a642:	2345      	movs	r3, #69	; 0x45
1000a644:	22ff      	movs	r2, #255	; 0xff
1000a646:	54e2      	strb	r2, [r4, r3]
1000a648:	f7ff f918 	bl	1000987c <vPortExitCritical>
1000a64c:	f7ff f90a 	bl	10009864 <vPortEnterCritical>
1000a650:	2310      	movs	r3, #16
1000a652:	4699      	mov	r9, r3
1000a654:	5de5      	ldrb	r5, [r4, r7]
1000a656:	44a1      	add	r9, r4
1000a658:	b26d      	sxtb	r5, r5
1000a65a:	2d00      	cmp	r5, #0
1000a65c:	dc05      	bgt.n	1000a66a <xQueuePeek+0x172>
1000a65e:	e013      	b.n	1000a688 <xQueuePeek+0x190>
1000a660:	3d01      	subs	r5, #1
1000a662:	b2ea      	uxtb	r2, r5
1000a664:	b26d      	sxtb	r5, r5
1000a666:	2a00      	cmp	r2, #0
1000a668:	d00e      	beq.n	1000a688 <xQueuePeek+0x190>
1000a66a:	6923      	ldr	r3, [r4, #16]
1000a66c:	2b00      	cmp	r3, #0
1000a66e:	d00b      	beq.n	1000a688 <xQueuePeek+0x190>
1000a670:	4648      	mov	r0, r9
1000a672:	f7fe faa1 	bl	10008bb8 <xTaskRemoveFromEventList>
1000a676:	2800      	cmp	r0, #0
1000a678:	d0f2      	beq.n	1000a660 <xQueuePeek+0x168>
1000a67a:	3d01      	subs	r5, #1
1000a67c:	f7fe fb88 	bl	10008d90 <vTaskMissedYield>
1000a680:	b2ea      	uxtb	r2, r5
1000a682:	b26d      	sxtb	r5, r5
1000a684:	2a00      	cmp	r2, #0
1000a686:	d1f0      	bne.n	1000a66a <xQueuePeek+0x172>
1000a688:	23ff      	movs	r3, #255	; 0xff
1000a68a:	55e3      	strb	r3, [r4, r7]
1000a68c:	f7ff f8f6 	bl	1000987c <vPortExitCritical>
1000a690:	f7fe f824 	bl	100086dc <xTaskResumeAll>
1000a694:	f7ff f8e6 	bl	10009864 <vPortEnterCritical>
1000a698:	6ba3      	ldr	r3, [r4, #56]	; 0x38
1000a69a:	2b00      	cmp	r3, #0
1000a69c:	d00a      	beq.n	1000a6b4 <xQueuePeek+0x1bc>
1000a69e:	f7ff f8ed 	bl	1000987c <vPortExitCritical>
1000a6a2:	f7ff f8df 	bl	10009864 <vPortEnterCritical>
1000a6a6:	6ba3      	ldr	r3, [r4, #56]	; 0x38
1000a6a8:	2b00      	cmp	r3, #0
1000a6aa:	d153      	bne.n	1000a754 <xQueuePeek+0x25c>
1000a6ac:	9b01      	ldr	r3, [sp, #4]
1000a6ae:	2b00      	cmp	r3, #0
1000a6b0:	d000      	beq.n	1000a6b4 <xQueuePeek+0x1bc>
1000a6b2:	e739      	b.n	1000a528 <xQueuePeek+0x30>
1000a6b4:	f7ff f8e2 	bl	1000987c <vPortExitCritical>
1000a6b8:	2000      	movs	r0, #0
1000a6ba:	b005      	add	sp, #20
1000a6bc:	bcc0      	pop	{r6, r7}
1000a6be:	46b9      	mov	r9, r7
1000a6c0:	46b0      	mov	r8, r6
1000a6c2:	bdf0      	pop	{r4, r5, r6, r7, pc}
1000a6c4:	f7ff f8da 	bl	1000987c <vPortExitCritical>
1000a6c8:	f7ff f8cc 	bl	10009864 <vPortEnterCritical>
1000a6cc:	2345      	movs	r3, #69	; 0x45
1000a6ce:	5ce5      	ldrb	r5, [r4, r3]
1000a6d0:	b26d      	sxtb	r5, r5
1000a6d2:	2d00      	cmp	r5, #0
1000a6d4:	dc05      	bgt.n	1000a6e2 <xQueuePeek+0x1ea>
1000a6d6:	e013      	b.n	1000a700 <xQueuePeek+0x208>
1000a6d8:	3d01      	subs	r5, #1
1000a6da:	b2ea      	uxtb	r2, r5
1000a6dc:	b26d      	sxtb	r5, r5
1000a6de:	2a00      	cmp	r2, #0
1000a6e0:	d00e      	beq.n	1000a700 <xQueuePeek+0x208>
1000a6e2:	6a63      	ldr	r3, [r4, #36]	; 0x24
1000a6e4:	2b00      	cmp	r3, #0
1000a6e6:	d00b      	beq.n	1000a700 <xQueuePeek+0x208>
1000a6e8:	0030      	movs	r0, r6
1000a6ea:	f7fe fa65 	bl	10008bb8 <xTaskRemoveFromEventList>
1000a6ee:	2800      	cmp	r0, #0
1000a6f0:	d0f2      	beq.n	1000a6d8 <xQueuePeek+0x1e0>
1000a6f2:	3d01      	subs	r5, #1
1000a6f4:	f7fe fb4c 	bl	10008d90 <vTaskMissedYield>
1000a6f8:	b2ea      	uxtb	r2, r5
1000a6fa:	b26d      	sxtb	r5, r5
1000a6fc:	2a00      	cmp	r2, #0
1000a6fe:	d1f0      	bne.n	1000a6e2 <xQueuePeek+0x1ea>
1000a700:	2345      	movs	r3, #69	; 0x45
1000a702:	22ff      	movs	r2, #255	; 0xff
1000a704:	54e2      	strb	r2, [r4, r3]
1000a706:	f7ff f8b9 	bl	1000987c <vPortExitCritical>
1000a70a:	f7ff f8ab 	bl	10009864 <vPortEnterCritical>
1000a70e:	2310      	movs	r3, #16
1000a710:	4699      	mov	r9, r3
1000a712:	5de5      	ldrb	r5, [r4, r7]
1000a714:	44a1      	add	r9, r4
1000a716:	b26d      	sxtb	r5, r5
1000a718:	2d00      	cmp	r5, #0
1000a71a:	dc05      	bgt.n	1000a728 <xQueuePeek+0x230>
1000a71c:	e013      	b.n	1000a746 <xQueuePeek+0x24e>
1000a71e:	3d01      	subs	r5, #1
1000a720:	b2ea      	uxtb	r2, r5
1000a722:	b26d      	sxtb	r5, r5
1000a724:	2a00      	cmp	r2, #0
1000a726:	d00e      	beq.n	1000a746 <xQueuePeek+0x24e>
1000a728:	6923      	ldr	r3, [r4, #16]
1000a72a:	2b00      	cmp	r3, #0
1000a72c:	d00b      	beq.n	1000a746 <xQueuePeek+0x24e>
1000a72e:	4648      	mov	r0, r9
1000a730:	f7fe fa42 	bl	10008bb8 <xTaskRemoveFromEventList>
1000a734:	2800      	cmp	r0, #0
1000a736:	d0f2      	beq.n	1000a71e <xQueuePeek+0x226>
1000a738:	3d01      	subs	r5, #1
1000a73a:	f7fe fb29 	bl	10008d90 <vTaskMissedYield>
1000a73e:	b2ea      	uxtb	r2, r5
1000a740:	b26d      	sxtb	r5, r5
1000a742:	2a00      	cmp	r2, #0
1000a744:	d1f0      	bne.n	1000a728 <xQueuePeek+0x230>
1000a746:	23ff      	movs	r3, #255	; 0xff
1000a748:	55e3      	strb	r3, [r4, r7]
1000a74a:	f7ff f897 	bl	1000987c <vPortExitCritical>
1000a74e:	f7fd ffc5 	bl	100086dc <xTaskResumeAll>
1000a752:	e7a6      	b.n	1000a6a2 <xQueuePeek+0x1aa>
1000a754:	6c22      	ldr	r2, [r4, #64]	; 0x40
1000a756:	68e5      	ldr	r5, [r4, #12]
1000a758:	2a00      	cmp	r2, #0
1000a75a:	d007      	beq.n	1000a76c <xQueuePeek+0x274>
1000a75c:	68a3      	ldr	r3, [r4, #8]
1000a75e:	18a9      	adds	r1, r5, r2
1000a760:	60e1      	str	r1, [r4, #12]
1000a762:	4299      	cmp	r1, r3
1000a764:	d20a      	bcs.n	1000a77c <xQueuePeek+0x284>
1000a766:	4640      	mov	r0, r8
1000a768:	f7fa fac2 	bl	10004cf0 <__wrap___aeabi_memcpy>
1000a76c:	6a63      	ldr	r3, [r4, #36]	; 0x24
1000a76e:	60e5      	str	r5, [r4, #12]
1000a770:	2b00      	cmp	r3, #0
1000a772:	d106      	bne.n	1000a782 <xQueuePeek+0x28a>
1000a774:	f7ff f882 	bl	1000987c <vPortExitCritical>
1000a778:	2001      	movs	r0, #1
1000a77a:	e79e      	b.n	1000a6ba <xQueuePeek+0x1c2>
1000a77c:	6821      	ldr	r1, [r4, #0]
1000a77e:	60e1      	str	r1, [r4, #12]
1000a780:	e7f1      	b.n	1000a766 <xQueuePeek+0x26e>
1000a782:	0020      	movs	r0, r4
1000a784:	3024      	adds	r0, #36	; 0x24
1000a786:	f7fe fa17 	bl	10008bb8 <xTaskRemoveFromEventList>
1000a78a:	2800      	cmp	r0, #0
1000a78c:	d0f2      	beq.n	1000a774 <xQueuePeek+0x27c>
1000a78e:	f7ff f85d 	bl	1000984c <vPortYield>
1000a792:	e7ef      	b.n	1000a774 <xQueuePeek+0x27c>

1000a794 <xQueueReceiveFromISR>:
1000a794:	b5f8      	push	{r3, r4, r5, r6, r7, lr}
1000a796:	46ce      	mov	lr, r9
1000a798:	4647      	mov	r7, r8
1000a79a:	0004      	movs	r4, r0
1000a79c:	b580      	push	{r7, lr}
1000a79e:	4689      	mov	r9, r1
1000a7a0:	4690      	mov	r8, r2
1000a7a2:	f7ff f875 	bl	10009890 <ulSetInterruptMaskFromISR>
1000a7a6:	6ba6      	ldr	r6, [r4, #56]	; 0x38
1000a7a8:	0005      	movs	r5, r0
1000a7aa:	2700      	movs	r7, #0
1000a7ac:	2e00      	cmp	r6, #0
1000a7ae:	d107      	bne.n	1000a7c0 <xQueueReceiveFromISR+0x2c>
1000a7b0:	0028      	movs	r0, r5
1000a7b2:	f7ff f871 	bl	10009898 <vClearInterruptMaskFromISR>
1000a7b6:	0038      	movs	r0, r7
1000a7b8:	bcc0      	pop	{r6, r7}
1000a7ba:	46b9      	mov	r9, r7
1000a7bc:	46b0      	mov	r8, r6
1000a7be:	bdf8      	pop	{r3, r4, r5, r6, r7, pc}
1000a7c0:	2344      	movs	r3, #68	; 0x44
1000a7c2:	6c22      	ldr	r2, [r4, #64]	; 0x40
1000a7c4:	5ce7      	ldrb	r7, [r4, r3]
1000a7c6:	b27f      	sxtb	r7, r7
1000a7c8:	2a00      	cmp	r2, #0
1000a7ca:	d00a      	beq.n	1000a7e2 <xQueueReceiveFromISR+0x4e>
1000a7cc:	68e3      	ldr	r3, [r4, #12]
1000a7ce:	1899      	adds	r1, r3, r2
1000a7d0:	68a3      	ldr	r3, [r4, #8]
1000a7d2:	60e1      	str	r1, [r4, #12]
1000a7d4:	4299      	cmp	r1, r3
1000a7d6:	d301      	bcc.n	1000a7dc <xQueueReceiveFromISR+0x48>
1000a7d8:	6821      	ldr	r1, [r4, #0]
1000a7da:	60e1      	str	r1, [r4, #12]
1000a7dc:	4648      	mov	r0, r9
1000a7de:	f7fa fa87 	bl	10004cf0 <__wrap___aeabi_memcpy>
1000a7e2:	3e01      	subs	r6, #1
1000a7e4:	63a6      	str	r6, [r4, #56]	; 0x38
1000a7e6:	1c7b      	adds	r3, r7, #1
1000a7e8:	d104      	bne.n	1000a7f4 <xQueueReceiveFromISR+0x60>
1000a7ea:	6923      	ldr	r3, [r4, #16]
1000a7ec:	2b00      	cmp	r3, #0
1000a7ee:	d10b      	bne.n	1000a808 <xQueueReceiveFromISR+0x74>
1000a7f0:	2701      	movs	r7, #1
1000a7f2:	e7dd      	b.n	1000a7b0 <xQueueReceiveFromISR+0x1c>
1000a7f4:	f7fe f880 	bl	100088f8 <uxTaskGetNumberOfTasks>
1000a7f8:	4287      	cmp	r7, r0
1000a7fa:	d2f9      	bcs.n	1000a7f0 <xQueueReceiveFromISR+0x5c>
1000a7fc:	2344      	movs	r3, #68	; 0x44
1000a7fe:	3701      	adds	r7, #1
1000a800:	b27f      	sxtb	r7, r7
1000a802:	54e7      	strb	r7, [r4, r3]
1000a804:	2701      	movs	r7, #1
1000a806:	e7d3      	b.n	1000a7b0 <xQueueReceiveFromISR+0x1c>
1000a808:	0020      	movs	r0, r4
1000a80a:	3010      	adds	r0, #16
1000a80c:	f7fe f9d4 	bl	10008bb8 <xTaskRemoveFromEventList>
1000a810:	2800      	cmp	r0, #0
1000a812:	d0ed      	beq.n	1000a7f0 <xQueueReceiveFromISR+0x5c>
1000a814:	4643      	mov	r3, r8
1000a816:	2b00      	cmp	r3, #0
1000a818:	d0ea      	beq.n	1000a7f0 <xQueueReceiveFromISR+0x5c>
1000a81a:	2301      	movs	r3, #1
1000a81c:	4642      	mov	r2, r8
1000a81e:	2701      	movs	r7, #1
1000a820:	6013      	str	r3, [r2, #0]
1000a822:	e7c5      	b.n	1000a7b0 <xQueueReceiveFromISR+0x1c>

1000a824 <xQueuePeekFromISR>:
1000a824:	b5f8      	push	{r3, r4, r5, r6, r7, lr}
1000a826:	0004      	movs	r4, r0
1000a828:	000f      	movs	r7, r1
1000a82a:	f7ff f831 	bl	10009890 <ulSetInterruptMaskFromISR>
1000a82e:	6ba3      	ldr	r3, [r4, #56]	; 0x38
1000a830:	0005      	movs	r5, r0
1000a832:	2600      	movs	r6, #0
1000a834:	2b00      	cmp	r3, #0
1000a836:	d104      	bne.n	1000a842 <xQueuePeekFromISR+0x1e>
1000a838:	0028      	movs	r0, r5
1000a83a:	f7ff f82d 	bl	10009898 <vClearInterruptMaskFromISR>
1000a83e:	0030      	movs	r0, r6
1000a840:	bdf8      	pop	{r3, r4, r5, r6, r7, pc}
1000a842:	6c22      	ldr	r2, [r4, #64]	; 0x40
1000a844:	68e6      	ldr	r6, [r4, #12]
1000a846:	2a00      	cmp	r2, #0
1000a848:	d009      	beq.n	1000a85e <xQueuePeekFromISR+0x3a>
1000a84a:	68a3      	ldr	r3, [r4, #8]
1000a84c:	18b1      	adds	r1, r6, r2
1000a84e:	60e1      	str	r1, [r4, #12]
1000a850:	4299      	cmp	r1, r3
1000a852:	d301      	bcc.n	1000a858 <xQueuePeekFromISR+0x34>
1000a854:	6821      	ldr	r1, [r4, #0]
1000a856:	60e1      	str	r1, [r4, #12]
1000a858:	0038      	movs	r0, r7
1000a85a:	f7fa fa49 	bl	10004cf0 <__wrap___aeabi_memcpy>
1000a85e:	60e6      	str	r6, [r4, #12]
1000a860:	2601      	movs	r6, #1
1000a862:	e7e9      	b.n	1000a838 <xQueuePeekFromISR+0x14>

1000a864 <uxQueueMessagesWaiting>:
1000a864:	b510      	push	{r4, lr}
1000a866:	0004      	movs	r4, r0
1000a868:	f7fe fffc 	bl	10009864 <vPortEnterCritical>
1000a86c:	6ba4      	ldr	r4, [r4, #56]	; 0x38
1000a86e:	f7ff f805 	bl	1000987c <vPortExitCritical>
1000a872:	0020      	movs	r0, r4
1000a874:	bd10      	pop	{r4, pc}
1000a876:	46c0      	nop			; (mov r8, r8)

1000a878 <uxQueueSpacesAvailable>:
1000a878:	b510      	push	{r4, lr}
1000a87a:	0004      	movs	r4, r0
1000a87c:	f7fe fff2 	bl	10009864 <vPortEnterCritical>
1000a880:	6ba3      	ldr	r3, [r4, #56]	; 0x38
1000a882:	6be4      	ldr	r4, [r4, #60]	; 0x3c
1000a884:	1ae4      	subs	r4, r4, r3
1000a886:	f7fe fff9 	bl	1000987c <vPortExitCritical>
1000a88a:	0020      	movs	r0, r4
1000a88c:	bd10      	pop	{r4, pc}
1000a88e:	46c0      	nop			; (mov r8, r8)

1000a890 <uxQueueMessagesWaitingFromISR>:
1000a890:	6b80      	ldr	r0, [r0, #56]	; 0x38
1000a892:	4770      	bx	lr

1000a894 <vQueueDelete>:
1000a894:	4b1e      	ldr	r3, [pc, #120]	; (1000a910 <vQueueDelete+0x7c>)
1000a896:	b570      	push	{r4, r5, r6, lr}
1000a898:	685a      	ldr	r2, [r3, #4]
1000a89a:	4290      	cmp	r0, r2
1000a89c:	d01d      	beq.n	1000a8da <vQueueDelete+0x46>
1000a89e:	68da      	ldr	r2, [r3, #12]
1000a8a0:	4290      	cmp	r0, r2
1000a8a2:	d022      	beq.n	1000a8ea <vQueueDelete+0x56>
1000a8a4:	695a      	ldr	r2, [r3, #20]
1000a8a6:	4290      	cmp	r0, r2
1000a8a8:	d021      	beq.n	1000a8ee <vQueueDelete+0x5a>
1000a8aa:	69da      	ldr	r2, [r3, #28]
1000a8ac:	4290      	cmp	r0, r2
1000a8ae:	d020      	beq.n	1000a8f2 <vQueueDelete+0x5e>
1000a8b0:	6a5a      	ldr	r2, [r3, #36]	; 0x24
1000a8b2:	4290      	cmp	r0, r2
1000a8b4:	d01f      	beq.n	1000a8f6 <vQueueDelete+0x62>
1000a8b6:	6ada      	ldr	r2, [r3, #44]	; 0x2c
1000a8b8:	4290      	cmp	r0, r2
1000a8ba:	d01e      	beq.n	1000a8fa <vQueueDelete+0x66>
1000a8bc:	6b5a      	ldr	r2, [r3, #52]	; 0x34
1000a8be:	4290      	cmp	r0, r2
1000a8c0:	d01d      	beq.n	1000a8fe <vQueueDelete+0x6a>
1000a8c2:	6bda      	ldr	r2, [r3, #60]	; 0x3c
1000a8c4:	4290      	cmp	r0, r2
1000a8c6:	d01c      	beq.n	1000a902 <vQueueDelete+0x6e>
1000a8c8:	6c5a      	ldr	r2, [r3, #68]	; 0x44
1000a8ca:	4290      	cmp	r0, r2
1000a8cc:	d01b      	beq.n	1000a906 <vQueueDelete+0x72>
1000a8ce:	6cda      	ldr	r2, [r3, #76]	; 0x4c
1000a8d0:	4290      	cmp	r0, r2
1000a8d2:	d01a      	beq.n	1000a90a <vQueueDelete+0x76>
1000a8d4:	f7fe ff78 	bl	100097c8 <vPortFree>
1000a8d8:	bd70      	pop	{r4, r5, r6, pc}
1000a8da:	2200      	movs	r2, #0
1000a8dc:	2400      	movs	r4, #0
1000a8de:	2500      	movs	r5, #0
1000a8e0:	00d2      	lsls	r2, r2, #3
1000a8e2:	189b      	adds	r3, r3, r2
1000a8e4:	601c      	str	r4, [r3, #0]
1000a8e6:	605d      	str	r5, [r3, #4]
1000a8e8:	e7f4      	b.n	1000a8d4 <vQueueDelete+0x40>
1000a8ea:	2201      	movs	r2, #1
1000a8ec:	e7f6      	b.n	1000a8dc <vQueueDelete+0x48>
1000a8ee:	2202      	movs	r2, #2
1000a8f0:	e7f4      	b.n	1000a8dc <vQueueDelete+0x48>
1000a8f2:	2203      	movs	r2, #3
1000a8f4:	e7f2      	b.n	1000a8dc <vQueueDelete+0x48>
1000a8f6:	2204      	movs	r2, #4
1000a8f8:	e7f0      	b.n	1000a8dc <vQueueDelete+0x48>
1000a8fa:	2205      	movs	r2, #5
1000a8fc:	e7ee      	b.n	1000a8dc <vQueueDelete+0x48>
1000a8fe:	2206      	movs	r2, #6
1000a900:	e7ec      	b.n	1000a8dc <vQueueDelete+0x48>
1000a902:	2207      	movs	r2, #7
1000a904:	e7ea      	b.n	1000a8dc <vQueueDelete+0x48>
1000a906:	2208      	movs	r2, #8
1000a908:	e7e8      	b.n	1000a8dc <vQueueDelete+0x48>
1000a90a:	2209      	movs	r2, #9
1000a90c:	e7e6      	b.n	1000a8dc <vQueueDelete+0x48>
1000a90e:	46c0      	nop			; (mov r8, r8)
1000a910:	20000cd0 	.word	0x20000cd0

1000a914 <xQueueIsQueueEmptyFromISR>:
1000a914:	6b80      	ldr	r0, [r0, #56]	; 0x38
1000a916:	4243      	negs	r3, r0
1000a918:	4158      	adcs	r0, r3
1000a91a:	4770      	bx	lr

1000a91c <xQueueIsQueueFullFromISR>:
1000a91c:	6b83      	ldr	r3, [r0, #56]	; 0x38
1000a91e:	6bc0      	ldr	r0, [r0, #60]	; 0x3c
1000a920:	1ac0      	subs	r0, r0, r3
1000a922:	4243      	negs	r3, r0
1000a924:	4158      	adcs	r0, r3
1000a926:	4770      	bx	lr

1000a928 <vQueueAddToRegistry>:
1000a928:	b570      	push	{r4, r5, r6, lr}
1000a92a:	2900      	cmp	r1, #0
1000a92c:	d00f      	beq.n	1000a94e <vQueueAddToRegistry+0x26>
1000a92e:	2600      	movs	r6, #0
1000a930:	2300      	movs	r3, #0
1000a932:	4c42      	ldr	r4, [pc, #264]	; (1000aa3c <vQueueAddToRegistry+0x114>)
1000a934:	00da      	lsls	r2, r3, #3
1000a936:	18a5      	adds	r5, r4, r2
1000a938:	686d      	ldr	r5, [r5, #4]
1000a93a:	4285      	cmp	r5, r0
1000a93c:	d100      	bne.n	1000a940 <vQueueAddToRegistry+0x18>
1000a93e:	e06f      	b.n	1000aa20 <vQueueAddToRegistry+0xf8>
1000a940:	2e00      	cmp	r6, #0
1000a942:	d005      	beq.n	1000a950 <vQueueAddToRegistry+0x28>
1000a944:	3301      	adds	r3, #1
1000a946:	2b0a      	cmp	r3, #10
1000a948:	d1f4      	bne.n	1000a934 <vQueueAddToRegistry+0xc>
1000a94a:	6031      	str	r1, [r6, #0]
1000a94c:	6070      	str	r0, [r6, #4]
1000a94e:	bd70      	pop	{r4, r5, r6, pc}
1000a950:	58a5      	ldr	r5, [r4, r2]
1000a952:	2d00      	cmp	r5, #0
1000a954:	d061      	beq.n	1000aa1a <vQueueAddToRegistry+0xf2>
1000a956:	1c5d      	adds	r5, r3, #1
1000a958:	2b09      	cmp	r3, #9
1000a95a:	d0f8      	beq.n	1000a94e <vQueueAddToRegistry+0x26>
1000a95c:	00ea      	lsls	r2, r5, #3
1000a95e:	18a6      	adds	r6, r4, r2
1000a960:	6876      	ldr	r6, [r6, #4]
1000a962:	42b0      	cmp	r0, r6
1000a964:	d05c      	beq.n	1000aa20 <vQueueAddToRegistry+0xf8>
1000a966:	58a6      	ldr	r6, [r4, r2]
1000a968:	2e00      	cmp	r6, #0
1000a96a:	d05d      	beq.n	1000aa28 <vQueueAddToRegistry+0x100>
1000a96c:	1c9d      	adds	r5, r3, #2
1000a96e:	2b08      	cmp	r3, #8
1000a970:	d0ed      	beq.n	1000a94e <vQueueAddToRegistry+0x26>
1000a972:	00ea      	lsls	r2, r5, #3
1000a974:	18a6      	adds	r6, r4, r2
1000a976:	6876      	ldr	r6, [r6, #4]
1000a978:	42b0      	cmp	r0, r6
1000a97a:	d051      	beq.n	1000aa20 <vQueueAddToRegistry+0xf8>
1000a97c:	58a6      	ldr	r6, [r4, r2]
1000a97e:	2e00      	cmp	r6, #0
1000a980:	d052      	beq.n	1000aa28 <vQueueAddToRegistry+0x100>
1000a982:	1cdd      	adds	r5, r3, #3
1000a984:	2b07      	cmp	r3, #7
1000a986:	d0e2      	beq.n	1000a94e <vQueueAddToRegistry+0x26>
1000a988:	00ea      	lsls	r2, r5, #3
1000a98a:	18a6      	adds	r6, r4, r2
1000a98c:	6876      	ldr	r6, [r6, #4]
1000a98e:	4286      	cmp	r6, r0
1000a990:	d046      	beq.n	1000aa20 <vQueueAddToRegistry+0xf8>
1000a992:	58a6      	ldr	r6, [r4, r2]
1000a994:	2e00      	cmp	r6, #0
1000a996:	d047      	beq.n	1000aa28 <vQueueAddToRegistry+0x100>
1000a998:	1d1d      	adds	r5, r3, #4
1000a99a:	2b06      	cmp	r3, #6
1000a99c:	d0d7      	beq.n	1000a94e <vQueueAddToRegistry+0x26>
1000a99e:	00ea      	lsls	r2, r5, #3
1000a9a0:	18a6      	adds	r6, r4, r2
1000a9a2:	6876      	ldr	r6, [r6, #4]
1000a9a4:	42b0      	cmp	r0, r6
1000a9a6:	d03b      	beq.n	1000aa20 <vQueueAddToRegistry+0xf8>
1000a9a8:	58a6      	ldr	r6, [r4, r2]
1000a9aa:	2e00      	cmp	r6, #0
1000a9ac:	d03c      	beq.n	1000aa28 <vQueueAddToRegistry+0x100>
1000a9ae:	1d5d      	adds	r5, r3, #5
1000a9b0:	2b05      	cmp	r3, #5
1000a9b2:	d0cc      	beq.n	1000a94e <vQueueAddToRegistry+0x26>
1000a9b4:	00ea      	lsls	r2, r5, #3
1000a9b6:	18a6      	adds	r6, r4, r2
1000a9b8:	6876      	ldr	r6, [r6, #4]
1000a9ba:	42b0      	cmp	r0, r6
1000a9bc:	d030      	beq.n	1000aa20 <vQueueAddToRegistry+0xf8>
1000a9be:	58a6      	ldr	r6, [r4, r2]
1000a9c0:	2e00      	cmp	r6, #0
1000a9c2:	d031      	beq.n	1000aa28 <vQueueAddToRegistry+0x100>
1000a9c4:	1d9a      	adds	r2, r3, #6
1000a9c6:	2b04      	cmp	r3, #4
1000a9c8:	d0c1      	beq.n	1000a94e <vQueueAddToRegistry+0x26>
1000a9ca:	00d5      	lsls	r5, r2, #3
1000a9cc:	1966      	adds	r6, r4, r5
1000a9ce:	6876      	ldr	r6, [r6, #4]
1000a9d0:	42b0      	cmp	r0, r6
1000a9d2:	d024      	beq.n	1000aa1e <vQueueAddToRegistry+0xf6>
1000a9d4:	5965      	ldr	r5, [r4, r5]
1000a9d6:	2d00      	cmp	r5, #0
1000a9d8:	d029      	beq.n	1000aa2e <vQueueAddToRegistry+0x106>
1000a9da:	1ddd      	adds	r5, r3, #7
1000a9dc:	2b03      	cmp	r3, #3
1000a9de:	d0b6      	beq.n	1000a94e <vQueueAddToRegistry+0x26>
1000a9e0:	00ea      	lsls	r2, r5, #3
1000a9e2:	18a6      	adds	r6, r4, r2
1000a9e4:	6876      	ldr	r6, [r6, #4]
1000a9e6:	42b0      	cmp	r0, r6
1000a9e8:	d01a      	beq.n	1000aa20 <vQueueAddToRegistry+0xf8>
1000a9ea:	58a6      	ldr	r6, [r4, r2]
1000a9ec:	2e00      	cmp	r6, #0
1000a9ee:	d01b      	beq.n	1000aa28 <vQueueAddToRegistry+0x100>
1000a9f0:	3501      	adds	r5, #1
1000a9f2:	2b02      	cmp	r3, #2
1000a9f4:	d0ab      	beq.n	1000a94e <vQueueAddToRegistry+0x26>
1000a9f6:	00ea      	lsls	r2, r5, #3
1000a9f8:	18a6      	adds	r6, r4, r2
1000a9fa:	6876      	ldr	r6, [r6, #4]
1000a9fc:	42b0      	cmp	r0, r6
1000a9fe:	d00f      	beq.n	1000aa20 <vQueueAddToRegistry+0xf8>
1000aa00:	58a6      	ldr	r6, [r4, r2]
1000aa02:	2e00      	cmp	r6, #0
1000aa04:	d010      	beq.n	1000aa28 <vQueueAddToRegistry+0x100>
1000aa06:	2b01      	cmp	r3, #1
1000aa08:	d0a1      	beq.n	1000a94e <vQueueAddToRegistry+0x26>
1000aa0a:	6ce3      	ldr	r3, [r4, #76]	; 0x4c
1000aa0c:	4298      	cmp	r0, r3
1000aa0e:	d012      	beq.n	1000aa36 <vQueueAddToRegistry+0x10e>
1000aa10:	6ca3      	ldr	r3, [r4, #72]	; 0x48
1000aa12:	2b00      	cmp	r3, #0
1000aa14:	d19b      	bne.n	1000a94e <vQueueAddToRegistry+0x26>
1000aa16:	2309      	movs	r3, #9
1000aa18:	2248      	movs	r2, #72	; 0x48
1000aa1a:	18a6      	adds	r6, r4, r2
1000aa1c:	e792      	b.n	1000a944 <vQueueAddToRegistry+0x1c>
1000aa1e:	00d2      	lsls	r2, r2, #3
1000aa20:	18a6      	adds	r6, r4, r2
1000aa22:	6031      	str	r1, [r6, #0]
1000aa24:	6070      	str	r0, [r6, #4]
1000aa26:	e792      	b.n	1000a94e <vQueueAddToRegistry+0x26>
1000aa28:	002b      	movs	r3, r5
1000aa2a:	18a6      	adds	r6, r4, r2
1000aa2c:	e78a      	b.n	1000a944 <vQueueAddToRegistry+0x1c>
1000aa2e:	0013      	movs	r3, r2
1000aa30:	00d2      	lsls	r2, r2, #3
1000aa32:	18a6      	adds	r6, r4, r2
1000aa34:	e786      	b.n	1000a944 <vQueueAddToRegistry+0x1c>
1000aa36:	2248      	movs	r2, #72	; 0x48
1000aa38:	18a6      	adds	r6, r4, r2
1000aa3a:	e7f2      	b.n	1000aa22 <vQueueAddToRegistry+0xfa>
1000aa3c:	20000cd0 	.word	0x20000cd0

1000aa40 <pcQueueGetName>:
1000aa40:	4a1b      	ldr	r2, [pc, #108]	; (1000aab0 <pcQueueGetName+0x70>)
1000aa42:	0003      	movs	r3, r0
1000aa44:	6851      	ldr	r1, [r2, #4]
1000aa46:	4288      	cmp	r0, r1
1000aa48:	d01c      	beq.n	1000aa84 <pcQueueGetName+0x44>
1000aa4a:	68d1      	ldr	r1, [r2, #12]
1000aa4c:	4288      	cmp	r0, r1
1000aa4e:	d01d      	beq.n	1000aa8c <pcQueueGetName+0x4c>
1000aa50:	6951      	ldr	r1, [r2, #20]
1000aa52:	4288      	cmp	r0, r1
1000aa54:	d01c      	beq.n	1000aa90 <pcQueueGetName+0x50>
1000aa56:	69d1      	ldr	r1, [r2, #28]
1000aa58:	4288      	cmp	r0, r1
1000aa5a:	d01b      	beq.n	1000aa94 <pcQueueGetName+0x54>
1000aa5c:	6a51      	ldr	r1, [r2, #36]	; 0x24
1000aa5e:	4288      	cmp	r0, r1
1000aa60:	d01a      	beq.n	1000aa98 <pcQueueGetName+0x58>
1000aa62:	6ad1      	ldr	r1, [r2, #44]	; 0x2c
1000aa64:	4288      	cmp	r0, r1
1000aa66:	d019      	beq.n	1000aa9c <pcQueueGetName+0x5c>
1000aa68:	6b51      	ldr	r1, [r2, #52]	; 0x34
1000aa6a:	4288      	cmp	r0, r1
1000aa6c:	d018      	beq.n	1000aaa0 <pcQueueGetName+0x60>
1000aa6e:	6bd1      	ldr	r1, [r2, #60]	; 0x3c
1000aa70:	4288      	cmp	r0, r1
1000aa72:	d017      	beq.n	1000aaa4 <pcQueueGetName+0x64>
1000aa74:	6c51      	ldr	r1, [r2, #68]	; 0x44
1000aa76:	4288      	cmp	r0, r1
1000aa78:	d016      	beq.n	1000aaa8 <pcQueueGetName+0x68>
1000aa7a:	6cd1      	ldr	r1, [r2, #76]	; 0x4c
1000aa7c:	2000      	movs	r0, #0
1000aa7e:	4299      	cmp	r1, r3
1000aa80:	d014      	beq.n	1000aaac <pcQueueGetName+0x6c>
1000aa82:	4770      	bx	lr
1000aa84:	2300      	movs	r3, #0
1000aa86:	00db      	lsls	r3, r3, #3
1000aa88:	58d0      	ldr	r0, [r2, r3]
1000aa8a:	e7fa      	b.n	1000aa82 <pcQueueGetName+0x42>
1000aa8c:	2301      	movs	r3, #1
1000aa8e:	e7fa      	b.n	1000aa86 <pcQueueGetName+0x46>
1000aa90:	2302      	movs	r3, #2
1000aa92:	e7f8      	b.n	1000aa86 <pcQueueGetName+0x46>
1000aa94:	2303      	movs	r3, #3
1000aa96:	e7f6      	b.n	1000aa86 <pcQueueGetName+0x46>
1000aa98:	2304      	movs	r3, #4
1000aa9a:	e7f4      	b.n	1000aa86 <pcQueueGetName+0x46>
1000aa9c:	2305      	movs	r3, #5
1000aa9e:	e7f2      	b.n	1000aa86 <pcQueueGetName+0x46>
1000aaa0:	2306      	movs	r3, #6
1000aaa2:	e7f0      	b.n	1000aa86 <pcQueueGetName+0x46>
1000aaa4:	2307      	movs	r3, #7
1000aaa6:	e7ee      	b.n	1000aa86 <pcQueueGetName+0x46>
1000aaa8:	2308      	movs	r3, #8
1000aaaa:	e7ec      	b.n	1000aa86 <pcQueueGetName+0x46>
1000aaac:	2309      	movs	r3, #9
1000aaae:	e7ea      	b.n	1000aa86 <pcQueueGetName+0x46>
1000aab0:	20000cd0 	.word	0x20000cd0

1000aab4 <vQueueUnregisterQueue>:
1000aab4:	4b1c      	ldr	r3, [pc, #112]	; (1000ab28 <vQueueUnregisterQueue+0x74>)
1000aab6:	685a      	ldr	r2, [r3, #4]
1000aab8:	4290      	cmp	r0, r2
1000aaba:	d01b      	beq.n	1000aaf4 <vQueueUnregisterQueue+0x40>
1000aabc:	68da      	ldr	r2, [r3, #12]
1000aabe:	4290      	cmp	r0, r2
1000aac0:	d020      	beq.n	1000ab04 <vQueueUnregisterQueue+0x50>
1000aac2:	695a      	ldr	r2, [r3, #20]
1000aac4:	4290      	cmp	r0, r2
1000aac6:	d01f      	beq.n	1000ab08 <vQueueUnregisterQueue+0x54>
1000aac8:	69da      	ldr	r2, [r3, #28]
1000aaca:	4290      	cmp	r0, r2
1000aacc:	d01e      	beq.n	1000ab0c <vQueueUnregisterQueue+0x58>
1000aace:	6a5a      	ldr	r2, [r3, #36]	; 0x24
1000aad0:	4290      	cmp	r0, r2
1000aad2:	d01d      	beq.n	1000ab10 <vQueueUnregisterQueue+0x5c>
1000aad4:	6ada      	ldr	r2, [r3, #44]	; 0x2c
1000aad6:	4290      	cmp	r0, r2
1000aad8:	d01c      	beq.n	1000ab14 <vQueueUnregisterQueue+0x60>
1000aada:	6b5a      	ldr	r2, [r3, #52]	; 0x34
1000aadc:	4290      	cmp	r0, r2
1000aade:	d01b      	beq.n	1000ab18 <vQueueUnregisterQueue+0x64>
1000aae0:	6bda      	ldr	r2, [r3, #60]	; 0x3c
1000aae2:	4290      	cmp	r0, r2
1000aae4:	d01a      	beq.n	1000ab1c <vQueueUnregisterQueue+0x68>
1000aae6:	6c5a      	ldr	r2, [r3, #68]	; 0x44
1000aae8:	4290      	cmp	r0, r2
1000aaea:	d019      	beq.n	1000ab20 <vQueueUnregisterQueue+0x6c>
1000aaec:	6cda      	ldr	r2, [r3, #76]	; 0x4c
1000aaee:	4282      	cmp	r2, r0
1000aaf0:	d018      	beq.n	1000ab24 <vQueueUnregisterQueue+0x70>
1000aaf2:	4770      	bx	lr
1000aaf4:	2200      	movs	r2, #0
1000aaf6:	2000      	movs	r0, #0
1000aaf8:	2100      	movs	r1, #0
1000aafa:	00d2      	lsls	r2, r2, #3
1000aafc:	189b      	adds	r3, r3, r2
1000aafe:	6018      	str	r0, [r3, #0]
1000ab00:	6059      	str	r1, [r3, #4]
1000ab02:	e7f6      	b.n	1000aaf2 <vQueueUnregisterQueue+0x3e>
1000ab04:	2201      	movs	r2, #1
1000ab06:	e7f6      	b.n	1000aaf6 <vQueueUnregisterQueue+0x42>
1000ab08:	2202      	movs	r2, #2
1000ab0a:	e7f4      	b.n	1000aaf6 <vQueueUnregisterQueue+0x42>
1000ab0c:	2203      	movs	r2, #3
1000ab0e:	e7f2      	b.n	1000aaf6 <vQueueUnregisterQueue+0x42>
1000ab10:	2204      	movs	r2, #4
1000ab12:	e7f0      	b.n	1000aaf6 <vQueueUnregisterQueue+0x42>
1000ab14:	2205      	movs	r2, #5
1000ab16:	e7ee      	b.n	1000aaf6 <vQueueUnregisterQueue+0x42>
1000ab18:	2206      	movs	r2, #6
1000ab1a:	e7ec      	b.n	1000aaf6 <vQueueUnregisterQueue+0x42>
1000ab1c:	2207      	movs	r2, #7
1000ab1e:	e7ea      	b.n	1000aaf6 <vQueueUnregisterQueue+0x42>
1000ab20:	2208      	movs	r2, #8
1000ab22:	e7e8      	b.n	1000aaf6 <vQueueUnregisterQueue+0x42>
1000ab24:	2209      	movs	r2, #9
1000ab26:	e7e6      	b.n	1000aaf6 <vQueueUnregisterQueue+0x42>
1000ab28:	20000cd0 	.word	0x20000cd0

1000ab2c <vQueueWaitForMessageRestricted>:
1000ab2c:	b570      	push	{r4, r5, r6, lr}
1000ab2e:	0005      	movs	r5, r0
1000ab30:	0016      	movs	r6, r2
1000ab32:	000c      	movs	r4, r1
1000ab34:	f7fe fe96 	bl	10009864 <vPortEnterCritical>
1000ab38:	2244      	movs	r2, #68	; 0x44
1000ab3a:	5cab      	ldrb	r3, [r5, r2]
1000ab3c:	b25b      	sxtb	r3, r3
1000ab3e:	3301      	adds	r3, #1
1000ab40:	d101      	bne.n	1000ab46 <vQueueWaitForMessageRestricted+0x1a>
1000ab42:	2300      	movs	r3, #0
1000ab44:	54ab      	strb	r3, [r5, r2]
1000ab46:	2245      	movs	r2, #69	; 0x45
1000ab48:	5cab      	ldrb	r3, [r5, r2]
1000ab4a:	b25b      	sxtb	r3, r3
1000ab4c:	3301      	adds	r3, #1
1000ab4e:	d101      	bne.n	1000ab54 <vQueueWaitForMessageRestricted+0x28>
1000ab50:	2300      	movs	r3, #0
1000ab52:	54ab      	strb	r3, [r5, r2]
1000ab54:	f7fe fe92 	bl	1000987c <vPortExitCritical>
1000ab58:	6bab      	ldr	r3, [r5, #56]	; 0x38
1000ab5a:	2b00      	cmp	r3, #0
1000ab5c:	d046      	beq.n	1000abec <vQueueWaitForMessageRestricted+0xc0>
1000ab5e:	f7fe fe81 	bl	10009864 <vPortEnterCritical>
1000ab62:	2345      	movs	r3, #69	; 0x45
1000ab64:	5cec      	ldrb	r4, [r5, r3]
1000ab66:	b264      	sxtb	r4, r4
1000ab68:	2c00      	cmp	r4, #0
1000ab6a:	dd16      	ble.n	1000ab9a <vQueueWaitForMessageRestricted+0x6e>
1000ab6c:	002e      	movs	r6, r5
1000ab6e:	3624      	adds	r6, #36	; 0x24
1000ab70:	e004      	b.n	1000ab7c <vQueueWaitForMessageRestricted+0x50>
1000ab72:	3c01      	subs	r4, #1
1000ab74:	b2e2      	uxtb	r2, r4
1000ab76:	b264      	sxtb	r4, r4
1000ab78:	2a00      	cmp	r2, #0
1000ab7a:	d00e      	beq.n	1000ab9a <vQueueWaitForMessageRestricted+0x6e>
1000ab7c:	6a6b      	ldr	r3, [r5, #36]	; 0x24
1000ab7e:	2b00      	cmp	r3, #0
1000ab80:	d00b      	beq.n	1000ab9a <vQueueWaitForMessageRestricted+0x6e>
1000ab82:	0030      	movs	r0, r6
1000ab84:	f7fe f818 	bl	10008bb8 <xTaskRemoveFromEventList>
1000ab88:	2800      	cmp	r0, #0
1000ab8a:	d0f2      	beq.n	1000ab72 <vQueueWaitForMessageRestricted+0x46>
1000ab8c:	3c01      	subs	r4, #1
1000ab8e:	f7fe f8ff 	bl	10008d90 <vTaskMissedYield>
1000ab92:	b2e2      	uxtb	r2, r4
1000ab94:	b264      	sxtb	r4, r4
1000ab96:	2a00      	cmp	r2, #0
1000ab98:	d1f0      	bne.n	1000ab7c <vQueueWaitForMessageRestricted+0x50>
1000ab9a:	2345      	movs	r3, #69	; 0x45
1000ab9c:	22ff      	movs	r2, #255	; 0xff
1000ab9e:	54ea      	strb	r2, [r5, r3]
1000aba0:	f7fe fe6c 	bl	1000987c <vPortExitCritical>
1000aba4:	f7fe fe5e 	bl	10009864 <vPortEnterCritical>
1000aba8:	2344      	movs	r3, #68	; 0x44
1000abaa:	5cec      	ldrb	r4, [r5, r3]
1000abac:	b264      	sxtb	r4, r4
1000abae:	2c00      	cmp	r4, #0
1000abb0:	dd16      	ble.n	1000abe0 <vQueueWaitForMessageRestricted+0xb4>
1000abb2:	002e      	movs	r6, r5
1000abb4:	3610      	adds	r6, #16
1000abb6:	e004      	b.n	1000abc2 <vQueueWaitForMessageRestricted+0x96>
1000abb8:	3c01      	subs	r4, #1
1000abba:	b2e2      	uxtb	r2, r4
1000abbc:	b264      	sxtb	r4, r4
1000abbe:	2a00      	cmp	r2, #0
1000abc0:	d00e      	beq.n	1000abe0 <vQueueWaitForMessageRestricted+0xb4>
1000abc2:	692b      	ldr	r3, [r5, #16]
1000abc4:	2b00      	cmp	r3, #0
1000abc6:	d00b      	beq.n	1000abe0 <vQueueWaitForMessageRestricted+0xb4>
1000abc8:	0030      	movs	r0, r6
1000abca:	f7fd fff5 	bl	10008bb8 <xTaskRemoveFromEventList>
1000abce:	2800      	cmp	r0, #0
1000abd0:	d0f2      	beq.n	1000abb8 <vQueueWaitForMessageRestricted+0x8c>
1000abd2:	3c01      	subs	r4, #1
1000abd4:	f7fe f8dc 	bl	10008d90 <vTaskMissedYield>
1000abd8:	b2e2      	uxtb	r2, r4
1000abda:	b264      	sxtb	r4, r4
1000abdc:	2a00      	cmp	r2, #0
1000abde:	d1f0      	bne.n	1000abc2 <vQueueWaitForMessageRestricted+0x96>
1000abe0:	2344      	movs	r3, #68	; 0x44
1000abe2:	22ff      	movs	r2, #255	; 0xff
1000abe4:	54ea      	strb	r2, [r5, r3]
1000abe6:	f7fe fe49 	bl	1000987c <vPortExitCritical>
1000abea:	bd70      	pop	{r4, r5, r6, pc}
1000abec:	0028      	movs	r0, r5
1000abee:	0032      	movs	r2, r6
1000abf0:	0021      	movs	r1, r4
1000abf2:	3024      	adds	r0, #36	; 0x24
1000abf4:	f7fd ff92 	bl	10008b1c <vTaskPlaceOnEventListRestricted>
1000abf8:	e7b1      	b.n	1000ab5e <vQueueWaitForMessageRestricted+0x32>
1000abfa:	46c0      	nop			; (mov r8, r8)

1000abfc <malloc>:
1000abfc:	b510      	push	{r4, lr}
1000abfe:	4b03      	ldr	r3, [pc, #12]	; (1000ac0c <malloc+0x10>)
1000ac00:	0001      	movs	r1, r0
1000ac02:	6818      	ldr	r0, [r3, #0]
1000ac04:	f000 f80e 	bl	1000ac24 <_malloc_r>
1000ac08:	bd10      	pop	{r4, pc}
1000ac0a:	46c0      	nop			; (mov r8, r8)
1000ac0c:	20000470 	.word	0x20000470

1000ac10 <free>:
1000ac10:	b510      	push	{r4, lr}
1000ac12:	4b03      	ldr	r3, [pc, #12]	; (1000ac20 <free+0x10>)
1000ac14:	0001      	movs	r1, r0
1000ac16:	6818      	ldr	r0, [r3, #0]
1000ac18:	f000 fb50 	bl	1000b2bc <_free_r>
1000ac1c:	bd10      	pop	{r4, pc}
1000ac1e:	46c0      	nop			; (mov r8, r8)
1000ac20:	20000470 	.word	0x20000470

1000ac24 <_malloc_r>:
1000ac24:	b5f0      	push	{r4, r5, r6, r7, lr}
1000ac26:	464e      	mov	r6, r9
1000ac28:	4645      	mov	r5, r8
1000ac2a:	46de      	mov	lr, fp
1000ac2c:	4657      	mov	r7, sl
1000ac2e:	b5e0      	push	{r5, r6, r7, lr}
1000ac30:	000d      	movs	r5, r1
1000ac32:	350b      	adds	r5, #11
1000ac34:	0006      	movs	r6, r0
1000ac36:	b083      	sub	sp, #12
1000ac38:	2d16      	cmp	r5, #22
1000ac3a:	d822      	bhi.n	1000ac82 <_malloc_r+0x5e>
1000ac3c:	2910      	cmp	r1, #16
1000ac3e:	d900      	bls.n	1000ac42 <_malloc_r+0x1e>
1000ac40:	e0b2      	b.n	1000ada8 <_malloc_r+0x184>
1000ac42:	f000 faa9 	bl	1000b198 <__malloc_lock>
1000ac46:	2510      	movs	r5, #16
1000ac48:	2318      	movs	r3, #24
1000ac4a:	2002      	movs	r0, #2
1000ac4c:	4fcc      	ldr	r7, [pc, #816]	; (1000af80 <_malloc_r+0x35c>)
1000ac4e:	18fb      	adds	r3, r7, r3
1000ac50:	001a      	movs	r2, r3
1000ac52:	685c      	ldr	r4, [r3, #4]
1000ac54:	3a08      	subs	r2, #8
1000ac56:	4294      	cmp	r4, r2
1000ac58:	d100      	bne.n	1000ac5c <_malloc_r+0x38>
1000ac5a:	e0b5      	b.n	1000adc8 <_malloc_r+0x1a4>
1000ac5c:	2303      	movs	r3, #3
1000ac5e:	6862      	ldr	r2, [r4, #4]
1000ac60:	439a      	bics	r2, r3
1000ac62:	0013      	movs	r3, r2
1000ac64:	68e2      	ldr	r2, [r4, #12]
1000ac66:	68a1      	ldr	r1, [r4, #8]
1000ac68:	60ca      	str	r2, [r1, #12]
1000ac6a:	6091      	str	r1, [r2, #8]
1000ac6c:	2201      	movs	r2, #1
1000ac6e:	18e3      	adds	r3, r4, r3
1000ac70:	6859      	ldr	r1, [r3, #4]
1000ac72:	0030      	movs	r0, r6
1000ac74:	430a      	orrs	r2, r1
1000ac76:	605a      	str	r2, [r3, #4]
1000ac78:	f000 fa90 	bl	1000b19c <__malloc_unlock>
1000ac7c:	0020      	movs	r0, r4
1000ac7e:	3008      	adds	r0, #8
1000ac80:	e095      	b.n	1000adae <_malloc_r+0x18a>
1000ac82:	2307      	movs	r3, #7
1000ac84:	439d      	bics	r5, r3
1000ac86:	d500      	bpl.n	1000ac8a <_malloc_r+0x66>
1000ac88:	e08e      	b.n	1000ada8 <_malloc_r+0x184>
1000ac8a:	42a9      	cmp	r1, r5
1000ac8c:	d900      	bls.n	1000ac90 <_malloc_r+0x6c>
1000ac8e:	e08b      	b.n	1000ada8 <_malloc_r+0x184>
1000ac90:	f000 fa82 	bl	1000b198 <__malloc_lock>
1000ac94:	23fc      	movs	r3, #252	; 0xfc
1000ac96:	005b      	lsls	r3, r3, #1
1000ac98:	429d      	cmp	r5, r3
1000ac9a:	d200      	bcs.n	1000ac9e <_malloc_r+0x7a>
1000ac9c:	e1a1      	b.n	1000afe2 <_malloc_r+0x3be>
1000ac9e:	0a68      	lsrs	r0, r5, #9
1000aca0:	d100      	bne.n	1000aca4 <_malloc_r+0x80>
1000aca2:	e08b      	b.n	1000adbc <_malloc_r+0x198>
1000aca4:	2804      	cmp	r0, #4
1000aca6:	d900      	bls.n	1000acaa <_malloc_r+0x86>
1000aca8:	e174      	b.n	1000af94 <_malloc_r+0x370>
1000acaa:	2338      	movs	r3, #56	; 0x38
1000acac:	4698      	mov	r8, r3
1000acae:	09a8      	lsrs	r0, r5, #6
1000acb0:	4480      	add	r8, r0
1000acb2:	3039      	adds	r0, #57	; 0x39
1000acb4:	00c1      	lsls	r1, r0, #3
1000acb6:	4fb2      	ldr	r7, [pc, #712]	; (1000af80 <_malloc_r+0x35c>)
1000acb8:	1879      	adds	r1, r7, r1
1000acba:	684c      	ldr	r4, [r1, #4]
1000acbc:	3908      	subs	r1, #8
1000acbe:	42a1      	cmp	r1, r4
1000acc0:	d00e      	beq.n	1000ace0 <_malloc_r+0xbc>
1000acc2:	2303      	movs	r3, #3
1000acc4:	469c      	mov	ip, r3
1000acc6:	e004      	b.n	1000acd2 <_malloc_r+0xae>
1000acc8:	2a00      	cmp	r2, #0
1000acca:	dacb      	bge.n	1000ac64 <_malloc_r+0x40>
1000accc:	68e4      	ldr	r4, [r4, #12]
1000acce:	42a1      	cmp	r1, r4
1000acd0:	d006      	beq.n	1000ace0 <_malloc_r+0xbc>
1000acd2:	4662      	mov	r2, ip
1000acd4:	6863      	ldr	r3, [r4, #4]
1000acd6:	4393      	bics	r3, r2
1000acd8:	1b5a      	subs	r2, r3, r5
1000acda:	2a0f      	cmp	r2, #15
1000acdc:	ddf4      	ble.n	1000acc8 <_malloc_r+0xa4>
1000acde:	4640      	mov	r0, r8
1000ace0:	003a      	movs	r2, r7
1000ace2:	693c      	ldr	r4, [r7, #16]
1000ace4:	3208      	adds	r2, #8
1000ace6:	4294      	cmp	r4, r2
1000ace8:	d100      	bne.n	1000acec <_malloc_r+0xc8>
1000acea:	e078      	b.n	1000adde <_malloc_r+0x1ba>
1000acec:	2303      	movs	r3, #3
1000acee:	6861      	ldr	r1, [r4, #4]
1000acf0:	4399      	bics	r1, r3
1000acf2:	4689      	mov	r9, r1
1000acf4:	000b      	movs	r3, r1
1000acf6:	1b49      	subs	r1, r1, r5
1000acf8:	290f      	cmp	r1, #15
1000acfa:	dd00      	ble.n	1000acfe <_malloc_r+0xda>
1000acfc:	e175      	b.n	1000afea <_malloc_r+0x3c6>
1000acfe:	617a      	str	r2, [r7, #20]
1000ad00:	613a      	str	r2, [r7, #16]
1000ad02:	2900      	cmp	r1, #0
1000ad04:	dab2      	bge.n	1000ac6c <_malloc_r+0x48>
1000ad06:	2280      	movs	r2, #128	; 0x80
1000ad08:	0092      	lsls	r2, r2, #2
1000ad0a:	4591      	cmp	r9, r2
1000ad0c:	d300      	bcc.n	1000ad10 <_malloc_r+0xec>
1000ad0e:	e110      	b.n	1000af32 <_malloc_r+0x30e>
1000ad10:	0959      	lsrs	r1, r3, #5
1000ad12:	08da      	lsrs	r2, r3, #3
1000ad14:	2301      	movs	r3, #1
1000ad16:	408b      	lsls	r3, r1
1000ad18:	00d2      	lsls	r2, r2, #3
1000ad1a:	6879      	ldr	r1, [r7, #4]
1000ad1c:	19d2      	adds	r2, r2, r7
1000ad1e:	430b      	orrs	r3, r1
1000ad20:	6891      	ldr	r1, [r2, #8]
1000ad22:	607b      	str	r3, [r7, #4]
1000ad24:	60e2      	str	r2, [r4, #12]
1000ad26:	60a1      	str	r1, [r4, #8]
1000ad28:	6094      	str	r4, [r2, #8]
1000ad2a:	60cc      	str	r4, [r1, #12]
1000ad2c:	2101      	movs	r1, #1
1000ad2e:	1082      	asrs	r2, r0, #2
1000ad30:	4091      	lsls	r1, r2
1000ad32:	4299      	cmp	r1, r3
1000ad34:	d859      	bhi.n	1000adea <_malloc_r+0x1c6>
1000ad36:	420b      	tst	r3, r1
1000ad38:	d105      	bne.n	1000ad46 <_malloc_r+0x122>
1000ad3a:	2203      	movs	r2, #3
1000ad3c:	4390      	bics	r0, r2
1000ad3e:	0049      	lsls	r1, r1, #1
1000ad40:	3004      	adds	r0, #4
1000ad42:	420b      	tst	r3, r1
1000ad44:	d0fb      	beq.n	1000ad3e <_malloc_r+0x11a>
1000ad46:	2303      	movs	r3, #3
1000ad48:	4698      	mov	r8, r3
1000ad4a:	00c3      	lsls	r3, r0, #3
1000ad4c:	4699      	mov	r9, r3
1000ad4e:	44b9      	add	r9, r7
1000ad50:	46cc      	mov	ip, r9
1000ad52:	4682      	mov	sl, r0
1000ad54:	4663      	mov	r3, ip
1000ad56:	68dc      	ldr	r4, [r3, #12]
1000ad58:	45a4      	cmp	ip, r4
1000ad5a:	d107      	bne.n	1000ad6c <_malloc_r+0x148>
1000ad5c:	e126      	b.n	1000afac <_malloc_r+0x388>
1000ad5e:	2a00      	cmp	r2, #0
1000ad60:	db00      	blt.n	1000ad64 <_malloc_r+0x140>
1000ad62:	e12f      	b.n	1000afc4 <_malloc_r+0x3a0>
1000ad64:	68e4      	ldr	r4, [r4, #12]
1000ad66:	45a4      	cmp	ip, r4
1000ad68:	d100      	bne.n	1000ad6c <_malloc_r+0x148>
1000ad6a:	e11f      	b.n	1000afac <_malloc_r+0x388>
1000ad6c:	4642      	mov	r2, r8
1000ad6e:	6863      	ldr	r3, [r4, #4]
1000ad70:	4393      	bics	r3, r2
1000ad72:	1b5a      	subs	r2, r3, r5
1000ad74:	2a0f      	cmp	r2, #15
1000ad76:	ddf2      	ble.n	1000ad5e <_malloc_r+0x13a>
1000ad78:	2001      	movs	r0, #1
1000ad7a:	4680      	mov	r8, r0
1000ad7c:	1961      	adds	r1, r4, r5
1000ad7e:	4305      	orrs	r5, r0
1000ad80:	6065      	str	r5, [r4, #4]
1000ad82:	68a0      	ldr	r0, [r4, #8]
1000ad84:	68e5      	ldr	r5, [r4, #12]
1000ad86:	3708      	adds	r7, #8
1000ad88:	60c5      	str	r5, [r0, #12]
1000ad8a:	60a8      	str	r0, [r5, #8]
1000ad8c:	4640      	mov	r0, r8
1000ad8e:	4310      	orrs	r0, r2
1000ad90:	60f9      	str	r1, [r7, #12]
1000ad92:	60b9      	str	r1, [r7, #8]
1000ad94:	6048      	str	r0, [r1, #4]
1000ad96:	60cf      	str	r7, [r1, #12]
1000ad98:	0030      	movs	r0, r6
1000ad9a:	608f      	str	r7, [r1, #8]
1000ad9c:	50e2      	str	r2, [r4, r3]
1000ad9e:	f000 f9fd 	bl	1000b19c <__malloc_unlock>
1000ada2:	0020      	movs	r0, r4
1000ada4:	3008      	adds	r0, #8
1000ada6:	e002      	b.n	1000adae <_malloc_r+0x18a>
1000ada8:	230c      	movs	r3, #12
1000adaa:	2000      	movs	r0, #0
1000adac:	6033      	str	r3, [r6, #0]
1000adae:	b003      	add	sp, #12
1000adb0:	bcf0      	pop	{r4, r5, r6, r7}
1000adb2:	46bb      	mov	fp, r7
1000adb4:	46b2      	mov	sl, r6
1000adb6:	46a9      	mov	r9, r5
1000adb8:	46a0      	mov	r8, r4
1000adba:	bdf0      	pop	{r4, r5, r6, r7, pc}
1000adbc:	2180      	movs	r1, #128	; 0x80
1000adbe:	233f      	movs	r3, #63	; 0x3f
1000adc0:	2040      	movs	r0, #64	; 0x40
1000adc2:	4698      	mov	r8, r3
1000adc4:	0089      	lsls	r1, r1, #2
1000adc6:	e776      	b.n	1000acb6 <_malloc_r+0x92>
1000adc8:	68dc      	ldr	r4, [r3, #12]
1000adca:	3002      	adds	r0, #2
1000adcc:	42a3      	cmp	r3, r4
1000adce:	d000      	beq.n	1000add2 <_malloc_r+0x1ae>
1000add0:	e744      	b.n	1000ac5c <_malloc_r+0x38>
1000add2:	003a      	movs	r2, r7
1000add4:	693c      	ldr	r4, [r7, #16]
1000add6:	3208      	adds	r2, #8
1000add8:	4294      	cmp	r4, r2
1000adda:	d000      	beq.n	1000adde <_malloc_r+0x1ba>
1000addc:	e786      	b.n	1000acec <_malloc_r+0xc8>
1000adde:	2101      	movs	r1, #1
1000ade0:	687b      	ldr	r3, [r7, #4]
1000ade2:	1082      	asrs	r2, r0, #2
1000ade4:	4091      	lsls	r1, r2
1000ade6:	4299      	cmp	r1, r3
1000ade8:	d9a5      	bls.n	1000ad36 <_malloc_r+0x112>
1000adea:	2303      	movs	r3, #3
1000adec:	68bc      	ldr	r4, [r7, #8]
1000adee:	6862      	ldr	r2, [r4, #4]
1000adf0:	439a      	bics	r2, r3
1000adf2:	4691      	mov	r9, r2
1000adf4:	4295      	cmp	r5, r2
1000adf6:	d803      	bhi.n	1000ae00 <_malloc_r+0x1dc>
1000adf8:	1b53      	subs	r3, r2, r5
1000adfa:	2b0f      	cmp	r3, #15
1000adfc:	dd00      	ble.n	1000ae00 <_malloc_r+0x1dc>
1000adfe:	e08a      	b.n	1000af16 <_malloc_r+0x2f2>
1000ae00:	0023      	movs	r3, r4
1000ae02:	444b      	add	r3, r9
1000ae04:	4a5f      	ldr	r2, [pc, #380]	; (1000af84 <_malloc_r+0x360>)
1000ae06:	9301      	str	r3, [sp, #4]
1000ae08:	4b5f      	ldr	r3, [pc, #380]	; (1000af88 <_malloc_r+0x364>)
1000ae0a:	4693      	mov	fp, r2
1000ae0c:	469a      	mov	sl, r3
1000ae0e:	6812      	ldr	r2, [r2, #0]
1000ae10:	681b      	ldr	r3, [r3, #0]
1000ae12:	18eb      	adds	r3, r5, r3
1000ae14:	3201      	adds	r2, #1
1000ae16:	d100      	bne.n	1000ae1a <_malloc_r+0x1f6>
1000ae18:	e136      	b.n	1000b088 <_malloc_r+0x464>
1000ae1a:	4a5c      	ldr	r2, [pc, #368]	; (1000af8c <_malloc_r+0x368>)
1000ae1c:	4694      	mov	ip, r2
1000ae1e:	4463      	add	r3, ip
1000ae20:	0b1b      	lsrs	r3, r3, #12
1000ae22:	031b      	lsls	r3, r3, #12
1000ae24:	9300      	str	r3, [sp, #0]
1000ae26:	0030      	movs	r0, r6
1000ae28:	9900      	ldr	r1, [sp, #0]
1000ae2a:	f000 f9b9 	bl	1000b1a0 <_sbrk_r>
1000ae2e:	0003      	movs	r3, r0
1000ae30:	4680      	mov	r8, r0
1000ae32:	3301      	adds	r3, #1
1000ae34:	d100      	bne.n	1000ae38 <_malloc_r+0x214>
1000ae36:	e0f3      	b.n	1000b020 <_malloc_r+0x3fc>
1000ae38:	9b01      	ldr	r3, [sp, #4]
1000ae3a:	4283      	cmp	r3, r0
1000ae3c:	d900      	bls.n	1000ae40 <_malloc_r+0x21c>
1000ae3e:	e0ed      	b.n	1000b01c <_malloc_r+0x3f8>
1000ae40:	4652      	mov	r2, sl
1000ae42:	9800      	ldr	r0, [sp, #0]
1000ae44:	6852      	ldr	r2, [r2, #4]
1000ae46:	0003      	movs	r3, r0
1000ae48:	4694      	mov	ip, r2
1000ae4a:	4651      	mov	r1, sl
1000ae4c:	4463      	add	r3, ip
1000ae4e:	604b      	str	r3, [r1, #4]
1000ae50:	9901      	ldr	r1, [sp, #4]
1000ae52:	001a      	movs	r2, r3
1000ae54:	4541      	cmp	r1, r8
1000ae56:	d100      	bne.n	1000ae5a <_malloc_r+0x236>
1000ae58:	e14b      	b.n	1000b0f2 <_malloc_r+0x4ce>
1000ae5a:	465b      	mov	r3, fp
1000ae5c:	681b      	ldr	r3, [r3, #0]
1000ae5e:	3301      	adds	r3, #1
1000ae60:	d100      	bne.n	1000ae64 <_malloc_r+0x240>
1000ae62:	e150      	b.n	1000b106 <_malloc_r+0x4e2>
1000ae64:	4643      	mov	r3, r8
1000ae66:	9901      	ldr	r1, [sp, #4]
1000ae68:	1a5b      	subs	r3, r3, r1
1000ae6a:	189a      	adds	r2, r3, r2
1000ae6c:	4653      	mov	r3, sl
1000ae6e:	605a      	str	r2, [r3, #4]
1000ae70:	2307      	movs	r3, #7
1000ae72:	4642      	mov	r2, r8
1000ae74:	4641      	mov	r1, r8
1000ae76:	401a      	ands	r2, r3
1000ae78:	9201      	str	r2, [sp, #4]
1000ae7a:	4219      	tst	r1, r3
1000ae7c:	d100      	bne.n	1000ae80 <_malloc_r+0x25c>
1000ae7e:	e10d      	b.n	1000b09c <_malloc_r+0x478>
1000ae80:	2308      	movs	r3, #8
1000ae82:	4698      	mov	r8, r3
1000ae84:	1a88      	subs	r0, r1, r2
1000ae86:	4b42      	ldr	r3, [pc, #264]	; (1000af90 <_malloc_r+0x36c>)
1000ae88:	9900      	ldr	r1, [sp, #0]
1000ae8a:	4480      	add	r8, r0
1000ae8c:	4441      	add	r1, r8
1000ae8e:	1a9b      	subs	r3, r3, r2
1000ae90:	1a5b      	subs	r3, r3, r1
1000ae92:	051b      	lsls	r3, r3, #20
1000ae94:	0d1b      	lsrs	r3, r3, #20
1000ae96:	9100      	str	r1, [sp, #0]
1000ae98:	0030      	movs	r0, r6
1000ae9a:	0019      	movs	r1, r3
1000ae9c:	469b      	mov	fp, r3
1000ae9e:	f000 f97f 	bl	1000b1a0 <_sbrk_r>
1000aea2:	1c43      	adds	r3, r0, #1
1000aea4:	d100      	bne.n	1000aea8 <_malloc_r+0x284>
1000aea6:	e14a      	b.n	1000b13e <_malloc_r+0x51a>
1000aea8:	4643      	mov	r3, r8
1000aeaa:	1ac0      	subs	r0, r0, r3
1000aeac:	0003      	movs	r3, r0
1000aeae:	445b      	add	r3, fp
1000aeb0:	9300      	str	r3, [sp, #0]
1000aeb2:	4653      	mov	r3, sl
1000aeb4:	4652      	mov	r2, sl
1000aeb6:	685b      	ldr	r3, [r3, #4]
1000aeb8:	2101      	movs	r1, #1
1000aeba:	445b      	add	r3, fp
1000aebc:	6053      	str	r3, [r2, #4]
1000aebe:	4642      	mov	r2, r8
1000aec0:	4640      	mov	r0, r8
1000aec2:	60ba      	str	r2, [r7, #8]
1000aec4:	9a00      	ldr	r2, [sp, #0]
1000aec6:	430a      	orrs	r2, r1
1000aec8:	6042      	str	r2, [r0, #4]
1000aeca:	42bc      	cmp	r4, r7
1000aecc:	d100      	bne.n	1000aed0 <_malloc_r+0x2ac>
1000aece:	e11e      	b.n	1000b10e <_malloc_r+0x4ea>
1000aed0:	464a      	mov	r2, r9
1000aed2:	2a0f      	cmp	r2, #15
1000aed4:	d800      	bhi.n	1000aed8 <_malloc_r+0x2b4>
1000aed6:	e11c      	b.n	1000b112 <_malloc_r+0x4ee>
1000aed8:	2007      	movs	r0, #7
1000aeda:	3a0c      	subs	r2, #12
1000aedc:	4382      	bics	r2, r0
1000aede:	6860      	ldr	r0, [r4, #4]
1000aee0:	4001      	ands	r1, r0
1000aee2:	2005      	movs	r0, #5
1000aee4:	4311      	orrs	r1, r2
1000aee6:	6061      	str	r1, [r4, #4]
1000aee8:	18a1      	adds	r1, r4, r2
1000aeea:	6048      	str	r0, [r1, #4]
1000aeec:	6088      	str	r0, [r1, #8]
1000aeee:	2a0f      	cmp	r2, #15
1000aef0:	d900      	bls.n	1000aef4 <_malloc_r+0x2d0>
1000aef2:	e12f      	b.n	1000b154 <_malloc_r+0x530>
1000aef4:	4642      	mov	r2, r8
1000aef6:	4644      	mov	r4, r8
1000aef8:	6852      	ldr	r2, [r2, #4]
1000aefa:	4651      	mov	r1, sl
1000aefc:	6ac9      	ldr	r1, [r1, #44]	; 0x2c
1000aefe:	4299      	cmp	r1, r3
1000af00:	d201      	bcs.n	1000af06 <_malloc_r+0x2e2>
1000af02:	4651      	mov	r1, sl
1000af04:	62cb      	str	r3, [r1, #44]	; 0x2c
1000af06:	4651      	mov	r1, sl
1000af08:	6b09      	ldr	r1, [r1, #48]	; 0x30
1000af0a:	4299      	cmp	r1, r3
1000af0c:	d300      	bcc.n	1000af10 <_malloc_r+0x2ec>
1000af0e:	e089      	b.n	1000b024 <_malloc_r+0x400>
1000af10:	4651      	mov	r1, sl
1000af12:	630b      	str	r3, [r1, #48]	; 0x30
1000af14:	e086      	b.n	1000b024 <_malloc_r+0x400>
1000af16:	2201      	movs	r2, #1
1000af18:	0029      	movs	r1, r5
1000af1a:	4313      	orrs	r3, r2
1000af1c:	4311      	orrs	r1, r2
1000af1e:	1965      	adds	r5, r4, r5
1000af20:	6061      	str	r1, [r4, #4]
1000af22:	0030      	movs	r0, r6
1000af24:	60bd      	str	r5, [r7, #8]
1000af26:	606b      	str	r3, [r5, #4]
1000af28:	f000 f938 	bl	1000b19c <__malloc_unlock>
1000af2c:	0020      	movs	r0, r4
1000af2e:	3008      	adds	r0, #8
1000af30:	e73d      	b.n	1000adae <_malloc_r+0x18a>
1000af32:	0a5a      	lsrs	r2, r3, #9
1000af34:	2a04      	cmp	r2, #4
1000af36:	d96b      	bls.n	1000b010 <_malloc_r+0x3ec>
1000af38:	2a14      	cmp	r2, #20
1000af3a:	d900      	bls.n	1000af3e <_malloc_r+0x31a>
1000af3c:	e0be      	b.n	1000b0bc <_malloc_r+0x498>
1000af3e:	0011      	movs	r1, r2
1000af40:	325c      	adds	r2, #92	; 0x5c
1000af42:	315b      	adds	r1, #91	; 0x5b
1000af44:	00d2      	lsls	r2, r2, #3
1000af46:	2308      	movs	r3, #8
1000af48:	425b      	negs	r3, r3
1000af4a:	469c      	mov	ip, r3
1000af4c:	18ba      	adds	r2, r7, r2
1000af4e:	4494      	add	ip, r2
1000af50:	4663      	mov	r3, ip
1000af52:	689a      	ldr	r2, [r3, #8]
1000af54:	2303      	movs	r3, #3
1000af56:	4698      	mov	r8, r3
1000af58:	4594      	cmp	ip, r2
1000af5a:	d100      	bne.n	1000af5e <_malloc_r+0x33a>
1000af5c:	e097      	b.n	1000b08e <_malloc_r+0x46a>
1000af5e:	4643      	mov	r3, r8
1000af60:	6851      	ldr	r1, [r2, #4]
1000af62:	4399      	bics	r1, r3
1000af64:	4549      	cmp	r1, r9
1000af66:	d902      	bls.n	1000af6e <_malloc_r+0x34a>
1000af68:	6892      	ldr	r2, [r2, #8]
1000af6a:	4594      	cmp	ip, r2
1000af6c:	d1f7      	bne.n	1000af5e <_malloc_r+0x33a>
1000af6e:	68d3      	ldr	r3, [r2, #12]
1000af70:	469c      	mov	ip, r3
1000af72:	687b      	ldr	r3, [r7, #4]
1000af74:	4661      	mov	r1, ip
1000af76:	60a2      	str	r2, [r4, #8]
1000af78:	60e1      	str	r1, [r4, #12]
1000af7a:	608c      	str	r4, [r1, #8]
1000af7c:	60d4      	str	r4, [r2, #12]
1000af7e:	e6d5      	b.n	1000ad2c <_malloc_r+0x108>
1000af80:	200008a8 	.word	0x200008a8
1000af84:	200008a0 	.word	0x200008a0
1000af88:	20001194 	.word	0x20001194
1000af8c:	0000100f 	.word	0x0000100f
1000af90:	00001008 	.word	0x00001008
1000af94:	2814      	cmp	r0, #20
1000af96:	d952      	bls.n	1000b03e <_malloc_r+0x41a>
1000af98:	2854      	cmp	r0, #84	; 0x54
1000af9a:	d900      	bls.n	1000af9e <_malloc_r+0x37a>
1000af9c:	e096      	b.n	1000b0cc <_malloc_r+0x4a8>
1000af9e:	236e      	movs	r3, #110	; 0x6e
1000afa0:	4698      	mov	r8, r3
1000afa2:	0b28      	lsrs	r0, r5, #12
1000afa4:	4480      	add	r8, r0
1000afa6:	306f      	adds	r0, #111	; 0x6f
1000afa8:	00c1      	lsls	r1, r0, #3
1000afaa:	e684      	b.n	1000acb6 <_malloc_r+0x92>
1000afac:	2308      	movs	r3, #8
1000afae:	469b      	mov	fp, r3
1000afb0:	3b07      	subs	r3, #7
1000afb2:	44dc      	add	ip, fp
1000afb4:	469b      	mov	fp, r3
1000afb6:	44da      	add	sl, fp
1000afb8:	4643      	mov	r3, r8
1000afba:	4652      	mov	r2, sl
1000afbc:	4213      	tst	r3, r2
1000afbe:	d000      	beq.n	1000afc2 <_malloc_r+0x39e>
1000afc0:	e6c8      	b.n	1000ad54 <_malloc_r+0x130>
1000afc2:	e04c      	b.n	1000b05e <_malloc_r+0x43a>
1000afc4:	2201      	movs	r2, #1
1000afc6:	18e3      	adds	r3, r4, r3
1000afc8:	6859      	ldr	r1, [r3, #4]
1000afca:	0030      	movs	r0, r6
1000afcc:	430a      	orrs	r2, r1
1000afce:	605a      	str	r2, [r3, #4]
1000afd0:	68e3      	ldr	r3, [r4, #12]
1000afd2:	68a2      	ldr	r2, [r4, #8]
1000afd4:	60d3      	str	r3, [r2, #12]
1000afd6:	609a      	str	r2, [r3, #8]
1000afd8:	f000 f8e0 	bl	1000b19c <__malloc_unlock>
1000afdc:	0020      	movs	r0, r4
1000afde:	3008      	adds	r0, #8
1000afe0:	e6e5      	b.n	1000adae <_malloc_r+0x18a>
1000afe2:	002b      	movs	r3, r5
1000afe4:	08e8      	lsrs	r0, r5, #3
1000afe6:	3308      	adds	r3, #8
1000afe8:	e630      	b.n	1000ac4c <_malloc_r+0x28>
1000afea:	2301      	movs	r3, #1
1000afec:	1960      	adds	r0, r4, r5
1000afee:	431d      	orrs	r5, r3
1000aff0:	6065      	str	r5, [r4, #4]
1000aff2:	6178      	str	r0, [r7, #20]
1000aff4:	6138      	str	r0, [r7, #16]
1000aff6:	60c2      	str	r2, [r0, #12]
1000aff8:	6082      	str	r2, [r0, #8]
1000affa:	001a      	movs	r2, r3
1000affc:	464b      	mov	r3, r9
1000affe:	430a      	orrs	r2, r1
1000b000:	6042      	str	r2, [r0, #4]
1000b002:	0030      	movs	r0, r6
1000b004:	50e1      	str	r1, [r4, r3]
1000b006:	f000 f8c9 	bl	1000b19c <__malloc_unlock>
1000b00a:	0020      	movs	r0, r4
1000b00c:	3008      	adds	r0, #8
1000b00e:	e6ce      	b.n	1000adae <_malloc_r+0x18a>
1000b010:	099a      	lsrs	r2, r3, #6
1000b012:	0011      	movs	r1, r2
1000b014:	3239      	adds	r2, #57	; 0x39
1000b016:	3138      	adds	r1, #56	; 0x38
1000b018:	00d2      	lsls	r2, r2, #3
1000b01a:	e794      	b.n	1000af46 <_malloc_r+0x322>
1000b01c:	42bc      	cmp	r4, r7
1000b01e:	d060      	beq.n	1000b0e2 <_malloc_r+0x4be>
1000b020:	68bc      	ldr	r4, [r7, #8]
1000b022:	6862      	ldr	r2, [r4, #4]
1000b024:	2303      	movs	r3, #3
1000b026:	439a      	bics	r2, r3
1000b028:	1b53      	subs	r3, r2, r5
1000b02a:	4295      	cmp	r5, r2
1000b02c:	d802      	bhi.n	1000b034 <_malloc_r+0x410>
1000b02e:	2b0f      	cmp	r3, #15
1000b030:	dd00      	ble.n	1000b034 <_malloc_r+0x410>
1000b032:	e770      	b.n	1000af16 <_malloc_r+0x2f2>
1000b034:	0030      	movs	r0, r6
1000b036:	f000 f8b1 	bl	1000b19c <__malloc_unlock>
1000b03a:	2000      	movs	r0, #0
1000b03c:	e6b7      	b.n	1000adae <_malloc_r+0x18a>
1000b03e:	235b      	movs	r3, #91	; 0x5b
1000b040:	4698      	mov	r8, r3
1000b042:	4480      	add	r8, r0
1000b044:	305c      	adds	r0, #92	; 0x5c
1000b046:	00c1      	lsls	r1, r0, #3
1000b048:	e635      	b.n	1000acb6 <_malloc_r+0x92>
1000b04a:	2308      	movs	r3, #8
1000b04c:	425b      	negs	r3, r3
1000b04e:	469c      	mov	ip, r3
1000b050:	44e1      	add	r9, ip
1000b052:	464b      	mov	r3, r9
1000b054:	689b      	ldr	r3, [r3, #8]
1000b056:	3801      	subs	r0, #1
1000b058:	454b      	cmp	r3, r9
1000b05a:	d000      	beq.n	1000b05e <_malloc_r+0x43a>
1000b05c:	e097      	b.n	1000b18e <_malloc_r+0x56a>
1000b05e:	4643      	mov	r3, r8
1000b060:	4203      	tst	r3, r0
1000b062:	d1f2      	bne.n	1000b04a <_malloc_r+0x426>
1000b064:	687b      	ldr	r3, [r7, #4]
1000b066:	438b      	bics	r3, r1
1000b068:	607b      	str	r3, [r7, #4]
1000b06a:	0049      	lsls	r1, r1, #1
1000b06c:	4299      	cmp	r1, r3
1000b06e:	d900      	bls.n	1000b072 <_malloc_r+0x44e>
1000b070:	e6bb      	b.n	1000adea <_malloc_r+0x1c6>
1000b072:	2900      	cmp	r1, #0
1000b074:	d104      	bne.n	1000b080 <_malloc_r+0x45c>
1000b076:	e6b8      	b.n	1000adea <_malloc_r+0x1c6>
1000b078:	2204      	movs	r2, #4
1000b07a:	4694      	mov	ip, r2
1000b07c:	0049      	lsls	r1, r1, #1
1000b07e:	44e2      	add	sl, ip
1000b080:	420b      	tst	r3, r1
1000b082:	d0f9      	beq.n	1000b078 <_malloc_r+0x454>
1000b084:	4650      	mov	r0, sl
1000b086:	e660      	b.n	1000ad4a <_malloc_r+0x126>
1000b088:	3310      	adds	r3, #16
1000b08a:	9300      	str	r3, [sp, #0]
1000b08c:	e6cb      	b.n	1000ae26 <_malloc_r+0x202>
1000b08e:	1089      	asrs	r1, r1, #2
1000b090:	3b02      	subs	r3, #2
1000b092:	408b      	lsls	r3, r1
1000b094:	6879      	ldr	r1, [r7, #4]
1000b096:	430b      	orrs	r3, r1
1000b098:	607b      	str	r3, [r7, #4]
1000b09a:	e76b      	b.n	1000af74 <_malloc_r+0x350>
1000b09c:	9b00      	ldr	r3, [sp, #0]
1000b09e:	0030      	movs	r0, r6
1000b0a0:	4443      	add	r3, r8
1000b0a2:	425b      	negs	r3, r3
1000b0a4:	051b      	lsls	r3, r3, #20
1000b0a6:	0d1b      	lsrs	r3, r3, #20
1000b0a8:	0019      	movs	r1, r3
1000b0aa:	469b      	mov	fp, r3
1000b0ac:	f000 f878 	bl	1000b1a0 <_sbrk_r>
1000b0b0:	1c43      	adds	r3, r0, #1
1000b0b2:	d000      	beq.n	1000b0b6 <_malloc_r+0x492>
1000b0b4:	e6f8      	b.n	1000aea8 <_malloc_r+0x284>
1000b0b6:	2300      	movs	r3, #0
1000b0b8:	469b      	mov	fp, r3
1000b0ba:	e6fa      	b.n	1000aeb2 <_malloc_r+0x28e>
1000b0bc:	2a54      	cmp	r2, #84	; 0x54
1000b0be:	d82a      	bhi.n	1000b116 <_malloc_r+0x4f2>
1000b0c0:	0b1a      	lsrs	r2, r3, #12
1000b0c2:	0011      	movs	r1, r2
1000b0c4:	326f      	adds	r2, #111	; 0x6f
1000b0c6:	316e      	adds	r1, #110	; 0x6e
1000b0c8:	00d2      	lsls	r2, r2, #3
1000b0ca:	e73c      	b.n	1000af46 <_malloc_r+0x322>
1000b0cc:	23aa      	movs	r3, #170	; 0xaa
1000b0ce:	005b      	lsls	r3, r3, #1
1000b0d0:	4298      	cmp	r0, r3
1000b0d2:	d82a      	bhi.n	1000b12a <_malloc_r+0x506>
1000b0d4:	3bdd      	subs	r3, #221	; 0xdd
1000b0d6:	4698      	mov	r8, r3
1000b0d8:	0be8      	lsrs	r0, r5, #15
1000b0da:	4480      	add	r8, r0
1000b0dc:	3078      	adds	r0, #120	; 0x78
1000b0de:	00c1      	lsls	r1, r0, #3
1000b0e0:	e5e9      	b.n	1000acb6 <_malloc_r+0x92>
1000b0e2:	4653      	mov	r3, sl
1000b0e4:	685b      	ldr	r3, [r3, #4]
1000b0e6:	9a00      	ldr	r2, [sp, #0]
1000b0e8:	469c      	mov	ip, r3
1000b0ea:	4653      	mov	r3, sl
1000b0ec:	4462      	add	r2, ip
1000b0ee:	605a      	str	r2, [r3, #4]
1000b0f0:	e6b3      	b.n	1000ae5a <_malloc_r+0x236>
1000b0f2:	0509      	lsls	r1, r1, #20
1000b0f4:	d000      	beq.n	1000b0f8 <_malloc_r+0x4d4>
1000b0f6:	e6b0      	b.n	1000ae5a <_malloc_r+0x236>
1000b0f8:	0002      	movs	r2, r0
1000b0fa:	68bc      	ldr	r4, [r7, #8]
1000b0fc:	444a      	add	r2, r9
1000b0fe:	3101      	adds	r1, #1
1000b100:	430a      	orrs	r2, r1
1000b102:	6062      	str	r2, [r4, #4]
1000b104:	e6f9      	b.n	1000aefa <_malloc_r+0x2d6>
1000b106:	465b      	mov	r3, fp
1000b108:	4642      	mov	r2, r8
1000b10a:	601a      	str	r2, [r3, #0]
1000b10c:	e6b0      	b.n	1000ae70 <_malloc_r+0x24c>
1000b10e:	4644      	mov	r4, r8
1000b110:	e6f3      	b.n	1000aefa <_malloc_r+0x2d6>
1000b112:	6041      	str	r1, [r0, #4]
1000b114:	e78e      	b.n	1000b034 <_malloc_r+0x410>
1000b116:	21aa      	movs	r1, #170	; 0xaa
1000b118:	0049      	lsls	r1, r1, #1
1000b11a:	428a      	cmp	r2, r1
1000b11c:	d824      	bhi.n	1000b168 <_malloc_r+0x544>
1000b11e:	0bda      	lsrs	r2, r3, #15
1000b120:	0011      	movs	r1, r2
1000b122:	3278      	adds	r2, #120	; 0x78
1000b124:	3177      	adds	r1, #119	; 0x77
1000b126:	00d2      	lsls	r2, r2, #3
1000b128:	e70d      	b.n	1000af46 <_malloc_r+0x322>
1000b12a:	4b1a      	ldr	r3, [pc, #104]	; (1000b194 <_malloc_r+0x570>)
1000b12c:	4298      	cmp	r0, r3
1000b12e:	d824      	bhi.n	1000b17a <_malloc_r+0x556>
1000b130:	237c      	movs	r3, #124	; 0x7c
1000b132:	4698      	mov	r8, r3
1000b134:	0ca8      	lsrs	r0, r5, #18
1000b136:	4480      	add	r8, r0
1000b138:	307d      	adds	r0, #125	; 0x7d
1000b13a:	00c1      	lsls	r1, r0, #3
1000b13c:	e5bb      	b.n	1000acb6 <_malloc_r+0x92>
1000b13e:	9a00      	ldr	r2, [sp, #0]
1000b140:	9b01      	ldr	r3, [sp, #4]
1000b142:	4694      	mov	ip, r2
1000b144:	4642      	mov	r2, r8
1000b146:	3b08      	subs	r3, #8
1000b148:	4463      	add	r3, ip
1000b14a:	1a9b      	subs	r3, r3, r2
1000b14c:	9300      	str	r3, [sp, #0]
1000b14e:	2300      	movs	r3, #0
1000b150:	469b      	mov	fp, r3
1000b152:	e6ae      	b.n	1000aeb2 <_malloc_r+0x28e>
1000b154:	0021      	movs	r1, r4
1000b156:	0030      	movs	r0, r6
1000b158:	3108      	adds	r1, #8
1000b15a:	f000 f8af 	bl	1000b2bc <_free_r>
1000b15e:	4653      	mov	r3, sl
1000b160:	68bc      	ldr	r4, [r7, #8]
1000b162:	685b      	ldr	r3, [r3, #4]
1000b164:	6862      	ldr	r2, [r4, #4]
1000b166:	e6c8      	b.n	1000aefa <_malloc_r+0x2d6>
1000b168:	490a      	ldr	r1, [pc, #40]	; (1000b194 <_malloc_r+0x570>)
1000b16a:	428a      	cmp	r2, r1
1000b16c:	d80b      	bhi.n	1000b186 <_malloc_r+0x562>
1000b16e:	0c9a      	lsrs	r2, r3, #18
1000b170:	0011      	movs	r1, r2
1000b172:	327d      	adds	r2, #125	; 0x7d
1000b174:	317c      	adds	r1, #124	; 0x7c
1000b176:	00d2      	lsls	r2, r2, #3
1000b178:	e6e5      	b.n	1000af46 <_malloc_r+0x322>
1000b17a:	21fe      	movs	r1, #254	; 0xfe
1000b17c:	237e      	movs	r3, #126	; 0x7e
1000b17e:	207f      	movs	r0, #127	; 0x7f
1000b180:	4698      	mov	r8, r3
1000b182:	0089      	lsls	r1, r1, #2
1000b184:	e597      	b.n	1000acb6 <_malloc_r+0x92>
1000b186:	22fe      	movs	r2, #254	; 0xfe
1000b188:	217e      	movs	r1, #126	; 0x7e
1000b18a:	0092      	lsls	r2, r2, #2
1000b18c:	e6db      	b.n	1000af46 <_malloc_r+0x322>
1000b18e:	687b      	ldr	r3, [r7, #4]
1000b190:	e76b      	b.n	1000b06a <_malloc_r+0x446>
1000b192:	46c0      	nop			; (mov r8, r8)
1000b194:	00000554 	.word	0x00000554

1000b198 <__malloc_lock>:
1000b198:	4770      	bx	lr
1000b19a:	46c0      	nop			; (mov r8, r8)

1000b19c <__malloc_unlock>:
1000b19c:	4770      	bx	lr
1000b19e:	46c0      	nop			; (mov r8, r8)

1000b1a0 <_sbrk_r>:
1000b1a0:	2300      	movs	r3, #0
1000b1a2:	b570      	push	{r4, r5, r6, lr}
1000b1a4:	4d06      	ldr	r5, [pc, #24]	; (1000b1c0 <_sbrk_r+0x20>)
1000b1a6:	0004      	movs	r4, r0
1000b1a8:	0008      	movs	r0, r1
1000b1aa:	602b      	str	r3, [r5, #0]
1000b1ac:	f7f7 f866 	bl	1000227c <_sbrk>
1000b1b0:	1c43      	adds	r3, r0, #1
1000b1b2:	d000      	beq.n	1000b1b6 <_sbrk_r+0x16>
1000b1b4:	bd70      	pop	{r4, r5, r6, pc}
1000b1b6:	682b      	ldr	r3, [r5, #0]
1000b1b8:	2b00      	cmp	r3, #0
1000b1ba:	d0fb      	beq.n	1000b1b4 <_sbrk_r+0x14>
1000b1bc:	6023      	str	r3, [r4, #0]
1000b1be:	e7f9      	b.n	1000b1b4 <_sbrk_r+0x14>
1000b1c0:	200011c8 	.word	0x200011c8

1000b1c4 <strlen>:
1000b1c4:	b510      	push	{r4, lr}
1000b1c6:	0783      	lsls	r3, r0, #30
1000b1c8:	d00a      	beq.n	1000b1e0 <strlen+0x1c>
1000b1ca:	0003      	movs	r3, r0
1000b1cc:	2103      	movs	r1, #3
1000b1ce:	e002      	b.n	1000b1d6 <strlen+0x12>
1000b1d0:	3301      	adds	r3, #1
1000b1d2:	420b      	tst	r3, r1
1000b1d4:	d005      	beq.n	1000b1e2 <strlen+0x1e>
1000b1d6:	781a      	ldrb	r2, [r3, #0]
1000b1d8:	2a00      	cmp	r2, #0
1000b1da:	d1f9      	bne.n	1000b1d0 <strlen+0xc>
1000b1dc:	1a18      	subs	r0, r3, r0
1000b1de:	bd10      	pop	{r4, pc}
1000b1e0:	0003      	movs	r3, r0
1000b1e2:	6819      	ldr	r1, [r3, #0]
1000b1e4:	4a0c      	ldr	r2, [pc, #48]	; (1000b218 <strlen+0x54>)
1000b1e6:	4c0d      	ldr	r4, [pc, #52]	; (1000b21c <strlen+0x58>)
1000b1e8:	188a      	adds	r2, r1, r2
1000b1ea:	438a      	bics	r2, r1
1000b1ec:	4222      	tst	r2, r4
1000b1ee:	d10f      	bne.n	1000b210 <strlen+0x4c>
1000b1f0:	6859      	ldr	r1, [r3, #4]
1000b1f2:	4a09      	ldr	r2, [pc, #36]	; (1000b218 <strlen+0x54>)
1000b1f4:	3304      	adds	r3, #4
1000b1f6:	188a      	adds	r2, r1, r2
1000b1f8:	438a      	bics	r2, r1
1000b1fa:	4222      	tst	r2, r4
1000b1fc:	d108      	bne.n	1000b210 <strlen+0x4c>
1000b1fe:	6859      	ldr	r1, [r3, #4]
1000b200:	4a05      	ldr	r2, [pc, #20]	; (1000b218 <strlen+0x54>)
1000b202:	3304      	adds	r3, #4
1000b204:	188a      	adds	r2, r1, r2
1000b206:	438a      	bics	r2, r1
1000b208:	4222      	tst	r2, r4
1000b20a:	d0f1      	beq.n	1000b1f0 <strlen+0x2c>
1000b20c:	e000      	b.n	1000b210 <strlen+0x4c>
1000b20e:	3301      	adds	r3, #1
1000b210:	781a      	ldrb	r2, [r3, #0]
1000b212:	2a00      	cmp	r2, #0
1000b214:	d1fb      	bne.n	1000b20e <strlen+0x4a>
1000b216:	e7e1      	b.n	1000b1dc <strlen+0x18>
1000b218:	fefefeff 	.word	0xfefefeff
1000b21c:	80808080 	.word	0x80808080

1000b220 <_malloc_trim_r>:
1000b220:	b5f8      	push	{r3, r4, r5, r6, r7, lr}
1000b222:	000c      	movs	r4, r1
1000b224:	0005      	movs	r5, r0
1000b226:	f7ff ffb7 	bl	1000b198 <__malloc_lock>
1000b22a:	4f20      	ldr	r7, [pc, #128]	; (1000b2ac <_malloc_trim_r+0x8c>)
1000b22c:	68bb      	ldr	r3, [r7, #8]
1000b22e:	685e      	ldr	r6, [r3, #4]
1000b230:	2303      	movs	r3, #3
1000b232:	439e      	bics	r6, r3
1000b234:	4b1e      	ldr	r3, [pc, #120]	; (1000b2b0 <_malloc_trim_r+0x90>)
1000b236:	1b34      	subs	r4, r6, r4
1000b238:	469c      	mov	ip, r3
1000b23a:	4464      	add	r4, ip
1000b23c:	0b24      	lsrs	r4, r4, #12
1000b23e:	3c01      	subs	r4, #1
1000b240:	3311      	adds	r3, #17
1000b242:	0324      	lsls	r4, r4, #12
1000b244:	429c      	cmp	r4, r3
1000b246:	db07      	blt.n	1000b258 <_malloc_trim_r+0x38>
1000b248:	2100      	movs	r1, #0
1000b24a:	0028      	movs	r0, r5
1000b24c:	f7ff ffa8 	bl	1000b1a0 <_sbrk_r>
1000b250:	68bb      	ldr	r3, [r7, #8]
1000b252:	199b      	adds	r3, r3, r6
1000b254:	4298      	cmp	r0, r3
1000b256:	d004      	beq.n	1000b262 <_malloc_trim_r+0x42>
1000b258:	0028      	movs	r0, r5
1000b25a:	f7ff ff9f 	bl	1000b19c <__malloc_unlock>
1000b25e:	2000      	movs	r0, #0
1000b260:	bdf8      	pop	{r3, r4, r5, r6, r7, pc}
1000b262:	0028      	movs	r0, r5
1000b264:	4261      	negs	r1, r4
1000b266:	f7ff ff9b 	bl	1000b1a0 <_sbrk_r>
1000b26a:	1c43      	adds	r3, r0, #1
1000b26c:	d00d      	beq.n	1000b28a <_malloc_trim_r+0x6a>
1000b26e:	2201      	movs	r2, #1
1000b270:	68bb      	ldr	r3, [r7, #8]
1000b272:	1b36      	subs	r6, r6, r4
1000b274:	4316      	orrs	r6, r2
1000b276:	605e      	str	r6, [r3, #4]
1000b278:	4b0e      	ldr	r3, [pc, #56]	; (1000b2b4 <_malloc_trim_r+0x94>)
1000b27a:	0028      	movs	r0, r5
1000b27c:	681a      	ldr	r2, [r3, #0]
1000b27e:	1b14      	subs	r4, r2, r4
1000b280:	601c      	str	r4, [r3, #0]
1000b282:	f7ff ff8b 	bl	1000b19c <__malloc_unlock>
1000b286:	2001      	movs	r0, #1
1000b288:	e7ea      	b.n	1000b260 <_malloc_trim_r+0x40>
1000b28a:	2100      	movs	r1, #0
1000b28c:	0028      	movs	r0, r5
1000b28e:	f7ff ff87 	bl	1000b1a0 <_sbrk_r>
1000b292:	68ba      	ldr	r2, [r7, #8]
1000b294:	1a83      	subs	r3, r0, r2
1000b296:	2b0f      	cmp	r3, #15
1000b298:	ddde      	ble.n	1000b258 <_malloc_trim_r+0x38>
1000b29a:	4907      	ldr	r1, [pc, #28]	; (1000b2b8 <_malloc_trim_r+0x98>)
1000b29c:	6809      	ldr	r1, [r1, #0]
1000b29e:	1a40      	subs	r0, r0, r1
1000b2a0:	4904      	ldr	r1, [pc, #16]	; (1000b2b4 <_malloc_trim_r+0x94>)
1000b2a2:	6008      	str	r0, [r1, #0]
1000b2a4:	2101      	movs	r1, #1
1000b2a6:	430b      	orrs	r3, r1
1000b2a8:	6053      	str	r3, [r2, #4]
1000b2aa:	e7d5      	b.n	1000b258 <_malloc_trim_r+0x38>
1000b2ac:	200008a8 	.word	0x200008a8
1000b2b0:	00000fef 	.word	0x00000fef
1000b2b4:	20001198 	.word	0x20001198
1000b2b8:	200008a0 	.word	0x200008a0

1000b2bc <_free_r>:
1000b2bc:	b5f0      	push	{r4, r5, r6, r7, lr}
1000b2be:	46c6      	mov	lr, r8
1000b2c0:	0005      	movs	r5, r0
1000b2c2:	000c      	movs	r4, r1
1000b2c4:	b500      	push	{lr}
1000b2c6:	2900      	cmp	r1, #0
1000b2c8:	d04f      	beq.n	1000b36a <_free_r+0xae>
1000b2ca:	f7ff ff65 	bl	1000b198 <__malloc_lock>
1000b2ce:	0021      	movs	r1, r4
1000b2d0:	3908      	subs	r1, #8
1000b2d2:	684c      	ldr	r4, [r1, #4]
1000b2d4:	2601      	movs	r6, #1
1000b2d6:	0022      	movs	r2, r4
1000b2d8:	2003      	movs	r0, #3
1000b2da:	43b2      	bics	r2, r6
1000b2dc:	188f      	adds	r7, r1, r2
1000b2de:	687b      	ldr	r3, [r7, #4]
1000b2e0:	4383      	bics	r3, r0
1000b2e2:	4862      	ldr	r0, [pc, #392]	; (1000b46c <_free_r+0x1b0>)
1000b2e4:	4698      	mov	r8, r3
1000b2e6:	6883      	ldr	r3, [r0, #8]
1000b2e8:	42bb      	cmp	r3, r7
1000b2ea:	d06a      	beq.n	1000b3c2 <_free_r+0x106>
1000b2ec:	4643      	mov	r3, r8
1000b2ee:	607b      	str	r3, [r7, #4]
1000b2f0:	4226      	tst	r6, r4
1000b2f2:	d11e      	bne.n	1000b332 <_free_r+0x76>
1000b2f4:	2308      	movs	r3, #8
1000b2f6:	469c      	mov	ip, r3
1000b2f8:	680c      	ldr	r4, [r1, #0]
1000b2fa:	4484      	add	ip, r0
1000b2fc:	1b09      	subs	r1, r1, r4
1000b2fe:	1912      	adds	r2, r2, r4
1000b300:	688c      	ldr	r4, [r1, #8]
1000b302:	4564      	cmp	r4, ip
1000b304:	d04f      	beq.n	1000b3a6 <_free_r+0xea>
1000b306:	68cb      	ldr	r3, [r1, #12]
1000b308:	60e3      	str	r3, [r4, #12]
1000b30a:	609c      	str	r4, [r3, #8]
1000b30c:	4643      	mov	r3, r8
1000b30e:	18fc      	adds	r4, r7, r3
1000b310:	6864      	ldr	r4, [r4, #4]
1000b312:	4234      	tst	r4, r6
1000b314:	d111      	bne.n	1000b33a <_free_r+0x7e>
1000b316:	68bb      	ldr	r3, [r7, #8]
1000b318:	4c55      	ldr	r4, [pc, #340]	; (1000b470 <_free_r+0x1b4>)
1000b31a:	4442      	add	r2, r8
1000b31c:	42a3      	cmp	r3, r4
1000b31e:	d100      	bne.n	1000b322 <_free_r+0x66>
1000b320:	e07e      	b.n	1000b420 <_free_r+0x164>
1000b322:	68fc      	ldr	r4, [r7, #12]
1000b324:	60dc      	str	r4, [r3, #12]
1000b326:	60a3      	str	r3, [r4, #8]
1000b328:	2301      	movs	r3, #1
1000b32a:	4313      	orrs	r3, r2
1000b32c:	604b      	str	r3, [r1, #4]
1000b32e:	508a      	str	r2, [r1, r2]
1000b330:	e006      	b.n	1000b340 <_free_r+0x84>
1000b332:	18fc      	adds	r4, r7, r3
1000b334:	6864      	ldr	r4, [r4, #4]
1000b336:	4234      	tst	r4, r6
1000b338:	d0ed      	beq.n	1000b316 <_free_r+0x5a>
1000b33a:	4316      	orrs	r6, r2
1000b33c:	604e      	str	r6, [r1, #4]
1000b33e:	603a      	str	r2, [r7, #0]
1000b340:	2380      	movs	r3, #128	; 0x80
1000b342:	009b      	lsls	r3, r3, #2
1000b344:	429a      	cmp	r2, r3
1000b346:	d213      	bcs.n	1000b370 <_free_r+0xb4>
1000b348:	0954      	lsrs	r4, r2, #5
1000b34a:	08d3      	lsrs	r3, r2, #3
1000b34c:	2201      	movs	r2, #1
1000b34e:	40a2      	lsls	r2, r4
1000b350:	6844      	ldr	r4, [r0, #4]
1000b352:	00db      	lsls	r3, r3, #3
1000b354:	4322      	orrs	r2, r4
1000b356:	6042      	str	r2, [r0, #4]
1000b358:	1818      	adds	r0, r3, r0
1000b35a:	6883      	ldr	r3, [r0, #8]
1000b35c:	60c8      	str	r0, [r1, #12]
1000b35e:	608b      	str	r3, [r1, #8]
1000b360:	6081      	str	r1, [r0, #8]
1000b362:	60d9      	str	r1, [r3, #12]
1000b364:	0028      	movs	r0, r5
1000b366:	f7ff ff19 	bl	1000b19c <__malloc_unlock>
1000b36a:	bc80      	pop	{r7}
1000b36c:	46b8      	mov	r8, r7
1000b36e:	bdf0      	pop	{r4, r5, r6, r7, pc}
1000b370:	0a53      	lsrs	r3, r2, #9
1000b372:	2b04      	cmp	r3, #4
1000b374:	d83e      	bhi.n	1000b3f4 <_free_r+0x138>
1000b376:	0994      	lsrs	r4, r2, #6
1000b378:	0026      	movs	r6, r4
1000b37a:	3439      	adds	r4, #57	; 0x39
1000b37c:	3638      	adds	r6, #56	; 0x38
1000b37e:	00e4      	lsls	r4, r4, #3
1000b380:	1904      	adds	r4, r0, r4
1000b382:	6823      	ldr	r3, [r4, #0]
1000b384:	3c08      	subs	r4, #8
1000b386:	2703      	movs	r7, #3
1000b388:	429c      	cmp	r4, r3
1000b38a:	d042      	beq.n	1000b412 <_free_r+0x156>
1000b38c:	6858      	ldr	r0, [r3, #4]
1000b38e:	43b8      	bics	r0, r7
1000b390:	4290      	cmp	r0, r2
1000b392:	d902      	bls.n	1000b39a <_free_r+0xde>
1000b394:	689b      	ldr	r3, [r3, #8]
1000b396:	429c      	cmp	r4, r3
1000b398:	d1f8      	bne.n	1000b38c <_free_r+0xd0>
1000b39a:	68dc      	ldr	r4, [r3, #12]
1000b39c:	60cc      	str	r4, [r1, #12]
1000b39e:	608b      	str	r3, [r1, #8]
1000b3a0:	60a1      	str	r1, [r4, #8]
1000b3a2:	60d9      	str	r1, [r3, #12]
1000b3a4:	e7de      	b.n	1000b364 <_free_r+0xa8>
1000b3a6:	4643      	mov	r3, r8
1000b3a8:	18f8      	adds	r0, r7, r3
1000b3aa:	6840      	ldr	r0, [r0, #4]
1000b3ac:	4230      	tst	r0, r6
1000b3ae:	d157      	bne.n	1000b460 <_free_r+0x1a4>
1000b3b0:	68fb      	ldr	r3, [r7, #12]
1000b3b2:	68b8      	ldr	r0, [r7, #8]
1000b3b4:	4442      	add	r2, r8
1000b3b6:	4316      	orrs	r6, r2
1000b3b8:	60c3      	str	r3, [r0, #12]
1000b3ba:	6098      	str	r0, [r3, #8]
1000b3bc:	604e      	str	r6, [r1, #4]
1000b3be:	508a      	str	r2, [r1, r2]
1000b3c0:	e7d0      	b.n	1000b364 <_free_r+0xa8>
1000b3c2:	0013      	movs	r3, r2
1000b3c4:	4443      	add	r3, r8
1000b3c6:	4226      	tst	r6, r4
1000b3c8:	d106      	bne.n	1000b3d8 <_free_r+0x11c>
1000b3ca:	680a      	ldr	r2, [r1, #0]
1000b3cc:	1a89      	subs	r1, r1, r2
1000b3ce:	688c      	ldr	r4, [r1, #8]
1000b3d0:	189b      	adds	r3, r3, r2
1000b3d2:	68ca      	ldr	r2, [r1, #12]
1000b3d4:	60e2      	str	r2, [r4, #12]
1000b3d6:	6094      	str	r4, [r2, #8]
1000b3d8:	2201      	movs	r2, #1
1000b3da:	431a      	orrs	r2, r3
1000b3dc:	604a      	str	r2, [r1, #4]
1000b3de:	4a25      	ldr	r2, [pc, #148]	; (1000b474 <_free_r+0x1b8>)
1000b3e0:	6081      	str	r1, [r0, #8]
1000b3e2:	6812      	ldr	r2, [r2, #0]
1000b3e4:	429a      	cmp	r2, r3
1000b3e6:	d8bd      	bhi.n	1000b364 <_free_r+0xa8>
1000b3e8:	4b23      	ldr	r3, [pc, #140]	; (1000b478 <_free_r+0x1bc>)
1000b3ea:	0028      	movs	r0, r5
1000b3ec:	6819      	ldr	r1, [r3, #0]
1000b3ee:	f7ff ff17 	bl	1000b220 <_malloc_trim_r>
1000b3f2:	e7b7      	b.n	1000b364 <_free_r+0xa8>
1000b3f4:	2b14      	cmp	r3, #20
1000b3f6:	d907      	bls.n	1000b408 <_free_r+0x14c>
1000b3f8:	2b54      	cmp	r3, #84	; 0x54
1000b3fa:	d81a      	bhi.n	1000b432 <_free_r+0x176>
1000b3fc:	0b14      	lsrs	r4, r2, #12
1000b3fe:	0026      	movs	r6, r4
1000b400:	346f      	adds	r4, #111	; 0x6f
1000b402:	366e      	adds	r6, #110	; 0x6e
1000b404:	00e4      	lsls	r4, r4, #3
1000b406:	e7bb      	b.n	1000b380 <_free_r+0xc4>
1000b408:	001e      	movs	r6, r3
1000b40a:	335c      	adds	r3, #92	; 0x5c
1000b40c:	365b      	adds	r6, #91	; 0x5b
1000b40e:	00dc      	lsls	r4, r3, #3
1000b410:	e7b6      	b.n	1000b380 <_free_r+0xc4>
1000b412:	2201      	movs	r2, #1
1000b414:	10b6      	asrs	r6, r6, #2
1000b416:	40b2      	lsls	r2, r6
1000b418:	6846      	ldr	r6, [r0, #4]
1000b41a:	4332      	orrs	r2, r6
1000b41c:	6042      	str	r2, [r0, #4]
1000b41e:	e7bd      	b.n	1000b39c <_free_r+0xe0>
1000b420:	60d9      	str	r1, [r3, #12]
1000b422:	6099      	str	r1, [r3, #8]
1000b424:	60cb      	str	r3, [r1, #12]
1000b426:	608b      	str	r3, [r1, #8]
1000b428:	2301      	movs	r3, #1
1000b42a:	4313      	orrs	r3, r2
1000b42c:	604b      	str	r3, [r1, #4]
1000b42e:	508a      	str	r2, [r1, r2]
1000b430:	e798      	b.n	1000b364 <_free_r+0xa8>
1000b432:	24aa      	movs	r4, #170	; 0xaa
1000b434:	0064      	lsls	r4, r4, #1
1000b436:	42a3      	cmp	r3, r4
1000b438:	d805      	bhi.n	1000b446 <_free_r+0x18a>
1000b43a:	0bd4      	lsrs	r4, r2, #15
1000b43c:	0026      	movs	r6, r4
1000b43e:	3478      	adds	r4, #120	; 0x78
1000b440:	3677      	adds	r6, #119	; 0x77
1000b442:	00e4      	lsls	r4, r4, #3
1000b444:	e79c      	b.n	1000b380 <_free_r+0xc4>
1000b446:	4c0d      	ldr	r4, [pc, #52]	; (1000b47c <_free_r+0x1c0>)
1000b448:	42a3      	cmp	r3, r4
1000b44a:	d805      	bhi.n	1000b458 <_free_r+0x19c>
1000b44c:	0c94      	lsrs	r4, r2, #18
1000b44e:	0026      	movs	r6, r4
1000b450:	347d      	adds	r4, #125	; 0x7d
1000b452:	367c      	adds	r6, #124	; 0x7c
1000b454:	00e4      	lsls	r4, r4, #3
1000b456:	e793      	b.n	1000b380 <_free_r+0xc4>
1000b458:	24fe      	movs	r4, #254	; 0xfe
1000b45a:	267e      	movs	r6, #126	; 0x7e
1000b45c:	00a4      	lsls	r4, r4, #2
1000b45e:	e78f      	b.n	1000b380 <_free_r+0xc4>
1000b460:	0033      	movs	r3, r6
1000b462:	4313      	orrs	r3, r2
1000b464:	604b      	str	r3, [r1, #4]
1000b466:	603a      	str	r2, [r7, #0]
1000b468:	e77c      	b.n	1000b364 <_free_r+0xa8>
1000b46a:	46c0      	nop			; (mov r8, r8)
1000b46c:	200008a8 	.word	0x200008a8
1000b470:	200008b0 	.word	0x200008b0
1000b474:	200008a4 	.word	0x200008a4
1000b478:	20001194 	.word	0x20001194
1000b47c:	00000554 	.word	0x00000554

1000b480 <_fini>:
1000b480:	b5f8      	push	{r3, r4, r5, r6, r7, lr}
1000b482:	46c0      	nop			; (mov r8, r8)
1000b484:	0000      	movs	r0, r0
	...

1000b488 <__flash_do_cmd_veneer>:
1000b488:	b401      	push	{r0}
1000b48a:	4802      	ldr	r0, [pc, #8]	; (1000b494 <__flash_do_cmd_veneer+0xc>)
1000b48c:	4684      	mov	ip, r0
1000b48e:	bc01      	pop	{r0}
1000b490:	4760      	bx	ip
1000b492:	bf00      	nop
1000b494:	2000028d 	.word	0x2000028d

1000b498 <__mutex_exit_veneer>:
1000b498:	b401      	push	{r0}
1000b49a:	4802      	ldr	r0, [pc, #8]	; (1000b4a4 <__mutex_exit_veneer+0xc>)
1000b49c:	4684      	mov	ip, r0
1000b49e:	bc01      	pop	{r0}
1000b4a0:	4760      	bx	ip
1000b4a2:	bf00      	nop
1000b4a4:	200001ed 	.word	0x200001ed

1000b4a8 <____aeabi_ldiv0_veneer>:
1000b4a8:	b401      	push	{r0}
1000b4aa:	4802      	ldr	r0, [pc, #8]	; (1000b4b4 <____aeabi_ldiv0_veneer+0xc>)
1000b4ac:	4684      	mov	ip, r0
1000b4ae:	bc01      	pop	{r0}
1000b4b0:	4760      	bx	ip
1000b4b2:	bf00      	nop
1000b4b4:	20000351 	.word	0x20000351

1000b4b8 <____aeabi_idiv0_veneer>:
1000b4b8:	b401      	push	{r0}
1000b4ba:	4802      	ldr	r0, [pc, #8]	; (1000b4c4 <____aeabi_idiv0_veneer+0xc>)
1000b4bc:	4684      	mov	ip, r0
1000b4be:	bc01      	pop	{r0}
1000b4c0:	4760      	bx	ip
1000b4c2:	bf00      	nop
1000b4c4:	20000351 	.word	0x20000351

1000b4c8 <__mutex_try_enter_veneer>:
1000b4c8:	b401      	push	{r0}
1000b4ca:	4802      	ldr	r0, [pc, #8]	; (1000b4d4 <__mutex_try_enter_veneer+0xc>)
1000b4cc:	4684      	mov	ip, r0
1000b4ce:	bc01      	pop	{r0}
1000b4d0:	4760      	bx	ip
1000b4d2:	bf00      	nop
1000b4d4:	20000109 	.word	0x20000109

1000b4d8 <__mutex_enter_timeout_ms_veneer>:
1000b4d8:	b401      	push	{r0}
1000b4da:	4802      	ldr	r0, [pc, #8]	; (1000b4e4 <__mutex_enter_timeout_ms_veneer+0xc>)
1000b4dc:	4684      	mov	ip, r0
1000b4de:	bc01      	pop	{r0}
1000b4e0:	4760      	bx	ip
1000b4e2:	bf00      	nop
1000b4e4:	2000014d 	.word	0x2000014d

1000b4e8 <__mutex_enter_blocking_veneer>:
1000b4e8:	b401      	push	{r0}
1000b4ea:	4802      	ldr	r0, [pc, #8]	; (1000b4f4 <__mutex_enter_blocking_veneer+0xc>)
1000b4ec:	4684      	mov	ip, r0
1000b4ee:	bc01      	pop	{r0}
1000b4f0:	4760      	bx	ip
1000b4f2:	bf00      	nop
1000b4f4:	200000c1 	.word	0x200000c1

Disassembly of section .data:

200000c0 <mutex_enter_blocking>:
200000c0:	23d0      	movs	r3, #208	; 0xd0
200000c2:	b530      	push	{r4, r5, lr}
200000c4:	2500      	movs	r5, #0
200000c6:	061b      	lsls	r3, r3, #24
200000c8:	2400      	movs	r4, #0
200000ca:	575d      	ldrsb	r5, [r3, r5]
200000cc:	e006      	b.n	200000dc <mutex_enter_blocking+0x1c>
200000ce:	6803      	ldr	r3, [r0, #0]
200000d0:	f3bf 8f5f 	dmb	sy
200000d4:	601c      	str	r4, [r3, #0]
200000d6:	f381 8810 	msr	PRIMASK, r1
200000da:	bf20      	wfe
200000dc:	6802      	ldr	r2, [r0, #0]
200000de:	f3ef 8110 	mrs	r1, PRIMASK
200000e2:	b672      	cpsid	i
200000e4:	6813      	ldr	r3, [r2, #0]
200000e6:	2b00      	cmp	r3, #0
200000e8:	d0fc      	beq.n	200000e4 <mutex_enter_blocking+0x24>
200000ea:	f3bf 8f5f 	dmb	sy
200000ee:	7903      	ldrb	r3, [r0, #4]
200000f0:	2b7f      	cmp	r3, #127	; 0x7f
200000f2:	d9ec      	bls.n	200000ce <mutex_enter_blocking+0xe>
200000f4:	7105      	strb	r5, [r0, #4]
200000f6:	6803      	ldr	r3, [r0, #0]
200000f8:	f3bf 8f5f 	dmb	sy
200000fc:	2200      	movs	r2, #0
200000fe:	601a      	str	r2, [r3, #0]
20000100:	f381 8810 	msr	PRIMASK, r1
20000104:	bd30      	pop	{r4, r5, pc}
20000106:	46c0      	nop			; (mov r8, r8)

20000108 <mutex_try_enter>:
20000108:	0003      	movs	r3, r0
2000010a:	6800      	ldr	r0, [r0, #0]
2000010c:	f3ef 8c10 	mrs	ip, PRIMASK
20000110:	b672      	cpsid	i
20000112:	6802      	ldr	r2, [r0, #0]
20000114:	2a00      	cmp	r2, #0
20000116:	d0fc      	beq.n	20000112 <mutex_try_enter+0xa>
20000118:	f3bf 8f5f 	dmb	sy
2000011c:	2204      	movs	r2, #4
2000011e:	569a      	ldrsb	r2, [r3, r2]
20000120:	2a00      	cmp	r2, #0
20000122:	db0b      	blt.n	2000013c <mutex_try_enter+0x34>
20000124:	2900      	cmp	r1, #0
20000126:	d00f      	beq.n	20000148 <mutex_try_enter+0x40>
20000128:	2000      	movs	r0, #0
2000012a:	600a      	str	r2, [r1, #0]
2000012c:	681b      	ldr	r3, [r3, #0]
2000012e:	f3bf 8f5f 	dmb	sy
20000132:	2200      	movs	r2, #0
20000134:	601a      	str	r2, [r3, #0]
20000136:	f38c 8810 	msr	PRIMASK, ip
2000013a:	4770      	bx	lr
2000013c:	22d0      	movs	r2, #208	; 0xd0
2000013e:	0612      	lsls	r2, r2, #24
20000140:	6812      	ldr	r2, [r2, #0]
20000142:	2001      	movs	r0, #1
20000144:	711a      	strb	r2, [r3, #4]
20000146:	e7f1      	b.n	2000012c <mutex_try_enter+0x24>
20000148:	2000      	movs	r0, #0
2000014a:	e7ef      	b.n	2000012c <mutex_try_enter+0x24>

2000014c <mutex_enter_timeout_ms>:
2000014c:	b5f0      	push	{r4, r5, r6, r7, lr}
2000014e:	46c6      	mov	lr, r8
20000150:	b500      	push	{lr}
20000152:	b082      	sub	sp, #8
20000154:	000c      	movs	r4, r1
20000156:	0007      	movs	r7, r0
20000158:	f000 f8fe 	bl	20000358 <__time_us_64_veneer>
2000015c:	22fa      	movs	r2, #250	; 0xfa
2000015e:	2300      	movs	r3, #0
20000160:	9000      	str	r0, [sp, #0]
20000162:	9101      	str	r1, [sp, #4]
20000164:	0020      	movs	r0, r4
20000166:	0092      	lsls	r2, r2, #2
20000168:	2100      	movs	r1, #0
2000016a:	f000 f8fd 	bl	20000368 <____wrap___aeabi_lmul_veneer>
2000016e:	9a00      	ldr	r2, [sp, #0]
20000170:	9b01      	ldr	r3, [sp, #4]
20000172:	0014      	movs	r4, r2
20000174:	001d      	movs	r5, r3
20000176:	1824      	adds	r4, r4, r0
20000178:	414d      	adcs	r5, r1
2000017a:	42ab      	cmp	r3, r5
2000017c:	d82f      	bhi.n	200001de <mutex_enter_timeout_ms+0x92>
2000017e:	d02b      	beq.n	200001d8 <mutex_enter_timeout_ms+0x8c>
20000180:	23d0      	movs	r3, #208	; 0xd0
20000182:	061b      	lsls	r3, r3, #24
20000184:	681b      	ldr	r3, [r3, #0]
20000186:	2600      	movs	r6, #0
20000188:	4698      	mov	r8, r3
2000018a:	e00b      	b.n	200001a4 <mutex_enter_timeout_ms+0x58>
2000018c:	683b      	ldr	r3, [r7, #0]
2000018e:	f3bf 8f5f 	dmb	sy
20000192:	601e      	str	r6, [r3, #0]
20000194:	f381 8810 	msr	PRIMASK, r1
20000198:	0020      	movs	r0, r4
2000019a:	0029      	movs	r1, r5
2000019c:	f000 f8ec 	bl	20000378 <__best_effort_wfe_or_timeout_veneer>
200001a0:	2800      	cmp	r0, #0
200001a2:	d120      	bne.n	200001e6 <mutex_enter_timeout_ms+0x9a>
200001a4:	683a      	ldr	r2, [r7, #0]
200001a6:	f3ef 8110 	mrs	r1, PRIMASK
200001aa:	b672      	cpsid	i
200001ac:	6813      	ldr	r3, [r2, #0]
200001ae:	2b00      	cmp	r3, #0
200001b0:	d0fc      	beq.n	200001ac <mutex_enter_timeout_ms+0x60>
200001b2:	f3bf 8f5f 	dmb	sy
200001b6:	793b      	ldrb	r3, [r7, #4]
200001b8:	2b7f      	cmp	r3, #127	; 0x7f
200001ba:	d9e7      	bls.n	2000018c <mutex_enter_timeout_ms+0x40>
200001bc:	4643      	mov	r3, r8
200001be:	713b      	strb	r3, [r7, #4]
200001c0:	683b      	ldr	r3, [r7, #0]
200001c2:	f3bf 8f5f 	dmb	sy
200001c6:	2200      	movs	r2, #0
200001c8:	601a      	str	r2, [r3, #0]
200001ca:	f381 8810 	msr	PRIMASK, r1
200001ce:	2001      	movs	r0, #1
200001d0:	b002      	add	sp, #8
200001d2:	bc80      	pop	{r7}
200001d4:	46b8      	mov	r8, r7
200001d6:	bdf0      	pop	{r4, r5, r6, r7, pc}
200001d8:	9b00      	ldr	r3, [sp, #0]
200001da:	42a3      	cmp	r3, r4
200001dc:	d9d0      	bls.n	20000180 <mutex_enter_timeout_ms+0x34>
200001de:	2401      	movs	r4, #1
200001e0:	4264      	negs	r4, r4
200001e2:	17e5      	asrs	r5, r4, #31
200001e4:	e7cc      	b.n	20000180 <mutex_enter_timeout_ms+0x34>
200001e6:	2000      	movs	r0, #0
200001e8:	e7f2      	b.n	200001d0 <mutex_enter_timeout_ms+0x84>
200001ea:	46c0      	nop			; (mov r8, r8)

200001ec <mutex_exit>:
200001ec:	6802      	ldr	r2, [r0, #0]
200001ee:	f3ef 8110 	mrs	r1, PRIMASK
200001f2:	b672      	cpsid	i
200001f4:	6813      	ldr	r3, [r2, #0]
200001f6:	2b00      	cmp	r3, #0
200001f8:	d0fc      	beq.n	200001f4 <mutex_exit+0x8>
200001fa:	f3bf 8f5f 	dmb	sy
200001fe:	23ff      	movs	r3, #255	; 0xff
20000200:	7103      	strb	r3, [r0, #4]
20000202:	6803      	ldr	r3, [r0, #0]
20000204:	f3bf 8f5f 	dmb	sy
20000208:	2200      	movs	r2, #0
2000020a:	601a      	str	r2, [r3, #0]
2000020c:	f381 8810 	msr	PRIMASK, r1
20000210:	bf40      	sev
20000212:	4770      	bx	lr

20000214 <flash_init_boot2_copyout>:
20000214:	4808      	ldr	r0, [pc, #32]	; (20000238 <flash_init_boot2_copyout+0x24>)
20000216:	b510      	push	{r4, lr}
20000218:	7803      	ldrb	r3, [r0, #0]
2000021a:	2b00      	cmp	r3, #0
2000021c:	d10a      	bne.n	20000234 <flash_init_boot2_copyout+0x20>
2000021e:	2380      	movs	r3, #128	; 0x80
20000220:	4906      	ldr	r1, [pc, #24]	; (2000023c <flash_init_boot2_copyout+0x28>)
20000222:	4a07      	ldr	r2, [pc, #28]	; (20000240 <flash_init_boot2_copyout+0x2c>)
20000224:	055b      	lsls	r3, r3, #21
20000226:	681c      	ldr	r4, [r3, #0]
20000228:	50cc      	str	r4, [r1, r3]
2000022a:	3304      	adds	r3, #4
2000022c:	4293      	cmp	r3, r2
2000022e:	d1fa      	bne.n	20000226 <flash_init_boot2_copyout+0x12>
20000230:	2301      	movs	r3, #1
20000232:	7003      	strb	r3, [r0, #0]
20000234:	bd10      	pop	{r4, pc}
20000236:	46c0      	nop			; (mov r8, r8)
20000238:	20001c5a 	.word	0x20001c5a
2000023c:	10001630 	.word	0x10001630
20000240:	10000100 	.word	0x10000100

20000244 <flash_enable_xip_via_boot2>:
20000244:	b510      	push	{r4, lr}
20000246:	4b02      	ldr	r3, [pc, #8]	; (20000250 <flash_enable_xip_via_boot2+0xc>)
20000248:	3301      	adds	r3, #1
2000024a:	4798      	blx	r3
2000024c:	bd10      	pop	{r4, pc}
2000024e:	46c0      	nop			; (mov r8, r8)
20000250:	20001630 	.word	0x20001630

20000254 <flash_cs_force.constprop.0>:
20000254:	4b03      	ldr	r3, [pc, #12]	; (20000264 <flash_cs_force.constprop.0+0x10>)
20000256:	681a      	ldr	r2, [r3, #0]
20000258:	23c0      	movs	r3, #192	; 0xc0
2000025a:	009b      	lsls	r3, r3, #2
2000025c:	4393      	bics	r3, r2
2000025e:	4a02      	ldr	r2, [pc, #8]	; (20000268 <flash_cs_force.constprop.0+0x14>)
20000260:	6013      	str	r3, [r2, #0]
20000262:	4770      	bx	lr
20000264:	4001800c 	.word	0x4001800c
20000268:	4001900c 	.word	0x4001900c

2000026c <flash_cs_force.constprop.1>:
2000026c:	4b05      	ldr	r3, [pc, #20]	; (20000284 <flash_cs_force.constprop.1+0x18>)
2000026e:	681a      	ldr	r2, [r3, #0]
20000270:	2380      	movs	r3, #128	; 0x80
20000272:	009b      	lsls	r3, r3, #2
20000274:	4053      	eors	r3, r2
20000276:	22c0      	movs	r2, #192	; 0xc0
20000278:	0092      	lsls	r2, r2, #2
2000027a:	4013      	ands	r3, r2
2000027c:	4a02      	ldr	r2, [pc, #8]	; (20000288 <flash_cs_force.constprop.1+0x1c>)
2000027e:	6013      	str	r3, [r2, #0]
20000280:	4770      	bx	lr
20000282:	46c0      	nop			; (mov r8, r8)
20000284:	4001800c 	.word	0x4001800c
20000288:	4001900c 	.word	0x4001900c

2000028c <flash_do_cmd>:
2000028c:	2314      	movs	r3, #20
2000028e:	b5f0      	push	{r4, r5, r6, r7, lr}
20000290:	46d6      	mov	lr, sl
20000292:	464f      	mov	r7, r9
20000294:	4646      	mov	r6, r8
20000296:	469a      	mov	sl, r3
20000298:	4681      	mov	r9, r0
2000029a:	8818      	ldrh	r0, [r3, #0]
2000029c:	3304      	adds	r3, #4
2000029e:	b5c0      	push	{r6, r7, lr}
200002a0:	4698      	mov	r8, r3
200002a2:	000e      	movs	r6, r1
200002a4:	881b      	ldrh	r3, [r3, #0]
200002a6:	4927      	ldr	r1, [pc, #156]	; (20000344 <flash_do_cmd+0xb8>)
200002a8:	0014      	movs	r4, r2
200002aa:	4798      	blx	r3
200002ac:	4653      	mov	r3, sl
200002ae:	0007      	movs	r7, r0
200002b0:	8818      	ldrh	r0, [r3, #0]
200002b2:	4643      	mov	r3, r8
200002b4:	4924      	ldr	r1, [pc, #144]	; (20000348 <flash_do_cmd+0xbc>)
200002b6:	881b      	ldrh	r3, [r3, #0]
200002b8:	4798      	blx	r3
200002ba:	4653      	mov	r3, sl
200002bc:	0005      	movs	r5, r0
200002be:	8818      	ldrh	r0, [r3, #0]
200002c0:	4643      	mov	r3, r8
200002c2:	4922      	ldr	r1, [pc, #136]	; (2000034c <flash_do_cmd+0xc0>)
200002c4:	881b      	ldrh	r3, [r3, #0]
200002c6:	4798      	blx	r3
200002c8:	4680      	mov	r8, r0
200002ca:	f7ff ffa3 	bl	20000214 <flash_init_boot2_copyout>
200002ce:	47b8      	blx	r7
200002d0:	47a8      	blx	r5
200002d2:	f7ff ffcb 	bl	2000026c <flash_cs_force.constprop.1>
200002d6:	2c00      	cmp	r4, #0
200002d8:	d01b      	beq.n	20000312 <flash_do_cmd+0x86>
200002da:	21c0      	movs	r1, #192	; 0xc0
200002dc:	0022      	movs	r2, r4
200002de:	2708      	movs	r7, #8
200002e0:	2002      	movs	r0, #2
200002e2:	0549      	lsls	r1, r1, #21
200002e4:	003d      	movs	r5, r7
200002e6:	6a8b      	ldr	r3, [r1, #40]	; 0x28
200002e8:	401d      	ands	r5, r3
200002ea:	4218      	tst	r0, r3
200002ec:	d00b      	beq.n	20000306 <flash_do_cmd+0x7a>
200002ee:	2c00      	cmp	r4, #0
200002f0:	d009      	beq.n	20000306 <flash_do_cmd+0x7a>
200002f2:	1b13      	subs	r3, r2, r4
200002f4:	2b0d      	cmp	r3, #13
200002f6:	d81f      	bhi.n	20000338 <flash_do_cmd+0xac>
200002f8:	464b      	mov	r3, r9
200002fa:	781b      	ldrb	r3, [r3, #0]
200002fc:	3c01      	subs	r4, #1
200002fe:	660b      	str	r3, [r1, #96]	; 0x60
20000300:	2301      	movs	r3, #1
20000302:	469c      	mov	ip, r3
20000304:	44e1      	add	r9, ip
20000306:	0023      	movs	r3, r4
20000308:	2d00      	cmp	r5, #0
2000030a:	d10c      	bne.n	20000326 <flash_do_cmd+0x9a>
2000030c:	4313      	orrs	r3, r2
2000030e:	2b00      	cmp	r3, #0
20000310:	d1e8      	bne.n	200002e4 <flash_do_cmd+0x58>
20000312:	f7ff ff9f 	bl	20000254 <flash_cs_force.constprop.0>
20000316:	47c0      	blx	r8
20000318:	f7ff ff94 	bl	20000244 <flash_enable_xip_via_boot2>
2000031c:	bce0      	pop	{r5, r6, r7}
2000031e:	46ba      	mov	sl, r7
20000320:	46b1      	mov	r9, r6
20000322:	46a8      	mov	r8, r5
20000324:	bdf0      	pop	{r4, r5, r6, r7, pc}
20000326:	2a00      	cmp	r2, #0
20000328:	d0f1      	beq.n	2000030e <flash_do_cmd+0x82>
2000032a:	6e0b      	ldr	r3, [r1, #96]	; 0x60
2000032c:	3a01      	subs	r2, #1
2000032e:	7033      	strb	r3, [r6, #0]
20000330:	0013      	movs	r3, r2
20000332:	3601      	adds	r6, #1
20000334:	4323      	orrs	r3, r4
20000336:	e7ea      	b.n	2000030e <flash_do_cmd+0x82>
20000338:	2d00      	cmp	r5, #0
2000033a:	d0d3      	beq.n	200002e4 <flash_do_cmd+0x58>
2000033c:	2a00      	cmp	r2, #0
2000033e:	d0d1      	beq.n	200002e4 <flash_do_cmd+0x58>
20000340:	e7f3      	b.n	2000032a <flash_do_cmd+0x9e>
20000342:	46c0      	nop			; (mov r8, r8)
20000344:	00004649 	.word	0x00004649
20000348:	00005845 	.word	0x00005845
2000034c:	00004346 	.word	0x00004346

20000350 <__aeabi_idiv0>:
20000350:	4770      	bx	lr
20000352:	46c0      	nop			; (mov r8, r8)
20000354:	0000      	movs	r0, r0
	...

20000358 <__time_us_64_veneer>:
20000358:	b401      	push	{r0}
2000035a:	4802      	ldr	r0, [pc, #8]	; (20000364 <__time_us_64_veneer+0xc>)
2000035c:	4684      	mov	ip, r0
2000035e:	bc01      	pop	{r0}
20000360:	4760      	bx	ip
20000362:	bf00      	nop
20000364:	10001bd5 	.word	0x10001bd5

20000368 <____wrap___aeabi_lmul_veneer>:
20000368:	b401      	push	{r0}
2000036a:	4802      	ldr	r0, [pc, #8]	; (20000374 <____wrap___aeabi_lmul_veneer+0xc>)
2000036c:	4684      	mov	ip, r0
2000036e:	bc01      	pop	{r0}
20000370:	4760      	bx	ip
20000372:	bf00      	nop
20000374:	10004a81 	.word	0x10004a81

20000378 <__best_effort_wfe_or_timeout_veneer>:
20000378:	b401      	push	{r0}
2000037a:	4802      	ldr	r0, [pc, #8]	; (20000384 <__best_effort_wfe_or_timeout_veneer+0xc>)
2000037c:	4684      	mov	ip, r0
2000037e:	bc01      	pop	{r0}
20000380:	4760      	bx	ip
20000382:	bf00      	nop
20000384:	10001a31 	.word	0x10001a31

20000388 <cycle_btn_state.0>:
20000388:	                                         .

20000389 <down_btn_state.1>:
20000389:	                                         .

2000038a <up_btn_state.2>:
2000038a:	                                         .

2000038b <striped_spin_lock_num>:
2000038b:	                                         .

2000038c <irq_handler_chain_slots>:
2000038c:	00000000 	.word	0x00000000
20000390:	00010000 	.word	0x00010000
	...
2000039c:	00020000 	.word	0x00020000
	...
200003a8:	00030000 	.word	0x00030000
	...
200003b4:	00ff0000 	.word	0x00ff0000
200003b8:	00000000 	.word	0x00000000

200003bc <irq_handler_chain_first_slot>:
200003bc:	b500      	push	{lr}
200003be:	6848      	ldr	r0, [r1, #4]
200003c0:	3101      	adds	r1, #1
200003c2:	468e      	mov	lr, r1
200003c4:	4700      	bx	r0

200003c6 <irq_handler_chain_remove_tail>:
200003c6:	4670      	mov	r0, lr
200003c8:	3809      	subs	r0, #9
200003ca:	4901      	ldr	r1, [pc, #4]	; (200003d0 <irq_handler_chain_remove_tail+0xa>)
200003cc:	4788      	blx	r1
200003ce:	bd00      	pop	{pc}
200003d0:	100012d1 	.word	0x100012d1

200003d4 <default_alarm_pool>:
200003d4:	200003ec 00000000 20000d30 20001768     ... ....0.. h.. 
	...

200003ec <default_alarm_pool_heap>:
200003ec:	20001778 00000000 00000000 00000010     x.. ............
200003fc:	00000000                                ....

20000400 <aeabi_bits_funcs>:
20000400:	00003350 	.word	0x00003350
20000404:	0000334c 	.word	0x0000334c
20000408:	00003354 	.word	0x00003354
2000040c:	00003352 	.word	0x00003352

20000410 <aeabi_bits_funcs_end>:
20000410:	0000534d 	.word	0x0000534d
20000414:	0000434d 	.word	0x0000434d
20000418:	00003453 	.word	0x00003453
2000041c:	00003443 	.word	0x00003443

20000420 <stdio_usb>:
20000420:	1000526d 00000000 10005205 00000000     mR.......R......
20000430:	00000100                                ....

20000434 <ep_dir_string>:
20000434:	1000ba7c 1000ba80                       |.......

2000043c <_usbd_qdef>:
2000043c:	20001560 000c0010 ffe00000 0000001f     `.. ............
	...

20000460 <i2c0_inst>:
20000460:	40044000 00000000                       .@.@....

20000468 <uxTopUsedPriority>:
20000468:	00000004                                ....

2000046c <uxCriticalNesting>:
2000046c:	aaaaaaaa                                ....

20000470 <_impure_ptr>:
20000470:	20000478 00000000                       x.. ....

20000478 <impure_data>:
20000478:	00000000 20000764 200007cc 20000834     ....d.. ... 4.. 
	...
20000520:	00000001 00000000 abcd330e e66d1234     .........3..4.m.
20000530:	0005deec 0000000b 00000000 00000000     ................
	...

200008a0 <__malloc_sbrk_base>:
200008a0:	ffffffff                                ....

200008a4 <__malloc_trim_threshold>:
200008a4:	00020000                                ....

200008a8 <__malloc_av_>:
	...
200008b0:	200008a8 200008a8 200008b0 200008b0     ... ... ... ... 
200008c0:	200008b8 200008b8 200008c0 200008c0     ... ... ... ... 
200008d0:	200008c8 200008c8 200008d0 200008d0     ... ... ... ... 
200008e0:	200008d8 200008d8 200008e0 200008e0     ... ... ... ... 
200008f0:	200008e8 200008e8 200008f0 200008f0     ... ... ... ... 
20000900:	200008f8 200008f8 20000900 20000900     ... ... ... ... 
20000910:	20000908 20000908 20000910 20000910     ... ... ... ... 
20000920:	20000918 20000918 20000920 20000920     ... ...  ..  .. 
20000930:	20000928 20000928 20000930 20000930     (.. (.. 0.. 0.. 
20000940:	20000938 20000938 20000940 20000940     8.. 8.. @.. @.. 
20000950:	20000948 20000948 20000950 20000950     H.. H.. P.. P.. 
20000960:	20000958 20000958 20000960 20000960     X.. X.. `.. `.. 
20000970:	20000968 20000968 20000970 20000970     h.. h.. p.. p.. 
20000980:	20000978 20000978 20000980 20000980     x.. x.. ... ... 
20000990:	20000988 20000988 20000990 20000990     ... ... ... ... 
200009a0:	20000998 20000998 200009a0 200009a0     ... ... ... ... 
200009b0:	200009a8 200009a8 200009b0 200009b0     ... ... ... ... 
200009c0:	200009b8 200009b8 200009c0 200009c0     ... ... ... ... 
200009d0:	200009c8 200009c8 200009d0 200009d0     ... ... ... ... 
200009e0:	200009d8 200009d8 200009e0 200009e0     ... ... ... ... 
200009f0:	200009e8 200009e8 200009f0 200009f0     ... ... ... ... 
20000a00:	200009f8 200009f8 20000a00 20000a00     ... ... ... ... 
20000a10:	20000a08 20000a08 20000a10 20000a10     ... ... ... ... 
20000a20:	20000a18 20000a18 20000a20 20000a20     ... ...  ..  .. 
20000a30:	20000a28 20000a28 20000a30 20000a30     (.. (.. 0.. 0.. 
20000a40:	20000a38 20000a38 20000a40 20000a40     8.. 8.. @.. @.. 
20000a50:	20000a48 20000a48 20000a50 20000a50     H.. H.. P.. P.. 
20000a60:	20000a58 20000a58 20000a60 20000a60     X.. X.. `.. `.. 
20000a70:	20000a68 20000a68 20000a70 20000a70     h.. h.. p.. p.. 
20000a80:	20000a78 20000a78 20000a80 20000a80     x.. x.. ... ... 
20000a90:	20000a88 20000a88 20000a90 20000a90     ... ... ... ... 
20000aa0:	20000a98 20000a98 20000aa0 20000aa0     ... ... ... ... 
20000ab0:	20000aa8 20000aa8 20000ab0 20000ab0     ... ... ... ... 
20000ac0:	20000ab8 20000ab8 20000ac0 20000ac0     ... ... ... ... 
20000ad0:	20000ac8 20000ac8 20000ad0 20000ad0     ... ... ... ... 
20000ae0:	20000ad8 20000ad8 20000ae0 20000ae0     ... ... ... ... 
20000af0:	20000ae8 20000ae8 20000af0 20000af0     ... ... ... ... 
20000b00:	20000af8 20000af8 20000b00 20000b00     ... ... ... ... 
20000b10:	20000b08 20000b08 20000b10 20000b10     ... ... ... ... 
20000b20:	20000b18 20000b18 20000b20 20000b20     ... ...  ..  .. 
20000b30:	20000b28 20000b28 20000b30 20000b30     (.. (.. 0.. 0.. 
20000b40:	20000b38 20000b38 20000b40 20000b40     8.. 8.. @.. @.. 
20000b50:	20000b48 20000b48 20000b50 20000b50     H.. H.. P.. P.. 
20000b60:	20000b58 20000b58 20000b60 20000b60     X.. X.. `.. `.. 
20000b70:	20000b68 20000b68 20000b70 20000b70     h.. h.. p.. p.. 
20000b80:	20000b78 20000b78 20000b80 20000b80     x.. x.. ... ... 
20000b90:	20000b88 20000b88 20000b90 20000b90     ... ... ... ... 
20000ba0:	20000b98 20000b98 20000ba0 20000ba0     ... ... ... ... 
20000bb0:	20000ba8 20000ba8 20000bb0 20000bb0     ... ... ... ... 
20000bc0:	20000bb8 20000bb8 20000bc0 20000bc0     ... ... ... ... 
20000bd0:	20000bc8 20000bc8 20000bd0 20000bd0     ... ... ... ... 
20000be0:	20000bd8 20000bd8 20000be0 20000be0     ... ... ... ... 
20000bf0:	20000be8 20000be8 20000bf0 20000bf0     ... ... ... ... 
20000c00:	20000bf8 20000bf8 20000c00 20000c00     ... ... ... ... 
20000c10:	20000c08 20000c08 20000c10 20000c10     ... ... ... ... 
20000c20:	20000c18 20000c18 20000c20 20000c20     ... ...  ..  .. 
20000c30:	20000c28 20000c28 20000c30 20000c30     (.. (.. 0.. 0.. 
20000c40:	20000c38 20000c38 20000c40 20000c40     8.. 8.. @.. @.. 
20000c50:	20000c48 20000c48 20000c50 20000c50     H.. H.. P.. P.. 
20000c60:	20000c58 20000c58 20000c60 20000c60     X.. X.. `.. `.. 
20000c70:	20000c68 20000c68 20000c70 20000c70     h.. h.. p.. p.. 
20000c80:	20000c78 20000c78 20000c80 20000c80     x.. x.. ... ... 
20000c90:	20000c88 20000c88 20000c90 20000c90     ... ... ... ... 
20000ca0:	20000c98 20000c98 20000ca0 20000ca0     ... ... ... ... 

20000cb0 <print_mutex>:
	...

20000cb8 <__mutex_array_end>:
20000cb8:	10004cd5 	.word	0x10004cd5
20000cbc:	10003cfd 	.word	0x10003cfd
20000cc0:	10004431 	.word	0x10004431
20000cc4:	10004bd1 	.word	0x10004bd1

20000cc8 <__frame_dummy_init_array_entry>:
20000cc8:	10000339 100078c1                       9....x..
