
/home/austin/pico/Thermostat/build/ProjectFiles/Thermostat.elf:     file format elf32-littlearm

Sections:
Idx Name          Size      VMA       LMA       File off  Algn
  0 .boot2        00000100  10000000  10000000  00001000  2**0
                  CONTENTS, ALLOC, LOAD, READONLY, CODE
  1 .text         0000b2b8  10000100  10000100  00001100  2**4
                  CONTENTS, ALLOC, LOAD, READONLY, CODE
  2 .rodata       00000660  1000b3b8  1000b3b8  0000c3b8  2**3
                  CONTENTS, ALLOC, LOAD, READONLY, DATA
  3 .binary_info  00000024  1000ba18  1000ba18  0000ca18  2**2
                  CONTENTS, ALLOC, LOAD, DATA
  4 .ram_vector_table 000000c0  20000000  20000000  0000dce0  2**2
                  CONTENTS
  5 .data         00000c20  200000c0  1000ba3c  0000d0c0  2**4
                  CONTENTS, ALLOC, LOAD, READONLY, CODE
  6 .uninitialized_data 00000000  20000ce0  20000ce0  0000dda0  2**0
                  CONTENTS
  7 .scratch_x    00000000  20040000  20040000  0000dda0  2**0
                  CONTENTS
  8 .scratch_y    00000000  20041000  20041000  0000dda0  2**0
                  CONTENTS
  9 .bss          00000f74  20000ce0  20000ce0  0000dce0  2**3
                  ALLOC
 10 .heap         00000800  20001c54  20001c54  0000dda0  2**2
                  CONTENTS, READONLY
 11 .stack_dummy  00000800  20041000  20041000  0000e5a0  2**5
                  CONTENTS, READONLY
 12 .ARM.attributes 00000028  00000000  00000000  0000eda0  2**0
                  CONTENTS, READONLY
 13 .comment      00000033  00000000  00000000  0000edc8  2**0
                  CONTENTS, READONLY
 14 .debug_line   000016b9  00000000  00000000  0000edfb  2**0
                  CONTENTS, READONLY, DEBUGGING, OCTETS
 15 .debug_info   00004dec  00000000  00000000  000104b4  2**0
                  CONTENTS, READONLY, DEBUGGING, OCTETS
 16 .debug_abbrev 00001109  00000000  00000000  000152a0  2**0
                  CONTENTS, READONLY, DEBUGGING, OCTETS
 17 .debug_aranges 00000118  00000000  00000000  000163b0  2**3
                  CONTENTS, READONLY, DEBUGGING, OCTETS
 18 .debug_str    00000a5c  00000000  00000000  000164c8  2**0
                  CONTENTS, READONLY, DEBUGGING, OCTETS
 19 .debug_loc    00001720  00000000  00000000  00016f24  2**0
                  CONTENTS, READONLY, DEBUGGING, OCTETS
 20 .debug_frame  000001a4  00000000  00000000  00018644  2**2
                  CONTENTS, READONLY, DEBUGGING, OCTETS
 21 .debug_ranges 00000050  00000000  00000000  000187e8  2**0
                  CONTENTS, READONLY, DEBUGGING, OCTETS

/home/austin/pico/Thermostat/build/ProjectFiles/Thermostat.elf:     file format elf32-littlearm


Disassembly of section .boot2:

10000000 <__boot2_start__>:
10000000:	4b32b500 	.word	0x4b32b500
10000004:	60582021 	.word	0x60582021
10000008:	21026898 	.word	0x21026898
1000000c:	60984388 	.word	0x60984388
10000010:	611860d8 	.word	0x611860d8
10000014:	4b2e6158 	.word	0x4b2e6158
10000018:	60992100 	.word	0x60992100
1000001c:	61592102 	.word	0x61592102
10000020:	22f02101 	.word	0x22f02101
10000024:	492b5099 	.word	0x492b5099
10000028:	21016019 	.word	0x21016019
1000002c:	20356099 	.word	0x20356099
10000030:	f844f000 	.word	0xf844f000
10000034:	42902202 	.word	0x42902202
10000038:	2106d014 	.word	0x2106d014
1000003c:	f0006619 	.word	0xf0006619
10000040:	6e19f834 	.word	0x6e19f834
10000044:	66192101 	.word	0x66192101
10000048:	66182000 	.word	0x66182000
1000004c:	f000661a 	.word	0xf000661a
10000050:	6e19f82c 	.word	0x6e19f82c
10000054:	6e196e19 	.word	0x6e196e19
10000058:	f0002005 	.word	0xf0002005
1000005c:	2101f82f 	.word	0x2101f82f
10000060:	d1f94208 	.word	0xd1f94208
10000064:	60992100 	.word	0x60992100
10000068:	6019491b 	.word	0x6019491b
1000006c:	60592100 	.word	0x60592100
10000070:	481b491a 	.word	0x481b491a
10000074:	21016001 	.word	0x21016001
10000078:	21eb6099 	.word	0x21eb6099
1000007c:	21a06619 	.word	0x21a06619
10000080:	f0006619 	.word	0xf0006619
10000084:	2100f812 	.word	0x2100f812
10000088:	49166099 	.word	0x49166099
1000008c:	60014814 	.word	0x60014814
10000090:	60992101 	.word	0x60992101
10000094:	2800bc01 	.word	0x2800bc01
10000098:	4700d000 	.word	0x4700d000
1000009c:	49134812 	.word	0x49134812
100000a0:	c8036008 	.word	0xc8036008
100000a4:	8808f380 	.word	0x8808f380
100000a8:	b5034708 	.word	0xb5034708
100000ac:	20046a99 	.word	0x20046a99
100000b0:	d0fb4201 	.word	0xd0fb4201
100000b4:	42012001 	.word	0x42012001
100000b8:	bd03d1f8 	.word	0xbd03d1f8
100000bc:	6618b502 	.word	0x6618b502
100000c0:	f7ff6618 	.word	0xf7ff6618
100000c4:	6e18fff2 	.word	0x6e18fff2
100000c8:	bd026e18 	.word	0xbd026e18
100000cc:	40020000 	.word	0x40020000
100000d0:	18000000 	.word	0x18000000
100000d4:	00070000 	.word	0x00070000
100000d8:	005f0300 	.word	0x005f0300
100000dc:	00002221 	.word	0x00002221
100000e0:	180000f4 	.word	0x180000f4
100000e4:	a0002022 	.word	0xa0002022
100000e8:	10000100 	.word	0x10000100
100000ec:	e000ed08 	.word	0xe000ed08
	...
100000fc:	7a4eb274 	.word	0x7a4eb274

Disassembly of section .text:

10000100 <__VECTOR_TABLE>:
10000100:	20042000 	.word	0x20042000
10000104:	100001f7 	.word	0x100001f7
10000108:	100001c3 	.word	0x100001c3
1000010c:	100001c5 	.word	0x100001c5
10000110:	100001c1 	.word	0x100001c1
10000114:	100001c1 	.word	0x100001c1
10000118:	100001c1 	.word	0x100001c1
1000011c:	100001c1 	.word	0x100001c1
10000120:	100001c1 	.word	0x100001c1
10000124:	100001c1 	.word	0x100001c1
10000128:	100001c1 	.word	0x100001c1
1000012c:	10009705 	.word	0x10009705
10000130:	100001c1 	.word	0x100001c1
10000134:	100001c1 	.word	0x100001c1
10000138:	10009761 	.word	0x10009761
1000013c:	100097a5 	.word	0x100097a5
10000140:	100001cd 	.word	0x100001cd
10000144:	100001cd 	.word	0x100001cd
10000148:	100001cd 	.word	0x100001cd
1000014c:	100001cd 	.word	0x100001cd
10000150:	100001cd 	.word	0x100001cd
10000154:	100001cd 	.word	0x100001cd
10000158:	100001cd 	.word	0x100001cd
1000015c:	100001cd 	.word	0x100001cd
10000160:	100001cd 	.word	0x100001cd
10000164:	100001cd 	.word	0x100001cd
10000168:	100001cd 	.word	0x100001cd
1000016c:	100001cd 	.word	0x100001cd
10000170:	100001cd 	.word	0x100001cd
10000174:	100001cd 	.word	0x100001cd
10000178:	100001cd 	.word	0x100001cd
1000017c:	100001cd 	.word	0x100001cd
10000180:	100001cd 	.word	0x100001cd
10000184:	100001cd 	.word	0x100001cd
10000188:	100001cd 	.word	0x100001cd
1000018c:	100001cd 	.word	0x100001cd
10000190:	100001cd 	.word	0x100001cd
10000194:	100001cd 	.word	0x100001cd
10000198:	100001cd 	.word	0x100001cd
1000019c:	100001cd 	.word	0x100001cd
100001a0:	100001cd 	.word	0x100001cd
100001a4:	100001cd 	.word	0x100001cd
100001a8:	100001cd 	.word	0x100001cd
100001ac:	100001cd 	.word	0x100001cd
100001b0:	100001cd 	.word	0x100001cd
100001b4:	100001cd 	.word	0x100001cd
100001b8:	100001cd 	.word	0x100001cd
100001bc:	100001cd 	.word	0x100001cd

100001c0 <isr_invalid>:
100001c0:	be00      	bkpt	0x0000

100001c2 <isr_nmi>:
100001c2:	be00      	bkpt	0x0000

100001c4 <isr_hardfault>:
100001c4:	be00      	bkpt	0x0000
100001c6:	be00      	bkpt	0x0000
100001c8:	be00      	bkpt	0x0000
100001ca:	be00      	bkpt	0x0000

100001cc <__unhandled_user_irq>:
100001cc:	f000 f84b 	bl	10000266 <__get_current_exception>
100001d0:	3810      	subs	r0, #16

100001d2 <unhandled_user_irq_num_in_r0>:
100001d2:	be00      	bkpt	0x0000

100001d4 <binary_info_header>:
100001d4:	7188ebf2 	.word	0x7188ebf2
100001d8:	1000ba18 	.word	0x1000ba18
100001dc:	1000ba3c 	.word	0x1000ba3c
100001e0:	10000234 	.word	0x10000234
100001e4:	e71aa390 	.word	0xe71aa390

100001e8 <_entry_point>:
100001e8:	2000      	movs	r0, #0
100001ea:	4921      	ldr	r1, [pc, #132]	; (10000270 <__get_current_exception+0xa>)
100001ec:	6008      	str	r0, [r1, #0]
100001ee:	c806      	ldmia	r0!, {r1, r2}
100001f0:	f381 8808 	msr	MSP, r1
100001f4:	4710      	bx	r2

100001f6 <_reset_handler>:
100001f6:	481f      	ldr	r0, [pc, #124]	; (10000274 <__get_current_exception+0xe>)
100001f8:	6800      	ldr	r0, [r0, #0]
100001fa:	2800      	cmp	r0, #0
100001fc:	d12f      	bne.n	1000025e <hold_non_core0_in_bootrom>
100001fe:	a40d      	add	r4, pc, #52	; (adr r4, 10000234 <data_cpy_table>)
10000200:	cc0e      	ldmia	r4!, {r1, r2, r3}
10000202:	2900      	cmp	r1, #0
10000204:	d002      	beq.n	1000020c <_reset_handler+0x16>
10000206:	f000 f812 	bl	1000022e <data_cpy>
1000020a:	e7f9      	b.n	10000200 <_reset_handler+0xa>
1000020c:	491a      	ldr	r1, [pc, #104]	; (10000278 <__get_current_exception+0x12>)
1000020e:	4a1b      	ldr	r2, [pc, #108]	; (1000027c <__get_current_exception+0x16>)
10000210:	2000      	movs	r0, #0
10000212:	e000      	b.n	10000216 <bss_fill_test>

10000214 <bss_fill_loop>:
10000214:	c101      	stmia	r1!, {r0}

10000216 <bss_fill_test>:
10000216:	4291      	cmp	r1, r2
10000218:	d1fc      	bne.n	10000214 <bss_fill_loop>

1000021a <platform_entry>:
1000021a:	4919      	ldr	r1, [pc, #100]	; (10000280 <__get_current_exception+0x1a>)
1000021c:	4788      	blx	r1
1000021e:	4919      	ldr	r1, [pc, #100]	; (10000284 <__get_current_exception+0x1e>)
10000220:	4788      	blx	r1
10000222:	4919      	ldr	r1, [pc, #100]	; (10000288 <__get_current_exception+0x22>)
10000224:	4788      	blx	r1
10000226:	be00      	bkpt	0x0000
10000228:	e7fd      	b.n	10000226 <platform_entry+0xc>

1000022a <data_cpy_loop>:
1000022a:	c901      	ldmia	r1!, {r0}
1000022c:	c201      	stmia	r2!, {r0}

1000022e <data_cpy>:
1000022e:	429a      	cmp	r2, r3
10000230:	d3fb      	bcc.n	1000022a <data_cpy_loop>
10000232:	4770      	bx	lr

10000234 <data_cpy_table>:
10000234:	1000ba3c 	.word	0x1000ba3c
10000238:	200000c0 	.word	0x200000c0
1000023c:	20000ce0 	.word	0x20000ce0
10000240:	1000c65c 	.word	0x1000c65c
10000244:	20040000 	.word	0x20040000
10000248:	20040000 	.word	0x20040000
1000024c:	1000c65c 	.word	0x1000c65c
10000250:	20041000 	.word	0x20041000
10000254:	20041000 	.word	0x20041000
10000258:	00000000 	.word	0x00000000
1000025c:	4770      	bx	lr

1000025e <hold_non_core0_in_bootrom>:
1000025e:	480b      	ldr	r0, [pc, #44]	; (1000028c <__get_current_exception+0x26>)
10000260:	f003 fcb4 	bl	10003bcc <rom_func_lookup>
10000264:	4700      	bx	r0

10000266 <__get_current_exception>:
10000266:	f3ef 8005 	mrs	r0, IPSR
1000026a:	b2c0      	uxtb	r0, r0
1000026c:	4770      	bx	lr
1000026e:	0000      	.short	0x0000
10000270:	e000ed08 	.word	0xe000ed08
10000274:	d0000000 	.word	0xd0000000
10000278:	20000ce0 	.word	0x20000ce0
1000027c:	20001c54 	.word	0x20001c54
10000280:	1000204d 	.word	0x1000204d
10000284:	10000735 	.word	0x10000735
10000288:	10002171 	.word	0x10002171
1000028c:	00005657 	.word	0x00005657

10000290 <__bi_50>:
10000290:	50520006 5360b3ab 1000b7a0              ..RP..`S....

1000029c <__bi_38>:
1000029c:	50520006 02031c86 1000b7b0              ..RP........

100002a8 <__bi_30>:
100002a8:	50520006 9da22254 1000b7bc              ..RPT"......

100002b4 <__bi_22>:
100002b4:	50520005 68f465de 1000c65c              ..RP.e.h\...

100002c0 <_init>:
100002c0:	b5f8      	push	{r3, r4, r5, r6, r7, lr}
100002c2:	46c0      	nop			; (mov r8, r8)

100002c4 <deregister_tm_clones>:
100002c4:	4804      	ldr	r0, [pc, #16]	; (100002d8 <deregister_tm_clones+0x14>)
100002c6:	4b05      	ldr	r3, [pc, #20]	; (100002dc <deregister_tm_clones+0x18>)
100002c8:	b510      	push	{r4, lr}
100002ca:	4283      	cmp	r3, r0
100002cc:	d003      	beq.n	100002d6 <deregister_tm_clones+0x12>
100002ce:	4b04      	ldr	r3, [pc, #16]	; (100002e0 <deregister_tm_clones+0x1c>)
100002d0:	2b00      	cmp	r3, #0
100002d2:	d000      	beq.n	100002d6 <deregister_tm_clones+0x12>
100002d4:	4798      	blx	r3
100002d6:	bd10      	pop	{r4, pc}
100002d8:	20000ce0 	.word	0x20000ce0
100002dc:	20000ce0 	.word	0x20000ce0
100002e0:	00000000 	.word	0x00000000

100002e4 <register_tm_clones>:
100002e4:	4806      	ldr	r0, [pc, #24]	; (10000300 <register_tm_clones+0x1c>)
100002e6:	4907      	ldr	r1, [pc, #28]	; (10000304 <register_tm_clones+0x20>)
100002e8:	1a09      	subs	r1, r1, r0
100002ea:	108b      	asrs	r3, r1, #2
100002ec:	0fc9      	lsrs	r1, r1, #31
100002ee:	18c9      	adds	r1, r1, r3
100002f0:	b510      	push	{r4, lr}
100002f2:	1049      	asrs	r1, r1, #1
100002f4:	d003      	beq.n	100002fe <register_tm_clones+0x1a>
100002f6:	4b04      	ldr	r3, [pc, #16]	; (10000308 <register_tm_clones+0x24>)
100002f8:	2b00      	cmp	r3, #0
100002fa:	d000      	beq.n	100002fe <register_tm_clones+0x1a>
100002fc:	4798      	blx	r3
100002fe:	bd10      	pop	{r4, pc}
10000300:	20000ce0 	.word	0x20000ce0
10000304:	20000ce0 	.word	0x20000ce0
10000308:	00000000 	.word	0x00000000

1000030c <__do_global_dtors_aux>:
1000030c:	b510      	push	{r4, lr}
1000030e:	4c07      	ldr	r4, [pc, #28]	; (1000032c <__do_global_dtors_aux+0x20>)
10000310:	7823      	ldrb	r3, [r4, #0]
10000312:	2b00      	cmp	r3, #0
10000314:	d109      	bne.n	1000032a <__do_global_dtors_aux+0x1e>
10000316:	f7ff ffd5 	bl	100002c4 <deregister_tm_clones>
1000031a:	4b05      	ldr	r3, [pc, #20]	; (10000330 <__do_global_dtors_aux+0x24>)
1000031c:	2b00      	cmp	r3, #0
1000031e:	d002      	beq.n	10000326 <__do_global_dtors_aux+0x1a>
10000320:	4804      	ldr	r0, [pc, #16]	; (10000334 <__do_global_dtors_aux+0x28>)
10000322:	e000      	b.n	10000326 <__do_global_dtors_aux+0x1a>
10000324:	bf00      	nop
10000326:	2301      	movs	r3, #1
10000328:	7023      	strb	r3, [r4, #0]
1000032a:	bd10      	pop	{r4, pc}
1000032c:	20001038 	.word	0x20001038
10000330:	00000000 	.word	0x00000000
10000334:	1000b3b8 	.word	0x1000b3b8

10000338 <frame_dummy>:
10000338:	4b05      	ldr	r3, [pc, #20]	; (10000350 <frame_dummy+0x18>)
1000033a:	b510      	push	{r4, lr}
1000033c:	2b00      	cmp	r3, #0
1000033e:	d003      	beq.n	10000348 <frame_dummy+0x10>
10000340:	4904      	ldr	r1, [pc, #16]	; (10000354 <frame_dummy+0x1c>)
10000342:	4805      	ldr	r0, [pc, #20]	; (10000358 <frame_dummy+0x20>)
10000344:	e000      	b.n	10000348 <frame_dummy+0x10>
10000346:	bf00      	nop
10000348:	f7ff ffcc 	bl	100002e4 <register_tm_clones>
1000034c:	bd10      	pop	{r4, pc}
1000034e:	46c0      	nop			; (mov r8, r8)
10000350:	00000000 	.word	0x00000000
10000354:	2000103c 	.word	0x2000103c
10000358:	1000b3b8 	.word	0x1000b3b8

1000035c <led_task>:
1000035c:	b570      	push	{r4, r5, r6, lr}
1000035e:	2019      	movs	r0, #25
10000360:	f000 fc28 	bl	10000bb4 <gpio_init>
10000364:	25d0      	movs	r5, #208	; 0xd0
10000366:	2380      	movs	r3, #128	; 0x80
10000368:	062d      	lsls	r5, r5, #24
1000036a:	049b      	lsls	r3, r3, #18
1000036c:	626b      	str	r3, [r5, #36]	; 0x24
1000036e:	2480      	movs	r4, #128	; 0x80
10000370:	20fa      	movs	r0, #250	; 0xfa
10000372:	04a4      	lsls	r4, r4, #18
10000374:	616c      	str	r4, [r5, #20]
10000376:	0040      	lsls	r0, r0, #1
10000378:	f008 f9e8 	bl	1000874c <vTaskDelay>
1000037c:	20fa      	movs	r0, #250	; 0xfa
1000037e:	61ac      	str	r4, [r5, #24]
10000380:	0040      	lsls	r0, r0, #1
10000382:	f008 f9e3 	bl	1000874c <vTaskDelay>
10000386:	20fa      	movs	r0, #250	; 0xfa
10000388:	616c      	str	r4, [r5, #20]
1000038a:	0040      	lsls	r0, r0, #1
1000038c:	f008 f9de 	bl	1000874c <vTaskDelay>
10000390:	20fa      	movs	r0, #250	; 0xfa
10000392:	61ac      	str	r4, [r5, #24]
10000394:	0040      	lsls	r0, r0, #1
10000396:	f008 f9d9 	bl	1000874c <vTaskDelay>
1000039a:	20fa      	movs	r0, #250	; 0xfa
1000039c:	616c      	str	r4, [r5, #20]
1000039e:	0040      	lsls	r0, r0, #1
100003a0:	f008 f9d4 	bl	1000874c <vTaskDelay>
100003a4:	4802      	ldr	r0, [pc, #8]	; (100003b0 <led_task+0x54>)
100003a6:	61ac      	str	r4, [r5, #24]
100003a8:	f008 f9d0 	bl	1000874c <vTaskDelay>
100003ac:	e7df      	b.n	1000036e <led_task+0x12>
100003ae:	46c0      	nop			; (mov r8, r8)
100003b0:	000005dc 	.word	0x000005dc

100003b4 <manage_sensor>:
100003b4:	b5f8      	push	{r3, r4, r5, r6, r7, lr}
100003b6:	46ce      	mov	lr, r9
100003b8:	4647      	mov	r7, r8
100003ba:	2014      	movs	r0, #20
100003bc:	b580      	push	{r7, lr}
100003be:	f008 f9c5 	bl	1000874c <vTaskDelay>
100003c2:	f000 fb1f 	bl	10000a04 <aht20_initialize>
100003c6:	4b1e      	ldr	r3, [pc, #120]	; (10000440 <manage_sensor+0x8c>)
100003c8:	4d1e      	ldr	r5, [pc, #120]	; (10000444 <manage_sensor+0x90>)
100003ca:	4698      	mov	r8, r3
100003cc:	4b1e      	ldr	r3, [pc, #120]	; (10000448 <manage_sensor+0x94>)
100003ce:	4c1f      	ldr	r4, [pc, #124]	; (1000044c <manage_sensor+0x98>)
100003d0:	4699      	mov	r9, r3
100003d2:	4f1f      	ldr	r7, [pc, #124]	; (10000450 <manage_sensor+0x9c>)
100003d4:	4e1f      	ldr	r6, [pc, #124]	; (10000454 <manage_sensor+0xa0>)
100003d6:	e018      	b.n	1000040a <manage_sensor+0x56>
100003d8:	2b01      	cmp	r3, #1
100003da:	d102      	bne.n	100003e2 <manage_sensor+0x2e>
100003dc:	6820      	ldr	r0, [r4, #0]
100003de:	f000 fa97 	bl	10000910 <seven_seg_display_humidity>
100003e2:	6828      	ldr	r0, [r5, #0]
100003e4:	f004 faf0 	bl	100049c8 <__wrap___aeabi_i2f>
100003e8:	491b      	ldr	r1, [pc, #108]	; (10000458 <manage_sensor+0xa4>)
100003ea:	f004 facc 	bl	10004986 <__wrap___aeabi_fdiv>
100003ee:	f004 fb45 	bl	10004a7c <__wrap___aeabi_f2d>
100003f2:	0002      	movs	r2, r0
100003f4:	000b      	movs	r3, r1
100003f6:	0038      	movs	r0, r7
100003f8:	f004 fde4 	bl	10004fc4 <__wrap_printf>
100003fc:	0030      	movs	r0, r6
100003fe:	6821      	ldr	r1, [r4, #0]
10000400:	f004 fde0 	bl	10004fc4 <__wrap_printf>
10000404:	4815      	ldr	r0, [pc, #84]	; (1000045c <manage_sensor+0xa8>)
10000406:	f008 f9a1 	bl	1000874c <vTaskDelay>
1000040a:	f000 fb11 	bl	10000a30 <aht20_start_measurement>
1000040e:	2050      	movs	r0, #80	; 0x50
10000410:	f008 f99c 	bl	1000874c <vTaskDelay>
10000414:	f000 fb24 	bl	10000a60 <aht20_read_measurement>
10000418:	f000 fb90 	bl	10000b3c <aht20_get_temp>
1000041c:	6028      	str	r0, [r5, #0]
1000041e:	f000 fb93 	bl	10000b48 <aht20_get_humidity>
10000422:	4643      	mov	r3, r8
10000424:	781b      	ldrb	r3, [r3, #0]
10000426:	6020      	str	r0, [r4, #0]
10000428:	2b00      	cmp	r3, #0
1000042a:	d1da      	bne.n	100003e2 <manage_sensor+0x2e>
1000042c:	464b      	mov	r3, r9
1000042e:	781b      	ldrb	r3, [r3, #0]
10000430:	2b00      	cmp	r3, #0
10000432:	d1d1      	bne.n	100003d8 <manage_sensor+0x24>
10000434:	6828      	ldr	r0, [r5, #0]
10000436:	f000 fa15 	bl	10000864 <seven_seg_display_temp>
1000043a:	464b      	mov	r3, r9
1000043c:	781b      	ldrb	r3, [r3, #0]
1000043e:	e7cb      	b.n	100003d8 <manage_sensor+0x24>
10000440:	20001c51 	.word	0x20001c51
10000444:	2000038c 	.word	0x2000038c
10000448:	20001c4a 	.word	0x20001c4a
1000044c:	20000388 	.word	0x20000388
10000450:	1000b3b8 	.word	0x1000b3b8
10000454:	1000b3c8 	.word	0x1000b3c8
10000458:	41200000 	.word	0x41200000
1000045c:	00000b68 	.word	0x00000b68

10000460 <manage_relay>:
10000460:	b5f0      	push	{r4, r5, r6, r7, lr}
10000462:	46d6      	mov	lr, sl
10000464:	464f      	mov	r7, r9
10000466:	4646      	mov	r6, r8
10000468:	4c1f      	ldr	r4, [pc, #124]	; (100004e8 <manage_relay+0x88>)
1000046a:	b5c0      	push	{r6, r7, lr}
1000046c:	6823      	ldr	r3, [r4, #0]
1000046e:	2b00      	cmp	r3, #0
10000470:	d034      	beq.n	100004dc <manage_relay+0x7c>
10000472:	23d0      	movs	r3, #208	; 0xd0
10000474:	2280      	movs	r2, #128	; 0x80
10000476:	061b      	lsls	r3, r3, #24
10000478:	0212      	lsls	r2, r2, #8
1000047a:	615a      	str	r2, [r3, #20]
1000047c:	481b      	ldr	r0, [pc, #108]	; (100004ec <manage_relay+0x8c>)
1000047e:	f008 f965 	bl	1000874c <vTaskDelay>
10000482:	4b1b      	ldr	r3, [pc, #108]	; (100004f0 <manage_relay+0x90>)
10000484:	27d0      	movs	r7, #208	; 0xd0
10000486:	4698      	mov	r8, r3
10000488:	4b1a      	ldr	r3, [pc, #104]	; (100004f4 <manage_relay+0x94>)
1000048a:	4e1b      	ldr	r6, [pc, #108]	; (100004f8 <manage_relay+0x98>)
1000048c:	469a      	mov	sl, r3
1000048e:	2300      	movs	r3, #0
10000490:	4d1a      	ldr	r5, [pc, #104]	; (100004fc <manage_relay+0x9c>)
10000492:	4699      	mov	r9, r3
10000494:	063f      	lsls	r7, r7, #24
10000496:	e010      	b.n	100004ba <manage_relay+0x5a>
10000498:	6833      	ldr	r3, [r6, #0]
1000049a:	682a      	ldr	r2, [r5, #0]
1000049c:	3b05      	subs	r3, #5
1000049e:	4293      	cmp	r3, r2
100004a0:	dd07      	ble.n	100004b2 <manage_relay+0x52>
100004a2:	2301      	movs	r3, #1
100004a4:	6023      	str	r3, [r4, #0]
100004a6:	2380      	movs	r3, #128	; 0x80
100004a8:	021b      	lsls	r3, r3, #8
100004aa:	4640      	mov	r0, r8
100004ac:	617b      	str	r3, [r7, #20]
100004ae:	f004 fce7 	bl	10004e80 <__wrap_puts>
100004b2:	20fa      	movs	r0, #250	; 0xfa
100004b4:	0080      	lsls	r0, r0, #2
100004b6:	f008 f949 	bl	1000874c <vTaskDelay>
100004ba:	6823      	ldr	r3, [r4, #0]
100004bc:	2b00      	cmp	r3, #0
100004be:	d0eb      	beq.n	10000498 <manage_relay+0x38>
100004c0:	6833      	ldr	r3, [r6, #0]
100004c2:	682a      	ldr	r2, [r5, #0]
100004c4:	3305      	adds	r3, #5
100004c6:	4293      	cmp	r3, r2
100004c8:	daf3      	bge.n	100004b2 <manage_relay+0x52>
100004ca:	464b      	mov	r3, r9
100004cc:	6023      	str	r3, [r4, #0]
100004ce:	2380      	movs	r3, #128	; 0x80
100004d0:	021b      	lsls	r3, r3, #8
100004d2:	4650      	mov	r0, sl
100004d4:	61bb      	str	r3, [r7, #24]
100004d6:	f004 fcd3 	bl	10004e80 <__wrap_puts>
100004da:	e7ea      	b.n	100004b2 <manage_relay+0x52>
100004dc:	23d0      	movs	r3, #208	; 0xd0
100004de:	2280      	movs	r2, #128	; 0x80
100004e0:	061b      	lsls	r3, r3, #24
100004e2:	0212      	lsls	r2, r2, #8
100004e4:	619a      	str	r2, [r3, #24]
100004e6:	e7c9      	b.n	1000047c <manage_relay+0x1c>
100004e8:	20001bf8 	.word	0x20001bf8
100004ec:	00001388 	.word	0x00001388
100004f0:	1000b3dc 	.word	0x1000b3dc
100004f4:	1000b3e8 	.word	0x1000b3e8
100004f8:	20001c2c 	.word	0x20001c2c
100004fc:	2000038c 	.word	0x2000038c

10000500 <system_initialize>:
10000500:	b510      	push	{r4, lr}
10000502:	f004 fd6b 	bl	10004fdc <stdio_init_all>
10000506:	2012      	movs	r0, #18
10000508:	f000 fb54 	bl	10000bb4 <gpio_init>
1000050c:	2013      	movs	r0, #19
1000050e:	f000 fb51 	bl	10000bb4 <gpio_init>
10000512:	2014      	movs	r0, #20
10000514:	f000 fb4e 	bl	10000bb4 <gpio_init>
10000518:	24d0      	movs	r4, #208	; 0xd0
1000051a:	2380      	movs	r3, #128	; 0x80
1000051c:	0624      	lsls	r4, r4, #24
1000051e:	02db      	lsls	r3, r3, #11
10000520:	62a3      	str	r3, [r4, #40]	; 0x28
10000522:	2380      	movs	r3, #128	; 0x80
10000524:	031b      	lsls	r3, r3, #12
10000526:	62a3      	str	r3, [r4, #40]	; 0x28
10000528:	2380      	movs	r3, #128	; 0x80
1000052a:	035b      	lsls	r3, r3, #13
1000052c:	62a3      	str	r3, [r4, #40]	; 0x28
1000052e:	200f      	movs	r0, #15
10000530:	f000 fb40 	bl	10000bb4 <gpio_init>
10000534:	2380      	movs	r3, #128	; 0x80
10000536:	021b      	lsls	r3, r3, #8
10000538:	2100      	movs	r1, #0
1000053a:	6263      	str	r3, [r4, #36]	; 0x24
1000053c:	2201      	movs	r2, #1
1000053e:	200f      	movs	r0, #15
10000540:	f000 fb20 	bl	10000b84 <gpio_set_pulls>
10000544:	f000 fa24 	bl	10000990 <i2c_module_initialize>
10000548:	f000 f950 	bl	100007ec <seven_seg_begin>
1000054c:	2200      	movs	r2, #0
1000054e:	4b06      	ldr	r3, [pc, #24]	; (10000568 <system_initialize+0x68>)
10000550:	2014      	movs	r0, #20
10000552:	701a      	strb	r2, [r3, #0]
10000554:	22af      	movs	r2, #175	; 0xaf
10000556:	4b05      	ldr	r3, [pc, #20]	; (1000056c <system_initialize+0x6c>)
10000558:	0092      	lsls	r2, r2, #2
1000055a:	601a      	str	r2, [r3, #0]
1000055c:	f008 f8f6 	bl	1000874c <vTaskDelay>
10000560:	2000      	movs	r0, #0
10000562:	f007 fd57 	bl	10008014 <vTaskDelete>
10000566:	bd10      	pop	{r4, pc}
10000568:	20001c4a 	.word	0x20001c4a
1000056c:	20001c2c 	.word	0x20001c2c

10000570 <screen_timeout_callback>:
10000570:	2200      	movs	r2, #0
10000572:	b510      	push	{r4, lr}
10000574:	4b0a      	ldr	r3, [pc, #40]	; (100005a0 <screen_timeout_callback+0x30>)
10000576:	4c0b      	ldr	r4, [pc, #44]	; (100005a4 <screen_timeout_callback+0x34>)
10000578:	701a      	strb	r2, [r3, #0]
1000057a:	7823      	ldrb	r3, [r4, #0]
1000057c:	2b00      	cmp	r3, #0
1000057e:	d002      	beq.n	10000586 <screen_timeout_callback+0x16>
10000580:	2b01      	cmp	r3, #1
10000582:	d007      	beq.n	10000594 <screen_timeout_callback+0x24>
10000584:	bd10      	pop	{r4, pc}
10000586:	4b08      	ldr	r3, [pc, #32]	; (100005a8 <screen_timeout_callback+0x38>)
10000588:	6818      	ldr	r0, [r3, #0]
1000058a:	f000 f96b 	bl	10000864 <seven_seg_display_temp>
1000058e:	7823      	ldrb	r3, [r4, #0]
10000590:	2b01      	cmp	r3, #1
10000592:	d1f7      	bne.n	10000584 <screen_timeout_callback+0x14>
10000594:	4b05      	ldr	r3, [pc, #20]	; (100005ac <screen_timeout_callback+0x3c>)
10000596:	6818      	ldr	r0, [r3, #0]
10000598:	f000 f9ba 	bl	10000910 <seven_seg_display_humidity>
1000059c:	e7f2      	b.n	10000584 <screen_timeout_callback+0x14>
1000059e:	46c0      	nop			; (mov r8, r8)
100005a0:	20001c51 	.word	0x20001c51
100005a4:	20001c4a 	.word	0x20001c4a
100005a8:	2000038c 	.word	0x2000038c
100005ac:	20000388 	.word	0x20000388

100005b0 <get_inputs>:
100005b0:	b5f0      	push	{r4, r5, r6, r7, lr}
100005b2:	4657      	mov	r7, sl
100005b4:	464e      	mov	r6, r9
100005b6:	4645      	mov	r5, r8
100005b8:	46de      	mov	lr, fp
100005ba:	b5e0      	push	{r5, r6, r7, lr}
100005bc:	25d0      	movs	r5, #208	; 0xd0
100005be:	4b52      	ldr	r3, [pc, #328]	; (10000708 <get_inputs+0x158>)
100005c0:	2401      	movs	r4, #1
100005c2:	4699      	mov	r9, r3
100005c4:	4b51      	ldr	r3, [pc, #324]	; (1000070c <get_inputs+0x15c>)
100005c6:	4f52      	ldr	r7, [pc, #328]	; (10000710 <get_inputs+0x160>)
100005c8:	469a      	mov	sl, r3
100005ca:	4b52      	ldr	r3, [pc, #328]	; (10000714 <get_inputs+0x164>)
100005cc:	4e52      	ldr	r6, [pc, #328]	; (10000718 <get_inputs+0x168>)
100005ce:	4698      	mov	r8, r3
100005d0:	b083      	sub	sp, #12
100005d2:	062d      	lsls	r5, r5, #24
100005d4:	e02d      	b.n	10000632 <get_inputs+0x82>
100005d6:	7833      	ldrb	r3, [r6, #0]
100005d8:	2b00      	cmp	r3, #0
100005da:	d005      	beq.n	100005e8 <get_inputs+0x38>
100005dc:	0022      	movs	r2, r4
100005de:	686b      	ldr	r3, [r5, #4]
100005e0:	0cdb      	lsrs	r3, r3, #19
100005e2:	401a      	ands	r2, r3
100005e4:	421c      	tst	r4, r3
100005e6:	d062      	beq.n	100006ae <get_inputs+0xfe>
100005e8:	4643      	mov	r3, r8
100005ea:	781b      	ldrb	r3, [r3, #0]
100005ec:	2b00      	cmp	r3, #0
100005ee:	d005      	beq.n	100005fc <get_inputs+0x4c>
100005f0:	0023      	movs	r3, r4
100005f2:	686a      	ldr	r2, [r5, #4]
100005f4:	0d12      	lsrs	r2, r2, #20
100005f6:	4013      	ands	r3, r2
100005f8:	4214      	tst	r4, r2
100005fa:	d042      	beq.n	10000682 <get_inputs+0xd2>
100005fc:	783a      	ldrb	r2, [r7, #0]
100005fe:	2a00      	cmp	r2, #0
10000600:	d104      	bne.n	1000060c <get_inputs+0x5c>
10000602:	686a      	ldr	r2, [r5, #4]
10000604:	0c92      	lsrs	r2, r2, #18
10000606:	4214      	tst	r4, r2
10000608:	d000      	beq.n	1000060c <get_inputs+0x5c>
1000060a:	703c      	strb	r4, [r7, #0]
1000060c:	7832      	ldrb	r2, [r6, #0]
1000060e:	2a00      	cmp	r2, #0
10000610:	d104      	bne.n	1000061c <get_inputs+0x6c>
10000612:	686a      	ldr	r2, [r5, #4]
10000614:	0cd2      	lsrs	r2, r2, #19
10000616:	4214      	tst	r4, r2
10000618:	d000      	beq.n	1000061c <get_inputs+0x6c>
1000061a:	7034      	strb	r4, [r6, #0]
1000061c:	2b00      	cmp	r3, #0
1000061e:	d105      	bne.n	1000062c <get_inputs+0x7c>
10000620:	686b      	ldr	r3, [r5, #4]
10000622:	0d1b      	lsrs	r3, r3, #20
10000624:	421c      	tst	r4, r3
10000626:	d001      	beq.n	1000062c <get_inputs+0x7c>
10000628:	4643      	mov	r3, r8
1000062a:	701c      	strb	r4, [r3, #0]
1000062c:	2005      	movs	r0, #5
1000062e:	f008 f88d 	bl	1000874c <vTaskDelay>
10000632:	783b      	ldrb	r3, [r7, #0]
10000634:	2b00      	cmp	r3, #0
10000636:	d0ce      	beq.n	100005d6 <get_inputs+0x26>
10000638:	0022      	movs	r2, r4
1000063a:	686b      	ldr	r3, [r5, #4]
1000063c:	0c9b      	lsrs	r3, r3, #18
1000063e:	401a      	ands	r2, r3
10000640:	421c      	tst	r4, r3
10000642:	d1c8      	bne.n	100005d6 <get_inputs+0x26>
10000644:	464b      	mov	r3, r9
10000646:	703a      	strb	r2, [r7, #0]
10000648:	464a      	mov	r2, r9
1000064a:	681b      	ldr	r3, [r3, #0]
1000064c:	4833      	ldr	r0, [pc, #204]	; (1000071c <get_inputs+0x16c>)
1000064e:	330a      	adds	r3, #10
10000650:	6013      	str	r3, [r2, #0]
10000652:	6811      	ldr	r1, [r2, #0]
10000654:	f004 fcb6 	bl	10004fc4 <__wrap_printf>
10000658:	4b31      	ldr	r3, [pc, #196]	; (10000720 <get_inputs+0x170>)
1000065a:	701c      	strb	r4, [r3, #0]
1000065c:	464b      	mov	r3, r9
1000065e:	6818      	ldr	r0, [r3, #0]
10000660:	f000 f900 	bl	10000864 <seven_seg_display_temp>
10000664:	4653      	mov	r3, sl
10000666:	681b      	ldr	r3, [r3, #0]
10000668:	469b      	mov	fp, r3
1000066a:	f008 f899 	bl	100087a0 <xTaskGetTickCount>
1000066e:	2301      	movs	r3, #1
10000670:	425b      	negs	r3, r3
10000672:	0002      	movs	r2, r0
10000674:	9300      	str	r3, [sp, #0]
10000676:	2101      	movs	r1, #1
10000678:	2300      	movs	r3, #0
1000067a:	4658      	mov	r0, fp
1000067c:	f008 ff78 	bl	10009570 <xTimerGenericCommand>
10000680:	e7a9      	b.n	100005d6 <get_inputs+0x26>
10000682:	4642      	mov	r2, r8
10000684:	7013      	strb	r3, [r2, #0]
10000686:	4a27      	ldr	r2, [pc, #156]	; (10000724 <get_inputs+0x174>)
10000688:	7812      	ldrb	r2, [r2, #0]
1000068a:	2a00      	cmp	r2, #0
1000068c:	d02e      	beq.n	100006ec <get_inputs+0x13c>
1000068e:	2a01      	cmp	r2, #1
10000690:	d033      	beq.n	100006fa <get_inputs+0x14a>
10000692:	4a24      	ldr	r2, [pc, #144]	; (10000724 <get_inputs+0x174>)
10000694:	7013      	strb	r3, [r2, #0]
10000696:	4b24      	ldr	r3, [pc, #144]	; (10000728 <get_inputs+0x178>)
10000698:	6818      	ldr	r0, [r3, #0]
1000069a:	f000 f8e3 	bl	10000864 <seven_seg_display_temp>
1000069e:	4b21      	ldr	r3, [pc, #132]	; (10000724 <get_inputs+0x174>)
100006a0:	4822      	ldr	r0, [pc, #136]	; (1000072c <get_inputs+0x17c>)
100006a2:	7819      	ldrb	r1, [r3, #0]
100006a4:	f004 fc8e 	bl	10004fc4 <__wrap_printf>
100006a8:	4643      	mov	r3, r8
100006aa:	781b      	ldrb	r3, [r3, #0]
100006ac:	e7a6      	b.n	100005fc <get_inputs+0x4c>
100006ae:	464b      	mov	r3, r9
100006b0:	7032      	strb	r2, [r6, #0]
100006b2:	464a      	mov	r2, r9
100006b4:	681b      	ldr	r3, [r3, #0]
100006b6:	4819      	ldr	r0, [pc, #100]	; (1000071c <get_inputs+0x16c>)
100006b8:	3b0a      	subs	r3, #10
100006ba:	6013      	str	r3, [r2, #0]
100006bc:	6811      	ldr	r1, [r2, #0]
100006be:	f004 fc81 	bl	10004fc4 <__wrap_printf>
100006c2:	464b      	mov	r3, r9
100006c4:	6818      	ldr	r0, [r3, #0]
100006c6:	f000 f8cd 	bl	10000864 <seven_seg_display_temp>
100006ca:	4b15      	ldr	r3, [pc, #84]	; (10000720 <get_inputs+0x170>)
100006cc:	701c      	strb	r4, [r3, #0]
100006ce:	4653      	mov	r3, sl
100006d0:	681b      	ldr	r3, [r3, #0]
100006d2:	469b      	mov	fp, r3
100006d4:	f008 f864 	bl	100087a0 <xTaskGetTickCount>
100006d8:	2301      	movs	r3, #1
100006da:	425b      	negs	r3, r3
100006dc:	0002      	movs	r2, r0
100006de:	9300      	str	r3, [sp, #0]
100006e0:	2101      	movs	r1, #1
100006e2:	2300      	movs	r3, #0
100006e4:	4658      	mov	r0, fp
100006e6:	f008 ff43 	bl	10009570 <xTimerGenericCommand>
100006ea:	e77d      	b.n	100005e8 <get_inputs+0x38>
100006ec:	4b0d      	ldr	r3, [pc, #52]	; (10000724 <get_inputs+0x174>)
100006ee:	701c      	strb	r4, [r3, #0]
100006f0:	4b0f      	ldr	r3, [pc, #60]	; (10000730 <get_inputs+0x180>)
100006f2:	6818      	ldr	r0, [r3, #0]
100006f4:	f000 f90c 	bl	10000910 <seven_seg_display_humidity>
100006f8:	e7d1      	b.n	1000069e <get_inputs+0xee>
100006fa:	2302      	movs	r3, #2
100006fc:	4a09      	ldr	r2, [pc, #36]	; (10000724 <get_inputs+0x174>)
100006fe:	7013      	strb	r3, [r2, #0]
10000700:	f000 f89c 	bl	1000083c <seven_seg_display_off>
10000704:	e7cb      	b.n	1000069e <get_inputs+0xee>
10000706:	46c0      	nop			; (mov r8, r8)
10000708:	20001c2c 	.word	0x20001c2c
1000070c:	20001c04 	.word	0x20001c04
10000710:	20000392 	.word	0x20000392
10000714:	20000390 	.word	0x20000390
10000718:	20000391 	.word	0x20000391
1000071c:	1000b3f4 	.word	0x1000b3f4
10000720:	20001c51 	.word	0x20001c51
10000724:	20001c4a 	.word	0x20001c4a
10000728:	2000038c 	.word	0x2000038c
1000072c:	1000b40c 	.word	0x1000b40c
10000730:	20000388 	.word	0x20000388

10000734 <main>:
10000734:	21fa      	movs	r1, #250	; 0xfa
10000736:	b570      	push	{r4, r5, r6, lr}
10000738:	4b1f      	ldr	r3, [pc, #124]	; (100007b8 <main+0x84>)
1000073a:	b082      	sub	sp, #8
1000073c:	2200      	movs	r2, #0
1000073e:	9300      	str	r3, [sp, #0]
10000740:	00c9      	lsls	r1, r1, #3
10000742:	2300      	movs	r3, #0
10000744:	481d      	ldr	r0, [pc, #116]	; (100007bc <main+0x88>)
10000746:	f008 febf 	bl	100094c8 <xTimerCreate>
1000074a:	2400      	movs	r4, #0
1000074c:	2501      	movs	r5, #1
1000074e:	2280      	movs	r2, #128	; 0x80
10000750:	4b1b      	ldr	r3, [pc, #108]	; (100007c0 <main+0x8c>)
10000752:	491c      	ldr	r1, [pc, #112]	; (100007c4 <main+0x90>)
10000754:	6018      	str	r0, [r3, #0]
10000756:	0052      	lsls	r2, r2, #1
10000758:	2300      	movs	r3, #0
1000075a:	481b      	ldr	r0, [pc, #108]	; (100007c8 <main+0x94>)
1000075c:	9401      	str	r4, [sp, #4]
1000075e:	9500      	str	r5, [sp, #0]
10000760:	f007 fb42 	bl	10007de8 <xTaskCreate>
10000764:	2305      	movs	r3, #5
10000766:	2280      	movs	r2, #128	; 0x80
10000768:	4918      	ldr	r1, [pc, #96]	; (100007cc <main+0x98>)
1000076a:	9300      	str	r3, [sp, #0]
1000076c:	0052      	lsls	r2, r2, #1
1000076e:	2300      	movs	r3, #0
10000770:	4817      	ldr	r0, [pc, #92]	; (100007d0 <main+0x9c>)
10000772:	9401      	str	r4, [sp, #4]
10000774:	f007 fb38 	bl	10007de8 <xTaskCreate>
10000778:	2602      	movs	r6, #2
1000077a:	2280      	movs	r2, #128	; 0x80
1000077c:	2300      	movs	r3, #0
1000077e:	4915      	ldr	r1, [pc, #84]	; (100007d4 <main+0xa0>)
10000780:	0052      	lsls	r2, r2, #1
10000782:	4815      	ldr	r0, [pc, #84]	; (100007d8 <main+0xa4>)
10000784:	9401      	str	r4, [sp, #4]
10000786:	9600      	str	r6, [sp, #0]
10000788:	f007 fb2e 	bl	10007de8 <xTaskCreate>
1000078c:	2280      	movs	r2, #128	; 0x80
1000078e:	2300      	movs	r3, #0
10000790:	4912      	ldr	r1, [pc, #72]	; (100007dc <main+0xa8>)
10000792:	0052      	lsls	r2, r2, #1
10000794:	4812      	ldr	r0, [pc, #72]	; (100007e0 <main+0xac>)
10000796:	9401      	str	r4, [sp, #4]
10000798:	9600      	str	r6, [sp, #0]
1000079a:	f007 fb25 	bl	10007de8 <xTaskCreate>
1000079e:	2280      	movs	r2, #128	; 0x80
100007a0:	2300      	movs	r3, #0
100007a2:	4910      	ldr	r1, [pc, #64]	; (100007e4 <main+0xb0>)
100007a4:	0052      	lsls	r2, r2, #1
100007a6:	4810      	ldr	r0, [pc, #64]	; (100007e8 <main+0xb4>)
100007a8:	9401      	str	r4, [sp, #4]
100007aa:	9500      	str	r5, [sp, #0]
100007ac:	f007 fb1c 	bl	10007de8 <xTaskCreate>
100007b0:	f007 fe2c 	bl	1000840c <vTaskStartScheduler>
100007b4:	e7fe      	b.n	100007b4 <main+0x80>
100007b6:	46c0      	nop			; (mov r8, r8)
100007b8:	10000571 	.word	0x10000571
100007bc:	1000b428 	.word	0x1000b428
100007c0:	20001c04 	.word	0x20001c04
100007c4:	1000b438 	.word	0x1000b438
100007c8:	1000035d 	.word	0x1000035d
100007cc:	1000b444 	.word	0x1000b444
100007d0:	10000501 	.word	0x10000501
100007d4:	1000b458 	.word	0x1000b458
100007d8:	100003b5 	.word	0x100003b5
100007dc:	1000b468 	.word	0x1000b468
100007e0:	100005b1 	.word	0x100005b1
100007e4:	1000b474 	.word	0x1000b474
100007e8:	10000461 	.word	0x10000461

100007ec <seven_seg_begin>:
100007ec:	b500      	push	{lr}
100007ee:	b083      	sub	sp, #12
100007f0:	466a      	mov	r2, sp
100007f2:	4b0f      	ldr	r3, [pc, #60]	; (10000830 <seven_seg_begin+0x44>)
100007f4:	4669      	mov	r1, sp
100007f6:	781b      	ldrb	r3, [r3, #0]
100007f8:	2070      	movs	r0, #112	; 0x70
100007fa:	7013      	strb	r3, [r2, #0]
100007fc:	2201      	movs	r2, #1
100007fe:	f000 f8e3 	bl	100009c8 <i2c_module_send>
10000802:	466a      	mov	r2, sp
10000804:	4b0b      	ldr	r3, [pc, #44]	; (10000834 <seven_seg_begin+0x48>)
10000806:	a901      	add	r1, sp, #4
10000808:	781b      	ldrb	r3, [r3, #0]
1000080a:	2070      	movs	r0, #112	; 0x70
1000080c:	7113      	strb	r3, [r2, #4]
1000080e:	2201      	movs	r2, #1
10000810:	f000 f8da 	bl	100009c8 <i2c_module_send>
10000814:	2201      	movs	r2, #1
10000816:	4b08      	ldr	r3, [pc, #32]	; (10000838 <seven_seg_begin+0x4c>)
10000818:	2070      	movs	r0, #112	; 0x70
1000081a:	701a      	strb	r2, [r3, #0]
1000081c:	23ef      	movs	r3, #239	; 0xef
1000081e:	466a      	mov	r2, sp
10000820:	a901      	add	r1, sp, #4
10000822:	7113      	strb	r3, [r2, #4]
10000824:	2201      	movs	r2, #1
10000826:	f000 f8cf 	bl	100009c8 <i2c_module_send>
1000082a:	b003      	add	sp, #12
1000082c:	bd00      	pop	{pc}
1000082e:	46c0      	nop			; (mov r8, r8)
10000830:	1000b484 	.word	0x1000b484
10000834:	1000b488 	.word	0x1000b488
10000838:	20001c4b 	.word	0x20001c4b

1000083c <seven_seg_display_off>:
1000083c:	b500      	push	{lr}
1000083e:	4b07      	ldr	r3, [pc, #28]	; (1000085c <seven_seg_display_off+0x20>)
10000840:	b083      	sub	sp, #12
10000842:	781b      	ldrb	r3, [r3, #0]
10000844:	a901      	add	r1, sp, #4
10000846:	2201      	movs	r2, #1
10000848:	2070      	movs	r0, #112	; 0x70
1000084a:	700b      	strb	r3, [r1, #0]
1000084c:	f000 f8bc 	bl	100009c8 <i2c_module_send>
10000850:	2200      	movs	r2, #0
10000852:	4b03      	ldr	r3, [pc, #12]	; (10000860 <seven_seg_display_off+0x24>)
10000854:	701a      	strb	r2, [r3, #0]
10000856:	b003      	add	sp, #12
10000858:	bd00      	pop	{pc}
1000085a:	46c0      	nop			; (mov r8, r8)
1000085c:	1000b48c 	.word	0x1000b48c
10000860:	20001c4b 	.word	0x20001c4b

10000864 <seven_seg_display_temp>:
10000864:	b5f0      	push	{r4, r5, r6, r7, lr}
10000866:	46c6      	mov	lr, r8
10000868:	0002      	movs	r2, r0
1000086a:	23af      	movs	r3, #175	; 0xaf
1000086c:	b500      	push	{lr}
1000086e:	3a2d      	subs	r2, #45	; 0x2d
10000870:	3aff      	subs	r2, #255	; 0xff
10000872:	0004      	movs	r4, r0
10000874:	b082      	sub	sp, #8
10000876:	009b      	lsls	r3, r3, #2
10000878:	429a      	cmp	r2, r3
1000087a:	d232      	bcs.n	100008e2 <seven_seg_display_temp+0x7e>
1000087c:	4d20      	ldr	r5, [pc, #128]	; (10000900 <seven_seg_display_temp+0x9c>)
1000087e:	ae01      	add	r6, sp, #4
10000880:	782b      	ldrb	r3, [r5, #0]
10000882:	2b00      	cmp	r3, #0
10000884:	d031      	beq.n	100008ea <seven_seg_display_temp+0x86>
10000886:	0020      	movs	r0, r4
10000888:	210a      	movs	r1, #10
1000088a:	f003 f9d1 	bl	10003c30 <__wrap___aeabi_idiv>
1000088e:	4f1d      	ldr	r7, [pc, #116]	; (10000904 <seven_seg_display_temp+0xa0>)
10000890:	4d1d      	ldr	r5, [pc, #116]	; (10000908 <seven_seg_display_temp+0xa4>)
10000892:	5c7b      	ldrb	r3, [r7, r1]
10000894:	0020      	movs	r0, r4
10000896:	712b      	strb	r3, [r5, #4]
10000898:	210a      	movs	r1, #10
1000089a:	f003 f9c9 	bl	10003c30 <__wrap___aeabi_idiv>
1000089e:	210a      	movs	r1, #10
100008a0:	0004      	movs	r4, r0
100008a2:	f003 f9c5 	bl	10003c30 <__wrap___aeabi_idiv>
100008a6:	2380      	movs	r3, #128	; 0x80
100008a8:	5c7a      	ldrb	r2, [r7, r1]
100008aa:	425b      	negs	r3, r3
100008ac:	4313      	orrs	r3, r2
100008ae:	70eb      	strb	r3, [r5, #3]
100008b0:	2300      	movs	r3, #0
100008b2:	0020      	movs	r0, r4
100008b4:	70ab      	strb	r3, [r5, #2]
100008b6:	210a      	movs	r1, #10
100008b8:	4698      	mov	r8, r3
100008ba:	f003 f9b9 	bl	10003c30 <__wrap___aeabi_idiv>
100008be:	5c3b      	ldrb	r3, [r7, r0]
100008c0:	2400      	movs	r4, #0
100008c2:	706b      	strb	r3, [r5, #1]
100008c4:	4643      	mov	r3, r8
100008c6:	702b      	strb	r3, [r5, #0]
100008c8:	782b      	ldrb	r3, [r5, #0]
100008ca:	7034      	strb	r4, [r6, #0]
100008cc:	3402      	adds	r4, #2
100008ce:	2202      	movs	r2, #2
100008d0:	0031      	movs	r1, r6
100008d2:	2070      	movs	r0, #112	; 0x70
100008d4:	b2e4      	uxtb	r4, r4
100008d6:	7073      	strb	r3, [r6, #1]
100008d8:	3501      	adds	r5, #1
100008da:	f000 f875 	bl	100009c8 <i2c_module_send>
100008de:	2c0a      	cmp	r4, #10
100008e0:	d1f2      	bne.n	100008c8 <seven_seg_display_temp+0x64>
100008e2:	b002      	add	sp, #8
100008e4:	bc80      	pop	{r7}
100008e6:	46b8      	mov	r8, r7
100008e8:	bdf0      	pop	{r4, r5, r6, r7, pc}
100008ea:	4b08      	ldr	r3, [pc, #32]	; (1000090c <seven_seg_display_temp+0xa8>)
100008ec:	2201      	movs	r2, #1
100008ee:	781b      	ldrb	r3, [r3, #0]
100008f0:	0031      	movs	r1, r6
100008f2:	2070      	movs	r0, #112	; 0x70
100008f4:	7033      	strb	r3, [r6, #0]
100008f6:	f000 f867 	bl	100009c8 <i2c_module_send>
100008fa:	2301      	movs	r3, #1
100008fc:	702b      	strb	r3, [r5, #0]
100008fe:	e7c2      	b.n	10000886 <seven_seg_display_temp+0x22>
10000900:	20001c4b 	.word	0x20001c4b
10000904:	1000b490 	.word	0x1000b490
10000908:	200017c4 	.word	0x200017c4
1000090c:	1000b488 	.word	0x1000b488

10000910 <seven_seg_display_humidity>:
10000910:	b5f0      	push	{r4, r5, r6, r7, lr}
10000912:	1e43      	subs	r3, r0, #1
10000914:	0004      	movs	r4, r0
10000916:	b083      	sub	sp, #12
10000918:	2b62      	cmp	r3, #98	; 0x62
1000091a:	d824      	bhi.n	10000966 <seven_seg_display_humidity+0x56>
1000091c:	4d18      	ldr	r5, [pc, #96]	; (10000980 <seven_seg_display_humidity+0x70>)
1000091e:	ae01      	add	r6, sp, #4
10000920:	782b      	ldrb	r3, [r5, #0]
10000922:	2b00      	cmp	r3, #0
10000924:	d021      	beq.n	1000096a <seven_seg_display_humidity+0x5a>
10000926:	2374      	movs	r3, #116	; 0x74
10000928:	4d16      	ldr	r5, [pc, #88]	; (10000984 <seven_seg_display_humidity+0x74>)
1000092a:	210a      	movs	r1, #10
1000092c:	802b      	strh	r3, [r5, #0]
1000092e:	2300      	movs	r3, #0
10000930:	0020      	movs	r0, r4
10000932:	70ab      	strb	r3, [r5, #2]
10000934:	f003 f97c 	bl	10003c30 <__wrap___aeabi_idiv>
10000938:	4f13      	ldr	r7, [pc, #76]	; (10000988 <seven_seg_display_humidity+0x78>)
1000093a:	210a      	movs	r1, #10
1000093c:	5c3b      	ldrb	r3, [r7, r0]
1000093e:	0020      	movs	r0, r4
10000940:	70eb      	strb	r3, [r5, #3]
10000942:	f003 f975 	bl	10003c30 <__wrap___aeabi_idiv>
10000946:	2400      	movs	r4, #0
10000948:	5c7b      	ldrb	r3, [r7, r1]
1000094a:	712b      	strb	r3, [r5, #4]
1000094c:	782b      	ldrb	r3, [r5, #0]
1000094e:	7034      	strb	r4, [r6, #0]
10000950:	3402      	adds	r4, #2
10000952:	2202      	movs	r2, #2
10000954:	0031      	movs	r1, r6
10000956:	2070      	movs	r0, #112	; 0x70
10000958:	b2e4      	uxtb	r4, r4
1000095a:	7073      	strb	r3, [r6, #1]
1000095c:	3501      	adds	r5, #1
1000095e:	f000 f833 	bl	100009c8 <i2c_module_send>
10000962:	2c0a      	cmp	r4, #10
10000964:	d1f2      	bne.n	1000094c <seven_seg_display_humidity+0x3c>
10000966:	b003      	add	sp, #12
10000968:	bdf0      	pop	{r4, r5, r6, r7, pc}
1000096a:	4b08      	ldr	r3, [pc, #32]	; (1000098c <seven_seg_display_humidity+0x7c>)
1000096c:	2201      	movs	r2, #1
1000096e:	781b      	ldrb	r3, [r3, #0]
10000970:	0031      	movs	r1, r6
10000972:	2070      	movs	r0, #112	; 0x70
10000974:	7033      	strb	r3, [r6, #0]
10000976:	f000 f827 	bl	100009c8 <i2c_module_send>
1000097a:	2301      	movs	r3, #1
1000097c:	702b      	strb	r3, [r5, #0]
1000097e:	e7d2      	b.n	10000926 <seven_seg_display_humidity+0x16>
10000980:	20001c4b 	.word	0x20001c4b
10000984:	200017c4 	.word	0x200017c4
10000988:	1000b490 	.word	0x1000b490
1000098c:	1000b488 	.word	0x1000b488

10000990 <i2c_module_initialize>:
10000990:	b510      	push	{r4, lr}
10000992:	490b      	ldr	r1, [pc, #44]	; (100009c0 <i2c_module_initialize+0x30>)
10000994:	480b      	ldr	r0, [pc, #44]	; (100009c4 <i2c_module_initialize+0x34>)
10000996:	f007 f851 	bl	10007a3c <i2c_init>
1000099a:	2103      	movs	r1, #3
1000099c:	2004      	movs	r0, #4
1000099e:	f000 f8d9 	bl	10000b54 <gpio_set_function>
100009a2:	2103      	movs	r1, #3
100009a4:	2005      	movs	r0, #5
100009a6:	f000 f8d5 	bl	10000b54 <gpio_set_function>
100009aa:	2200      	movs	r2, #0
100009ac:	2101      	movs	r1, #1
100009ae:	2004      	movs	r0, #4
100009b0:	f000 f8e8 	bl	10000b84 <gpio_set_pulls>
100009b4:	2200      	movs	r2, #0
100009b6:	2101      	movs	r1, #1
100009b8:	2005      	movs	r0, #5
100009ba:	f000 f8e3 	bl	10000b84 <gpio_set_pulls>
100009be:	bd10      	pop	{r4, pc}
100009c0:	000186a0 	.word	0x000186a0
100009c4:	20000470 	.word	0x20000470

100009c8 <i2c_module_send>:
100009c8:	b510      	push	{r4, lr}
100009ca:	0013      	movs	r3, r2
100009cc:	000c      	movs	r4, r1
100009ce:	2200      	movs	r2, #0
100009d0:	b082      	sub	sp, #8
100009d2:	b2c1      	uxtb	r1, r0
100009d4:	9200      	str	r2, [sp, #0]
100009d6:	4803      	ldr	r0, [pc, #12]	; (100009e4 <i2c_module_send+0x1c>)
100009d8:	0022      	movs	r2, r4
100009da:	f007 f859 	bl	10007a90 <i2c_write_blocking>
100009de:	b002      	add	sp, #8
100009e0:	bd10      	pop	{r4, pc}
100009e2:	46c0      	nop			; (mov r8, r8)
100009e4:	20000470 	.word	0x20000470

100009e8 <i2c_module_read>:
100009e8:	2300      	movs	r3, #0
100009ea:	b500      	push	{lr}
100009ec:	b083      	sub	sp, #12
100009ee:	000a      	movs	r2, r1
100009f0:	9300      	str	r3, [sp, #0]
100009f2:	b2c1      	uxtb	r1, r0
100009f4:	3306      	adds	r3, #6
100009f6:	4802      	ldr	r0, [pc, #8]	; (10000a00 <i2c_module_read+0x18>)
100009f8:	f007 f8b2 	bl	10007b60 <i2c_read_blocking>
100009fc:	b003      	add	sp, #12
100009fe:	bd00      	pop	{pc}
10000a00:	20000470 	.word	0x20000470

10000a04 <aht20_initialize>:
10000a04:	b500      	push	{lr}
10000a06:	b083      	sub	sp, #12
10000a08:	4669      	mov	r1, sp
10000a0a:	4b07      	ldr	r3, [pc, #28]	; (10000a28 <aht20_initialize+0x24>)
10000a0c:	2038      	movs	r0, #56	; 0x38
10000a0e:	881a      	ldrh	r2, [r3, #0]
10000a10:	808a      	strh	r2, [r1, #4]
10000a12:	789b      	ldrb	r3, [r3, #2]
10000a14:	2203      	movs	r2, #3
10000a16:	718b      	strb	r3, [r1, #6]
10000a18:	a901      	add	r1, sp, #4
10000a1a:	f7ff ffd5 	bl	100009c8 <i2c_module_send>
10000a1e:	2201      	movs	r2, #1
10000a20:	4b02      	ldr	r3, [pc, #8]	; (10000a2c <aht20_initialize+0x28>)
10000a22:	701a      	strb	r2, [r3, #0]
10000a24:	b003      	add	sp, #12
10000a26:	bd00      	pop	{pc}
10000a28:	1000b4ac 	.word	0x1000b4ac
10000a2c:	20001c4c 	.word	0x20001c4c

10000a30 <aht20_start_measurement>:
10000a30:	b500      	push	{lr}
10000a32:	4b09      	ldr	r3, [pc, #36]	; (10000a58 <aht20_start_measurement+0x28>)
10000a34:	b083      	sub	sp, #12
10000a36:	781b      	ldrb	r3, [r3, #0]
10000a38:	2b00      	cmp	r3, #0
10000a3a:	d00a      	beq.n	10000a52 <aht20_start_measurement+0x22>
10000a3c:	4669      	mov	r1, sp
10000a3e:	4b07      	ldr	r3, [pc, #28]	; (10000a5c <aht20_start_measurement+0x2c>)
10000a40:	2038      	movs	r0, #56	; 0x38
10000a42:	881a      	ldrh	r2, [r3, #0]
10000a44:	808a      	strh	r2, [r1, #4]
10000a46:	789b      	ldrb	r3, [r3, #2]
10000a48:	2203      	movs	r2, #3
10000a4a:	718b      	strb	r3, [r1, #6]
10000a4c:	a901      	add	r1, sp, #4
10000a4e:	f7ff ffbb 	bl	100009c8 <i2c_module_send>
10000a52:	b003      	add	sp, #12
10000a54:	bd00      	pop	{pc}
10000a56:	46c0      	nop			; (mov r8, r8)
10000a58:	20001c4c 	.word	0x20001c4c
10000a5c:	1000b4b0 	.word	0x1000b4b0

10000a60 <aht20_read_measurement>:
10000a60:	b510      	push	{r4, lr}
10000a62:	4b2b      	ldr	r3, [pc, #172]	; (10000b10 <aht20_read_measurement+0xb0>)
10000a64:	b082      	sub	sp, #8
10000a66:	781b      	ldrb	r3, [r3, #0]
10000a68:	2b00      	cmp	r3, #0
10000a6a:	d101      	bne.n	10000a70 <aht20_read_measurement+0x10>
10000a6c:	b002      	add	sp, #8
10000a6e:	bd10      	pop	{r4, pc}
10000a70:	4669      	mov	r1, sp
10000a72:	2206      	movs	r2, #6
10000a74:	2038      	movs	r0, #56	; 0x38
10000a76:	f7ff ffb7 	bl	100009e8 <i2c_module_read>
10000a7a:	466b      	mov	r3, sp
10000a7c:	466a      	mov	r2, sp
10000a7e:	785b      	ldrb	r3, [r3, #1]
10000a80:	7890      	ldrb	r0, [r2, #2]
10000a82:	78d4      	ldrb	r4, [r2, #3]
10000a84:	021b      	lsls	r3, r3, #8
10000a86:	18c0      	adds	r0, r0, r3
10000a88:	0100      	lsls	r0, r0, #4
10000a8a:	0923      	lsrs	r3, r4, #4
10000a8c:	1818      	adds	r0, r3, r0
10000a8e:	f003 ff95 	bl	100049bc <__wrap___aeabi_ui2f>
10000a92:	21d6      	movs	r1, #214	; 0xd6
10000a94:	0589      	lsls	r1, r1, #22
10000a96:	f003 ff8a 	bl	100049ae <__wrap___aeabi_fmul>
10000a9a:	491e      	ldr	r1, [pc, #120]	; (10000b14 <aht20_read_measurement+0xb4>)
10000a9c:	f003 ff87 	bl	100049ae <__wrap___aeabi_fmul>
10000aa0:	f003 ffb4 	bl	10004a0c <__wrap___aeabi_f2iz>
10000aa4:	4b1c      	ldr	r3, [pc, #112]	; (10000b18 <aht20_read_measurement+0xb8>)
10000aa6:	466a      	mov	r2, sp
10000aa8:	6018      	str	r0, [r3, #0]
10000aaa:	200f      	movs	r0, #15
10000aac:	4020      	ands	r0, r4
10000aae:	0203      	lsls	r3, r0, #8
10000ab0:	7910      	ldrb	r0, [r2, #4]
10000ab2:	18c0      	adds	r0, r0, r3
10000ab4:	7953      	ldrb	r3, [r2, #5]
10000ab6:	0200      	lsls	r0, r0, #8
10000ab8:	1818      	adds	r0, r3, r0
10000aba:	f003 ff7f 	bl	100049bc <__wrap___aeabi_ui2f>
10000abe:	f003 ffdd 	bl	10004a7c <__wrap___aeabi_f2d>
10000ac2:	2200      	movs	r2, #0
10000ac4:	4b15      	ldr	r3, [pc, #84]	; (10000b1c <aht20_read_measurement+0xbc>)
10000ac6:	f003 fb4e 	bl	10004166 <__wrap___aeabi_dmul>
10000aca:	2200      	movs	r2, #0
10000acc:	4b14      	ldr	r3, [pc, #80]	; (10000b20 <aht20_read_measurement+0xc0>)
10000ace:	f003 fb4a 	bl	10004166 <__wrap___aeabi_dmul>
10000ad2:	2200      	movs	r2, #0
10000ad4:	4b13      	ldr	r3, [pc, #76]	; (10000b24 <aht20_read_measurement+0xc4>)
10000ad6:	f003 fb16 	bl	10004106 <__wrap___aeabi_dsub>
10000ada:	f003 fbfd 	bl	100042d8 <__wrap___aeabi_d2f>
10000ade:	4912      	ldr	r1, [pc, #72]	; (10000b28 <aht20_read_measurement+0xc8>)
10000ae0:	f003 ff65 	bl	100049ae <__wrap___aeabi_fmul>
10000ae4:	4911      	ldr	r1, [pc, #68]	; (10000b2c <aht20_read_measurement+0xcc>)
10000ae6:	f003 ff4e 	bl	10004986 <__wrap___aeabi_fdiv>
10000aea:	2184      	movs	r1, #132	; 0x84
10000aec:	05c9      	lsls	r1, r1, #23
10000aee:	f003 ff47 	bl	10004980 <__wrap___aeabi_fadd>
10000af2:	490f      	ldr	r1, [pc, #60]	; (10000b30 <aht20_read_measurement+0xd0>)
10000af4:	f003 ff5b 	bl	100049ae <__wrap___aeabi_fmul>
10000af8:	f003 ff88 	bl	10004a0c <__wrap___aeabi_f2iz>
10000afc:	0002      	movs	r2, r0
10000afe:	4b0d      	ldr	r3, [pc, #52]	; (10000b34 <aht20_read_measurement+0xd4>)
10000b00:	3a2e      	subs	r2, #46	; 0x2e
10000b02:	3aff      	subs	r2, #255	; 0xff
10000b04:	429a      	cmp	r2, r3
10000b06:	d8b1      	bhi.n	10000a6c <aht20_read_measurement+0xc>
10000b08:	4b0b      	ldr	r3, [pc, #44]	; (10000b38 <aht20_read_measurement+0xd8>)
10000b0a:	6018      	str	r0, [r3, #0]
10000b0c:	e7ae      	b.n	10000a6c <aht20_read_measurement+0xc>
10000b0e:	46c0      	nop			; (mov r8, r8)
10000b10:	20001c4c 	.word	0x20001c4c
10000b14:	42c80000 	.word	0x42c80000
10000b18:	200017d8 	.word	0x200017d8
10000b1c:	3eb00000 	.word	0x3eb00000
10000b20:	40690000 	.word	0x40690000
10000b24:	40490000 	.word	0x40490000
10000b28:	41100000 	.word	0x41100000
10000b2c:	40a00000 	.word	0x40a00000
10000b30:	41200000 	.word	0x41200000
10000b34:	0000031e 	.word	0x0000031e
10000b38:	20001c28 	.word	0x20001c28

10000b3c <aht20_get_temp>:
10000b3c:	4b01      	ldr	r3, [pc, #4]	; (10000b44 <aht20_get_temp+0x8>)
10000b3e:	6818      	ldr	r0, [r3, #0]
10000b40:	4770      	bx	lr
10000b42:	46c0      	nop			; (mov r8, r8)
10000b44:	20001c28 	.word	0x20001c28

10000b48 <aht20_get_humidity>:
10000b48:	4b01      	ldr	r3, [pc, #4]	; (10000b50 <aht20_get_humidity+0x8>)
10000b4a:	6818      	ldr	r0, [r3, #0]
10000b4c:	4770      	bx	lr
10000b4e:	46c0      	nop			; (mov r8, r8)
10000b50:	200017d8 	.word	0x200017d8

10000b54 <gpio_set_function>:
10000b54:	4a09      	ldr	r2, [pc, #36]	; (10000b7c <gpio_set_function+0x28>)
10000b56:	0083      	lsls	r3, r0, #2
10000b58:	4694      	mov	ip, r2
10000b5a:	2240      	movs	r2, #64	; 0x40
10000b5c:	4463      	add	r3, ip
10000b5e:	b510      	push	{r4, lr}
10000b60:	681c      	ldr	r4, [r3, #0]
10000b62:	00c0      	lsls	r0, r0, #3
10000b64:	4062      	eors	r2, r4
10000b66:	24c0      	movs	r4, #192	; 0xc0
10000b68:	4014      	ands	r4, r2
10000b6a:	2280      	movs	r2, #128	; 0x80
10000b6c:	0152      	lsls	r2, r2, #5
10000b6e:	4313      	orrs	r3, r2
10000b70:	601c      	str	r4, [r3, #0]
10000b72:	4b03      	ldr	r3, [pc, #12]	; (10000b80 <gpio_set_function+0x2c>)
10000b74:	469c      	mov	ip, r3
10000b76:	4460      	add	r0, ip
10000b78:	6041      	str	r1, [r0, #4]
10000b7a:	bd10      	pop	{r4, pc}
10000b7c:	4001c004 	.word	0x4001c004
10000b80:	40014000 	.word	0x40014000

10000b84 <gpio_set_pulls>:
10000b84:	4b0a      	ldr	r3, [pc, #40]	; (10000bb0 <gpio_set_pulls+0x2c>)
10000b86:	0080      	lsls	r0, r0, #2
10000b88:	469c      	mov	ip, r3
10000b8a:	2304      	movs	r3, #4
10000b8c:	4460      	add	r0, ip
10000b8e:	2900      	cmp	r1, #0
10000b90:	d001      	beq.n	10000b96 <gpio_set_pulls+0x12>
10000b92:	230c      	movs	r3, #12
10000b94:	2108      	movs	r1, #8
10000b96:	2a00      	cmp	r2, #0
10000b98:	d100      	bne.n	10000b9c <gpio_set_pulls+0x18>
10000b9a:	000b      	movs	r3, r1
10000b9c:	6802      	ldr	r2, [r0, #0]
10000b9e:	4053      	eors	r3, r2
10000ba0:	220c      	movs	r2, #12
10000ba2:	401a      	ands	r2, r3
10000ba4:	2380      	movs	r3, #128	; 0x80
10000ba6:	015b      	lsls	r3, r3, #5
10000ba8:	4318      	orrs	r0, r3
10000baa:	6002      	str	r2, [r0, #0]
10000bac:	4770      	bx	lr
10000bae:	46c0      	nop			; (mov r8, r8)
10000bb0:	4001c004 	.word	0x4001c004

10000bb4 <gpio_init>:
10000bb4:	2301      	movs	r3, #1
10000bb6:	22d0      	movs	r2, #208	; 0xd0
10000bb8:	4083      	lsls	r3, r0
10000bba:	0612      	lsls	r2, r2, #24
10000bbc:	6293      	str	r3, [r2, #40]	; 0x28
10000bbe:	6193      	str	r3, [r2, #24]
10000bc0:	4a09      	ldr	r2, [pc, #36]	; (10000be8 <gpio_init+0x34>)
10000bc2:	0083      	lsls	r3, r0, #2
10000bc4:	4694      	mov	ip, r2
10000bc6:	2240      	movs	r2, #64	; 0x40
10000bc8:	4463      	add	r3, ip
10000bca:	6819      	ldr	r1, [r3, #0]
10000bcc:	00c0      	lsls	r0, r0, #3
10000bce:	404a      	eors	r2, r1
10000bd0:	21c0      	movs	r1, #192	; 0xc0
10000bd2:	4011      	ands	r1, r2
10000bd4:	2280      	movs	r2, #128	; 0x80
10000bd6:	0152      	lsls	r2, r2, #5
10000bd8:	4313      	orrs	r3, r2
10000bda:	6019      	str	r1, [r3, #0]
10000bdc:	4b03      	ldr	r3, [pc, #12]	; (10000bec <gpio_init+0x38>)
10000bde:	469c      	mov	ip, r3
10000be0:	2305      	movs	r3, #5
10000be2:	4460      	add	r0, ip
10000be4:	6043      	str	r3, [r0, #4]
10000be6:	4770      	bx	lr
10000be8:	4001c004 	.word	0x4001c004
10000bec:	40014000 	.word	0x40014000

10000bf0 <hw_claim_or_assert>:
10000bf0:	b570      	push	{r4, r5, r6, lr}
10000bf2:	f3ef 8c10 	mrs	ip, PRIMASK
10000bf6:	b672      	cpsid	i
10000bf8:	4d0d      	ldr	r5, [pc, #52]	; (10000c30 <hw_claim_or_assert+0x40>)
10000bfa:	682b      	ldr	r3, [r5, #0]
10000bfc:	2b00      	cmp	r3, #0
10000bfe:	d0fc      	beq.n	10000bfa <hw_claim_or_assert+0xa>
10000c00:	f3bf 8f5f 	dmb	sy
10000c04:	2407      	movs	r4, #7
10000c06:	08cb      	lsrs	r3, r1, #3
10000c08:	18c6      	adds	r6, r0, r3
10000c0a:	5cc0      	ldrb	r0, [r0, r3]
10000c0c:	2301      	movs	r3, #1
10000c0e:	400c      	ands	r4, r1
10000c10:	40a3      	lsls	r3, r4
10000c12:	001c      	movs	r4, r3
10000c14:	4004      	ands	r4, r0
10000c16:	4203      	tst	r3, r0
10000c18:	d107      	bne.n	10000c2a <hw_claim_or_assert+0x3a>
10000c1a:	4303      	orrs	r3, r0
10000c1c:	7033      	strb	r3, [r6, #0]
10000c1e:	f3bf 8f5f 	dmb	sy
10000c22:	602c      	str	r4, [r5, #0]
10000c24:	f38c 8810 	msr	PRIMASK, ip
10000c28:	bd70      	pop	{r4, r5, r6, pc}
10000c2a:	0010      	movs	r0, r2
10000c2c:	f001 faa2 	bl	10002174 <panic>
10000c30:	d000012c 	.word	0xd000012c

10000c34 <hw_claim_unused_from_range>:
10000c34:	b5f8      	push	{r3, r4, r5, r6, r7, lr}
10000c36:	4647      	mov	r7, r8
10000c38:	46ce      	mov	lr, r9
10000c3a:	4688      	mov	r8, r1
10000c3c:	b580      	push	{r7, lr}
10000c3e:	f3ef 8c10 	mrs	ip, PRIMASK
10000c42:	b672      	cpsid	i
10000c44:	4d21      	ldr	r5, [pc, #132]	; (10000ccc <hw_claim_unused_from_range+0x98>)
10000c46:	682c      	ldr	r4, [r5, #0]
10000c48:	2c00      	cmp	r4, #0
10000c4a:	d0fc      	beq.n	10000c46 <hw_claim_unused_from_range+0x12>
10000c4c:	f3bf 8f5f 	dmb	sy
10000c50:	429a      	cmp	r2, r3
10000c52:	d82c      	bhi.n	10000cae <hw_claim_unused_from_range+0x7a>
10000c54:	08d4      	lsrs	r4, r2, #3
10000c56:	2707      	movs	r7, #7
10000c58:	5d05      	ldrb	r5, [r0, r4]
10000c5a:	1906      	adds	r6, r0, r4
10000c5c:	2401      	movs	r4, #1
10000c5e:	4017      	ands	r7, r2
10000c60:	40bc      	lsls	r4, r7
10000c62:	422c      	tst	r4, r5
10000c64:	d01f      	beq.n	10000ca6 <hw_claim_unused_from_range+0x72>
10000c66:	2107      	movs	r1, #7
10000c68:	2701      	movs	r7, #1
10000c6a:	4689      	mov	r9, r1
10000c6c:	e009      	b.n	10000c82 <hw_claim_unused_from_range+0x4e>
10000c6e:	08d4      	lsrs	r4, r2, #3
10000c70:	5d05      	ldrb	r5, [r0, r4]
10000c72:	1906      	adds	r6, r0, r4
10000c74:	464c      	mov	r4, r9
10000c76:	0039      	movs	r1, r7
10000c78:	4014      	ands	r4, r2
10000c7a:	40a1      	lsls	r1, r4
10000c7c:	000c      	movs	r4, r1
10000c7e:	4229      	tst	r1, r5
10000c80:	d011      	beq.n	10000ca6 <hw_claim_unused_from_range+0x72>
10000c82:	3201      	adds	r2, #1
10000c84:	4293      	cmp	r3, r2
10000c86:	d2f2      	bcs.n	10000c6e <hw_claim_unused_from_range+0x3a>
10000c88:	2001      	movs	r0, #1
10000c8a:	4240      	negs	r0, r0
10000c8c:	f3bf 8f5f 	dmb	sy
10000c90:	2200      	movs	r2, #0
10000c92:	4b0e      	ldr	r3, [pc, #56]	; (10000ccc <hw_claim_unused_from_range+0x98>)
10000c94:	601a      	str	r2, [r3, #0]
10000c96:	f38c 8810 	msr	PRIMASK, ip
10000c9a:	2800      	cmp	r0, #0
10000c9c:	db0f      	blt.n	10000cbe <hw_claim_unused_from_range+0x8a>
10000c9e:	bcc0      	pop	{r6, r7}
10000ca0:	46b9      	mov	r9, r7
10000ca2:	46b0      	mov	r8, r6
10000ca4:	bdf8      	pop	{r3, r4, r5, r6, r7, pc}
10000ca6:	432c      	orrs	r4, r5
10000ca8:	0010      	movs	r0, r2
10000caa:	7034      	strb	r4, [r6, #0]
10000cac:	e7ee      	b.n	10000c8c <hw_claim_unused_from_range+0x58>
10000cae:	f3bf 8f5f 	dmb	sy
10000cb2:	2300      	movs	r3, #0
10000cb4:	602b      	str	r3, [r5, #0]
10000cb6:	f38c 8810 	msr	PRIMASK, ip
10000cba:	2001      	movs	r0, #1
10000cbc:	4240      	negs	r0, r0
10000cbe:	4643      	mov	r3, r8
10000cc0:	2b00      	cmp	r3, #0
10000cc2:	d0ec      	beq.n	10000c9e <hw_claim_unused_from_range+0x6a>
10000cc4:	9808      	ldr	r0, [sp, #32]
10000cc6:	f001 fa55 	bl	10002174 <panic>
10000cca:	46c0      	nop			; (mov r8, r8)
10000ccc:	d000012c 	.word	0xd000012c

10000cd0 <running_on_fpga>:
10000cd0:	4b02      	ldr	r3, [pc, #8]	; (10000cdc <running_on_fpga+0xc>)
10000cd2:	6818      	ldr	r0, [r3, #0]
10000cd4:	0780      	lsls	r0, r0, #30
10000cd6:	0fc0      	lsrs	r0, r0, #31
10000cd8:	4770      	bx	lr
10000cda:	46c0      	nop			; (mov r8, r8)
10000cdc:	4006c000 	.word	0x4006c000

10000ce0 <spin_locks_reset>:
10000ce0:	2100      	movs	r1, #0
10000ce2:	4b04      	ldr	r3, [pc, #16]	; (10000cf4 <spin_locks_reset+0x14>)
10000ce4:	4a04      	ldr	r2, [pc, #16]	; (10000cf8 <spin_locks_reset+0x18>)
10000ce6:	f3bf 8f5f 	dmb	sy
10000cea:	c302      	stmia	r3!, {r1}
10000cec:	4293      	cmp	r3, r2
10000cee:	d1fa      	bne.n	10000ce6 <spin_locks_reset+0x6>
10000cf0:	4770      	bx	lr
10000cf2:	46c0      	nop			; (mov r8, r8)
10000cf4:	d0000100 	.word	0xd0000100
10000cf8:	d0000180 	.word	0xd0000180

10000cfc <next_striped_spin_lock_num>:
10000cfc:	4a04      	ldr	r2, [pc, #16]	; (10000d10 <next_striped_spin_lock_num+0x14>)
10000cfe:	7810      	ldrb	r0, [r2, #0]
10000d00:	1c43      	adds	r3, r0, #1
10000d02:	b2db      	uxtb	r3, r3
10000d04:	2b17      	cmp	r3, #23
10000d06:	d900      	bls.n	10000d0a <next_striped_spin_lock_num+0xe>
10000d08:	2310      	movs	r3, #16
10000d0a:	7013      	strb	r3, [r2, #0]
10000d0c:	4770      	bx	lr
10000d0e:	46c0      	nop			; (mov r8, r8)
10000d10:	20000393 	.word	0x20000393

10000d14 <spin_lock_claim_unused>:
10000d14:	b500      	push	{lr}
10000d16:	4b05      	ldr	r3, [pc, #20]	; (10000d2c <spin_lock_claim_unused+0x18>)
10000d18:	b083      	sub	sp, #12
10000d1a:	0001      	movs	r1, r0
10000d1c:	9300      	str	r3, [sp, #0]
10000d1e:	2218      	movs	r2, #24
10000d20:	231f      	movs	r3, #31
10000d22:	4803      	ldr	r0, [pc, #12]	; (10000d30 <spin_lock_claim_unused+0x1c>)
10000d24:	f7ff ff86 	bl	10000c34 <hw_claim_unused_from_range>
10000d28:	b003      	add	sp, #12
10000d2a:	bd00      	pop	{pc}
10000d2c:	1000b4b4 	.word	0x1000b4b4
10000d30:	20001730 	.word	0x20001730

10000d34 <irq_set_enabled>:
10000d34:	2301      	movs	r3, #1
10000d36:	4083      	lsls	r3, r0
10000d38:	2900      	cmp	r1, #0
10000d3a:	d004      	beq.n	10000d46 <irq_set_enabled+0x12>
10000d3c:	4a03      	ldr	r2, [pc, #12]	; (10000d4c <irq_set_enabled+0x18>)
10000d3e:	6013      	str	r3, [r2, #0]
10000d40:	4a03      	ldr	r2, [pc, #12]	; (10000d50 <irq_set_enabled+0x1c>)
10000d42:	6013      	str	r3, [r2, #0]
10000d44:	4770      	bx	lr
10000d46:	4a03      	ldr	r2, [pc, #12]	; (10000d54 <irq_set_enabled+0x20>)
10000d48:	6013      	str	r3, [r2, #0]
10000d4a:	e7fb      	b.n	10000d44 <irq_set_enabled+0x10>
10000d4c:	e000e280 	.word	0xe000e280
10000d50:	e000e100 	.word	0xe000e100
10000d54:	e000e180 	.word	0xe000e180

10000d58 <irq_set_pending>:
10000d58:	2301      	movs	r3, #1
10000d5a:	4083      	lsls	r3, r0
10000d5c:	4a01      	ldr	r2, [pc, #4]	; (10000d64 <irq_set_pending+0xc>)
10000d5e:	6013      	str	r3, [r2, #0]
10000d60:	4770      	bx	lr
10000d62:	46c0      	nop			; (mov r8, r8)
10000d64:	e000e200 	.word	0xe000e200

10000d68 <irq_has_shared_handler>:
10000d68:	4b08      	ldr	r3, [pc, #32]	; (10000d8c <irq_has_shared_handler+0x24>)
10000d6a:	3010      	adds	r0, #16
10000d6c:	689b      	ldr	r3, [r3, #8]
10000d6e:	0080      	lsls	r0, r0, #2
10000d70:	58c3      	ldr	r3, [r0, r3]
10000d72:	2b00      	cmp	r3, #0
10000d74:	d007      	beq.n	10000d86 <irq_has_shared_handler+0x1e>
10000d76:	4a06      	ldr	r2, [pc, #24]	; (10000d90 <irq_has_shared_handler+0x28>)
10000d78:	2000      	movs	r0, #0
10000d7a:	1a9b      	subs	r3, r3, r2
10000d7c:	222f      	movs	r2, #47	; 0x2f
10000d7e:	429a      	cmp	r2, r3
10000d80:	4140      	adcs	r0, r0
10000d82:	b2c0      	uxtb	r0, r0
10000d84:	4770      	bx	lr
10000d86:	2000      	movs	r0, #0
10000d88:	e7fc      	b.n	10000d84 <irq_has_shared_handler+0x1c>
10000d8a:	46c0      	nop			; (mov r8, r8)
10000d8c:	e000ed00 	.word	0xe000ed00
10000d90:	20000394 	.word	0x20000394

10000d94 <irq_get_vtable_handler>:
10000d94:	4b02      	ldr	r3, [pc, #8]	; (10000da0 <irq_get_vtable_handler+0xc>)
10000d96:	3010      	adds	r0, #16
10000d98:	689b      	ldr	r3, [r3, #8]
10000d9a:	0080      	lsls	r0, r0, #2
10000d9c:	58c0      	ldr	r0, [r0, r3]
10000d9e:	4770      	bx	lr
10000da0:	e000ed00 	.word	0xe000ed00

10000da4 <irq_set_exclusive_handler>:
10000da4:	b570      	push	{r4, r5, r6, lr}
10000da6:	000d      	movs	r5, r1
10000da8:	f3ef 8610 	mrs	r6, PRIMASK
10000dac:	b672      	cpsid	i
10000dae:	4a0f      	ldr	r2, [pc, #60]	; (10000dec <irq_set_exclusive_handler+0x48>)
10000db0:	6813      	ldr	r3, [r2, #0]
10000db2:	2b00      	cmp	r3, #0
10000db4:	d0fc      	beq.n	10000db0 <irq_set_exclusive_handler+0xc>
10000db6:	f3bf 8f5f 	dmb	sy
10000dba:	4b0d      	ldr	r3, [pc, #52]	; (10000df0 <irq_set_exclusive_handler+0x4c>)
10000dbc:	3010      	adds	r0, #16
10000dbe:	689b      	ldr	r3, [r3, #8]
10000dc0:	0084      	lsls	r4, r0, #2
10000dc2:	591b      	ldr	r3, [r3, r4]
10000dc4:	4a0b      	ldr	r2, [pc, #44]	; (10000df4 <irq_set_exclusive_handler+0x50>)
10000dc6:	4293      	cmp	r3, r2
10000dc8:	d003      	beq.n	10000dd2 <irq_set_exclusive_handler+0x2e>
10000dca:	429d      	cmp	r5, r3
10000dcc:	d001      	beq.n	10000dd2 <irq_set_exclusive_handler+0x2e>
10000dce:	f001 f9e9 	bl	100021a4 <hard_assertion_failure>
10000dd2:	4b07      	ldr	r3, [pc, #28]	; (10000df0 <irq_set_exclusive_handler+0x4c>)
10000dd4:	689b      	ldr	r3, [r3, #8]
10000dd6:	511d      	str	r5, [r3, r4]
10000dd8:	f3bf 8f5f 	dmb	sy
10000ddc:	f3bf 8f5f 	dmb	sy
10000de0:	2200      	movs	r2, #0
10000de2:	4b02      	ldr	r3, [pc, #8]	; (10000dec <irq_set_exclusive_handler+0x48>)
10000de4:	601a      	str	r2, [r3, #0]
10000de6:	f386 8810 	msr	PRIMASK, r6
10000dea:	bd70      	pop	{r4, r5, r6, pc}
10000dec:	d0000124 	.word	0xd0000124
10000df0:	e000ed00 	.word	0xe000ed00
10000df4:	100001cd 	.word	0x100001cd

10000df8 <irq_add_shared_handler>:
10000df8:	b5f0      	push	{r4, r5, r6, r7, lr}
10000dfa:	4657      	mov	r7, sl
10000dfc:	464e      	mov	r6, r9
10000dfe:	46de      	mov	lr, fp
10000e00:	4645      	mov	r5, r8
10000e02:	b5e0      	push	{r5, r6, r7, lr}
10000e04:	b085      	sub	sp, #20
10000e06:	0006      	movs	r6, r0
10000e08:	9102      	str	r1, [sp, #8]
10000e0a:	0017      	movs	r7, r2
10000e0c:	f3ef 8b10 	mrs	fp, PRIMASK
10000e10:	b672      	cpsid	i
10000e12:	4a67      	ldr	r2, [pc, #412]	; (10000fb0 <irq_add_shared_handler+0x1b8>)
10000e14:	6813      	ldr	r3, [r2, #0]
10000e16:	2b00      	cmp	r3, #0
10000e18:	d0fc      	beq.n	10000e14 <irq_add_shared_handler+0x1c>
10000e1a:	f3bf 8f5f 	dmb	sy
10000e1e:	2500      	movs	r5, #0
10000e20:	4b64      	ldr	r3, [pc, #400]	; (10000fb4 <irq_add_shared_handler+0x1bc>)
10000e22:	575d      	ldrsb	r5, [r3, r5]
10000e24:	469a      	mov	sl, r3
10000e26:	2d00      	cmp	r5, #0
10000e28:	da00      	bge.n	10000e2c <irq_add_shared_handler+0x34>
10000e2a:	e0a5      	b.n	10000f78 <irq_add_shared_handler+0x180>
10000e2c:	006b      	lsls	r3, r5, #1
10000e2e:	4c62      	ldr	r4, [pc, #392]	; (10000fb8 <irq_add_shared_handler+0x1c0>)
10000e30:	9303      	str	r3, [sp, #12]
10000e32:	195b      	adds	r3, r3, r5
10000e34:	009b      	lsls	r3, r3, #2
10000e36:	4698      	mov	r8, r3
10000e38:	46a1      	mov	r9, r4
10000e3a:	44c1      	add	r9, r8
10000e3c:	464b      	mov	r3, r9
10000e3e:	4652      	mov	r2, sl
10000e40:	799b      	ldrb	r3, [r3, #6]
10000e42:	3610      	adds	r6, #16
10000e44:	7013      	strb	r3, [r2, #0]
10000e46:	4b5d      	ldr	r3, [pc, #372]	; (10000fbc <irq_add_shared_handler+0x1c4>)
10000e48:	00b2      	lsls	r2, r6, #2
10000e4a:	689b      	ldr	r3, [r3, #8]
10000e4c:	9201      	str	r2, [sp, #4]
10000e4e:	5899      	ldr	r1, [r3, r2]
10000e50:	1b0b      	subs	r3, r1, r4
10000e52:	2b2f      	cmp	r3, #47	; 0x2f
10000e54:	d934      	bls.n	10000ec0 <irq_add_shared_handler+0xc8>
10000e56:	4b5a      	ldr	r3, [pc, #360]	; (10000fc0 <irq_add_shared_handler+0x1c8>)
10000e58:	4299      	cmp	r1, r3
10000e5a:	d000      	beq.n	10000e5e <irq_add_shared_handler+0x66>
10000e5c:	e0a5      	b.n	10000faa <irq_add_shared_handler+0x1b2>
10000e5e:	9b03      	ldr	r3, [sp, #12]
10000e60:	4a58      	ldr	r2, [pc, #352]	; (10000fc4 <irq_add_shared_handler+0x1cc>)
10000e62:	469c      	mov	ip, r3
10000e64:	4b58      	ldr	r3, [pc, #352]	; (10000fc8 <irq_add_shared_handler+0x1d0>)
10000e66:	4465      	add	r5, ip
10000e68:	00ad      	lsls	r5, r5, #2
10000e6a:	5363      	strh	r3, [r4, r5]
10000e6c:	4643      	mov	r3, r8
10000e6e:	3302      	adds	r3, #2
10000e70:	1965      	adds	r5, r4, r5
10000e72:	18e4      	adds	r4, r4, r3
10000e74:	4b55      	ldr	r3, [pc, #340]	; (10000fcc <irq_add_shared_handler+0x1d4>)
10000e76:	2101      	movs	r1, #1
10000e78:	3b04      	subs	r3, #4
10000e7a:	1b1b      	subs	r3, r3, r4
10000e7c:	051b      	lsls	r3, r3, #20
10000e7e:	0d5b      	lsrs	r3, r3, #21
10000e80:	4313      	orrs	r3, r2
10000e82:	806b      	strh	r3, [r5, #2]
10000e84:	4b52      	ldr	r3, [pc, #328]	; (10000fd0 <irq_add_shared_handler+0x1d8>)
10000e86:	71ef      	strb	r7, [r5, #7]
10000e88:	80ab      	strh	r3, [r5, #4]
10000e8a:	23ff      	movs	r3, #255	; 0xff
10000e8c:	71ab      	strb	r3, [r5, #6]
10000e8e:	9b02      	ldr	r3, [sp, #8]
10000e90:	60ab      	str	r3, [r5, #8]
10000e92:	464b      	mov	r3, r9
10000e94:	430b      	orrs	r3, r1
10000e96:	0019      	movs	r1, r3
10000e98:	4b48      	ldr	r3, [pc, #288]	; (10000fbc <irq_add_shared_handler+0x1c4>)
10000e9a:	9a01      	ldr	r2, [sp, #4]
10000e9c:	689b      	ldr	r3, [r3, #8]
10000e9e:	5099      	str	r1, [r3, r2]
10000ea0:	f3bf 8f5f 	dmb	sy
10000ea4:	f3bf 8f5f 	dmb	sy
10000ea8:	2200      	movs	r2, #0
10000eaa:	4b41      	ldr	r3, [pc, #260]	; (10000fb0 <irq_add_shared_handler+0x1b8>)
10000eac:	601a      	str	r2, [r3, #0]
10000eae:	f38b 8810 	msr	PRIMASK, fp
10000eb2:	b005      	add	sp, #20
10000eb4:	bcf0      	pop	{r4, r5, r6, r7}
10000eb6:	46bb      	mov	fp, r7
10000eb8:	46b2      	mov	sl, r6
10000eba:	46a9      	mov	r9, r5
10000ebc:	46a0      	mov	r8, r4
10000ebe:	bdf0      	pop	{r4, r5, r6, r7, pc}
10000ec0:	2001      	movs	r0, #1
10000ec2:	000a      	movs	r2, r1
10000ec4:	4382      	bics	r2, r0
10000ec6:	79d3      	ldrb	r3, [r2, #7]
10000ec8:	42bb      	cmp	r3, r7
10000eca:	d82f      	bhi.n	10000f2c <irq_add_shared_handler+0x134>
10000ecc:	4645      	mov	r5, r8
10000ece:	464e      	mov	r6, r9
10000ed0:	0013      	movs	r3, r2
10000ed2:	4940      	ldr	r1, [pc, #256]	; (10000fd4 <irq_add_shared_handler+0x1dc>)
10000ed4:	1b1b      	subs	r3, r3, r4
10000ed6:	415b      	adcs	r3, r3
10000ed8:	4359      	muls	r1, r3
10000eda:	0d09      	lsrs	r1, r1, #20
10000edc:	4b3a      	ldr	r3, [pc, #232]	; (10000fc8 <irq_add_shared_handler+0x1d0>)
10000ede:	5363      	strh	r3, [r4, r5]
10000ee0:	4b3a      	ldr	r3, [pc, #232]	; (10000fcc <irq_add_shared_handler+0x1d4>)
10000ee2:	3502      	adds	r5, #2
10000ee4:	1965      	adds	r5, r4, r5
10000ee6:	3b04      	subs	r3, #4
10000ee8:	1b5b      	subs	r3, r3, r5
10000eea:	051b      	lsls	r3, r3, #20
10000eec:	4d35      	ldr	r5, [pc, #212]	; (10000fc4 <irq_add_shared_handler+0x1cc>)
10000eee:	0d5b      	lsrs	r3, r3, #21
10000ef0:	432b      	orrs	r3, r5
10000ef2:	8073      	strh	r3, [r6, #2]
10000ef4:	2604      	movs	r6, #4
10000ef6:	46b4      	mov	ip, r6
10000ef8:	44e0      	add	r8, ip
10000efa:	4444      	add	r4, r8
10000efc:	1f13      	subs	r3, r2, #4
10000efe:	1b1b      	subs	r3, r3, r4
10000f00:	464c      	mov	r4, r9
10000f02:	71a1      	strb	r1, [r4, #6]
10000f04:	9902      	ldr	r1, [sp, #8]
10000f06:	051b      	lsls	r3, r3, #20
10000f08:	60a1      	str	r1, [r4, #8]
10000f0a:	4649      	mov	r1, r9
10000f0c:	0d5b      	lsrs	r3, r3, #21
10000f0e:	432b      	orrs	r3, r5
10000f10:	80a3      	strh	r3, [r4, #4]
10000f12:	4b31      	ldr	r3, [pc, #196]	; (10000fd8 <irq_add_shared_handler+0x1e0>)
10000f14:	71e7      	strb	r7, [r4, #7]
10000f16:	4301      	orrs	r1, r0
10000f18:	6013      	str	r3, [r2, #0]
10000f1a:	e7bd      	b.n	10000e98 <irq_add_shared_handler+0xa0>
10000f1c:	0058      	lsls	r0, r3, #1
10000f1e:	18c0      	adds	r0, r0, r3
10000f20:	0080      	lsls	r0, r0, #2
10000f22:	1820      	adds	r0, r4, r0
10000f24:	79c6      	ldrb	r6, [r0, #7]
10000f26:	42be      	cmp	r6, r7
10000f28:	d92c      	bls.n	10000f84 <irq_add_shared_handler+0x18c>
10000f2a:	0002      	movs	r2, r0
10000f2c:	2306      	movs	r3, #6
10000f2e:	56d3      	ldrsb	r3, [r2, r3]
10000f30:	2b00      	cmp	r3, #0
10000f32:	daf3      	bge.n	10000f1c <irq_add_shared_handler+0x124>
10000f34:	1d10      	adds	r0, r2, #4
10000f36:	4682      	mov	sl, r0
10000f38:	20bd      	movs	r0, #189	; 0xbd
10000f3a:	0200      	lsls	r0, r0, #8
10000f3c:	4680      	mov	r8, r0
10000f3e:	2604      	movs	r6, #4
10000f40:	4276      	negs	r6, r6
10000f42:	46b4      	mov	ip, r6
10000f44:	44e1      	add	r9, ip
10000f46:	4650      	mov	r0, sl
10000f48:	464e      	mov	r6, r9
10000f4a:	1a36      	subs	r6, r6, r0
10000f4c:	0530      	lsls	r0, r6, #20
10000f4e:	0d40      	lsrs	r0, r0, #21
10000f50:	4682      	mov	sl, r0
10000f52:	4656      	mov	r6, sl
10000f54:	481b      	ldr	r0, [pc, #108]	; (10000fc4 <irq_add_shared_handler+0x1cc>)
10000f56:	7195      	strb	r5, [r2, #6]
10000f58:	4306      	orrs	r6, r0
10000f5a:	8096      	strh	r6, [r2, #4]
10000f5c:	9a03      	ldr	r2, [sp, #12]
10000f5e:	4694      	mov	ip, r2
10000f60:	4465      	add	r5, ip
10000f62:	4a1d      	ldr	r2, [pc, #116]	; (10000fd8 <irq_add_shared_handler+0x1e0>)
10000f64:	00ad      	lsls	r5, r5, #2
10000f66:	1964      	adds	r4, r4, r5
10000f68:	6022      	str	r2, [r4, #0]
10000f6a:	4642      	mov	r2, r8
10000f6c:	71a3      	strb	r3, [r4, #6]
10000f6e:	9b02      	ldr	r3, [sp, #8]
10000f70:	80a2      	strh	r2, [r4, #4]
10000f72:	71e7      	strb	r7, [r4, #7]
10000f74:	60a3      	str	r3, [r4, #8]
10000f76:	e78f      	b.n	10000e98 <irq_add_shared_handler+0xa0>
10000f78:	f001 f914 	bl	100021a4 <hard_assertion_failure>
10000f7c:	2500      	movs	r5, #0
10000f7e:	4653      	mov	r3, sl
10000f80:	575d      	ldrsb	r5, [r3, r5]
10000f82:	e753      	b.n	10000e2c <irq_add_shared_handler+0x34>
10000f84:	1d10      	adds	r0, r2, #4
10000f86:	4682      	mov	sl, r0
10000f88:	8890      	ldrh	r0, [r2, #4]
10000f8a:	0540      	lsls	r0, r0, #21
10000f8c:	1500      	asrs	r0, r0, #20
10000f8e:	4684      	mov	ip, r0
10000f90:	4640      	mov	r0, r8
10000f92:	44d4      	add	ip, sl
10000f94:	4666      	mov	r6, ip
10000f96:	3004      	adds	r0, #4
10000f98:	1820      	adds	r0, r4, r0
10000f9a:	1a30      	subs	r0, r6, r0
10000f9c:	26e0      	movs	r6, #224	; 0xe0
10000f9e:	0500      	lsls	r0, r0, #20
10000fa0:	0d40      	lsrs	r0, r0, #21
10000fa2:	0236      	lsls	r6, r6, #8
10000fa4:	4330      	orrs	r0, r6
10000fa6:	4680      	mov	r8, r0
10000fa8:	e7c9      	b.n	10000f3e <irq_add_shared_handler+0x146>
10000faa:	f001 f8fb 	bl	100021a4 <hard_assertion_failure>
10000fae:	e756      	b.n	10000e5e <irq_add_shared_handler+0x66>
10000fb0:	d0000124 	.word	0xd0000124
10000fb4:	20001c4d 	.word	0x20001c4d
10000fb8:	20000394 	.word	0x20000394
10000fbc:	e000ed00 	.word	0xe000ed00
10000fc0:	100001cd 	.word	0x100001cd
10000fc4:	ffffe000 	.word	0xffffe000
10000fc8:	ffffa100 	.word	0xffffa100
10000fcc:	200003c4 	.word	0x200003c4
10000fd0:	ffffbd00 	.word	0xffffbd00
10000fd4:	0000aaaa 	.word	0x0000aaaa
10000fd8:	47804801 	.word	0x47804801

10000fdc <irq_remove_handler>:
10000fdc:	b5f0      	push	{r4, r5, r6, r7, lr}
10000fde:	46de      	mov	lr, fp
10000fe0:	4657      	mov	r7, sl
10000fe2:	464e      	mov	r6, r9
10000fe4:	4645      	mov	r5, r8
10000fe6:	b5e0      	push	{r5, r6, r7, lr}
10000fe8:	000c      	movs	r4, r1
10000fea:	b083      	sub	sp, #12
10000fec:	f3ef 8a10 	mrs	sl, PRIMASK
10000ff0:	b672      	cpsid	i
10000ff2:	4a5a      	ldr	r2, [pc, #360]	; (1000115c <irq_remove_handler+0x180>)
10000ff4:	6813      	ldr	r3, [r2, #0]
10000ff6:	2b00      	cmp	r3, #0
10000ff8:	d0fc      	beq.n	10000ff4 <irq_remove_handler+0x18>
10000ffa:	f3bf 8f5f 	dmb	sy
10000ffe:	2210      	movs	r2, #16
10001000:	4691      	mov	r9, r2
10001002:	4481      	add	r9, r0
10001004:	464a      	mov	r2, r9
10001006:	4b56      	ldr	r3, [pc, #344]	; (10001160 <irq_remove_handler+0x184>)
10001008:	0096      	lsls	r6, r2, #2
1000100a:	689b      	ldr	r3, [r3, #8]
1000100c:	599d      	ldr	r5, [r3, r6]
1000100e:	4b55      	ldr	r3, [pc, #340]	; (10001164 <irq_remove_handler+0x188>)
10001010:	4698      	mov	r8, r3
10001012:	429d      	cmp	r5, r3
10001014:	d005      	beq.n	10001022 <irq_remove_handler+0x46>
10001016:	42a5      	cmp	r5, r4
10001018:	d016      	beq.n	10001048 <irq_remove_handler+0x6c>
1000101a:	4f53      	ldr	r7, [pc, #332]	; (10001168 <irq_remove_handler+0x18c>)
1000101c:	1beb      	subs	r3, r5, r7
1000101e:	2b2f      	cmp	r3, #47	; 0x2f
10001020:	d914      	bls.n	1000104c <irq_remove_handler+0x70>
10001022:	4b4f      	ldr	r3, [pc, #316]	; (10001160 <irq_remove_handler+0x184>)
10001024:	689b      	ldr	r3, [r3, #8]
10001026:	519d      	str	r5, [r3, r6]
10001028:	f3bf 8f5f 	dmb	sy
1000102c:	f3bf 8f5f 	dmb	sy
10001030:	2200      	movs	r2, #0
10001032:	4b4a      	ldr	r3, [pc, #296]	; (1000115c <irq_remove_handler+0x180>)
10001034:	601a      	str	r2, [r3, #0]
10001036:	f38a 8810 	msr	PRIMASK, sl
1000103a:	b003      	add	sp, #12
1000103c:	bcf0      	pop	{r4, r5, r6, r7}
1000103e:	46bb      	mov	fp, r7
10001040:	46b2      	mov	sl, r6
10001042:	46a9      	mov	r9, r5
10001044:	46a0      	mov	r8, r4
10001046:	bdf0      	pop	{r4, r5, r6, r7, pc}
10001048:	001d      	movs	r5, r3
1000104a:	e7ea      	b.n	10001022 <irq_remove_handler+0x46>
1000104c:	2301      	movs	r3, #1
1000104e:	4083      	lsls	r3, r0
10001050:	469b      	mov	fp, r3
10001052:	465a      	mov	r2, fp
10001054:	4b45      	ldr	r3, [pc, #276]	; (1000116c <irq_remove_handler+0x190>)
10001056:	681b      	ldr	r3, [r3, #0]
10001058:	401a      	ands	r2, r3
1000105a:	9200      	str	r2, [sp, #0]
1000105c:	465a      	mov	r2, fp
1000105e:	4b44      	ldr	r3, [pc, #272]	; (10001170 <irq_remove_handler+0x194>)
10001060:	601a      	str	r2, [r3, #0]
10001062:	f3bf 8f5f 	dmb	sy
10001066:	f7ff f8fe 	bl	10000266 <__get_current_exception>
1000106a:	9001      	str	r0, [sp, #4]
1000106c:	2800      	cmp	r0, #0
1000106e:	d003      	beq.n	10001078 <irq_remove_handler+0x9c>
10001070:	4581      	cmp	r9, r0
10001072:	d001      	beq.n	10001078 <irq_remove_handler+0x9c>
10001074:	f001 f896 	bl	100021a4 <hard_assertion_failure>
10001078:	2301      	movs	r3, #1
1000107a:	002a      	movs	r2, r5
1000107c:	439a      	bics	r2, r3
1000107e:	6893      	ldr	r3, [r2, #8]
10001080:	429c      	cmp	r4, r3
10001082:	d108      	bne.n	10001096 <irq_remove_handler+0xba>
10001084:	e05f      	b.n	10001146 <irq_remove_handler+0x16a>
10001086:	004b      	lsls	r3, r1, #1
10001088:	185b      	adds	r3, r3, r1
1000108a:	009b      	lsls	r3, r3, #2
1000108c:	18fb      	adds	r3, r7, r3
1000108e:	6899      	ldr	r1, [r3, #8]
10001090:	42a1      	cmp	r1, r4
10001092:	d011      	beq.n	100010b8 <irq_remove_handler+0xdc>
10001094:	001a      	movs	r2, r3
10001096:	2106      	movs	r1, #6
10001098:	5651      	ldrsb	r1, [r2, r1]
1000109a:	2900      	cmp	r1, #0
1000109c:	daf3      	bge.n	10001086 <irq_remove_handler+0xaa>
1000109e:	9b00      	ldr	r3, [sp, #0]
100010a0:	2b00      	cmp	r3, #0
100010a2:	d005      	beq.n	100010b0 <irq_remove_handler+0xd4>
100010a4:	465a      	mov	r2, fp
100010a6:	4b33      	ldr	r3, [pc, #204]	; (10001174 <irq_remove_handler+0x198>)
100010a8:	601a      	str	r2, [r3, #0]
100010aa:	4b30      	ldr	r3, [pc, #192]	; (1000116c <irq_remove_handler+0x190>)
100010ac:	601a      	str	r2, [r3, #0]
100010ae:	e7b8      	b.n	10001022 <irq_remove_handler+0x46>
100010b0:	465a      	mov	r2, fp
100010b2:	4b2f      	ldr	r3, [pc, #188]	; (10001170 <irq_remove_handler+0x194>)
100010b4:	601a      	str	r2, [r3, #0]
100010b6:	e7b4      	b.n	10001022 <irq_remove_handler+0x46>
100010b8:	2106      	movs	r1, #6
100010ba:	5659      	ldrsb	r1, [r3, r1]
100010bc:	2900      	cmp	r1, #0
100010be:	db21      	blt.n	10001104 <irq_remove_handler+0x128>
100010c0:	004a      	lsls	r2, r1, #1
100010c2:	1850      	adds	r0, r2, r1
100010c4:	0080      	lsls	r0, r0, #2
100010c6:	183c      	adds	r4, r7, r0
100010c8:	4680      	mov	r8, r0
100010ca:	68a0      	ldr	r0, [r4, #8]
100010cc:	6098      	str	r0, [r3, #8]
100010ce:	79e0      	ldrb	r0, [r4, #7]
100010d0:	71d8      	strb	r0, [r3, #7]
100010d2:	2006      	movs	r0, #6
100010d4:	5620      	ldrsb	r0, [r4, r0]
100010d6:	7198      	strb	r0, [r3, #6]
100010d8:	2800      	cmp	r0, #0
100010da:	db24      	blt.n	10001126 <irq_remove_handler+0x14a>
100010dc:	88a4      	ldrh	r4, [r4, #4]
100010de:	1af8      	subs	r0, r7, r3
100010e0:	0564      	lsls	r4, r4, #21
100010e2:	1524      	asrs	r4, r4, #20
100010e4:	4444      	add	r4, r8
100010e6:	1900      	adds	r0, r0, r4
100010e8:	24e0      	movs	r4, #224	; 0xe0
100010ea:	0500      	lsls	r0, r0, #20
100010ec:	0d40      	lsrs	r0, r0, #21
100010ee:	0224      	lsls	r4, r4, #8
100010f0:	4320      	orrs	r0, r4
100010f2:	8098      	strh	r0, [r3, #4]
100010f4:	1852      	adds	r2, r2, r1
100010f6:	4b20      	ldr	r3, [pc, #128]	; (10001178 <irq_remove_handler+0x19c>)
100010f8:	0092      	lsls	r2, r2, #2
100010fa:	18bf      	adds	r7, r7, r2
100010fc:	781a      	ldrb	r2, [r3, #0]
100010fe:	7019      	strb	r1, [r3, #0]
10001100:	71ba      	strb	r2, [r7, #6]
10001102:	e7cc      	b.n	1000109e <irq_remove_handler+0xc2>
10001104:	9901      	ldr	r1, [sp, #4]
10001106:	2900      	cmp	r1, #0
10001108:	d110      	bne.n	1000112c <irq_remove_handler+0x150>
1000110a:	31ff      	adds	r1, #255	; 0xff
1000110c:	7191      	strb	r1, [r2, #6]
1000110e:	491b      	ldr	r1, [pc, #108]	; (1000117c <irq_remove_handler+0x1a0>)
10001110:	8091      	strh	r1, [r2, #4]
10001112:	4919      	ldr	r1, [pc, #100]	; (10001178 <irq_remove_handler+0x19c>)
10001114:	780a      	ldrb	r2, [r1, #0]
10001116:	719a      	strb	r2, [r3, #6]
10001118:	4a19      	ldr	r2, [pc, #100]	; (10001180 <irq_remove_handler+0x1a4>)
1000111a:	1bdb      	subs	r3, r3, r7
1000111c:	415b      	adcs	r3, r3
1000111e:	435a      	muls	r2, r3
10001120:	0d12      	lsrs	r2, r2, #20
10001122:	700a      	strb	r2, [r1, #0]
10001124:	e7bb      	b.n	1000109e <irq_remove_handler+0xc2>
10001126:	20bd      	movs	r0, #189	; 0xbd
10001128:	0200      	lsls	r0, r0, #8
1000112a:	e7e2      	b.n	100010f2 <irq_remove_handler+0x116>
1000112c:	4a15      	ldr	r2, [pc, #84]	; (10001184 <irq_remove_handler+0x1a8>)
1000112e:	4916      	ldr	r1, [pc, #88]	; (10001188 <irq_remove_handler+0x1ac>)
10001130:	1ad2      	subs	r2, r2, r3
10001132:	3a08      	subs	r2, #8
10001134:	0250      	lsls	r0, r2, #9
10001136:	0d40      	lsrs	r0, r0, #21
10001138:	4301      	orrs	r1, r0
1000113a:	8099      	strh	r1, [r3, #4]
1000113c:	4913      	ldr	r1, [pc, #76]	; (1000118c <irq_remove_handler+0x1b0>)
1000113e:	0852      	lsrs	r2, r2, #1
10001140:	430a      	orrs	r2, r1
10001142:	80da      	strh	r2, [r3, #6]
10001144:	e7ab      	b.n	1000109e <irq_remove_handler+0xc2>
10001146:	2106      	movs	r1, #6
10001148:	5651      	ldrsb	r1, [r2, r1]
1000114a:	0013      	movs	r3, r2
1000114c:	2900      	cmp	r1, #0
1000114e:	dab7      	bge.n	100010c0 <irq_remove_handler+0xe4>
10001150:	9a01      	ldr	r2, [sp, #4]
10001152:	2a00      	cmp	r2, #0
10001154:	d1ea      	bne.n	1000112c <irq_remove_handler+0x150>
10001156:	4645      	mov	r5, r8
10001158:	e7db      	b.n	10001112 <irq_remove_handler+0x136>
1000115a:	46c0      	nop			; (mov r8, r8)
1000115c:	d0000124 	.word	0xd0000124
10001160:	e000ed00 	.word	0xe000ed00
10001164:	100001cd 	.word	0x100001cd
10001168:	20000394 	.word	0x20000394
1000116c:	e000e100 	.word	0xe000e100
10001170:	e000e180 	.word	0xe000e180
10001174:	e000e280 	.word	0xe000e280
10001178:	20001c4d 	.word	0x20001c4d
1000117c:	ffffbd00 	.word	0xffffbd00
10001180:	0000aaaa 	.word	0x0000aaaa
10001184:	200003ce 	.word	0x200003ce
10001188:	fffff000 	.word	0xfffff000
1000118c:	fffff800 	.word	0xfffff800

10001190 <irq_add_tail_to_free_list>:
10001190:	b5f8      	push	{r3, r4, r5, r6, r7, lr}
10001192:	2501      	movs	r5, #1
10001194:	0004      	movs	r4, r0
10001196:	4305      	orrs	r5, r0
10001198:	f7ff f865 	bl	10000266 <__get_current_exception>
1000119c:	f3ef 8c10 	mrs	ip, PRIMASK
100011a0:	b672      	cpsid	i
100011a2:	4a21      	ldr	r2, [pc, #132]	; (10001228 <irq_add_tail_to_free_list+0x98>)
100011a4:	6813      	ldr	r3, [r2, #0]
100011a6:	2b00      	cmp	r3, #0
100011a8:	d0fc      	beq.n	100011a4 <irq_add_tail_to_free_list+0x14>
100011aa:	f3bf 8f5f 	dmb	sy
100011ae:	4e1f      	ldr	r6, [pc, #124]	; (1000122c <irq_add_tail_to_free_list+0x9c>)
100011b0:	0021      	movs	r1, r4
100011b2:	68b7      	ldr	r7, [r6, #8]
100011b4:	4a1e      	ldr	r2, [pc, #120]	; (10001230 <irq_add_tail_to_free_list+0xa0>)
100011b6:	4b1f      	ldr	r3, [pc, #124]	; (10001234 <irq_add_tail_to_free_list+0xa4>)
100011b8:	1a89      	subs	r1, r1, r2
100011ba:	4149      	adcs	r1, r1
100011bc:	434b      	muls	r3, r1
100011be:	0d1b      	lsrs	r3, r3, #20
100011c0:	b259      	sxtb	r1, r3
100011c2:	0083      	lsls	r3, r0, #2
100011c4:	58f8      	ldr	r0, [r7, r3]
100011c6:	42a8      	cmp	r0, r5
100011c8:	d01c      	beq.n	10001204 <irq_add_tail_to_free_list+0x74>
100011ca:	2306      	movs	r3, #6
100011cc:	56d3      	ldrsb	r3, [r2, r3]
100011ce:	428b      	cmp	r3, r1
100011d0:	d01c      	beq.n	1000120c <irq_add_tail_to_free_list+0x7c>
100011d2:	2312      	movs	r3, #18
100011d4:	56d3      	ldrsb	r3, [r2, r3]
100011d6:	428b      	cmp	r3, r1
100011d8:	d022      	beq.n	10001220 <irq_add_tail_to_free_list+0x90>
100011da:	231e      	movs	r3, #30
100011dc:	56d3      	ldrsb	r3, [r2, r3]
100011de:	428b      	cmp	r3, r1
100011e0:	d020      	beq.n	10001224 <irq_add_tail_to_free_list+0x94>
100011e2:	232a      	movs	r3, #42	; 0x2a
100011e4:	56d3      	ldrsb	r3, [r2, r3]
100011e6:	2003      	movs	r0, #3
100011e8:	428b      	cmp	r3, r1
100011ea:	d010      	beq.n	1000120e <irq_add_tail_to_free_list+0x7e>
100011ec:	4b12      	ldr	r3, [pc, #72]	; (10001238 <irq_add_tail_to_free_list+0xa8>)
100011ee:	781a      	ldrb	r2, [r3, #0]
100011f0:	7019      	strb	r1, [r3, #0]
100011f2:	71a2      	strb	r2, [r4, #6]
100011f4:	f3bf 8f5f 	dmb	sy
100011f8:	2200      	movs	r2, #0
100011fa:	4b0b      	ldr	r3, [pc, #44]	; (10001228 <irq_add_tail_to_free_list+0x98>)
100011fc:	601a      	str	r2, [r3, #0]
100011fe:	f38c 8810 	msr	PRIMASK, ip
10001202:	bdf8      	pop	{r3, r4, r5, r6, r7, pc}
10001204:	68b2      	ldr	r2, [r6, #8]
10001206:	480d      	ldr	r0, [pc, #52]	; (1000123c <irq_add_tail_to_free_list+0xac>)
10001208:	50d0      	str	r0, [r2, r3]
1000120a:	e7ef      	b.n	100011ec <irq_add_tail_to_free_list+0x5c>
1000120c:	2000      	movs	r0, #0
1000120e:	0043      	lsls	r3, r0, #1
10001210:	181b      	adds	r3, r3, r0
10001212:	009b      	lsls	r3, r3, #2
10001214:	18d2      	adds	r2, r2, r3
10001216:	23ff      	movs	r3, #255	; 0xff
10001218:	7193      	strb	r3, [r2, #6]
1000121a:	4b09      	ldr	r3, [pc, #36]	; (10001240 <irq_add_tail_to_free_list+0xb0>)
1000121c:	8093      	strh	r3, [r2, #4]
1000121e:	e7e5      	b.n	100011ec <irq_add_tail_to_free_list+0x5c>
10001220:	2001      	movs	r0, #1
10001222:	e7f4      	b.n	1000120e <irq_add_tail_to_free_list+0x7e>
10001224:	2002      	movs	r0, #2
10001226:	e7f2      	b.n	1000120e <irq_add_tail_to_free_list+0x7e>
10001228:	d0000124 	.word	0xd0000124
1000122c:	e000ed00 	.word	0xe000ed00
10001230:	20000394 	.word	0x20000394
10001234:	0000aaaa 	.word	0x0000aaaa
10001238:	20001c4d 	.word	0x20001c4d
1000123c:	100001cd 	.word	0x100001cd
10001240:	ffffbd00 	.word	0xffffbd00

10001244 <irq_init_priorities>:
10001244:	4b05      	ldr	r3, [pc, #20]	; (1000125c <irq_init_priorities+0x18>)
10001246:	4a06      	ldr	r2, [pc, #24]	; (10001260 <irq_init_priorities+0x1c>)
10001248:	6013      	str	r3, [r2, #0]
1000124a:	4a06      	ldr	r2, [pc, #24]	; (10001264 <irq_init_priorities+0x20>)
1000124c:	6013      	str	r3, [r2, #0]
1000124e:	6053      	str	r3, [r2, #4]
10001250:	6093      	str	r3, [r2, #8]
10001252:	60d3      	str	r3, [r2, #12]
10001254:	6113      	str	r3, [r2, #16]
10001256:	6153      	str	r3, [r2, #20]
10001258:	6193      	str	r3, [r2, #24]
1000125a:	4770      	bx	lr
1000125c:	80808080 	.word	0x80808080
10001260:	e000e400 	.word	0xe000e400
10001264:	e000e404 	.word	0xe000e404

10001268 <user_irq_claim_unused>:
10001268:	23d0      	movs	r3, #208	; 0xd0
1000126a:	b500      	push	{lr}
1000126c:	061b      	lsls	r3, r3, #24
1000126e:	681b      	ldr	r3, [r3, #0]
10001270:	0001      	movs	r1, r0
10001272:	4807      	ldr	r0, [pc, #28]	; (10001290 <user_irq_claim_unused+0x28>)
10001274:	b083      	sub	sp, #12
10001276:	18c0      	adds	r0, r0, r3
10001278:	4b06      	ldr	r3, [pc, #24]	; (10001294 <user_irq_claim_unused+0x2c>)
1000127a:	2200      	movs	r2, #0
1000127c:	9300      	str	r3, [sp, #0]
1000127e:	2305      	movs	r3, #5
10001280:	f7ff fcd8 	bl	10000c34 <hw_claim_unused_from_range>
10001284:	2800      	cmp	r0, #0
10001286:	db01      	blt.n	1000128c <user_irq_claim_unused+0x24>
10001288:	231f      	movs	r3, #31
1000128a:	1a18      	subs	r0, r3, r0
1000128c:	b003      	add	sp, #12
1000128e:	bd00      	pop	{pc}
10001290:	20001c44 	.word	0x20001c44
10001294:	1000b4d0 	.word	0x1000b4d0

10001298 <lock_init>:
10001298:	4b02      	ldr	r3, [pc, #8]	; (100012a4 <lock_init+0xc>)
1000129a:	469c      	mov	ip, r3
1000129c:	4461      	add	r1, ip
1000129e:	0089      	lsls	r1, r1, #2
100012a0:	6001      	str	r1, [r0, #0]
100012a2:	4770      	bx	lr
100012a4:	34000040 	.word	0x34000040

100012a8 <timer_pool_entry_comparator>:
100012a8:	6883      	ldr	r3, [r0, #8]
100012aa:	480b      	ldr	r0, [pc, #44]	; (100012d8 <timer_pool_entry_comparator+0x30>)
100012ac:	b510      	push	{r4, lr}
100012ae:	4684      	mov	ip, r0
100012b0:	4461      	add	r1, ip
100012b2:	4462      	add	r2, ip
100012b4:	0109      	lsls	r1, r1, #4
100012b6:	0112      	lsls	r2, r2, #4
100012b8:	189a      	adds	r2, r3, r2
100012ba:	1859      	adds	r1, r3, r1
100012bc:	6854      	ldr	r4, [r2, #4]
100012be:	684b      	ldr	r3, [r1, #4]
100012c0:	2001      	movs	r0, #1
100012c2:	429c      	cmp	r4, r3
100012c4:	d801      	bhi.n	100012ca <timer_pool_entry_comparator+0x22>
100012c6:	d002      	beq.n	100012ce <timer_pool_entry_comparator+0x26>
100012c8:	2000      	movs	r0, #0
100012ca:	b2c0      	uxtb	r0, r0
100012cc:	bd10      	pop	{r4, pc}
100012ce:	6812      	ldr	r2, [r2, #0]
100012d0:	680b      	ldr	r3, [r1, #0]
100012d2:	429a      	cmp	r2, r3
100012d4:	d8f9      	bhi.n	100012ca <timer_pool_entry_comparator+0x22>
100012d6:	e7f7      	b.n	100012c8 <timer_pool_entry_comparator+0x20>
100012d8:	0fffffff 	.word	0x0fffffff

100012dc <sleep_until_callback>:
100012dc:	4b0a      	ldr	r3, [pc, #40]	; (10001308 <sleep_until_callback+0x2c>)
100012de:	6819      	ldr	r1, [r3, #0]
100012e0:	f3ef 8010 	mrs	r0, PRIMASK
100012e4:	b672      	cpsid	i
100012e6:	680a      	ldr	r2, [r1, #0]
100012e8:	2a00      	cmp	r2, #0
100012ea:	d0fc      	beq.n	100012e6 <sleep_until_callback+0xa>
100012ec:	f3bf 8f5f 	dmb	sy
100012f0:	681b      	ldr	r3, [r3, #0]
100012f2:	f3bf 8f5f 	dmb	sy
100012f6:	2200      	movs	r2, #0
100012f8:	601a      	str	r2, [r3, #0]
100012fa:	f380 8810 	msr	PRIMASK, r0
100012fe:	bf40      	sev
10001300:	2000      	movs	r0, #0
10001302:	2100      	movs	r1, #0
10001304:	4770      	bx	lr
10001306:	46c0      	nop			; (mov r8, r8)
10001308:	20001c0c 	.word	0x20001c0c

1000130c <add_alarm_under_lock.isra.0>:
1000130c:	b5f8      	push	{r3, r4, r5, r6, r7, lr}
1000130e:	4657      	mov	r7, sl
10001310:	464e      	mov	r6, r9
10001312:	4645      	mov	r5, r8
10001314:	46de      	mov	lr, fp
10001316:	b5e0      	push	{r5, r6, r7, lr}
10001318:	4699      	mov	r9, r3
1000131a:	ab0c      	add	r3, sp, #48	; 0x30
1000131c:	781c      	ldrb	r4, [r3, #0]
1000131e:	ab0d      	add	r3, sp, #52	; 0x34
10001320:	781b      	ldrb	r3, [r3, #0]
10001322:	0006      	movs	r6, r0
10001324:	4690      	mov	r8, r2
10001326:	469a      	mov	sl, r3
10001328:	6807      	ldr	r7, [r0, #0]
1000132a:	2c00      	cmp	r4, #0
1000132c:	d111      	bne.n	10001352 <add_alarm_under_lock.isra.0+0x46>
1000132e:	7bbc      	ldrb	r4, [r7, #14]
10001330:	2c00      	cmp	r4, #0
10001332:	d042      	beq.n	100013ba <add_alarm_under_lock.isra.0+0xae>
10001334:	0065      	lsls	r5, r4, #1
10001336:	683b      	ldr	r3, [r7, #0]
10001338:	192d      	adds	r5, r5, r4
1000133a:	3d03      	subs	r5, #3
1000133c:	1959      	adds	r1, r3, r5
1000133e:	784b      	ldrb	r3, [r1, #1]
10001340:	73bb      	strb	r3, [r7, #14]
10001342:	2b00      	cmp	r3, #0
10001344:	d100      	bne.n	10001348 <add_alarm_under_lock.isra.0+0x3c>
10001346:	73fb      	strb	r3, [r7, #15]
10001348:	2300      	movs	r3, #0
1000134a:	708b      	strb	r3, [r1, #2]
1000134c:	704b      	strb	r3, [r1, #1]
1000134e:	700b      	strb	r3, [r1, #0]
10001350:	e004      	b.n	1000135c <add_alarm_under_lock.isra.0+0x50>
10001352:	0065      	lsls	r5, r4, #1
10001354:	683b      	ldr	r3, [r7, #0]
10001356:	192d      	adds	r5, r5, r4
10001358:	3d03      	subs	r5, #3
1000135a:	1959      	adds	r1, r3, r5
1000135c:	68b2      	ldr	r2, [r6, #8]
1000135e:	4b2a      	ldr	r3, [pc, #168]	; (10001408 <add_alarm_under_lock.isra.0+0xfc>)
10001360:	4694      	mov	ip, r2
10001362:	4642      	mov	r2, r8
10001364:	18e3      	adds	r3, r4, r3
10001366:	011b      	lsls	r3, r3, #4
10001368:	4463      	add	r3, ip
1000136a:	601a      	str	r2, [r3, #0]
1000136c:	464a      	mov	r2, r9
1000136e:	605a      	str	r2, [r3, #4]
10001370:	9a0a      	ldr	r2, [sp, #40]	; 0x28
10001372:	609a      	str	r2, [r3, #8]
10001374:	9a0b      	ldr	r2, [sp, #44]	; 0x2c
10001376:	60da      	str	r2, [r3, #12]
10001378:	2300      	movs	r3, #0
1000137a:	708b      	strb	r3, [r1, #2]
1000137c:	704b      	strb	r3, [r1, #1]
1000137e:	700b      	strb	r3, [r1, #0]
10001380:	7b7b      	ldrb	r3, [r7, #13]
10001382:	469b      	mov	fp, r3
10001384:	2b00      	cmp	r3, #0
10001386:	d02b      	beq.n	100013e0 <add_alarm_under_lock.isra.0+0xd4>
10001388:	0022      	movs	r2, r4
1000138a:	4659      	mov	r1, fp
1000138c:	68b8      	ldr	r0, [r7, #8]
1000138e:	687b      	ldr	r3, [r7, #4]
10001390:	4798      	blx	r3
10001392:	683a      	ldr	r2, [r7, #0]
10001394:	2800      	cmp	r0, #0
10001396:	d016      	beq.n	100013c6 <add_alarm_under_lock.isra.0+0xba>
10001398:	465b      	mov	r3, fp
1000139a:	4658      	mov	r0, fp
1000139c:	005b      	lsls	r3, r3, #1
1000139e:	445b      	add	r3, fp
100013a0:	1955      	adds	r5, r2, r5
100013a2:	3b03      	subs	r3, #3
100013a4:	70a8      	strb	r0, [r5, #2]
100013a6:	18d1      	adds	r1, r2, r3
100013a8:	5cd3      	ldrb	r3, [r2, r3]
100013aa:	2b00      	cmp	r3, #0
100013ac:	d000      	beq.n	100013b0 <add_alarm_under_lock.isra.0+0xa4>
100013ae:	706b      	strb	r3, [r5, #1]
100013b0:	465b      	mov	r3, fp
100013b2:	700c      	strb	r4, [r1, #0]
100013b4:	737b      	strb	r3, [r7, #13]
100013b6:	45a3      	cmp	fp, r4
100013b8:	d013      	beq.n	100013e2 <add_alarm_under_lock.isra.0+0xd6>
100013ba:	bcf0      	pop	{r4, r5, r6, r7}
100013bc:	46bb      	mov	fp, r7
100013be:	46b2      	mov	sl, r6
100013c0:	46a9      	mov	r9, r5
100013c2:	46a0      	mov	r8, r4
100013c4:	bdf8      	pop	{r3, r4, r5, r6, r7, pc}
100013c6:	465b      	mov	r3, fp
100013c8:	005b      	lsls	r3, r3, #1
100013ca:	445b      	add	r3, fp
100013cc:	3b03      	subs	r3, #3
100013ce:	18d3      	adds	r3, r2, r3
100013d0:	709c      	strb	r4, [r3, #2]
100013d2:	1951      	adds	r1, r2, r5
100013d4:	5d52      	ldrb	r2, [r2, r5]
100013d6:	2a00      	cmp	r2, #0
100013d8:	d000      	beq.n	100013dc <add_alarm_under_lock.isra.0+0xd0>
100013da:	705a      	strb	r2, [r3, #1]
100013dc:	465b      	mov	r3, fp
100013de:	700b      	strb	r3, [r1, #0]
100013e0:	737c      	strb	r4, [r7, #13]
100013e2:	4642      	mov	r2, r8
100013e4:	464b      	mov	r3, r9
100013e6:	7d30      	ldrb	r0, [r6, #20]
100013e8:	f000 fba4 	bl	10001b34 <hardware_alarm_set_target>
100013ec:	1e05      	subs	r5, r0, #0
100013ee:	d006      	beq.n	100013fe <add_alarm_under_lock.isra.0+0xf2>
100013f0:	4653      	mov	r3, sl
100013f2:	2b00      	cmp	r3, #0
100013f4:	d103      	bne.n	100013fe <add_alarm_under_lock.isra.0+0xf2>
100013f6:	0021      	movs	r1, r4
100013f8:	6830      	ldr	r0, [r6, #0]
100013fa:	f000 fdbd 	bl	10001f78 <ph_remove_and_free_node>
100013fe:	9b0e      	ldr	r3, [sp, #56]	; 0x38
10001400:	2b00      	cmp	r3, #0
10001402:	d0da      	beq.n	100013ba <add_alarm_under_lock.isra.0+0xae>
10001404:	701d      	strb	r5, [r3, #0]
10001406:	e7d8      	b.n	100013ba <add_alarm_under_lock.isra.0+0xae>
10001408:	0fffffff 	.word	0x0fffffff

1000140c <alarm_pool_alarm_callback>:
1000140c:	b5f0      	push	{r4, r5, r6, r7, lr}
1000140e:	46de      	mov	lr, fp
10001410:	464e      	mov	r6, r9
10001412:	4657      	mov	r7, sl
10001414:	4645      	mov	r5, r8
10001416:	2300      	movs	r3, #0
10001418:	b5e0      	push	{r5, r6, r7, lr}
1000141a:	b08d      	sub	sp, #52	; 0x34
1000141c:	930a      	str	r3, [sp, #40]	; 0x28
1000141e:	4b6b      	ldr	r3, [pc, #428]	; (100015cc <alarm_pool_alarm_callback+0x1c0>)
10001420:	0082      	lsls	r2, r0, #2
10001422:	58d3      	ldr	r3, [r2, r3]
10001424:	900b      	str	r0, [sp, #44]	; 0x2c
10001426:	4699      	mov	r9, r3
10001428:	2300      	movs	r3, #0
1000142a:	469b      	mov	fp, r3
1000142c:	464b      	mov	r3, r9
1000142e:	9307      	str	r3, [sp, #28]
10001430:	f000 fb30 	bl	10001a94 <time_us_64>
10001434:	9c07      	ldr	r4, [sp, #28]
10001436:	0006      	movs	r6, r0
10001438:	000f      	movs	r7, r1
1000143a:	6862      	ldr	r2, [r4, #4]
1000143c:	f3ef 8510 	mrs	r5, PRIMASK
10001440:	b672      	cpsid	i
10001442:	6813      	ldr	r3, [r2, #0]
10001444:	2b00      	cmp	r3, #0
10001446:	d0fc      	beq.n	10001442 <alarm_pool_alarm_callback+0x36>
10001448:	0022      	movs	r2, r4
1000144a:	9407      	str	r4, [sp, #28]
1000144c:	f3bf 8f5f 	dmb	sy
10001450:	6824      	ldr	r4, [r4, #0]
10001452:	7b63      	ldrb	r3, [r4, #13]
10001454:	4699      	mov	r9, r3
10001456:	2b00      	cmp	r3, #0
10001458:	d067      	beq.n	1000152a <alarm_pool_alarm_callback+0x11e>
1000145a:	6892      	ldr	r2, [r2, #8]
1000145c:	4b5c      	ldr	r3, [pc, #368]	; (100015d0 <alarm_pool_alarm_callback+0x1c4>)
1000145e:	4690      	mov	r8, r2
10001460:	444b      	add	r3, r9
10001462:	011b      	lsls	r3, r3, #4
10001464:	4498      	add	r8, r3
10001466:	4643      	mov	r3, r8
10001468:	681a      	ldr	r2, [r3, #0]
1000146a:	685b      	ldr	r3, [r3, #4]
1000146c:	0010      	movs	r0, r2
1000146e:	0019      	movs	r1, r3
10001470:	1b80      	subs	r0, r0, r6
10001472:	41b9      	sbcs	r1, r7
10001474:	2900      	cmp	r1, #0
10001476:	dd5f      	ble.n	10001538 <alarm_pool_alarm_callback+0x12c>
10001478:	980b      	ldr	r0, [sp, #44]	; 0x2c
1000147a:	f000 fb5b 	bl	10001b34 <hardware_alarm_set_target>
1000147e:	2300      	movs	r3, #0
10001480:	2600      	movs	r6, #0
10001482:	4698      	mov	r8, r3
10001484:	2700      	movs	r7, #0
10001486:	469a      	mov	sl, r3
10001488:	9c07      	ldr	r4, [sp, #28]
1000148a:	6863      	ldr	r3, [r4, #4]
1000148c:	f3bf 8f5f 	dmb	sy
10001490:	465a      	mov	r2, fp
10001492:	601a      	str	r2, [r3, #0]
10001494:	f385 8810 	msr	PRIMASK, r5
10001498:	4653      	mov	r3, sl
1000149a:	2b00      	cmp	r3, #0
1000149c:	d108      	bne.n	100014b0 <alarm_pool_alarm_callback+0xa4>
1000149e:	2800      	cmp	r0, #0
100014a0:	d1c6      	bne.n	10001430 <alarm_pool_alarm_callback+0x24>
100014a2:	b00d      	add	sp, #52	; 0x34
100014a4:	bcf0      	pop	{r4, r5, r6, r7}
100014a6:	46bb      	mov	fp, r7
100014a8:	46b2      	mov	sl, r6
100014aa:	46a9      	mov	r9, r5
100014ac:	46a0      	mov	r8, r4
100014ae:	bdf0      	pop	{r4, r5, r6, r7, pc}
100014b0:	9b0a      	ldr	r3, [sp, #40]	; 0x28
100014b2:	4641      	mov	r1, r8
100014b4:	0218      	lsls	r0, r3, #8
100014b6:	464b      	mov	r3, r9
100014b8:	4318      	orrs	r0, r3
100014ba:	47d0      	blx	sl
100014bc:	9008      	str	r0, [sp, #32]
100014be:	9109      	str	r1, [sp, #36]	; 0x24
100014c0:	6862      	ldr	r2, [r4, #4]
100014c2:	f3ef 8510 	mrs	r5, PRIMASK
100014c6:	b672      	cpsid	i
100014c8:	6813      	ldr	r3, [r2, #0]
100014ca:	2b00      	cmp	r3, #0
100014cc:	d0fc      	beq.n	100014c8 <alarm_pool_alarm_callback+0xbc>
100014ce:	9407      	str	r4, [sp, #28]
100014d0:	f3bf 8f5f 	dmb	sy
100014d4:	9908      	ldr	r1, [sp, #32]
100014d6:	9a09      	ldr	r2, [sp, #36]	; 0x24
100014d8:	2a00      	cmp	r2, #0
100014da:	db48      	blt.n	1000156e <alarm_pool_alarm_callback+0x162>
100014dc:	4311      	orrs	r1, r2
100014de:	d003      	beq.n	100014e8 <alarm_pool_alarm_callback+0xdc>
100014e0:	9b07      	ldr	r3, [sp, #28]
100014e2:	691b      	ldr	r3, [r3, #16]
100014e4:	2b00      	cmp	r3, #0
100014e6:	d15d      	bne.n	100015a4 <alarm_pool_alarm_callback+0x198>
100014e8:	9b07      	ldr	r3, [sp, #28]
100014ea:	681b      	ldr	r3, [r3, #0]
100014ec:	7bd9      	ldrb	r1, [r3, #15]
100014ee:	2900      	cmp	r1, #0
100014f0:	d007      	beq.n	10001502 <alarm_pool_alarm_callback+0xf6>
100014f2:	004a      	lsls	r2, r1, #1
100014f4:	1852      	adds	r2, r2, r1
100014f6:	6819      	ldr	r1, [r3, #0]
100014f8:	468c      	mov	ip, r1
100014fa:	4649      	mov	r1, r9
100014fc:	4462      	add	r2, ip
100014fe:	3a03      	subs	r2, #3
10001500:	7051      	strb	r1, [r2, #1]
10001502:	464a      	mov	r2, r9
10001504:	73da      	strb	r2, [r3, #15]
10001506:	464b      	mov	r3, r9
10001508:	9a07      	ldr	r2, [sp, #28]
1000150a:	3b01      	subs	r3, #1
1000150c:	68d1      	ldr	r1, [r2, #12]
1000150e:	5cca      	ldrb	r2, [r1, r3]
10001510:	3201      	adds	r2, #1
10001512:	54ca      	strb	r2, [r1, r3]
10001514:	465b      	mov	r3, fp
10001516:	9a07      	ldr	r2, [sp, #28]
10001518:	6113      	str	r3, [r2, #16]
1000151a:	6853      	ldr	r3, [r2, #4]
1000151c:	f3bf 8f5f 	dmb	sy
10001520:	465a      	mov	r2, fp
10001522:	601a      	str	r2, [r3, #0]
10001524:	f385 8810 	msr	PRIMASK, r5
10001528:	e782      	b.n	10001430 <alarm_pool_alarm_callback+0x24>
1000152a:	2300      	movs	r3, #0
1000152c:	2600      	movs	r6, #0
1000152e:	4698      	mov	r8, r3
10001530:	2700      	movs	r7, #0
10001532:	469a      	mov	sl, r3
10001534:	2000      	movs	r0, #0
10001536:	e7a7      	b.n	10001488 <alarm_pool_alarm_callback+0x7c>
10001538:	2900      	cmp	r1, #0
1000153a:	d101      	bne.n	10001540 <alarm_pool_alarm_callback+0x134>
1000153c:	2800      	cmp	r0, #0
1000153e:	d19b      	bne.n	10001478 <alarm_pool_alarm_callback+0x6c>
10001540:	2100      	movs	r1, #0
10001542:	0020      	movs	r0, r4
10001544:	f000 fc9a 	bl	10001e7c <ph_remove_head>
10001548:	4643      	mov	r3, r8
1000154a:	681e      	ldr	r6, [r3, #0]
1000154c:	685f      	ldr	r7, [r3, #4]
1000154e:	689b      	ldr	r3, [r3, #8]
10001550:	9a07      	ldr	r2, [sp, #28]
10001552:	469a      	mov	sl, r3
10001554:	4643      	mov	r3, r8
10001556:	68db      	ldr	r3, [r3, #12]
10001558:	4698      	mov	r8, r3
1000155a:	68d3      	ldr	r3, [r2, #12]
1000155c:	444b      	add	r3, r9
1000155e:	3b01      	subs	r3, #1
10001560:	781b      	ldrb	r3, [r3, #0]
10001562:	930a      	str	r3, [sp, #40]	; 0x28
10001564:	021b      	lsls	r3, r3, #8
10001566:	4303      	orrs	r3, r0
10001568:	6113      	str	r3, [r2, #16]
1000156a:	2000      	movs	r0, #0
1000156c:	e78c      	b.n	10001488 <alarm_pool_alarm_callback+0x7c>
1000156e:	6923      	ldr	r3, [r4, #16]
10001570:	2b00      	cmp	r3, #0
10001572:	d0b9      	beq.n	100014e8 <alarm_pool_alarm_callback+0xdc>
10001574:	0033      	movs	r3, r6
10001576:	003c      	movs	r4, r7
10001578:	1a5b      	subs	r3, r3, r1
1000157a:	4194      	sbcs	r4, r2
1000157c:	001a      	movs	r2, r3
1000157e:	0023      	movs	r3, r4
10001580:	42a7      	cmp	r7, r4
10001582:	d819      	bhi.n	100015b8 <alarm_pool_alarm_callback+0x1ac>
10001584:	429f      	cmp	r7, r3
10001586:	d01b      	beq.n	100015c0 <alarm_pool_alarm_callback+0x1b4>
10001588:	4659      	mov	r1, fp
1000158a:	9104      	str	r1, [sp, #16]
1000158c:	2101      	movs	r1, #1
1000158e:	9103      	str	r1, [sp, #12]
10001590:	4649      	mov	r1, r9
10001592:	9102      	str	r1, [sp, #8]
10001594:	4641      	mov	r1, r8
10001596:	9101      	str	r1, [sp, #4]
10001598:	4651      	mov	r1, sl
1000159a:	9807      	ldr	r0, [sp, #28]
1000159c:	9100      	str	r1, [sp, #0]
1000159e:	f7ff feb5 	bl	1000130c <add_alarm_under_lock.isra.0>
100015a2:	e7b7      	b.n	10001514 <alarm_pool_alarm_callback+0x108>
100015a4:	f000 fa76 	bl	10001a94 <time_us_64>
100015a8:	9a08      	ldr	r2, [sp, #32]
100015aa:	9b09      	ldr	r3, [sp, #36]	; 0x24
100015ac:	0006      	movs	r6, r0
100015ae:	000f      	movs	r7, r1
100015b0:	1992      	adds	r2, r2, r6
100015b2:	417b      	adcs	r3, r7
100015b4:	4299      	cmp	r1, r3
100015b6:	d9e5      	bls.n	10001584 <alarm_pool_alarm_callback+0x178>
100015b8:	2201      	movs	r2, #1
100015ba:	4252      	negs	r2, r2
100015bc:	17d3      	asrs	r3, r2, #31
100015be:	e7e3      	b.n	10001588 <alarm_pool_alarm_callback+0x17c>
100015c0:	4296      	cmp	r6, r2
100015c2:	d9e1      	bls.n	10001588 <alarm_pool_alarm_callback+0x17c>
100015c4:	2201      	movs	r2, #1
100015c6:	4252      	negs	r2, r2
100015c8:	17d3      	asrs	r3, r2, #31
100015ca:	e7dd      	b.n	10001588 <alarm_pool_alarm_callback+0x17c>
100015cc:	20001be8 	.word	0x20001be8
100015d0:	0fffffff 	.word	0x0fffffff

100015d4 <alarm_pool_add_alarm_at.constprop.0>:
100015d4:	b5f8      	push	{r3, r4, r5, r6, r7, lr}
100015d6:	4657      	mov	r7, sl
100015d8:	464e      	mov	r6, r9
100015da:	4645      	mov	r5, r8
100015dc:	46de      	mov	lr, fp
100015de:	b5e0      	push	{r5, r6, r7, lr}
100015e0:	4d40      	ldr	r5, [pc, #256]	; (100016e4 <alarm_pool_add_alarm_at.constprop.0+0x110>)
100015e2:	4681      	mov	r9, r0
100015e4:	468a      	mov	sl, r1
100015e6:	686a      	ldr	r2, [r5, #4]
100015e8:	f3ef 8810 	mrs	r8, PRIMASK
100015ec:	b672      	cpsid	i
100015ee:	6813      	ldr	r3, [r2, #0]
100015f0:	2b00      	cmp	r3, #0
100015f2:	d0fc      	beq.n	100015ee <alarm_pool_add_alarm_at.constprop.0+0x1a>
100015f4:	f3bf 8f5f 	dmb	sy
100015f8:	682e      	ldr	r6, [r5, #0]
100015fa:	7bb4      	ldrb	r4, [r6, #14]
100015fc:	2c00      	cmp	r4, #0
100015fe:	d039      	beq.n	10001674 <alarm_pool_add_alarm_at.constprop.0+0xa0>
10001600:	0067      	lsls	r7, r4, #1
10001602:	6833      	ldr	r3, [r6, #0]
10001604:	193f      	adds	r7, r7, r4
10001606:	3f03      	subs	r7, #3
10001608:	19db      	adds	r3, r3, r7
1000160a:	785a      	ldrb	r2, [r3, #1]
1000160c:	73b2      	strb	r2, [r6, #14]
1000160e:	2a00      	cmp	r2, #0
10001610:	d100      	bne.n	10001614 <alarm_pool_add_alarm_at.constprop.0+0x40>
10001612:	73f2      	strb	r2, [r6, #15]
10001614:	68a9      	ldr	r1, [r5, #8]
10001616:	4a34      	ldr	r2, [pc, #208]	; (100016e8 <alarm_pool_add_alarm_at.constprop.0+0x114>)
10001618:	468c      	mov	ip, r1
1000161a:	4649      	mov	r1, r9
1000161c:	18a2      	adds	r2, r4, r2
1000161e:	0112      	lsls	r2, r2, #4
10001620:	4462      	add	r2, ip
10001622:	6011      	str	r1, [r2, #0]
10001624:	4651      	mov	r1, sl
10001626:	6051      	str	r1, [r2, #4]
10001628:	4930      	ldr	r1, [pc, #192]	; (100016ec <alarm_pool_add_alarm_at.constprop.0+0x118>)
1000162a:	6091      	str	r1, [r2, #8]
1000162c:	2100      	movs	r1, #0
1000162e:	60d1      	str	r1, [r2, #12]
10001630:	7099      	strb	r1, [r3, #2]
10001632:	7059      	strb	r1, [r3, #1]
10001634:	7019      	strb	r1, [r3, #0]
10001636:	7b73      	ldrb	r3, [r6, #13]
10001638:	469b      	mov	fp, r3
1000163a:	2b00      	cmp	r3, #0
1000163c:	d035      	beq.n	100016aa <alarm_pool_add_alarm_at.constprop.0+0xd6>
1000163e:	0022      	movs	r2, r4
10001640:	0019      	movs	r1, r3
10001642:	68b0      	ldr	r0, [r6, #8]
10001644:	6873      	ldr	r3, [r6, #4]
10001646:	4798      	blx	r3
10001648:	6832      	ldr	r2, [r6, #0]
1000164a:	2800      	cmp	r0, #0
1000164c:	d020      	beq.n	10001690 <alarm_pool_add_alarm_at.constprop.0+0xbc>
1000164e:	465b      	mov	r3, fp
10001650:	4658      	mov	r0, fp
10001652:	005b      	lsls	r3, r3, #1
10001654:	445b      	add	r3, fp
10001656:	19d7      	adds	r7, r2, r7
10001658:	3b03      	subs	r3, #3
1000165a:	70b8      	strb	r0, [r7, #2]
1000165c:	18d1      	adds	r1, r2, r3
1000165e:	5cd3      	ldrb	r3, [r2, r3]
10001660:	2b00      	cmp	r3, #0
10001662:	d000      	beq.n	10001666 <alarm_pool_add_alarm_at.constprop.0+0x92>
10001664:	707b      	strb	r3, [r7, #1]
10001666:	465b      	mov	r3, fp
10001668:	700c      	strb	r4, [r1, #0]
1000166a:	7373      	strb	r3, [r6, #13]
1000166c:	455c      	cmp	r4, fp
1000166e:	d01d      	beq.n	100016ac <alarm_pool_add_alarm_at.constprop.0+0xd8>
10001670:	2600      	movs	r6, #0
10001672:	e026      	b.n	100016c2 <alarm_pool_add_alarm_at.constprop.0+0xee>
10001674:	686b      	ldr	r3, [r5, #4]
10001676:	f3bf 8f5f 	dmb	sy
1000167a:	601c      	str	r4, [r3, #0]
1000167c:	f388 8810 	msr	PRIMASK, r8
10001680:	2001      	movs	r0, #1
10001682:	4240      	negs	r0, r0
10001684:	bcf0      	pop	{r4, r5, r6, r7}
10001686:	46bb      	mov	fp, r7
10001688:	46b2      	mov	sl, r6
1000168a:	46a9      	mov	r9, r5
1000168c:	46a0      	mov	r8, r4
1000168e:	bdf8      	pop	{r3, r4, r5, r6, r7, pc}
10001690:	465b      	mov	r3, fp
10001692:	005b      	lsls	r3, r3, #1
10001694:	445b      	add	r3, fp
10001696:	3b03      	subs	r3, #3
10001698:	18d3      	adds	r3, r2, r3
1000169a:	709c      	strb	r4, [r3, #2]
1000169c:	19d1      	adds	r1, r2, r7
1000169e:	5dd2      	ldrb	r2, [r2, r7]
100016a0:	2a00      	cmp	r2, #0
100016a2:	d000      	beq.n	100016a6 <alarm_pool_add_alarm_at.constprop.0+0xd2>
100016a4:	705a      	strb	r2, [r3, #1]
100016a6:	465b      	mov	r3, fp
100016a8:	700b      	strb	r3, [r1, #0]
100016aa:	7374      	strb	r4, [r6, #13]
100016ac:	464a      	mov	r2, r9
100016ae:	4653      	mov	r3, sl
100016b0:	7d28      	ldrb	r0, [r5, #20]
100016b2:	f000 fa3f 	bl	10001b34 <hardware_alarm_set_target>
100016b6:	1e06      	subs	r6, r0, #0
100016b8:	d0da      	beq.n	10001670 <alarm_pool_add_alarm_at.constprop.0+0x9c>
100016ba:	0021      	movs	r1, r4
100016bc:	6828      	ldr	r0, [r5, #0]
100016be:	f000 fc5b 	bl	10001f78 <ph_remove_and_free_node>
100016c2:	68eb      	ldr	r3, [r5, #12]
100016c4:	191b      	adds	r3, r3, r4
100016c6:	3b01      	subs	r3, #1
100016c8:	7819      	ldrb	r1, [r3, #0]
100016ca:	686b      	ldr	r3, [r5, #4]
100016cc:	f3bf 8f5f 	dmb	sy
100016d0:	2200      	movs	r2, #0
100016d2:	601a      	str	r2, [r3, #0]
100016d4:	f388 8810 	msr	PRIMASK, r8
100016d8:	2000      	movs	r0, #0
100016da:	2e00      	cmp	r6, #0
100016dc:	d1d2      	bne.n	10001684 <alarm_pool_add_alarm_at.constprop.0+0xb0>
100016de:	0208      	lsls	r0, r1, #8
100016e0:	4320      	orrs	r0, r4
100016e2:	e7cf      	b.n	10001684 <alarm_pool_add_alarm_at.constprop.0+0xb0>
100016e4:	200003dc 	.word	0x200003dc
100016e8:	0fffffff 	.word	0x0fffffff
100016ec:	100012dd 	.word	0x100012dd

100016f0 <alarm_pool_init_default>:
100016f0:	b510      	push	{r4, lr}
100016f2:	4c12      	ldr	r4, [pc, #72]	; (1000173c <alarm_pool_init_default+0x4c>)
100016f4:	6863      	ldr	r3, [r4, #4]
100016f6:	2b00      	cmp	r3, #0
100016f8:	d004      	beq.n	10001704 <alarm_pool_init_default+0x14>
100016fa:	210a      	movs	r1, #10
100016fc:	4810      	ldr	r0, [pc, #64]	; (10001740 <alarm_pool_init_default+0x50>)
100016fe:	f7ff fdcb 	bl	10001298 <lock_init>
10001702:	bd10      	pop	{r4, pc}
10001704:	0023      	movs	r3, r4
10001706:	4a0f      	ldr	r2, [pc, #60]	; (10001744 <alarm_pool_init_default+0x54>)
10001708:	2110      	movs	r1, #16
1000170a:	6820      	ldr	r0, [r4, #0]
1000170c:	f000 fad4 	bl	10001cb8 <ph_post_alloc_init>
10001710:	2003      	movs	r0, #3
10001712:	f000 f9b3 	bl	10001a7c <hardware_alarm_claim>
10001716:	2003      	movs	r0, #3
10001718:	f000 fa7c 	bl	10001c14 <hardware_alarm_cancel>
1000171c:	2003      	movs	r0, #3
1000171e:	490a      	ldr	r1, [pc, #40]	; (10001748 <alarm_pool_init_default+0x58>)
10001720:	f000 f9c2 	bl	10001aa8 <hardware_alarm_set_callback>
10001724:	f7ff faea 	bl	10000cfc <next_striped_spin_lock_num>
10001728:	4b08      	ldr	r3, [pc, #32]	; (1000174c <alarm_pool_init_default+0x5c>)
1000172a:	469c      	mov	ip, r3
1000172c:	2303      	movs	r3, #3
1000172e:	4460      	add	r0, ip
10001730:	7523      	strb	r3, [r4, #20]
10001732:	4b07      	ldr	r3, [pc, #28]	; (10001750 <alarm_pool_init_default+0x60>)
10001734:	0080      	lsls	r0, r0, #2
10001736:	6060      	str	r0, [r4, #4]
10001738:	60dc      	str	r4, [r3, #12]
1000173a:	e7de      	b.n	100016fa <alarm_pool_init_default+0xa>
1000173c:	200003dc 	.word	0x200003dc
10001740:	20001c0c 	.word	0x20001c0c
10001744:	100012a9 	.word	0x100012a9
10001748:	1000140d 	.word	0x1000140d
1000174c:	34000040 	.word	0x34000040
10001750:	20001be8 	.word	0x20001be8

10001754 <alarm_pool_get_default>:
10001754:	4800      	ldr	r0, [pc, #0]	; (10001758 <alarm_pool_get_default+0x4>)
10001756:	4770      	bx	lr
10001758:	200003dc 	.word	0x200003dc

1000175c <alarm_pool_add_alarm_at>:
1000175c:	b5f0      	push	{r4, r5, r6, r7, lr}
1000175e:	4657      	mov	r7, sl
10001760:	464e      	mov	r6, r9
10001762:	4645      	mov	r5, r8
10001764:	46de      	mov	lr, fp
10001766:	b5e0      	push	{r5, r6, r7, lr}
10001768:	b085      	sub	sp, #20
1000176a:	9301      	str	r3, [sp, #4]
1000176c:	ab10      	add	r3, sp, #64	; 0x40
1000176e:	781b      	ldrb	r3, [r3, #0]
10001770:	0006      	movs	r6, r0
10001772:	9303      	str	r3, [sp, #12]
10001774:	2300      	movs	r3, #0
10001776:	469a      	mov	sl, r3
10001778:	4698      	mov	r8, r3
1000177a:	9200      	str	r2, [sp, #0]
1000177c:	6872      	ldr	r2, [r6, #4]
1000177e:	f3ef 8910 	mrs	r9, PRIMASK
10001782:	b672      	cpsid	i
10001784:	6813      	ldr	r3, [r2, #0]
10001786:	2b00      	cmp	r3, #0
10001788:	d0fc      	beq.n	10001784 <alarm_pool_add_alarm_at+0x28>
1000178a:	f3bf 8f5f 	dmb	sy
1000178e:	6835      	ldr	r5, [r6, #0]
10001790:	7bac      	ldrb	r4, [r5, #14]
10001792:	2c00      	cmp	r4, #0
10001794:	d049      	beq.n	1000182a <alarm_pool_add_alarm_at+0xce>
10001796:	0067      	lsls	r7, r4, #1
10001798:	682b      	ldr	r3, [r5, #0]
1000179a:	193f      	adds	r7, r7, r4
1000179c:	3f03      	subs	r7, #3
1000179e:	19db      	adds	r3, r3, r7
100017a0:	785a      	ldrb	r2, [r3, #1]
100017a2:	73aa      	strb	r2, [r5, #14]
100017a4:	2a00      	cmp	r2, #0
100017a6:	d100      	bne.n	100017aa <alarm_pool_add_alarm_at+0x4e>
100017a8:	73ea      	strb	r2, [r5, #15]
100017aa:	68b1      	ldr	r1, [r6, #8]
100017ac:	4a4f      	ldr	r2, [pc, #316]	; (100018ec <alarm_pool_add_alarm_at+0x190>)
100017ae:	468c      	mov	ip, r1
100017b0:	9800      	ldr	r0, [sp, #0]
100017b2:	9901      	ldr	r1, [sp, #4]
100017b4:	18a2      	adds	r2, r4, r2
100017b6:	0112      	lsls	r2, r2, #4
100017b8:	4462      	add	r2, ip
100017ba:	6010      	str	r0, [r2, #0]
100017bc:	6051      	str	r1, [r2, #4]
100017be:	990e      	ldr	r1, [sp, #56]	; 0x38
100017c0:	6091      	str	r1, [r2, #8]
100017c2:	990f      	ldr	r1, [sp, #60]	; 0x3c
100017c4:	60d1      	str	r1, [r2, #12]
100017c6:	4642      	mov	r2, r8
100017c8:	709a      	strb	r2, [r3, #2]
100017ca:	705a      	strb	r2, [r3, #1]
100017cc:	701a      	strb	r2, [r3, #0]
100017ce:	7b6b      	ldrb	r3, [r5, #13]
100017d0:	469b      	mov	fp, r3
100017d2:	2b00      	cmp	r3, #0
100017d4:	d045      	beq.n	10001862 <alarm_pool_add_alarm_at+0x106>
100017d6:	0022      	movs	r2, r4
100017d8:	0019      	movs	r1, r3
100017da:	68a8      	ldr	r0, [r5, #8]
100017dc:	686b      	ldr	r3, [r5, #4]
100017de:	4798      	blx	r3
100017e0:	682a      	ldr	r2, [r5, #0]
100017e2:	2800      	cmp	r0, #0
100017e4:	d030      	beq.n	10001848 <alarm_pool_add_alarm_at+0xec>
100017e6:	465b      	mov	r3, fp
100017e8:	4658      	mov	r0, fp
100017ea:	005b      	lsls	r3, r3, #1
100017ec:	445b      	add	r3, fp
100017ee:	19d7      	adds	r7, r2, r7
100017f0:	3b03      	subs	r3, #3
100017f2:	70b8      	strb	r0, [r7, #2]
100017f4:	18d1      	adds	r1, r2, r3
100017f6:	5cd3      	ldrb	r3, [r2, r3]
100017f8:	2b00      	cmp	r3, #0
100017fa:	d000      	beq.n	100017fe <alarm_pool_add_alarm_at+0xa2>
100017fc:	707b      	strb	r3, [r7, #1]
100017fe:	465b      	mov	r3, fp
10001800:	700c      	strb	r4, [r1, #0]
10001802:	736b      	strb	r3, [r5, #13]
10001804:	455c      	cmp	r4, fp
10001806:	d02d      	beq.n	10001864 <alarm_pool_add_alarm_at+0x108>
10001808:	68f3      	ldr	r3, [r6, #12]
1000180a:	191b      	adds	r3, r3, r4
1000180c:	3b01      	subs	r3, #1
1000180e:	7818      	ldrb	r0, [r3, #0]
10001810:	6873      	ldr	r3, [r6, #4]
10001812:	f3bf 8f5f 	dmb	sy
10001816:	4642      	mov	r2, r8
10001818:	601a      	str	r2, [r3, #0]
1000181a:	f389 8810 	msr	PRIMASK, r9
1000181e:	4653      	mov	r3, sl
10001820:	2b00      	cmp	r3, #0
10001822:	d12c      	bne.n	1000187e <alarm_pool_add_alarm_at+0x122>
10001824:	0200      	lsls	r0, r0, #8
10001826:	4320      	orrs	r0, r4
10001828:	e007      	b.n	1000183a <alarm_pool_add_alarm_at+0xde>
1000182a:	6873      	ldr	r3, [r6, #4]
1000182c:	f3bf 8f5f 	dmb	sy
10001830:	601c      	str	r4, [r3, #0]
10001832:	f389 8810 	msr	PRIMASK, r9
10001836:	2001      	movs	r0, #1
10001838:	4240      	negs	r0, r0
1000183a:	b005      	add	sp, #20
1000183c:	bcf0      	pop	{r4, r5, r6, r7}
1000183e:	46bb      	mov	fp, r7
10001840:	46b2      	mov	sl, r6
10001842:	46a9      	mov	r9, r5
10001844:	46a0      	mov	r8, r4
10001846:	bdf0      	pop	{r4, r5, r6, r7, pc}
10001848:	465b      	mov	r3, fp
1000184a:	005b      	lsls	r3, r3, #1
1000184c:	445b      	add	r3, fp
1000184e:	3b03      	subs	r3, #3
10001850:	18d3      	adds	r3, r2, r3
10001852:	709c      	strb	r4, [r3, #2]
10001854:	19d1      	adds	r1, r2, r7
10001856:	5dd2      	ldrb	r2, [r2, r7]
10001858:	2a00      	cmp	r2, #0
1000185a:	d000      	beq.n	1000185e <alarm_pool_add_alarm_at+0x102>
1000185c:	705a      	strb	r2, [r3, #1]
1000185e:	465b      	mov	r3, fp
10001860:	700b      	strb	r3, [r1, #0]
10001862:	736c      	strb	r4, [r5, #13]
10001864:	7d30      	ldrb	r0, [r6, #20]
10001866:	9a00      	ldr	r2, [sp, #0]
10001868:	9b01      	ldr	r3, [sp, #4]
1000186a:	f000 f963 	bl	10001b34 <hardware_alarm_set_target>
1000186e:	4682      	mov	sl, r0
10001870:	2800      	cmp	r0, #0
10001872:	d0c9      	beq.n	10001808 <alarm_pool_add_alarm_at+0xac>
10001874:	0021      	movs	r1, r4
10001876:	6830      	ldr	r0, [r6, #0]
10001878:	f000 fb7e 	bl	10001f78 <ph_remove_and_free_node>
1000187c:	e7c4      	b.n	10001808 <alarm_pool_add_alarm_at+0xac>
1000187e:	9b03      	ldr	r3, [sp, #12]
10001880:	2b00      	cmp	r3, #0
10001882:	d030      	beq.n	100018e6 <alarm_pool_add_alarm_at+0x18a>
10001884:	9b0e      	ldr	r3, [sp, #56]	; 0x38
10001886:	2000      	movs	r0, #0
10001888:	990f      	ldr	r1, [sp, #60]	; 0x3c
1000188a:	4798      	blx	r3
1000188c:	0003      	movs	r3, r0
1000188e:	0004      	movs	r4, r0
10001890:	000d      	movs	r5, r1
10001892:	430b      	orrs	r3, r1
10001894:	d027      	beq.n	100018e6 <alarm_pool_add_alarm_at+0x18a>
10001896:	2900      	cmp	r1, #0
10001898:	da0d      	bge.n	100018b6 <alarm_pool_add_alarm_at+0x15a>
1000189a:	9800      	ldr	r0, [sp, #0]
1000189c:	9901      	ldr	r1, [sp, #4]
1000189e:	0002      	movs	r2, r0
100018a0:	000b      	movs	r3, r1
100018a2:	1b12      	subs	r2, r2, r4
100018a4:	41ab      	sbcs	r3, r5
100018a6:	4299      	cmp	r1, r3
100018a8:	d813      	bhi.n	100018d2 <alarm_pool_add_alarm_at+0x176>
100018aa:	d018      	beq.n	100018de <alarm_pool_add_alarm_at+0x182>
100018ac:	9200      	str	r2, [sp, #0]
100018ae:	9301      	str	r3, [sp, #4]
100018b0:	9b03      	ldr	r3, [sp, #12]
100018b2:	469a      	mov	sl, r3
100018b4:	e762      	b.n	1000177c <alarm_pool_add_alarm_at+0x20>
100018b6:	f000 f8ed 	bl	10001a94 <time_us_64>
100018ba:	0002      	movs	r2, r0
100018bc:	000b      	movs	r3, r1
100018be:	18a4      	adds	r4, r4, r2
100018c0:	415d      	adcs	r5, r3
100018c2:	9400      	str	r4, [sp, #0]
100018c4:	9501      	str	r5, [sp, #4]
100018c6:	42a9      	cmp	r1, r5
100018c8:	d803      	bhi.n	100018d2 <alarm_pool_add_alarm_at+0x176>
100018ca:	d1f1      	bne.n	100018b0 <alarm_pool_add_alarm_at+0x154>
100018cc:	9900      	ldr	r1, [sp, #0]
100018ce:	428a      	cmp	r2, r1
100018d0:	d9ee      	bls.n	100018b0 <alarm_pool_add_alarm_at+0x154>
100018d2:	2301      	movs	r3, #1
100018d4:	425b      	negs	r3, r3
100018d6:	17dc      	asrs	r4, r3, #31
100018d8:	9300      	str	r3, [sp, #0]
100018da:	9401      	str	r4, [sp, #4]
100018dc:	e7e8      	b.n	100018b0 <alarm_pool_add_alarm_at+0x154>
100018de:	9900      	ldr	r1, [sp, #0]
100018e0:	4291      	cmp	r1, r2
100018e2:	d9e3      	bls.n	100018ac <alarm_pool_add_alarm_at+0x150>
100018e4:	e7f5      	b.n	100018d2 <alarm_pool_add_alarm_at+0x176>
100018e6:	2000      	movs	r0, #0
100018e8:	e7a7      	b.n	1000183a <alarm_pool_add_alarm_at+0xde>
100018ea:	46c0      	nop			; (mov r8, r8)
100018ec:	0fffffff 	.word	0x0fffffff

100018f0 <best_effort_wfe_or_timeout>:
100018f0:	b5f8      	push	{r3, r4, r5, r6, r7, lr}
100018f2:	46ce      	mov	lr, r9
100018f4:	4647      	mov	r7, r8
100018f6:	b580      	push	{r7, lr}
100018f8:	0006      	movs	r6, r0
100018fa:	000c      	movs	r4, r1
100018fc:	f7ff fe6a 	bl	100015d4 <alarm_pool_add_alarm_at.constprop.0>
10001900:	2800      	cmp	r0, #0
10001902:	dc0c      	bgt.n	1000191e <best_effort_wfe_or_timeout+0x2e>
10001904:	4b2d      	ldr	r3, [pc, #180]	; (100019bc <best_effort_wfe_or_timeout+0xcc>)
10001906:	2000      	movs	r0, #0
10001908:	6a59      	ldr	r1, [r3, #36]	; 0x24
1000190a:	428c      	cmp	r4, r1
1000190c:	d803      	bhi.n	10001916 <best_effort_wfe_or_timeout+0x26>
1000190e:	6a9b      	ldr	r3, [r3, #40]	; 0x28
10001910:	3001      	adds	r0, #1
10001912:	42b3      	cmp	r3, r6
10001914:	d345      	bcc.n	100019a2 <best_effort_wfe_or_timeout+0xb2>
10001916:	bcc0      	pop	{r6, r7}
10001918:	46b9      	mov	r9, r7
1000191a:	46b0      	mov	r8, r6
1000191c:	bdf8      	pop	{r3, r4, r5, r6, r7, pc}
1000191e:	bf20      	wfe
10001920:	4d27      	ldr	r5, [pc, #156]	; (100019c0 <best_effort_wfe_or_timeout+0xd0>)
10001922:	686a      	ldr	r2, [r5, #4]
10001924:	f3ef 8710 	mrs	r7, PRIMASK
10001928:	b672      	cpsid	i
1000192a:	6813      	ldr	r3, [r2, #0]
1000192c:	2b00      	cmp	r3, #0
1000192e:	d0fc      	beq.n	1000192a <best_effort_wfe_or_timeout+0x3a>
10001930:	f3bf 8f5f 	dmb	sy
10001934:	682b      	ldr	r3, [r5, #0]
10001936:	b2c1      	uxtb	r1, r0
10001938:	469c      	mov	ip, r3
1000193a:	7b5b      	ldrb	r3, [r3, #13]
1000193c:	428b      	cmp	r3, r1
1000193e:	d035      	beq.n	100019ac <best_effort_wfe_or_timeout+0xbc>
10001940:	23ff      	movs	r3, #255	; 0xff
10001942:	4003      	ands	r3, r0
10001944:	005a      	lsls	r2, r3, #1
10001946:	4691      	mov	r9, r2
10001948:	4662      	mov	r2, ip
1000194a:	6812      	ldr	r2, [r2, #0]
1000194c:	4499      	add	r9, r3
1000194e:	4690      	mov	r8, r2
10001950:	464a      	mov	r2, r9
10001952:	4442      	add	r2, r8
10001954:	3a03      	subs	r2, #3
10001956:	7892      	ldrb	r2, [r2, #2]
10001958:	2a00      	cmp	r2, #0
1000195a:	d01d      	beq.n	10001998 <best_effort_wfe_or_timeout+0xa8>
1000195c:	68ea      	ldr	r2, [r5, #12]
1000195e:	0a00      	lsrs	r0, r0, #8
10001960:	4690      	mov	r8, r2
10001962:	4443      	add	r3, r8
10001964:	3b01      	subs	r3, #1
10001966:	781b      	ldrb	r3, [r3, #0]
10001968:	b2c0      	uxtb	r0, r0
1000196a:	4283      	cmp	r3, r0
1000196c:	d021      	beq.n	100019b2 <best_effort_wfe_or_timeout+0xc2>
1000196e:	686b      	ldr	r3, [r5, #4]
10001970:	f3bf 8f5f 	dmb	sy
10001974:	2200      	movs	r2, #0
10001976:	601a      	str	r2, [r3, #0]
10001978:	f387 8810 	msr	PRIMASK, r7
1000197c:	4a0f      	ldr	r2, [pc, #60]	; (100019bc <best_effort_wfe_or_timeout+0xcc>)
1000197e:	2000      	movs	r0, #0
10001980:	6a53      	ldr	r3, [r2, #36]	; 0x24
10001982:	429c      	cmp	r4, r3
10001984:	d8c7      	bhi.n	10001916 <best_effort_wfe_or_timeout+0x26>
10001986:	6a92      	ldr	r2, [r2, #40]	; 0x28
10001988:	3001      	adds	r0, #1
1000198a:	42b2      	cmp	r2, r6
1000198c:	d2c3      	bcs.n	10001916 <best_effort_wfe_or_timeout+0x26>
1000198e:	1ae0      	subs	r0, r4, r3
10001990:	1e42      	subs	r2, r0, #1
10001992:	4190      	sbcs	r0, r2
10001994:	b2c0      	uxtb	r0, r0
10001996:	e7be      	b.n	10001916 <best_effort_wfe_or_timeout+0x26>
10001998:	692b      	ldr	r3, [r5, #16]
1000199a:	4298      	cmp	r0, r3
1000199c:	d1e7      	bne.n	1000196e <best_effort_wfe_or_timeout+0x7e>
1000199e:	612a      	str	r2, [r5, #16]
100019a0:	e7e5      	b.n	1000196e <best_effort_wfe_or_timeout+0x7e>
100019a2:	1a60      	subs	r0, r4, r1
100019a4:	1e43      	subs	r3, r0, #1
100019a6:	4198      	sbcs	r0, r3
100019a8:	b2c0      	uxtb	r0, r0
100019aa:	e7b4      	b.n	10001916 <best_effort_wfe_or_timeout+0x26>
100019ac:	23ff      	movs	r3, #255	; 0xff
100019ae:	4003      	ands	r3, r0
100019b0:	e7d4      	b.n	1000195c <best_effort_wfe_or_timeout+0x6c>
100019b2:	4660      	mov	r0, ip
100019b4:	f000 fae0 	bl	10001f78 <ph_remove_and_free_node>
100019b8:	e7d9      	b.n	1000196e <best_effort_wfe_or_timeout+0x7e>
100019ba:	46c0      	nop			; (mov r8, r8)
100019bc:	40054000 	.word	0x40054000
100019c0:	200003dc 	.word	0x200003dc

100019c4 <hardware_alarm_irq_handler>:
100019c4:	b5f0      	push	{r4, r5, r6, r7, lr}
100019c6:	46d6      	mov	lr, sl
100019c8:	464f      	mov	r7, r9
100019ca:	4646      	mov	r6, r8
100019cc:	b5c0      	push	{r6, r7, lr}
100019ce:	f3ef 8305 	mrs	r3, IPSR
100019d2:	223f      	movs	r2, #63	; 0x3f
100019d4:	4013      	ands	r3, r2
100019d6:	0018      	movs	r0, r3
100019d8:	3810      	subs	r0, #16
100019da:	f3ef 8c10 	mrs	ip, PRIMASK
100019de:	b672      	cpsid	i
100019e0:	4d20      	ldr	r5, [pc, #128]	; (10001a64 <hardware_alarm_irq_handler+0xa0>)
100019e2:	682a      	ldr	r2, [r5, #0]
100019e4:	2a00      	cmp	r2, #0
100019e6:	d0fc      	beq.n	100019e2 <hardware_alarm_irq_handler+0x1e>
100019e8:	f3bf 8f5f 	dmb	sy
100019ec:	2201      	movs	r2, #1
100019ee:	0011      	movs	r1, r2
100019f0:	4081      	lsls	r1, r0
100019f2:	4c1d      	ldr	r4, [pc, #116]	; (10001a68 <hardware_alarm_irq_handler+0xa4>)
100019f4:	4688      	mov	r8, r1
100019f6:	6361      	str	r1, [r4, #52]	; 0x34
100019f8:	491c      	ldr	r1, [pc, #112]	; (10001a6c <hardware_alarm_irq_handler+0xa8>)
100019fa:	0017      	movs	r7, r2
100019fc:	780e      	ldrb	r6, [r1, #0]
100019fe:	468a      	mov	sl, r1
10001a00:	0031      	movs	r1, r6
10001a02:	40c1      	lsrs	r1, r0
10001a04:	400f      	ands	r7, r1
10001a06:	420a      	tst	r2, r1
10001a08:	d109      	bne.n	10001a1e <hardware_alarm_irq_handler+0x5a>
10001a0a:	f3bf 8f5f 	dmb	sy
10001a0e:	602f      	str	r7, [r5, #0]
10001a10:	f38c 8810 	msr	PRIMASK, ip
10001a14:	bce0      	pop	{r5, r6, r7}
10001a16:	46ba      	mov	sl, r7
10001a18:	46b1      	mov	r9, r6
10001a1a:	46a8      	mov	r8, r5
10001a1c:	bdf0      	pop	{r4, r5, r6, r7, pc}
10001a1e:	4914      	ldr	r1, [pc, #80]	; (10001a70 <hardware_alarm_irq_handler+0xac>)
10001a20:	0082      	lsls	r2, r0, #2
10001a22:	6a64      	ldr	r4, [r4, #36]	; 0x24
10001a24:	5851      	ldr	r1, [r2, r1]
10001a26:	428c      	cmp	r4, r1
10001a28:	d30f      	bcc.n	10001a4a <hardware_alarm_irq_handler+0x86>
10001a2a:	4b12      	ldr	r3, [pc, #72]	; (10001a74 <hardware_alarm_irq_handler+0xb0>)
10001a2c:	58d2      	ldr	r2, [r2, r3]
10001a2e:	4643      	mov	r3, r8
10001a30:	439e      	bics	r6, r3
10001a32:	4653      	mov	r3, sl
10001a34:	701e      	strb	r6, [r3, #0]
10001a36:	f3bf 8f5f 	dmb	sy
10001a3a:	2300      	movs	r3, #0
10001a3c:	602b      	str	r3, [r5, #0]
10001a3e:	f38c 8810 	msr	PRIMASK, ip
10001a42:	2a00      	cmp	r2, #0
10001a44:	d0e6      	beq.n	10001a14 <hardware_alarm_irq_handler+0x50>
10001a46:	4790      	blx	r2
10001a48:	e7e4      	b.n	10001a14 <hardware_alarm_irq_handler+0x50>
10001a4a:	4a0b      	ldr	r2, [pc, #44]	; (10001a78 <hardware_alarm_irq_handler+0xb4>)
10001a4c:	009b      	lsls	r3, r3, #2
10001a4e:	4690      	mov	r8, r2
10001a50:	4443      	add	r3, r8
10001a52:	681a      	ldr	r2, [r3, #0]
10001a54:	601a      	str	r2, [r3, #0]
10001a56:	f3bf 8f5f 	dmb	sy
10001a5a:	2300      	movs	r3, #0
10001a5c:	602b      	str	r3, [r5, #0]
10001a5e:	f38c 8810 	msr	PRIMASK, ip
10001a62:	e7d7      	b.n	10001a14 <hardware_alarm_irq_handler+0x50>
10001a64:	d0000128 	.word	0xd0000128
10001a68:	40054000 	.word	0x40054000
10001a6c:	20001c50 	.word	0x20001c50
10001a70:	20001c18 	.word	0x20001c18
10001a74:	20001620 	.word	0x20001620
10001a78:	40053fd0 	.word	0x40053fd0

10001a7c <hardware_alarm_claim>:
10001a7c:	b510      	push	{r4, lr}
10001a7e:	0001      	movs	r1, r0
10001a80:	4a02      	ldr	r2, [pc, #8]	; (10001a8c <hardware_alarm_claim+0x10>)
10001a82:	4803      	ldr	r0, [pc, #12]	; (10001a90 <hardware_alarm_claim+0x14>)
10001a84:	f7ff f8b4 	bl	10000bf0 <hw_claim_or_assert>
10001a88:	bd10      	pop	{r4, pc}
10001a8a:	46c0      	nop			; (mov r8, r8)
10001a8c:	1000b4ec 	.word	0x1000b4ec
10001a90:	20001c49 	.word	0x20001c49

10001a94 <time_us_64>:
10001a94:	4b03      	ldr	r3, [pc, #12]	; (10001aa4 <time_us_64+0x10>)
10001a96:	6a59      	ldr	r1, [r3, #36]	; 0x24
10001a98:	000a      	movs	r2, r1
10001a9a:	6a98      	ldr	r0, [r3, #40]	; 0x28
10001a9c:	6a59      	ldr	r1, [r3, #36]	; 0x24
10001a9e:	428a      	cmp	r2, r1
10001aa0:	d1fa      	bne.n	10001a98 <time_us_64+0x4>
10001aa2:	4770      	bx	lr
10001aa4:	40054000 	.word	0x40054000

10001aa8 <hardware_alarm_set_callback>:
10001aa8:	b570      	push	{r4, r5, r6, lr}
10001aaa:	0004      	movs	r4, r0
10001aac:	000d      	movs	r5, r1
10001aae:	f3ef 8610 	mrs	r6, PRIMASK
10001ab2:	b672      	cpsid	i
10001ab4:	4a1a      	ldr	r2, [pc, #104]	; (10001b20 <hardware_alarm_set_callback+0x78>)
10001ab6:	6813      	ldr	r3, [r2, #0]
10001ab8:	2b00      	cmp	r3, #0
10001aba:	d0fc      	beq.n	10001ab6 <hardware_alarm_set_callback+0xe>
10001abc:	f3bf 8f5f 	dmb	sy
10001ac0:	2d00      	cmp	r5, #0
10001ac2:	d01b      	beq.n	10001afc <hardware_alarm_set_callback+0x54>
10001ac4:	0020      	movs	r0, r4
10001ac6:	f7ff f965 	bl	10000d94 <irq_get_vtable_handler>
10001aca:	4916      	ldr	r1, [pc, #88]	; (10001b24 <hardware_alarm_set_callback+0x7c>)
10001acc:	4281      	cmp	r1, r0
10001ace:	d00a      	beq.n	10001ae6 <hardware_alarm_set_callback+0x3e>
10001ad0:	0020      	movs	r0, r4
10001ad2:	f7ff f967 	bl	10000da4 <irq_set_exclusive_handler>
10001ad6:	2101      	movs	r1, #1
10001ad8:	0020      	movs	r0, r4
10001ada:	f7ff f92b 	bl	10000d34 <irq_set_enabled>
10001ade:	2301      	movs	r3, #1
10001ae0:	40a3      	lsls	r3, r4
10001ae2:	4a11      	ldr	r2, [pc, #68]	; (10001b28 <hardware_alarm_set_callback+0x80>)
10001ae4:	6013      	str	r3, [r2, #0]
10001ae6:	4b11      	ldr	r3, [pc, #68]	; (10001b2c <hardware_alarm_set_callback+0x84>)
10001ae8:	00a4      	lsls	r4, r4, #2
10001aea:	50e5      	str	r5, [r4, r3]
10001aec:	f3bf 8f5f 	dmb	sy
10001af0:	2200      	movs	r2, #0
10001af2:	4b0b      	ldr	r3, [pc, #44]	; (10001b20 <hardware_alarm_set_callback+0x78>)
10001af4:	601a      	str	r2, [r3, #0]
10001af6:	f386 8810 	msr	PRIMASK, r6
10001afa:	bd70      	pop	{r4, r5, r6, pc}
10001afc:	4b0b      	ldr	r3, [pc, #44]	; (10001b2c <hardware_alarm_set_callback+0x84>)
10001afe:	00a2      	lsls	r2, r4, #2
10001b00:	50d5      	str	r5, [r2, r3]
10001b02:	2201      	movs	r2, #1
10001b04:	40a2      	lsls	r2, r4
10001b06:	490a      	ldr	r1, [pc, #40]	; (10001b30 <hardware_alarm_set_callback+0x88>)
10001b08:	0020      	movs	r0, r4
10001b0a:	780b      	ldrb	r3, [r1, #0]
10001b0c:	4393      	bics	r3, r2
10001b0e:	700b      	strb	r3, [r1, #0]
10001b10:	4904      	ldr	r1, [pc, #16]	; (10001b24 <hardware_alarm_set_callback+0x7c>)
10001b12:	f7ff fa63 	bl	10000fdc <irq_remove_handler>
10001b16:	2100      	movs	r1, #0
10001b18:	0020      	movs	r0, r4
10001b1a:	f7ff f90b 	bl	10000d34 <irq_set_enabled>
10001b1e:	e7e5      	b.n	10001aec <hardware_alarm_set_callback+0x44>
10001b20:	d0000128 	.word	0xd0000128
10001b24:	100019c5 	.word	0x100019c5
10001b28:	40056038 	.word	0x40056038
10001b2c:	20001620 	.word	0x20001620
10001b30:	20001c50 	.word	0x20001c50

10001b34 <hardware_alarm_set_target>:
10001b34:	b5f0      	push	{r4, r5, r6, r7, lr}
10001b36:	464f      	mov	r7, r9
10001b38:	46d6      	mov	lr, sl
10001b3a:	4646      	mov	r6, r8
10001b3c:	b5c0      	push	{r6, r7, lr}
10001b3e:	0007      	movs	r7, r0
10001b40:	4c2f      	ldr	r4, [pc, #188]	; (10001c00 <hardware_alarm_set_target+0xcc>)
10001b42:	6a61      	ldr	r1, [r4, #36]	; 0x24
10001b44:	000d      	movs	r5, r1
10001b46:	6aa6      	ldr	r6, [r4, #40]	; 0x28
10001b48:	6a61      	ldr	r1, [r4, #36]	; 0x24
10001b4a:	42a9      	cmp	r1, r5
10001b4c:	d1fa      	bne.n	10001b44 <hardware_alarm_set_target+0x10>
10001b4e:	428b      	cmp	r3, r1
10001b50:	d808      	bhi.n	10001b64 <hardware_alarm_set_target+0x30>
10001b52:	d005      	beq.n	10001b60 <hardware_alarm_set_target+0x2c>
10001b54:	2001      	movs	r0, #1
10001b56:	bce0      	pop	{r5, r6, r7}
10001b58:	46ba      	mov	sl, r7
10001b5a:	46b1      	mov	r9, r6
10001b5c:	46a8      	mov	r8, r5
10001b5e:	bdf0      	pop	{r4, r5, r6, r7, pc}
10001b60:	42b2      	cmp	r2, r6
10001b62:	d9f7      	bls.n	10001b54 <hardware_alarm_set_target+0x20>
10001b64:	f3ef 8a10 	mrs	sl, PRIMASK
10001b68:	b672      	cpsid	i
10001b6a:	4826      	ldr	r0, [pc, #152]	; (10001c04 <hardware_alarm_set_target+0xd0>)
10001b6c:	6801      	ldr	r1, [r0, #0]
10001b6e:	2900      	cmp	r1, #0
10001b70:	d0fc      	beq.n	10001b6c <hardware_alarm_set_target+0x38>
10001b72:	f3bf 8f5f 	dmb	sy
10001b76:	2501      	movs	r5, #1
10001b78:	40bd      	lsls	r5, r7
10001b7a:	4923      	ldr	r1, [pc, #140]	; (10001c08 <hardware_alarm_set_target+0xd4>)
10001b7c:	4c20      	ldr	r4, [pc, #128]	; (10001c00 <hardware_alarm_set_target+0xcc>)
10001b7e:	4688      	mov	r8, r1
10001b80:	7809      	ldrb	r1, [r1, #0]
10001b82:	4689      	mov	r9, r1
10001b84:	4329      	orrs	r1, r5
10001b86:	b2c9      	uxtb	r1, r1
10001b88:	468c      	mov	ip, r1
10001b8a:	4641      	mov	r1, r8
10001b8c:	4660      	mov	r0, ip
10001b8e:	7008      	strb	r0, [r1, #0]
10001b90:	1d39      	adds	r1, r7, #4
10001b92:	481e      	ldr	r0, [pc, #120]	; (10001c0c <hardware_alarm_set_target+0xd8>)
10001b94:	0089      	lsls	r1, r1, #2
10001b96:	6365      	str	r5, [r4, #52]	; 0x34
10001b98:	510a      	str	r2, [r1, r4]
10001b9a:	00b9      	lsls	r1, r7, #2
10001b9c:	500b      	str	r3, [r1, r0]
10001b9e:	6a21      	ldr	r1, [r4, #32]
10001ba0:	2000      	movs	r0, #0
10001ba2:	4229      	tst	r1, r5
10001ba4:	d019      	beq.n	10001bda <hardware_alarm_set_target+0xa6>
10001ba6:	6a61      	ldr	r1, [r4, #36]	; 0x24
10001ba8:	0008      	movs	r0, r1
10001baa:	6aa6      	ldr	r6, [r4, #40]	; 0x28
10001bac:	6a61      	ldr	r1, [r4, #36]	; 0x24
10001bae:	4281      	cmp	r1, r0
10001bb0:	d1fa      	bne.n	10001ba8 <hardware_alarm_set_target+0x74>
10001bb2:	428b      	cmp	r3, r1
10001bb4:	d819      	bhi.n	10001bea <hardware_alarm_set_target+0xb6>
10001bb6:	d101      	bne.n	10001bbc <hardware_alarm_set_target+0x88>
10001bb8:	42b2      	cmp	r2, r6
10001bba:	d816      	bhi.n	10001bea <hardware_alarm_set_target+0xb6>
10001bbc:	45cc      	cmp	ip, r9
10001bbe:	d01d      	beq.n	10001bfc <hardware_alarm_set_target+0xc8>
10001bc0:	4b0f      	ldr	r3, [pc, #60]	; (10001c00 <hardware_alarm_set_target+0xcc>)
10001bc2:	201f      	movs	r0, #31
10001bc4:	621d      	str	r5, [r3, #32]
10001bc6:	635d      	str	r5, [r3, #52]	; 0x34
10001bc8:	2301      	movs	r3, #1
10001bca:	4007      	ands	r7, r0
10001bcc:	40bb      	lsls	r3, r7
10001bce:	4a10      	ldr	r2, [pc, #64]	; (10001c10 <hardware_alarm_set_target+0xdc>)
10001bd0:	381e      	subs	r0, #30
10001bd2:	6013      	str	r3, [r2, #0]
10001bd4:	4643      	mov	r3, r8
10001bd6:	464a      	mov	r2, r9
10001bd8:	701a      	strb	r2, [r3, #0]
10001bda:	f3bf 8f5f 	dmb	sy
10001bde:	2200      	movs	r2, #0
10001be0:	4b08      	ldr	r3, [pc, #32]	; (10001c04 <hardware_alarm_set_target+0xd0>)
10001be2:	601a      	str	r2, [r3, #0]
10001be4:	f38a 8810 	msr	PRIMASK, sl
10001be8:	e7b5      	b.n	10001b56 <hardware_alarm_set_target+0x22>
10001bea:	2000      	movs	r0, #0
10001bec:	f3bf 8f5f 	dmb	sy
10001bf0:	2200      	movs	r2, #0
10001bf2:	4b04      	ldr	r3, [pc, #16]	; (10001c04 <hardware_alarm_set_target+0xd0>)
10001bf4:	601a      	str	r2, [r3, #0]
10001bf6:	f38a 8810 	msr	PRIMASK, sl
10001bfa:	e7ac      	b.n	10001b56 <hardware_alarm_set_target+0x22>
10001bfc:	2001      	movs	r0, #1
10001bfe:	e7ec      	b.n	10001bda <hardware_alarm_set_target+0xa6>
10001c00:	40054000 	.word	0x40054000
10001c04:	d0000128 	.word	0xd0000128
10001c08:	20001c50 	.word	0x20001c50
10001c0c:	20001c18 	.word	0x20001c18
10001c10:	e000e280 	.word	0xe000e280

10001c14 <hardware_alarm_cancel>:
10001c14:	f3ef 8c10 	mrs	ip, PRIMASK
10001c18:	b672      	cpsid	i
10001c1a:	490a      	ldr	r1, [pc, #40]	; (10001c44 <hardware_alarm_cancel+0x30>)
10001c1c:	680b      	ldr	r3, [r1, #0]
10001c1e:	2b00      	cmp	r3, #0
10001c20:	d0fc      	beq.n	10001c1c <hardware_alarm_cancel+0x8>
10001c22:	f3bf 8f5f 	dmb	sy
10001c26:	2301      	movs	r3, #1
10001c28:	4083      	lsls	r3, r0
10001c2a:	4a07      	ldr	r2, [pc, #28]	; (10001c48 <hardware_alarm_cancel+0x34>)
10001c2c:	4807      	ldr	r0, [pc, #28]	; (10001c4c <hardware_alarm_cancel+0x38>)
10001c2e:	6213      	str	r3, [r2, #32]
10001c30:	7802      	ldrb	r2, [r0, #0]
10001c32:	439a      	bics	r2, r3
10001c34:	7002      	strb	r2, [r0, #0]
10001c36:	f3bf 8f5f 	dmb	sy
10001c3a:	2300      	movs	r3, #0
10001c3c:	600b      	str	r3, [r1, #0]
10001c3e:	f38c 8810 	msr	PRIMASK, ip
10001c42:	4770      	bx	lr
10001c44:	d0000128 	.word	0xd0000128
10001c48:	40054000 	.word	0x40054000
10001c4c:	20001c50 	.word	0x20001c50

10001c50 <ph_merge_nodes>:
10001c50:	b570      	push	{r4, r5, r6, lr}
10001c52:	0005      	movs	r5, r0
10001c54:	0014      	movs	r4, r2
10001c56:	0016      	movs	r6, r2
10001c58:	2900      	cmp	r1, #0
10001c5a:	d015      	beq.n	10001c88 <ph_merge_nodes+0x38>
10001c5c:	000c      	movs	r4, r1
10001c5e:	2a00      	cmp	r2, #0
10001c60:	d012      	beq.n	10001c88 <ph_merge_nodes+0x38>
10001c62:	6880      	ldr	r0, [r0, #8]
10001c64:	686b      	ldr	r3, [r5, #4]
10001c66:	4798      	blx	r3
10001c68:	6829      	ldr	r1, [r5, #0]
10001c6a:	2800      	cmp	r0, #0
10001c6c:	d00e      	beq.n	10001c8c <ph_merge_nodes+0x3c>
10001c6e:	0073      	lsls	r3, r6, #1
10001c70:	199b      	adds	r3, r3, r6
10001c72:	0062      	lsls	r2, r4, #1
10001c74:	3b03      	subs	r3, #3
10001c76:	1912      	adds	r2, r2, r4
10001c78:	18cb      	adds	r3, r1, r3
10001c7a:	3a03      	subs	r2, #3
10001c7c:	709c      	strb	r4, [r3, #2]
10001c7e:	1888      	adds	r0, r1, r2
10001c80:	5c8a      	ldrb	r2, [r1, r2]
10001c82:	2a00      	cmp	r2, #0
10001c84:	d115      	bne.n	10001cb2 <ph_merge_nodes+0x62>
10001c86:	7006      	strb	r6, [r0, #0]
10001c88:	0020      	movs	r0, r4
10001c8a:	bd70      	pop	{r4, r5, r6, pc}
10001c8c:	0063      	lsls	r3, r4, #1
10001c8e:	191b      	adds	r3, r3, r4
10001c90:	0072      	lsls	r2, r6, #1
10001c92:	3b03      	subs	r3, #3
10001c94:	1992      	adds	r2, r2, r6
10001c96:	18cb      	adds	r3, r1, r3
10001c98:	3a03      	subs	r2, #3
10001c9a:	709e      	strb	r6, [r3, #2]
10001c9c:	1888      	adds	r0, r1, r2
10001c9e:	5c8a      	ldrb	r2, [r1, r2]
10001ca0:	2a00      	cmp	r2, #0
10001ca2:	d102      	bne.n	10001caa <ph_merge_nodes+0x5a>
10001ca4:	7004      	strb	r4, [r0, #0]
10001ca6:	0034      	movs	r4, r6
10001ca8:	e7ee      	b.n	10001c88 <ph_merge_nodes+0x38>
10001caa:	705a      	strb	r2, [r3, #1]
10001cac:	7004      	strb	r4, [r0, #0]
10001cae:	0034      	movs	r4, r6
10001cb0:	e7ea      	b.n	10001c88 <ph_merge_nodes+0x38>
10001cb2:	705a      	strb	r2, [r3, #1]
10001cb4:	7006      	strb	r6, [r0, #0]
10001cb6:	e7e7      	b.n	10001c88 <ph_merge_nodes+0x38>

10001cb8 <ph_post_alloc_init>:
10001cb8:	b530      	push	{r4, r5, lr}
10001cba:	6083      	str	r3, [r0, #8]
10001cbc:	2300      	movs	r3, #0
10001cbe:	b2cc      	uxtb	r4, r1
10001cc0:	7343      	strb	r3, [r0, #13]
10001cc2:	3301      	adds	r3, #1
10001cc4:	7304      	strb	r4, [r0, #12]
10001cc6:	6042      	str	r2, [r0, #4]
10001cc8:	7383      	strb	r3, [r0, #14]
10001cca:	73c4      	strb	r4, [r0, #15]
10001ccc:	000d      	movs	r5, r1
10001cce:	6800      	ldr	r0, [r0, #0]
10001cd0:	2c01      	cmp	r4, #1
10001cd2:	d906      	bls.n	10001ce2 <ph_post_alloc_init+0x2a>
10001cd4:	1c42      	adds	r2, r0, #1
10001cd6:	3301      	adds	r3, #1
10001cd8:	b2db      	uxtb	r3, r3
10001cda:	7013      	strb	r3, [r2, #0]
10001cdc:	3203      	adds	r2, #3
10001cde:	429c      	cmp	r4, r3
10001ce0:	d1f9      	bne.n	10001cd6 <ph_post_alloc_init+0x1e>
10001ce2:	21ff      	movs	r1, #255	; 0xff
10001ce4:	4029      	ands	r1, r5
10001ce6:	004b      	lsls	r3, r1, #1
10001ce8:	1859      	adds	r1, r3, r1
10001cea:	2300      	movs	r3, #0
10001cec:	1840      	adds	r0, r0, r1
10001cee:	3803      	subs	r0, #3
10001cf0:	7043      	strb	r3, [r0, #1]
10001cf2:	bd30      	pop	{r4, r5, pc}

10001cf4 <ph_merge_two_pass>:
10001cf4:	b5f8      	push	{r3, r4, r5, r6, r7, lr}
10001cf6:	46ce      	mov	lr, r9
10001cf8:	4647      	mov	r7, r8
10001cfa:	0006      	movs	r6, r0
10001cfc:	000c      	movs	r4, r1
10001cfe:	b580      	push	{r7, lr}
10001d00:	2900      	cmp	r1, #0
10001d02:	d007      	beq.n	10001d14 <ph_merge_two_pass+0x20>
10001d04:	004d      	lsls	r5, r1, #1
10001d06:	6803      	ldr	r3, [r0, #0]
10001d08:	186d      	adds	r5, r5, r1
10001d0a:	3d03      	subs	r5, #3
10001d0c:	195a      	adds	r2, r3, r5
10001d0e:	7857      	ldrb	r7, [r2, #1]
10001d10:	2f00      	cmp	r7, #0
10001d12:	d104      	bne.n	10001d1e <ph_merge_two_pass+0x2a>
10001d14:	0020      	movs	r0, r4
10001d16:	bcc0      	pop	{r6, r7}
10001d18:	46b9      	mov	r9, r7
10001d1a:	46b0      	mov	r8, r6
10001d1c:	bdf8      	pop	{r3, r4, r5, r6, r7, pc}
10001d1e:	0079      	lsls	r1, r7, #1
10001d20:	19c9      	adds	r1, r1, r7
10001d22:	3903      	subs	r1, #3
10001d24:	4688      	mov	r8, r1
10001d26:	4443      	add	r3, r8
10001d28:	7859      	ldrb	r1, [r3, #1]
10001d2a:	4689      	mov	r9, r1
10001d2c:	2100      	movs	r1, #0
10001d2e:	7059      	strb	r1, [r3, #1]
10001d30:	7051      	strb	r1, [r2, #1]
10001d32:	6873      	ldr	r3, [r6, #4]
10001d34:	003a      	movs	r2, r7
10001d36:	0021      	movs	r1, r4
10001d38:	6880      	ldr	r0, [r0, #8]
10001d3a:	4798      	blx	r3
10001d3c:	6833      	ldr	r3, [r6, #0]
10001d3e:	2800      	cmp	r0, #0
10001d40:	d014      	beq.n	10001d6c <ph_merge_two_pass+0x78>
10001d42:	4642      	mov	r2, r8
10001d44:	189a      	adds	r2, r3, r2
10001d46:	7094      	strb	r4, [r2, #2]
10001d48:	1959      	adds	r1, r3, r5
10001d4a:	5d5b      	ldrb	r3, [r3, r5]
10001d4c:	2b00      	cmp	r3, #0
10001d4e:	d000      	beq.n	10001d52 <ph_merge_two_pass+0x5e>
10001d50:	7053      	strb	r3, [r2, #1]
10001d52:	700f      	strb	r7, [r1, #0]
10001d54:	0027      	movs	r7, r4
10001d56:	4649      	mov	r1, r9
10001d58:	0030      	movs	r0, r6
10001d5a:	f7ff ffcb 	bl	10001cf4 <ph_merge_two_pass>
10001d5e:	0039      	movs	r1, r7
10001d60:	0002      	movs	r2, r0
10001d62:	0030      	movs	r0, r6
10001d64:	f7ff ff74 	bl	10001c50 <ph_merge_nodes>
10001d68:	0004      	movs	r4, r0
10001d6a:	e7d3      	b.n	10001d14 <ph_merge_two_pass+0x20>
10001d6c:	4642      	mov	r2, r8
10001d6e:	4641      	mov	r1, r8
10001d70:	195d      	adds	r5, r3, r5
10001d72:	70af      	strb	r7, [r5, #2]
10001d74:	189a      	adds	r2, r3, r2
10001d76:	5c5b      	ldrb	r3, [r3, r1]
10001d78:	2b00      	cmp	r3, #0
10001d7a:	d000      	beq.n	10001d7e <ph_merge_two_pass+0x8a>
10001d7c:	706b      	strb	r3, [r5, #1]
10001d7e:	7014      	strb	r4, [r2, #0]
10001d80:	e7e9      	b.n	10001d56 <ph_merge_two_pass+0x62>
10001d82:	46c0      	nop			; (mov r8, r8)

10001d84 <ph_remove_any_head>:
10001d84:	b5f0      	push	{r4, r5, r6, r7, lr}
10001d86:	4657      	mov	r7, sl
10001d88:	4645      	mov	r5, r8
10001d8a:	46de      	mov	lr, fp
10001d8c:	464e      	mov	r6, r9
10001d8e:	b5e0      	push	{r5, r6, r7, lr}
10001d90:	000d      	movs	r5, r1
10001d92:	006b      	lsls	r3, r5, #1
10001d94:	6801      	ldr	r1, [r0, #0]
10001d96:	195b      	adds	r3, r3, r5
10001d98:	1edf      	subs	r7, r3, #3
10001d9a:	0004      	movs	r4, r0
10001d9c:	5dc8      	ldrb	r0, [r1, r7]
10001d9e:	b083      	sub	sp, #12
10001da0:	9201      	str	r2, [sp, #4]
10001da2:	19ca      	adds	r2, r1, r7
10001da4:	2800      	cmp	r0, #0
10001da6:	d04c      	beq.n	10001e42 <ph_remove_any_head+0xbe>
10001da8:	0043      	lsls	r3, r0, #1
10001daa:	181b      	adds	r3, r3, r0
10001dac:	3b03      	subs	r3, #3
10001dae:	18cb      	adds	r3, r1, r3
10001db0:	785e      	ldrb	r6, [r3, #1]
10001db2:	46b4      	mov	ip, r6
10001db4:	2e00      	cmp	r6, #0
10001db6:	d116      	bne.n	10001de6 <ph_remove_any_head+0x62>
10001db8:	9e01      	ldr	r6, [sp, #4]
10001dba:	2e00      	cmp	r6, #0
10001dbc:	d03e      	beq.n	10001e3c <ph_remove_any_head+0xb8>
10001dbe:	7be6      	ldrb	r6, [r4, #15]
10001dc0:	2e00      	cmp	r6, #0
10001dc2:	d004      	beq.n	10001dce <ph_remove_any_head+0x4a>
10001dc4:	0073      	lsls	r3, r6, #1
10001dc6:	199b      	adds	r3, r3, r6
10001dc8:	18cb      	adds	r3, r1, r3
10001dca:	3b03      	subs	r3, #3
10001dcc:	705d      	strb	r5, [r3, #1]
10001dce:	73e5      	strb	r5, [r4, #15]
10001dd0:	2800      	cmp	r0, #0
10001dd2:	d12f      	bne.n	10001e34 <ph_remove_any_head+0xb0>
10001dd4:	2300      	movs	r3, #0
10001dd6:	7053      	strb	r3, [r2, #1]
10001dd8:	b003      	add	sp, #12
10001dda:	bcf0      	pop	{r4, r5, r6, r7}
10001ddc:	46bb      	mov	fp, r7
10001dde:	46b2      	mov	sl, r6
10001de0:	46a9      	mov	r9, r5
10001de2:	46a0      	mov	r8, r4
10001de4:	bdf0      	pop	{r4, r5, r6, r7, pc}
10001de6:	0072      	lsls	r2, r6, #1
10001de8:	4462      	add	r2, ip
10001dea:	3a03      	subs	r2, #3
10001dec:	1889      	adds	r1, r1, r2
10001dee:	784a      	ldrb	r2, [r1, #1]
10001df0:	4690      	mov	r8, r2
10001df2:	2200      	movs	r2, #0
10001df4:	704a      	strb	r2, [r1, #1]
10001df6:	4691      	mov	r9, r2
10001df8:	705a      	strb	r2, [r3, #1]
10001dfa:	0001      	movs	r1, r0
10001dfc:	0032      	movs	r2, r6
10001dfe:	0020      	movs	r0, r4
10001e00:	f7ff ff26 	bl	10001c50 <ph_merge_nodes>
10001e04:	4643      	mov	r3, r8
10001e06:	4682      	mov	sl, r0
10001e08:	2b00      	cmp	r3, #0
10001e0a:	d007      	beq.n	10001e1c <ph_remove_any_head+0x98>
10001e0c:	005b      	lsls	r3, r3, #1
10001e0e:	6821      	ldr	r1, [r4, #0]
10001e10:	4443      	add	r3, r8
10001e12:	3b03      	subs	r3, #3
10001e14:	18cb      	adds	r3, r1, r3
10001e16:	785a      	ldrb	r2, [r3, #1]
10001e18:	2a00      	cmp	r2, #0
10001e1a:	d116      	bne.n	10001e4a <ph_remove_any_head+0xc6>
10001e1c:	4642      	mov	r2, r8
10001e1e:	4651      	mov	r1, sl
10001e20:	0020      	movs	r0, r4
10001e22:	f7ff ff15 	bl	10001c50 <ph_merge_nodes>
10001e26:	6821      	ldr	r1, [r4, #0]
10001e28:	9b01      	ldr	r3, [sp, #4]
10001e2a:	19ca      	adds	r2, r1, r7
10001e2c:	2b00      	cmp	r3, #0
10001e2e:	d1c6      	bne.n	10001dbe <ph_remove_any_head+0x3a>
10001e30:	2800      	cmp	r0, #0
10001e32:	d0cf      	beq.n	10001dd4 <ph_remove_any_head+0x50>
10001e34:	0043      	lsls	r3, r0, #1
10001e36:	181b      	adds	r3, r3, r0
10001e38:	3b03      	subs	r3, #3
10001e3a:	18cb      	adds	r3, r1, r3
10001e3c:	2100      	movs	r1, #0
10001e3e:	7099      	strb	r1, [r3, #2]
10001e40:	e7c8      	b.n	10001dd4 <ph_remove_any_head+0x50>
10001e42:	9b01      	ldr	r3, [sp, #4]
10001e44:	2b00      	cmp	r3, #0
10001e46:	d1ba      	bne.n	10001dbe <ph_remove_any_head+0x3a>
10001e48:	e7c4      	b.n	10001dd4 <ph_remove_any_head+0x50>
10001e4a:	0050      	lsls	r0, r2, #1
10001e4c:	1880      	adds	r0, r0, r2
10001e4e:	3803      	subs	r0, #3
10001e50:	1809      	adds	r1, r1, r0
10001e52:	7848      	ldrb	r0, [r1, #1]
10001e54:	4683      	mov	fp, r0
10001e56:	4648      	mov	r0, r9
10001e58:	7048      	strb	r0, [r1, #1]
10001e5a:	7058      	strb	r0, [r3, #1]
10001e5c:	4641      	mov	r1, r8
10001e5e:	0020      	movs	r0, r4
10001e60:	f7ff fef6 	bl	10001c50 <ph_merge_nodes>
10001e64:	4659      	mov	r1, fp
10001e66:	4680      	mov	r8, r0
10001e68:	0020      	movs	r0, r4
10001e6a:	f7ff ff43 	bl	10001cf4 <ph_merge_two_pass>
10001e6e:	4641      	mov	r1, r8
10001e70:	0002      	movs	r2, r0
10001e72:	0020      	movs	r0, r4
10001e74:	f7ff feec 	bl	10001c50 <ph_merge_nodes>
10001e78:	4680      	mov	r8, r0
10001e7a:	e7cf      	b.n	10001e1c <ph_remove_any_head+0x98>

10001e7c <ph_remove_head>:
10001e7c:	b5f0      	push	{r4, r5, r6, r7, lr}
10001e7e:	4657      	mov	r7, sl
10001e80:	4645      	mov	r5, r8
10001e82:	46de      	mov	lr, fp
10001e84:	464e      	mov	r6, r9
10001e86:	b5e0      	push	{r5, r6, r7, lr}
10001e88:	b083      	sub	sp, #12
10001e8a:	9101      	str	r1, [sp, #4]
10001e8c:	7b45      	ldrb	r5, [r0, #13]
10001e8e:	0004      	movs	r4, r0
10001e90:	006b      	lsls	r3, r5, #1
10001e92:	6800      	ldr	r0, [r0, #0]
10001e94:	195b      	adds	r3, r3, r5
10001e96:	1edf      	subs	r7, r3, #3
10001e98:	5dc1      	ldrb	r1, [r0, r7]
10001e9a:	19c2      	adds	r2, r0, r7
10001e9c:	2900      	cmp	r1, #0
10001e9e:	d04e      	beq.n	10001f3e <ph_remove_head+0xc2>
10001ea0:	004b      	lsls	r3, r1, #1
10001ea2:	185b      	adds	r3, r3, r1
10001ea4:	3b03      	subs	r3, #3
10001ea6:	18c3      	adds	r3, r0, r3
10001ea8:	785e      	ldrb	r6, [r3, #1]
10001eaa:	46b4      	mov	ip, r6
10001eac:	2e00      	cmp	r6, #0
10001eae:	d118      	bne.n	10001ee2 <ph_remove_head+0x66>
10001eb0:	9e01      	ldr	r6, [sp, #4]
10001eb2:	2e00      	cmp	r6, #0
10001eb4:	d040      	beq.n	10001f38 <ph_remove_head+0xbc>
10001eb6:	7be6      	ldrb	r6, [r4, #15]
10001eb8:	2e00      	cmp	r6, #0
10001eba:	d004      	beq.n	10001ec6 <ph_remove_head+0x4a>
10001ebc:	0073      	lsls	r3, r6, #1
10001ebe:	199b      	adds	r3, r3, r6
10001ec0:	18c3      	adds	r3, r0, r3
10001ec2:	3b03      	subs	r3, #3
10001ec4:	705d      	strb	r5, [r3, #1]
10001ec6:	73e5      	strb	r5, [r4, #15]
10001ec8:	2900      	cmp	r1, #0
10001eca:	d131      	bne.n	10001f30 <ph_remove_head+0xb4>
10001ecc:	2300      	movs	r3, #0
10001ece:	0028      	movs	r0, r5
10001ed0:	7053      	strb	r3, [r2, #1]
10001ed2:	7361      	strb	r1, [r4, #13]
10001ed4:	b003      	add	sp, #12
10001ed6:	bcf0      	pop	{r4, r5, r6, r7}
10001ed8:	46bb      	mov	fp, r7
10001eda:	46b2      	mov	sl, r6
10001edc:	46a9      	mov	r9, r5
10001ede:	46a0      	mov	r8, r4
10001ee0:	bdf0      	pop	{r4, r5, r6, r7, pc}
10001ee2:	0072      	lsls	r2, r6, #1
10001ee4:	4462      	add	r2, ip
10001ee6:	3a03      	subs	r2, #3
10001ee8:	1880      	adds	r0, r0, r2
10001eea:	7842      	ldrb	r2, [r0, #1]
10001eec:	4690      	mov	r8, r2
10001eee:	2200      	movs	r2, #0
10001ef0:	7042      	strb	r2, [r0, #1]
10001ef2:	4691      	mov	r9, r2
10001ef4:	705a      	strb	r2, [r3, #1]
10001ef6:	0020      	movs	r0, r4
10001ef8:	0032      	movs	r2, r6
10001efa:	f7ff fea9 	bl	10001c50 <ph_merge_nodes>
10001efe:	4643      	mov	r3, r8
10001f00:	4682      	mov	sl, r0
10001f02:	2b00      	cmp	r3, #0
10001f04:	d007      	beq.n	10001f16 <ph_remove_head+0x9a>
10001f06:	005b      	lsls	r3, r3, #1
10001f08:	6821      	ldr	r1, [r4, #0]
10001f0a:	4443      	add	r3, r8
10001f0c:	3b03      	subs	r3, #3
10001f0e:	18cb      	adds	r3, r1, r3
10001f10:	785a      	ldrb	r2, [r3, #1]
10001f12:	2a00      	cmp	r2, #0
10001f14:	d117      	bne.n	10001f46 <ph_remove_head+0xca>
10001f16:	4642      	mov	r2, r8
10001f18:	4651      	mov	r1, sl
10001f1a:	0020      	movs	r0, r4
10001f1c:	f7ff fe98 	bl	10001c50 <ph_merge_nodes>
10001f20:	9b01      	ldr	r3, [sp, #4]
10001f22:	0001      	movs	r1, r0
10001f24:	6820      	ldr	r0, [r4, #0]
10001f26:	19c2      	adds	r2, r0, r7
10001f28:	2b00      	cmp	r3, #0
10001f2a:	d1c4      	bne.n	10001eb6 <ph_remove_head+0x3a>
10001f2c:	2900      	cmp	r1, #0
10001f2e:	d0cd      	beq.n	10001ecc <ph_remove_head+0x50>
10001f30:	004b      	lsls	r3, r1, #1
10001f32:	185b      	adds	r3, r3, r1
10001f34:	3b03      	subs	r3, #3
10001f36:	18c3      	adds	r3, r0, r3
10001f38:	2000      	movs	r0, #0
10001f3a:	7098      	strb	r0, [r3, #2]
10001f3c:	e7c6      	b.n	10001ecc <ph_remove_head+0x50>
10001f3e:	9b01      	ldr	r3, [sp, #4]
10001f40:	2b00      	cmp	r3, #0
10001f42:	d1b8      	bne.n	10001eb6 <ph_remove_head+0x3a>
10001f44:	e7c2      	b.n	10001ecc <ph_remove_head+0x50>
10001f46:	0050      	lsls	r0, r2, #1
10001f48:	1880      	adds	r0, r0, r2
10001f4a:	3803      	subs	r0, #3
10001f4c:	1809      	adds	r1, r1, r0
10001f4e:	7848      	ldrb	r0, [r1, #1]
10001f50:	4683      	mov	fp, r0
10001f52:	4648      	mov	r0, r9
10001f54:	7048      	strb	r0, [r1, #1]
10001f56:	7058      	strb	r0, [r3, #1]
10001f58:	4641      	mov	r1, r8
10001f5a:	0020      	movs	r0, r4
10001f5c:	f7ff fe78 	bl	10001c50 <ph_merge_nodes>
10001f60:	4659      	mov	r1, fp
10001f62:	4680      	mov	r8, r0
10001f64:	0020      	movs	r0, r4
10001f66:	f7ff fec5 	bl	10001cf4 <ph_merge_two_pass>
10001f6a:	4641      	mov	r1, r8
10001f6c:	0002      	movs	r2, r0
10001f6e:	0020      	movs	r0, r4
10001f70:	f7ff fe6e 	bl	10001c50 <ph_merge_nodes>
10001f74:	4680      	mov	r8, r0
10001f76:	e7ce      	b.n	10001f16 <ph_remove_head+0x9a>

10001f78 <ph_remove_and_free_node>:
10001f78:	b570      	push	{r4, r5, r6, lr}
10001f7a:	0004      	movs	r4, r0
10001f7c:	2900      	cmp	r1, #0
10001f7e:	d02c      	beq.n	10001fda <ph_remove_and_free_node+0x62>
10001f80:	7b43      	ldrb	r3, [r0, #13]
10001f82:	428b      	cmp	r3, r1
10001f84:	d02e      	beq.n	10001fe4 <ph_remove_and_free_node+0x6c>
10001f86:	6805      	ldr	r5, [r0, #0]
10001f88:	0048      	lsls	r0, r1, #1
10001f8a:	1840      	adds	r0, r0, r1
10001f8c:	3803      	subs	r0, #3
10001f8e:	1828      	adds	r0, r5, r0
10001f90:	7882      	ldrb	r2, [r0, #2]
10001f92:	2a00      	cmp	r2, #0
10001f94:	d021      	beq.n	10001fda <ph_remove_and_free_node+0x62>
10001f96:	0053      	lsls	r3, r2, #1
10001f98:	189b      	adds	r3, r3, r2
10001f9a:	3b03      	subs	r3, #3
10001f9c:	5cea      	ldrb	r2, [r5, r3]
10001f9e:	18ee      	adds	r6, r5, r3
10001fa0:	428a      	cmp	r2, r1
10001fa2:	d102      	bne.n	10001faa <ph_remove_and_free_node+0x32>
10001fa4:	e01b      	b.n	10001fde <ph_remove_and_free_node+0x66>
10001fa6:	2a00      	cmp	r2, #0
10001fa8:	d008      	beq.n	10001fbc <ph_remove_and_free_node+0x44>
10001faa:	0053      	lsls	r3, r2, #1
10001fac:	189b      	adds	r3, r3, r2
10001fae:	3b03      	subs	r3, #3
10001fb0:	18eb      	adds	r3, r5, r3
10001fb2:	785a      	ldrb	r2, [r3, #1]
10001fb4:	428a      	cmp	r2, r1
10001fb6:	d1f6      	bne.n	10001fa6 <ph_remove_and_free_node+0x2e>
10001fb8:	7842      	ldrb	r2, [r0, #1]
10001fba:	705a      	strb	r2, [r3, #1]
10001fbc:	2300      	movs	r3, #0
10001fbe:	2201      	movs	r2, #1
10001fc0:	7083      	strb	r3, [r0, #2]
10001fc2:	7043      	strb	r3, [r0, #1]
10001fc4:	0020      	movs	r0, r4
10001fc6:	f7ff fedd 	bl	10001d84 <ph_remove_any_head>
10001fca:	7b61      	ldrb	r1, [r4, #13]
10001fcc:	0002      	movs	r2, r0
10001fce:	0020      	movs	r0, r4
10001fd0:	f7ff fe3e 	bl	10001c50 <ph_merge_nodes>
10001fd4:	7360      	strb	r0, [r4, #13]
10001fd6:	2001      	movs	r0, #1
10001fd8:	e000      	b.n	10001fdc <ph_remove_and_free_node+0x64>
10001fda:	2000      	movs	r0, #0
10001fdc:	bd70      	pop	{r4, r5, r6, pc}
10001fde:	7843      	ldrb	r3, [r0, #1]
10001fe0:	7033      	strb	r3, [r6, #0]
10001fe2:	e7eb      	b.n	10001fbc <ph_remove_and_free_node+0x44>
10001fe4:	2201      	movs	r2, #1
10001fe6:	0019      	movs	r1, r3
10001fe8:	f7ff fecc 	bl	10001d84 <ph_remove_any_head>
10001fec:	7360      	strb	r0, [r4, #13]
10001fee:	2001      	movs	r0, #1
10001ff0:	e7f4      	b.n	10001fdc <ph_remove_and_free_node+0x64>
10001ff2:	46c0      	nop			; (mov r8, r8)

10001ff4 <mutex_init>:
10001ff4:	b510      	push	{r4, lr}
10001ff6:	0004      	movs	r4, r0
10001ff8:	f7fe fe80 	bl	10000cfc <next_striped_spin_lock_num>
10001ffc:	0001      	movs	r1, r0
10001ffe:	0020      	movs	r0, r4
10002000:	f7ff f94a 	bl	10001298 <lock_init>
10002004:	23ff      	movs	r3, #255	; 0xff
10002006:	7123      	strb	r3, [r4, #4]
10002008:	f3bf 8f5f 	dmb	sy
1000200c:	bd10      	pop	{r4, pc}
1000200e:	46c0      	nop			; (mov r8, r8)

10002010 <recursive_mutex_init>:
10002010:	b510      	push	{r4, lr}
10002012:	0004      	movs	r4, r0
10002014:	f7fe fe72 	bl	10000cfc <next_striped_spin_lock_num>
10002018:	0001      	movs	r1, r0
1000201a:	0020      	movs	r0, r4
1000201c:	f7ff f93c 	bl	10001298 <lock_init>
10002020:	23ff      	movs	r3, #255	; 0xff
10002022:	80a3      	strh	r3, [r4, #4]
10002024:	f3bf 8f5f 	dmb	sy
10002028:	bd10      	pop	{r4, pc}
1000202a:	46c0      	nop			; (mov r8, r8)

1000202c <critical_section_init>:
1000202c:	b510      	push	{r4, lr}
1000202e:	0004      	movs	r4, r0
10002030:	2001      	movs	r0, #1
10002032:	f7fe fe6f 	bl	10000d14 <spin_lock_claim_unused>
10002036:	4b04      	ldr	r3, [pc, #16]	; (10002048 <critical_section_init+0x1c>)
10002038:	469c      	mov	ip, r3
1000203a:	4460      	add	r0, ip
1000203c:	0080      	lsls	r0, r0, #2
1000203e:	6020      	str	r0, [r4, #0]
10002040:	f3bf 8f5f 	dmb	sy
10002044:	bd10      	pop	{r4, pc}
10002046:	46c0      	nop			; (mov r8, r8)
10002048:	34000040 	.word	0x34000040

1000204c <runtime_init>:
1000204c:	4b2c      	ldr	r3, [pc, #176]	; (10002100 <runtime_init+0xb4>)
1000204e:	4a2d      	ldr	r2, [pc, #180]	; (10002104 <runtime_init+0xb8>)
10002050:	b570      	push	{r4, r5, r6, lr}
10002052:	601a      	str	r2, [r3, #0]
10002054:	4a2c      	ldr	r2, [pc, #176]	; (10002108 <runtime_init+0xbc>)
10002056:	4b2d      	ldr	r3, [pc, #180]	; (1000210c <runtime_init+0xc0>)
10002058:	492d      	ldr	r1, [pc, #180]	; (10002110 <runtime_init+0xc4>)
1000205a:	601a      	str	r2, [r3, #0]
1000205c:	0014      	movs	r4, r2
1000205e:	688b      	ldr	r3, [r1, #8]
10002060:	439c      	bics	r4, r3
10002062:	d1fb      	bne.n	1000205c <runtime_init+0x10>
10002064:	4d2b      	ldr	r5, [pc, #172]	; (10002114 <runtime_init+0xc8>)
10002066:	4e2c      	ldr	r6, [pc, #176]	; (10002118 <runtime_init+0xcc>)
10002068:	42b5      	cmp	r5, r6
1000206a:	d208      	bcs.n	1000207e <runtime_init+0x32>
1000206c:	3e01      	subs	r6, #1
1000206e:	1b76      	subs	r6, r6, r5
10002070:	08b6      	lsrs	r6, r6, #2
10002072:	cd08      	ldmia	r5!, {r3}
10002074:	4798      	blx	r3
10002076:	0023      	movs	r3, r4
10002078:	3401      	adds	r4, #1
1000207a:	42b3      	cmp	r3, r6
1000207c:	d1f9      	bne.n	10002072 <runtime_init+0x26>
1000207e:	f000 f897 	bl	100021b0 <clocks_init>
10002082:	4a26      	ldr	r2, [pc, #152]	; (1000211c <runtime_init+0xd0>)
10002084:	4b21      	ldr	r3, [pc, #132]	; (1000210c <runtime_init+0xc0>)
10002086:	601a      	str	r2, [r3, #0]
10002088:	4a21      	ldr	r2, [pc, #132]	; (10002110 <runtime_init+0xc4>)
1000208a:	6893      	ldr	r3, [r2, #8]
1000208c:	43db      	mvns	r3, r3
1000208e:	01db      	lsls	r3, r3, #7
10002090:	09dd      	lsrs	r5, r3, #7
10002092:	2b00      	cmp	r3, #0
10002094:	d1f9      	bne.n	1000208a <runtime_init+0x3e>
10002096:	2240      	movs	r2, #64	; 0x40
10002098:	4b21      	ldr	r3, [pc, #132]	; (10002120 <runtime_init+0xd4>)
1000209a:	4c22      	ldr	r4, [pc, #136]	; (10002124 <runtime_init+0xd8>)
1000209c:	4e22      	ldr	r6, [pc, #136]	; (10002128 <runtime_init+0xdc>)
1000209e:	679a      	str	r2, [r3, #120]	; 0x78
100020a0:	675a      	str	r2, [r3, #116]	; 0x74
100020a2:	671a      	str	r2, [r3, #112]	; 0x70
100020a4:	66da      	str	r2, [r3, #108]	; 0x6c
100020a6:	42b4      	cmp	r4, r6
100020a8:	d208      	bcs.n	100020bc <runtime_init+0x70>
100020aa:	6823      	ldr	r3, [r4, #0]
100020ac:	0020      	movs	r0, r4
100020ae:	2b00      	cmp	r3, #0
100020b0:	d020      	beq.n	100020f4 <runtime_init+0xa8>
100020b2:	3408      	adds	r4, #8
100020b4:	f7ff ffac 	bl	10002010 <recursive_mutex_init>
100020b8:	42b4      	cmp	r4, r6
100020ba:	d3f6      	bcc.n	100020aa <runtime_init+0x5e>
100020bc:	4e1b      	ldr	r6, [pc, #108]	; (1000212c <runtime_init+0xe0>)
100020be:	4c1c      	ldr	r4, [pc, #112]	; (10002130 <runtime_init+0xe4>)
100020c0:	22c0      	movs	r2, #192	; 0xc0
100020c2:	68a1      	ldr	r1, [r4, #8]
100020c4:	0030      	movs	r0, r6
100020c6:	f002 fd73 	bl	10004bb0 <__wrap___aeabi_memcpy>
100020ca:	60a6      	str	r6, [r4, #8]
100020cc:	f7fe fe08 	bl	10000ce0 <spin_locks_reset>
100020d0:	f7ff f8b8 	bl	10001244 <irq_init_priorities>
100020d4:	f7ff fb0c 	bl	100016f0 <alarm_pool_init_default>
100020d8:	4c16      	ldr	r4, [pc, #88]	; (10002134 <runtime_init+0xe8>)
100020da:	4e17      	ldr	r6, [pc, #92]	; (10002138 <runtime_init+0xec>)
100020dc:	42b4      	cmp	r4, r6
100020de:	d208      	bcs.n	100020f2 <runtime_init+0xa6>
100020e0:	3e01      	subs	r6, #1
100020e2:	1b36      	subs	r6, r6, r4
100020e4:	08b6      	lsrs	r6, r6, #2
100020e6:	cc08      	ldmia	r4!, {r3}
100020e8:	4798      	blx	r3
100020ea:	002b      	movs	r3, r5
100020ec:	3501      	adds	r5, #1
100020ee:	429e      	cmp	r6, r3
100020f0:	d1f9      	bne.n	100020e6 <runtime_init+0x9a>
100020f2:	bd70      	pop	{r4, r5, r6, pc}
100020f4:	3408      	adds	r4, #8
100020f6:	f7ff ff7d 	bl	10001ff4 <mutex_init>
100020fa:	42b4      	cmp	r4, r6
100020fc:	d3d5      	bcc.n	100020aa <runtime_init+0x5e>
100020fe:	e7dd      	b.n	100020bc <runtime_init+0x70>
10002100:	4000e000 	.word	0x4000e000
10002104:	fefbcdbf 	.word	0xfefbcdbf
10002108:	003c7ffe 	.word	0x003c7ffe
1000210c:	4000f000 	.word	0x4000f000
10002110:	4000c000 	.word	0x4000c000
10002114:	20000cc8 	.word	0x20000cc8
10002118:	20000cd8 	.word	0x20000cd8
1000211c:	01ffffff 	.word	0x01ffffff
10002120:	4001f000 	.word	0x4001f000
10002124:	20000cc0 	.word	0x20000cc0
10002128:	20000cc8 	.word	0x20000cc8
1000212c:	20000000 	.word	0x20000000
10002130:	e000ed00 	.word	0xe000ed00
10002134:	20000cd8 	.word	0x20000cd8
10002138:	20000ce0 	.word	0x20000ce0

1000213c <_sbrk>:
1000213c:	4a09      	ldr	r2, [pc, #36]	; (10002164 <_sbrk+0x28>)
1000213e:	0003      	movs	r3, r0
10002140:	6810      	ldr	r0, [r2, #0]
10002142:	2800      	cmp	r0, #0
10002144:	d005      	beq.n	10002152 <_sbrk+0x16>
10002146:	4908      	ldr	r1, [pc, #32]	; (10002168 <_sbrk+0x2c>)
10002148:	18c3      	adds	r3, r0, r3
1000214a:	428b      	cmp	r3, r1
1000214c:	d807      	bhi.n	1000215e <_sbrk+0x22>
1000214e:	6013      	str	r3, [r2, #0]
10002150:	4770      	bx	lr
10002152:	4806      	ldr	r0, [pc, #24]	; (1000216c <_sbrk+0x30>)
10002154:	4904      	ldr	r1, [pc, #16]	; (10002168 <_sbrk+0x2c>)
10002156:	18c3      	adds	r3, r0, r3
10002158:	6010      	str	r0, [r2, #0]
1000215a:	428b      	cmp	r3, r1
1000215c:	d9f7      	bls.n	1000214e <_sbrk+0x12>
1000215e:	2001      	movs	r0, #1
10002160:	4240      	negs	r0, r0
10002162:	e7f5      	b.n	10002150 <_sbrk+0x14>
10002164:	200017d4 	.word	0x200017d4
10002168:	20040000 	.word	0x20040000
1000216c:	20001c54 	.word	0x20001c54

10002170 <exit>:
10002170:	be00      	bkpt	0x0000
10002172:	e7fd      	b.n	10002170 <exit>

10002174 <panic>:
10002174:	b40f      	push	{r0, r1, r2, r3}
10002176:	b500      	push	{lr}
10002178:	4808      	ldr	r0, [pc, #32]	; (1000219c <panic+0x28>)
1000217a:	b083      	sub	sp, #12
1000217c:	f002 fe80 	bl	10004e80 <__wrap_puts>
10002180:	9b04      	ldr	r3, [sp, #16]
10002182:	2b00      	cmp	r3, #0
10002184:	d007      	beq.n	10002196 <panic+0x22>
10002186:	a905      	add	r1, sp, #20
10002188:	0018      	movs	r0, r3
1000218a:	9101      	str	r1, [sp, #4]
1000218c:	f001 fcfe 	bl	10003b8c <weak_raw_vprintf>
10002190:	4803      	ldr	r0, [pc, #12]	; (100021a0 <panic+0x2c>)
10002192:	f002 fe75 	bl	10004e80 <__wrap_puts>
10002196:	be00      	bkpt	0x0000
10002198:	e7fd      	b.n	10002196 <panic+0x22>
1000219a:	46c0      	nop			; (mov r8, r8)
1000219c:	1000b510 	.word	0x1000b510
100021a0:	1000b3d8 	.word	0x1000b3d8

100021a4 <hard_assertion_failure>:
100021a4:	b510      	push	{r4, lr}
100021a6:	4801      	ldr	r0, [pc, #4]	; (100021ac <hard_assertion_failure+0x8>)
100021a8:	f7ff ffe4 	bl	10002174 <panic>
100021ac:	1000b520 	.word	0x1000b520

100021b0 <clocks_init>:
100021b0:	b530      	push	{r4, r5, lr}
100021b2:	200c      	movs	r0, #12
100021b4:	b083      	sub	sp, #12
100021b6:	f000 f9b7 	bl	10002528 <watchdog_start_tick>
100021ba:	f7fe fd89 	bl	10000cd0 <running_on_fpga>
100021be:	2800      	cmp	r0, #0
100021c0:	d00e      	beq.n	100021e0 <clocks_init+0x30>
100021c2:	4b94      	ldr	r3, [pc, #592]	; (10002414 <clocks_init+0x264>)
100021c4:	4a94      	ldr	r2, [pc, #592]	; (10002418 <clocks_init+0x268>)
100021c6:	601a      	str	r2, [r3, #0]
100021c8:	605a      	str	r2, [r3, #4]
100021ca:	609a      	str	r2, [r3, #8]
100021cc:	60da      	str	r2, [r3, #12]
100021ce:	611a      	str	r2, [r3, #16]
100021d0:	615a      	str	r2, [r3, #20]
100021d2:	619a      	str	r2, [r3, #24]
100021d4:	61da      	str	r2, [r3, #28]
100021d6:	621a      	str	r2, [r3, #32]
100021d8:	4a90      	ldr	r2, [pc, #576]	; (1000241c <clocks_init+0x26c>)
100021da:	625a      	str	r2, [r3, #36]	; 0x24
100021dc:	b003      	add	sp, #12
100021de:	bd30      	pop	{r4, r5, pc}
100021e0:	4c8f      	ldr	r4, [pc, #572]	; (10002420 <clocks_init+0x270>)
100021e2:	67a0      	str	r0, [r4, #120]	; 0x78
100021e4:	f000 f9f4 	bl	100025d0 <xosc_init>
100021e8:	2201      	movs	r2, #1
100021ea:	4b8e      	ldr	r3, [pc, #568]	; (10002424 <clocks_init+0x274>)
100021ec:	601a      	str	r2, [r3, #0]
100021ee:	6c63      	ldr	r3, [r4, #68]	; 0x44
100021f0:	2b01      	cmp	r3, #1
100021f2:	d1fc      	bne.n	100021ee <clocks_init+0x3e>
100021f4:	2203      	movs	r2, #3
100021f6:	4b8c      	ldr	r3, [pc, #560]	; (10002428 <clocks_init+0x278>)
100021f8:	601a      	str	r2, [r3, #0]
100021fa:	4a89      	ldr	r2, [pc, #548]	; (10002420 <clocks_init+0x270>)
100021fc:	6b93      	ldr	r3, [r2, #56]	; 0x38
100021fe:	2b01      	cmp	r3, #1
10002200:	d1fc      	bne.n	100021fc <clocks_init+0x4c>
10002202:	3301      	adds	r3, #1
10002204:	2101      	movs	r1, #1
10002206:	4a89      	ldr	r2, [pc, #548]	; (1000242c <clocks_init+0x27c>)
10002208:	4889      	ldr	r0, [pc, #548]	; (10002430 <clocks_init+0x280>)
1000220a:	9300      	str	r3, [sp, #0]
1000220c:	3304      	adds	r3, #4
1000220e:	f000 f933 	bl	10002478 <pll_init>
10002212:	2305      	movs	r3, #5
10002214:	4a87      	ldr	r2, [pc, #540]	; (10002434 <clocks_init+0x284>)
10002216:	9300      	str	r3, [sp, #0]
10002218:	2101      	movs	r1, #1
1000221a:	4887      	ldr	r0, [pc, #540]	; (10002438 <clocks_init+0x288>)
1000221c:	f000 f92c 	bl	10002478 <pll_init>
10002220:	4b86      	ldr	r3, [pc, #536]	; (1000243c <clocks_init+0x28c>)
10002222:	685a      	ldr	r2, [r3, #4]
10002224:	2aff      	cmp	r2, #255	; 0xff
10002226:	d802      	bhi.n	1000222e <clocks_init+0x7e>
10002228:	2280      	movs	r2, #128	; 0x80
1000222a:	0052      	lsls	r2, r2, #1
1000222c:	605a      	str	r2, [r3, #4]
1000222e:	2280      	movs	r2, #128	; 0x80
10002230:	4c78      	ldr	r4, [pc, #480]	; (10002414 <clocks_init+0x264>)
10002232:	4b7d      	ldr	r3, [pc, #500]	; (10002428 <clocks_init+0x278>)
10002234:	6921      	ldr	r1, [r4, #16]
10002236:	0112      	lsls	r2, r2, #4
10002238:	4d80      	ldr	r5, [pc, #512]	; (1000243c <clocks_init+0x28c>)
1000223a:	601a      	str	r2, [r3, #0]
1000223c:	2900      	cmp	r1, #0
1000223e:	d005      	beq.n	1000224c <clocks_init+0x9c>
10002240:	6960      	ldr	r0, [r4, #20]
10002242:	f001 fd1d 	bl	10003c80 <__wrap___aeabi_uidiv>
10002246:	3001      	adds	r0, #1
10002248:	3801      	subs	r0, #1
1000224a:	d1fd      	bne.n	10002248 <clocks_init+0x98>
1000224c:	21e0      	movs	r1, #224	; 0xe0
1000224e:	4b7b      	ldr	r3, [pc, #492]	; (1000243c <clocks_init+0x28c>)
10002250:	2002      	movs	r0, #2
10002252:	681a      	ldr	r2, [r3, #0]
10002254:	4011      	ands	r1, r2
10002256:	2280      	movs	r2, #128	; 0x80
10002258:	0152      	lsls	r2, r2, #5
1000225a:	432a      	orrs	r2, r5
1000225c:	6011      	str	r1, [r2, #0]
1000225e:	6819      	ldr	r1, [r3, #0]
10002260:	4048      	eors	r0, r1
10002262:	2103      	movs	r1, #3
10002264:	4001      	ands	r1, r0
10002266:	6011      	str	r1, [r2, #0]
10002268:	2104      	movs	r1, #4
1000226a:	689a      	ldr	r2, [r3, #8]
1000226c:	4211      	tst	r1, r2
1000226e:	d0fc      	beq.n	1000226a <clocks_init+0xba>
10002270:	2280      	movs	r2, #128	; 0x80
10002272:	2180      	movs	r1, #128	; 0x80
10002274:	0192      	lsls	r2, r2, #6
10002276:	432a      	orrs	r2, r5
10002278:	0109      	lsls	r1, r1, #4
1000227a:	6011      	str	r1, [r2, #0]
1000227c:	2280      	movs	r2, #128	; 0x80
1000227e:	0052      	lsls	r2, r2, #1
10002280:	605a      	str	r2, [r3, #4]
10002282:	4b6f      	ldr	r3, [pc, #444]	; (10002440 <clocks_init+0x290>)
10002284:	6123      	str	r3, [r4, #16]
10002286:	4b6f      	ldr	r3, [pc, #444]	; (10002444 <clocks_init+0x294>)
10002288:	6859      	ldr	r1, [r3, #4]
1000228a:	29ff      	cmp	r1, #255	; 0xff
1000228c:	d800      	bhi.n	10002290 <clocks_init+0xe0>
1000228e:	605a      	str	r2, [r3, #4]
10002290:	2103      	movs	r1, #3
10002292:	4a64      	ldr	r2, [pc, #400]	; (10002424 <clocks_init+0x274>)
10002294:	4b6b      	ldr	r3, [pc, #428]	; (10002444 <clocks_init+0x294>)
10002296:	6011      	str	r1, [r2, #0]
10002298:	3902      	subs	r1, #2
1000229a:	689a      	ldr	r2, [r3, #8]
1000229c:	4211      	tst	r1, r2
1000229e:	d0fc      	beq.n	1000229a <clocks_init+0xea>
100022a0:	20e0      	movs	r0, #224	; 0xe0
100022a2:	681a      	ldr	r2, [r3, #0]
100022a4:	4010      	ands	r0, r2
100022a6:	2280      	movs	r2, #128	; 0x80
100022a8:	0152      	lsls	r2, r2, #5
100022aa:	431a      	orrs	r2, r3
100022ac:	6010      	str	r0, [r2, #0]
100022ae:	6818      	ldr	r0, [r3, #0]
100022b0:	4048      	eors	r0, r1
100022b2:	2103      	movs	r1, #3
100022b4:	4001      	ands	r1, r0
100022b6:	2002      	movs	r0, #2
100022b8:	6011      	str	r1, [r2, #0]
100022ba:	4962      	ldr	r1, [pc, #392]	; (10002444 <clocks_init+0x294>)
100022bc:	688a      	ldr	r2, [r1, #8]
100022be:	4210      	tst	r0, r2
100022c0:	d0fc      	beq.n	100022bc <clocks_init+0x10c>
100022c2:	2280      	movs	r2, #128	; 0x80
100022c4:	0192      	lsls	r2, r2, #6
100022c6:	4313      	orrs	r3, r2
100022c8:	2280      	movs	r2, #128	; 0x80
100022ca:	0112      	lsls	r2, r2, #4
100022cc:	601a      	str	r2, [r3, #0]
100022ce:	2280      	movs	r2, #128	; 0x80
100022d0:	4b5d      	ldr	r3, [pc, #372]	; (10002448 <clocks_init+0x298>)
100022d2:	0052      	lsls	r2, r2, #1
100022d4:	604a      	str	r2, [r1, #4]
100022d6:	6163      	str	r3, [r4, #20]
100022d8:	4b5c      	ldr	r3, [pc, #368]	; (1000244c <clocks_init+0x29c>)
100022da:	6859      	ldr	r1, [r3, #4]
100022dc:	29ff      	cmp	r1, #255	; 0xff
100022de:	d800      	bhi.n	100022e2 <clocks_init+0x132>
100022e0:	605a      	str	r2, [r3, #4]
100022e2:	2280      	movs	r2, #128	; 0x80
100022e4:	4b5a      	ldr	r3, [pc, #360]	; (10002450 <clocks_init+0x2a0>)
100022e6:	69e1      	ldr	r1, [r4, #28]
100022e8:	0112      	lsls	r2, r2, #4
100022ea:	4d58      	ldr	r5, [pc, #352]	; (1000244c <clocks_init+0x29c>)
100022ec:	601a      	str	r2, [r3, #0]
100022ee:	2900      	cmp	r1, #0
100022f0:	d005      	beq.n	100022fe <clocks_init+0x14e>
100022f2:	6960      	ldr	r0, [r4, #20]
100022f4:	f001 fcc4 	bl	10003c80 <__wrap___aeabi_uidiv>
100022f8:	3001      	adds	r0, #1
100022fa:	3801      	subs	r0, #1
100022fc:	d1fd      	bne.n	100022fa <clocks_init+0x14a>
100022fe:	22e0      	movs	r2, #224	; 0xe0
10002300:	4952      	ldr	r1, [pc, #328]	; (1000244c <clocks_init+0x29c>)
10002302:	680b      	ldr	r3, [r1, #0]
10002304:	401a      	ands	r2, r3
10002306:	2380      	movs	r3, #128	; 0x80
10002308:	015b      	lsls	r3, r3, #5
1000230a:	432b      	orrs	r3, r5
1000230c:	601a      	str	r2, [r3, #0]
1000230e:	2380      	movs	r3, #128	; 0x80
10002310:	2280      	movs	r2, #128	; 0x80
10002312:	019b      	lsls	r3, r3, #6
10002314:	432b      	orrs	r3, r5
10002316:	0112      	lsls	r2, r2, #4
10002318:	601a      	str	r2, [r3, #0]
1000231a:	2280      	movs	r2, #128	; 0x80
1000231c:	4b3e      	ldr	r3, [pc, #248]	; (10002418 <clocks_init+0x268>)
1000231e:	0052      	lsls	r2, r2, #1
10002320:	604a      	str	r2, [r1, #4]
10002322:	61e3      	str	r3, [r4, #28]
10002324:	4b4b      	ldr	r3, [pc, #300]	; (10002454 <clocks_init+0x2a4>)
10002326:	6859      	ldr	r1, [r3, #4]
10002328:	29ff      	cmp	r1, #255	; 0xff
1000232a:	d800      	bhi.n	1000232e <clocks_init+0x17e>
1000232c:	605a      	str	r2, [r3, #4]
1000232e:	2280      	movs	r2, #128	; 0x80
10002330:	4b49      	ldr	r3, [pc, #292]	; (10002458 <clocks_init+0x2a8>)
10002332:	6a21      	ldr	r1, [r4, #32]
10002334:	0112      	lsls	r2, r2, #4
10002336:	4d47      	ldr	r5, [pc, #284]	; (10002454 <clocks_init+0x2a4>)
10002338:	601a      	str	r2, [r3, #0]
1000233a:	2900      	cmp	r1, #0
1000233c:	d005      	beq.n	1000234a <clocks_init+0x19a>
1000233e:	6960      	ldr	r0, [r4, #20]
10002340:	f001 fc9e 	bl	10003c80 <__wrap___aeabi_uidiv>
10002344:	3001      	adds	r0, #1
10002346:	3801      	subs	r0, #1
10002348:	d1fd      	bne.n	10002346 <clocks_init+0x196>
1000234a:	22e0      	movs	r2, #224	; 0xe0
1000234c:	4941      	ldr	r1, [pc, #260]	; (10002454 <clocks_init+0x2a4>)
1000234e:	680b      	ldr	r3, [r1, #0]
10002350:	401a      	ands	r2, r3
10002352:	2380      	movs	r3, #128	; 0x80
10002354:	015b      	lsls	r3, r3, #5
10002356:	432b      	orrs	r3, r5
10002358:	601a      	str	r2, [r3, #0]
1000235a:	2380      	movs	r3, #128	; 0x80
1000235c:	2280      	movs	r2, #128	; 0x80
1000235e:	019b      	lsls	r3, r3, #6
10002360:	432b      	orrs	r3, r5
10002362:	0112      	lsls	r2, r2, #4
10002364:	601a      	str	r2, [r3, #0]
10002366:	2380      	movs	r3, #128	; 0x80
10002368:	2280      	movs	r2, #128	; 0x80
1000236a:	005b      	lsls	r3, r3, #1
1000236c:	604b      	str	r3, [r1, #4]
1000236e:	4b2a      	ldr	r3, [pc, #168]	; (10002418 <clocks_init+0x268>)
10002370:	02d2      	lsls	r2, r2, #11
10002372:	6223      	str	r3, [r4, #32]
10002374:	4b39      	ldr	r3, [pc, #228]	; (1000245c <clocks_init+0x2ac>)
10002376:	6859      	ldr	r1, [r3, #4]
10002378:	4291      	cmp	r1, r2
1000237a:	d200      	bcs.n	1000237e <clocks_init+0x1ce>
1000237c:	605a      	str	r2, [r3, #4]
1000237e:	2280      	movs	r2, #128	; 0x80
10002380:	4b37      	ldr	r3, [pc, #220]	; (10002460 <clocks_init+0x2b0>)
10002382:	6a61      	ldr	r1, [r4, #36]	; 0x24
10002384:	0112      	lsls	r2, r2, #4
10002386:	4d35      	ldr	r5, [pc, #212]	; (1000245c <clocks_init+0x2ac>)
10002388:	601a      	str	r2, [r3, #0]
1000238a:	2900      	cmp	r1, #0
1000238c:	d005      	beq.n	1000239a <clocks_init+0x1ea>
1000238e:	6960      	ldr	r0, [r4, #20]
10002390:	f001 fc76 	bl	10003c80 <__wrap___aeabi_uidiv>
10002394:	3001      	adds	r0, #1
10002396:	3801      	subs	r0, #1
10002398:	d1fd      	bne.n	10002396 <clocks_init+0x1e6>
1000239a:	22e0      	movs	r2, #224	; 0xe0
1000239c:	492f      	ldr	r1, [pc, #188]	; (1000245c <clocks_init+0x2ac>)
1000239e:	680b      	ldr	r3, [r1, #0]
100023a0:	401a      	ands	r2, r3
100023a2:	2380      	movs	r3, #128	; 0x80
100023a4:	015b      	lsls	r3, r3, #5
100023a6:	432b      	orrs	r3, r5
100023a8:	601a      	str	r2, [r3, #0]
100023aa:	2380      	movs	r3, #128	; 0x80
100023ac:	2280      	movs	r2, #128	; 0x80
100023ae:	019b      	lsls	r3, r3, #6
100023b0:	432b      	orrs	r3, r5
100023b2:	0112      	lsls	r2, r2, #4
100023b4:	601a      	str	r2, [r3, #0]
100023b6:	2380      	movs	r3, #128	; 0x80
100023b8:	02db      	lsls	r3, r3, #11
100023ba:	604b      	str	r3, [r1, #4]
100023bc:	4b17      	ldr	r3, [pc, #92]	; (1000241c <clocks_init+0x26c>)
100023be:	6263      	str	r3, [r4, #36]	; 0x24
100023c0:	4b28      	ldr	r3, [pc, #160]	; (10002464 <clocks_init+0x2b4>)
100023c2:	685a      	ldr	r2, [r3, #4]
100023c4:	2aff      	cmp	r2, #255	; 0xff
100023c6:	d802      	bhi.n	100023ce <clocks_init+0x21e>
100023c8:	2280      	movs	r2, #128	; 0x80
100023ca:	0052      	lsls	r2, r2, #1
100023cc:	605a      	str	r2, [r3, #4]
100023ce:	2280      	movs	r2, #128	; 0x80
100023d0:	4b25      	ldr	r3, [pc, #148]	; (10002468 <clocks_init+0x2b8>)
100023d2:	69a1      	ldr	r1, [r4, #24]
100023d4:	0112      	lsls	r2, r2, #4
100023d6:	4d23      	ldr	r5, [pc, #140]	; (10002464 <clocks_init+0x2b4>)
100023d8:	601a      	str	r2, [r3, #0]
100023da:	2900      	cmp	r1, #0
100023dc:	d005      	beq.n	100023ea <clocks_init+0x23a>
100023de:	6960      	ldr	r0, [r4, #20]
100023e0:	f001 fc4e 	bl	10003c80 <__wrap___aeabi_uidiv>
100023e4:	3001      	adds	r0, #1
100023e6:	3801      	subs	r0, #1
100023e8:	d1fd      	bne.n	100023e6 <clocks_init+0x236>
100023ea:	22e0      	movs	r2, #224	; 0xe0
100023ec:	491d      	ldr	r1, [pc, #116]	; (10002464 <clocks_init+0x2b4>)
100023ee:	680b      	ldr	r3, [r1, #0]
100023f0:	401a      	ands	r2, r3
100023f2:	2380      	movs	r3, #128	; 0x80
100023f4:	015b      	lsls	r3, r3, #5
100023f6:	432b      	orrs	r3, r5
100023f8:	601a      	str	r2, [r3, #0]
100023fa:	2380      	movs	r3, #128	; 0x80
100023fc:	2280      	movs	r2, #128	; 0x80
100023fe:	019b      	lsls	r3, r3, #6
10002400:	432b      	orrs	r3, r5
10002402:	0112      	lsls	r2, r2, #4
10002404:	601a      	str	r2, [r3, #0]
10002406:	2380      	movs	r3, #128	; 0x80
10002408:	005b      	lsls	r3, r3, #1
1000240a:	604b      	str	r3, [r1, #4]
1000240c:	4b0e      	ldr	r3, [pc, #56]	; (10002448 <clocks_init+0x298>)
1000240e:	61a3      	str	r3, [r4, #24]
10002410:	e6e4      	b.n	100021dc <clocks_init+0x2c>
10002412:	46c0      	nop			; (mov r8, r8)
10002414:	20001734 	.word	0x20001734
10002418:	02dc6c00 	.word	0x02dc6c00
1000241c:	0000b71b 	.word	0x0000b71b
10002420:	40008000 	.word	0x40008000
10002424:	4000b03c 	.word	0x4000b03c
10002428:	4000b030 	.word	0x4000b030
1000242c:	59682f00 	.word	0x59682f00
10002430:	40028000 	.word	0x40028000
10002434:	47868c00 	.word	0x47868c00
10002438:	4002c000 	.word	0x4002c000
1000243c:	40008030 	.word	0x40008030
10002440:	00b71b00 	.word	0x00b71b00
10002444:	4000803c 	.word	0x4000803c
10002448:	07735940 	.word	0x07735940
1000244c:	40008054 	.word	0x40008054
10002450:	4000b054 	.word	0x4000b054
10002454:	40008060 	.word	0x40008060
10002458:	4000b060 	.word	0x4000b060
1000245c:	4000806c 	.word	0x4000806c
10002460:	4000b06c 	.word	0x4000b06c
10002464:	40008048 	.word	0x40008048
10002468:	4000b048 	.word	0x4000b048

1000246c <clock_get_hz>:
1000246c:	4b01      	ldr	r3, [pc, #4]	; (10002474 <clock_get_hz+0x8>)
1000246e:	0080      	lsls	r0, r0, #2
10002470:	58c0      	ldr	r0, [r0, r3]
10002472:	4770      	bx	lr
10002474:	20001734 	.word	0x20001734

10002478 <pll_init>:
10002478:	b5f0      	push	{r4, r5, r6, r7, lr}
1000247a:	46c6      	mov	lr, r8
1000247c:	0004      	movs	r4, r0
1000247e:	b500      	push	{lr}
10002480:	200c      	movs	r0, #12
10002482:	4690      	mov	r8, r2
10002484:	001f      	movs	r7, r3
10002486:	000e      	movs	r6, r1
10002488:	f001 fbfa 	bl	10003c80 <__wrap___aeabi_uidiv>
1000248c:	0141      	lsls	r1, r0, #5
1000248e:	1a09      	subs	r1, r1, r0
10002490:	018d      	lsls	r5, r1, #6
10002492:	1a69      	subs	r1, r5, r1
10002494:	00c9      	lsls	r1, r1, #3
10002496:	1809      	adds	r1, r1, r0
10002498:	0189      	lsls	r1, r1, #6
1000249a:	4640      	mov	r0, r8
1000249c:	f001 fbf0 	bl	10003c80 <__wrap___aeabi_uidiv>
100024a0:	9b06      	ldr	r3, [sp, #24]
100024a2:	043f      	lsls	r7, r7, #16
100024a4:	031a      	lsls	r2, r3, #12
100024a6:	6823      	ldr	r3, [r4, #0]
100024a8:	4317      	orrs	r7, r2
100024aa:	2b00      	cmp	r3, #0
100024ac:	db22      	blt.n	100024f4 <pll_init+0x7c>
100024ae:	4b1a      	ldr	r3, [pc, #104]	; (10002518 <pll_init+0xa0>)
100024b0:	4d1a      	ldr	r5, [pc, #104]	; (1000251c <pll_init+0xa4>)
100024b2:	18e2      	adds	r2, r4, r3
100024b4:	4253      	negs	r3, r2
100024b6:	415a      	adcs	r2, r3
100024b8:	2380      	movs	r3, #128	; 0x80
100024ba:	015b      	lsls	r3, r3, #5
100024bc:	469c      	mov	ip, r3
100024be:	0312      	lsls	r2, r2, #12
100024c0:	4b17      	ldr	r3, [pc, #92]	; (10002520 <pll_init+0xa8>)
100024c2:	4462      	add	r2, ip
100024c4:	601a      	str	r2, [r3, #0]
100024c6:	4b17      	ldr	r3, [pc, #92]	; (10002524 <pll_init+0xac>)
100024c8:	601a      	str	r2, [r3, #0]
100024ca:	0011      	movs	r1, r2
100024cc:	68ab      	ldr	r3, [r5, #8]
100024ce:	4399      	bics	r1, r3
100024d0:	d1fb      	bne.n	100024ca <pll_init+0x52>
100024d2:	22c0      	movs	r2, #192	; 0xc0
100024d4:	1d23      	adds	r3, r4, #4
100024d6:	0192      	lsls	r2, r2, #6
100024d8:	431a      	orrs	r2, r3
100024da:	2321      	movs	r3, #33	; 0x21
100024dc:	6026      	str	r6, [r4, #0]
100024de:	60a0      	str	r0, [r4, #8]
100024e0:	6013      	str	r3, [r2, #0]
100024e2:	6823      	ldr	r3, [r4, #0]
100024e4:	2b00      	cmp	r3, #0
100024e6:	dafc      	bge.n	100024e2 <pll_init+0x6a>
100024e8:	2308      	movs	r3, #8
100024ea:	60e7      	str	r7, [r4, #12]
100024ec:	6013      	str	r3, [r2, #0]
100024ee:	bc80      	pop	{r7}
100024f0:	46b8      	mov	r8, r7
100024f2:	bdf0      	pop	{r4, r5, r6, r7, pc}
100024f4:	233f      	movs	r3, #63	; 0x3f
100024f6:	6822      	ldr	r2, [r4, #0]
100024f8:	4013      	ands	r3, r2
100024fa:	42b3      	cmp	r3, r6
100024fc:	d1d7      	bne.n	100024ae <pll_init+0x36>
100024fe:	68a3      	ldr	r3, [r4, #8]
10002500:	051b      	lsls	r3, r3, #20
10002502:	0d1b      	lsrs	r3, r3, #20
10002504:	4283      	cmp	r3, r0
10002506:	d1d2      	bne.n	100024ae <pll_init+0x36>
10002508:	22ee      	movs	r2, #238	; 0xee
1000250a:	68e3      	ldr	r3, [r4, #12]
1000250c:	02d2      	lsls	r2, r2, #11
1000250e:	4013      	ands	r3, r2
10002510:	42bb      	cmp	r3, r7
10002512:	d1cc      	bne.n	100024ae <pll_init+0x36>
10002514:	e7eb      	b.n	100024ee <pll_init+0x76>
10002516:	46c0      	nop			; (mov r8, r8)
10002518:	bffd4000 	.word	0xbffd4000
1000251c:	4000c000 	.word	0x4000c000
10002520:	4000e000 	.word	0x4000e000
10002524:	4000f000 	.word	0x4000f000

10002528 <watchdog_start_tick>:
10002528:	2380      	movs	r3, #128	; 0x80
1000252a:	4a02      	ldr	r2, [pc, #8]	; (10002534 <watchdog_start_tick+0xc>)
1000252c:	009b      	lsls	r3, r3, #2
1000252e:	4303      	orrs	r3, r0
10002530:	62d3      	str	r3, [r2, #44]	; 0x2c
10002532:	4770      	bx	lr
10002534:	40058000 	.word	0x40058000

10002538 <watchdog_reboot>:
10002538:	b510      	push	{r4, lr}
1000253a:	0014      	movs	r4, r2
1000253c:	2280      	movs	r2, #128	; 0x80
1000253e:	4b1b      	ldr	r3, [pc, #108]	; (100025ac <watchdog_reboot+0x74>)
10002540:	05d2      	lsls	r2, r2, #23
10002542:	601a      	str	r2, [r3, #0]
10002544:	2800      	cmp	r0, #0
10002546:	d01a      	beq.n	1000257e <watchdog_reboot+0x46>
10002548:	2301      	movs	r3, #1
1000254a:	4a19      	ldr	r2, [pc, #100]	; (100025b0 <watchdog_reboot+0x78>)
1000254c:	4318      	orrs	r0, r3
1000254e:	4b19      	ldr	r3, [pc, #100]	; (100025b4 <watchdog_reboot+0x7c>)
10002550:	61da      	str	r2, [r3, #28]
10002552:	4a19      	ldr	r2, [pc, #100]	; (100025b8 <watchdog_reboot+0x80>)
10002554:	4042      	eors	r2, r0
10002556:	621a      	str	r2, [r3, #32]
10002558:	6259      	str	r1, [r3, #36]	; 0x24
1000255a:	6298      	str	r0, [r3, #40]	; 0x28
1000255c:	2280      	movs	r2, #128	; 0x80
1000255e:	4b13      	ldr	r3, [pc, #76]	; (100025ac <watchdog_reboot+0x74>)
10002560:	05d2      	lsls	r2, r2, #23
10002562:	601a      	str	r2, [r3, #0]
10002564:	4915      	ldr	r1, [pc, #84]	; (100025bc <watchdog_reboot+0x84>)
10002566:	4a16      	ldr	r2, [pc, #88]	; (100025c0 <watchdog_reboot+0x88>)
10002568:	6011      	str	r1, [r2, #0]
1000256a:	22e0      	movs	r2, #224	; 0xe0
1000256c:	04d2      	lsls	r2, r2, #19
1000256e:	601a      	str	r2, [r3, #0]
10002570:	2c00      	cmp	r4, #0
10002572:	d107      	bne.n	10002584 <watchdog_reboot+0x4c>
10002574:	2280      	movs	r2, #128	; 0x80
10002576:	4b13      	ldr	r3, [pc, #76]	; (100025c4 <watchdog_reboot+0x8c>)
10002578:	0612      	lsls	r2, r2, #24
1000257a:	601a      	str	r2, [r3, #0]
1000257c:	bd10      	pop	{r4, pc}
1000257e:	4b0d      	ldr	r3, [pc, #52]	; (100025b4 <watchdog_reboot+0x7c>)
10002580:	61d8      	str	r0, [r3, #28]
10002582:	e7eb      	b.n	1000255c <watchdog_reboot+0x24>
10002584:	0163      	lsls	r3, r4, #5
10002586:	1b1b      	subs	r3, r3, r4
10002588:	009a      	lsls	r2, r3, #2
1000258a:	2380      	movs	r3, #128	; 0x80
1000258c:	1912      	adds	r2, r2, r4
1000258e:	0112      	lsls	r2, r2, #4
10002590:	045b      	lsls	r3, r3, #17
10002592:	429a      	cmp	r2, r3
10002594:	d300      	bcc.n	10002598 <watchdog_reboot+0x60>
10002596:	4a0c      	ldr	r2, [pc, #48]	; (100025c8 <watchdog_reboot+0x90>)
10002598:	4b0c      	ldr	r3, [pc, #48]	; (100025cc <watchdog_reboot+0x94>)
1000259a:	601a      	str	r2, [r3, #0]
1000259c:	4b05      	ldr	r3, [pc, #20]	; (100025b4 <watchdog_reboot+0x7c>)
1000259e:	605a      	str	r2, [r3, #4]
100025a0:	2280      	movs	r2, #128	; 0x80
100025a2:	4b08      	ldr	r3, [pc, #32]	; (100025c4 <watchdog_reboot+0x8c>)
100025a4:	05d2      	lsls	r2, r2, #23
100025a6:	601a      	str	r2, [r3, #0]
100025a8:	e7e8      	b.n	1000257c <watchdog_reboot+0x44>
100025aa:	46c0      	nop			; (mov r8, r8)
100025ac:	4005b000 	.word	0x4005b000
100025b0:	b007c0d3 	.word	0xb007c0d3
100025b4:	40058000 	.word	0x40058000
100025b8:	4ff83f2d 	.word	0x4ff83f2d
100025bc:	0001fffc 	.word	0x0001fffc
100025c0:	40012008 	.word	0x40012008
100025c4:	4005a000 	.word	0x4005a000
100025c8:	00ffffff 	.word	0x00ffffff
100025cc:	20001be0 	.word	0x20001be0

100025d0 <xosc_init>:
100025d0:	23aa      	movs	r3, #170	; 0xaa
100025d2:	4a06      	ldr	r2, [pc, #24]	; (100025ec <xosc_init+0x1c>)
100025d4:	011b      	lsls	r3, r3, #4
100025d6:	6013      	str	r3, [r2, #0]
100025d8:	232f      	movs	r3, #47	; 0x2f
100025da:	4905      	ldr	r1, [pc, #20]	; (100025f0 <xosc_init+0x20>)
100025dc:	60d3      	str	r3, [r2, #12]
100025de:	4b05      	ldr	r3, [pc, #20]	; (100025f4 <xosc_init+0x24>)
100025e0:	6019      	str	r1, [r3, #0]
100025e2:	6853      	ldr	r3, [r2, #4]
100025e4:	2b00      	cmp	r3, #0
100025e6:	dafc      	bge.n	100025e2 <xosc_init+0x12>
100025e8:	4770      	bx	lr
100025ea:	46c0      	nop			; (mov r8, r8)
100025ec:	40024000 	.word	0x40024000
100025f0:	00fab000 	.word	0x00fab000
100025f4:	40026000 	.word	0x40026000

100025f8 <_out_null>:
100025f8:	4770      	bx	lr
100025fa:	46c0      	nop			; (mov r8, r8)

100025fc <_out_rev>:
100025fc:	b5f8      	push	{r3, r4, r5, r6, r7, lr}
100025fe:	4657      	mov	r7, sl
10002600:	464e      	mov	r6, r9
10002602:	4645      	mov	r5, r8
10002604:	46de      	mov	lr, fp
10002606:	b5e0      	push	{r5, r6, r7, lr}
10002608:	4699      	mov	r9, r3
1000260a:	9b0a      	ldr	r3, [sp, #40]	; 0x28
1000260c:	0007      	movs	r7, r0
1000260e:	469a      	mov	sl, r3
10002610:	9b0d      	ldr	r3, [sp, #52]	; 0x34
10002612:	4688      	mov	r8, r1
10002614:	4693      	mov	fp, r2
10002616:	0015      	movs	r5, r2
10002618:	9e0b      	ldr	r6, [sp, #44]	; 0x2c
1000261a:	079b      	lsls	r3, r3, #30
1000261c:	d110      	bne.n	10002640 <_out_rev+0x44>
1000261e:	9b0c      	ldr	r3, [sp, #48]	; 0x30
10002620:	429e      	cmp	r6, r3
10002622:	d20d      	bcs.n	10002640 <_out_rev+0x44>
10002624:	1b9d      	subs	r5, r3, r6
10002626:	0014      	movs	r4, r2
10002628:	000e      	movs	r6, r1
1000262a:	445d      	add	r5, fp
1000262c:	0022      	movs	r2, r4
1000262e:	464b      	mov	r3, r9
10002630:	3401      	adds	r4, #1
10002632:	0031      	movs	r1, r6
10002634:	2020      	movs	r0, #32
10002636:	47b8      	blx	r7
10002638:	42a5      	cmp	r5, r4
1000263a:	d1f7      	bne.n	1000262c <_out_rev+0x30>
1000263c:	46b0      	mov	r8, r6
1000263e:	9e0b      	ldr	r6, [sp, #44]	; 0x2c
10002640:	2e00      	cmp	r6, #0
10002642:	d027      	beq.n	10002694 <_out_rev+0x98>
10002644:	4644      	mov	r4, r8
10002646:	1975      	adds	r5, r6, r5
10002648:	4653      	mov	r3, sl
1000264a:	1baa      	subs	r2, r5, r6
1000264c:	3e01      	subs	r6, #1
1000264e:	5d98      	ldrb	r0, [r3, r6]
10002650:	0021      	movs	r1, r4
10002652:	464b      	mov	r3, r9
10002654:	47b8      	blx	r7
10002656:	2e00      	cmp	r6, #0
10002658:	d1f6      	bne.n	10002648 <_out_rev+0x4c>
1000265a:	0023      	movs	r3, r4
1000265c:	002c      	movs	r4, r5
1000265e:	4698      	mov	r8, r3
10002660:	9b0d      	ldr	r3, [sp, #52]	; 0x34
10002662:	079b      	lsls	r3, r3, #30
10002664:	d50f      	bpl.n	10002686 <_out_rev+0x8a>
10002666:	465b      	mov	r3, fp
10002668:	1ae5      	subs	r5, r4, r3
1000266a:	9b0c      	ldr	r3, [sp, #48]	; 0x30
1000266c:	42ab      	cmp	r3, r5
1000266e:	d90a      	bls.n	10002686 <_out_rev+0x8a>
10002670:	4646      	mov	r6, r8
10002672:	4698      	mov	r8, r3
10002674:	0022      	movs	r2, r4
10002676:	464b      	mov	r3, r9
10002678:	0031      	movs	r1, r6
1000267a:	2020      	movs	r0, #32
1000267c:	3501      	adds	r5, #1
1000267e:	47b8      	blx	r7
10002680:	3401      	adds	r4, #1
10002682:	45a8      	cmp	r8, r5
10002684:	d8f6      	bhi.n	10002674 <_out_rev+0x78>
10002686:	0020      	movs	r0, r4
10002688:	bcf0      	pop	{r4, r5, r6, r7}
1000268a:	46bb      	mov	fp, r7
1000268c:	46b2      	mov	sl, r6
1000268e:	46a9      	mov	r9, r5
10002690:	46a0      	mov	r8, r4
10002692:	bdf8      	pop	{r3, r4, r5, r6, r7, pc}
10002694:	002c      	movs	r4, r5
10002696:	e7e3      	b.n	10002660 <_out_rev+0x64>

10002698 <_ntoa_format>:
10002698:	b5f0      	push	{r4, r5, r6, r7, lr}
1000269a:	464f      	mov	r7, r9
1000269c:	4646      	mov	r6, r8
1000269e:	46d6      	mov	lr, sl
100026a0:	b5c0      	push	{r6, r7, lr}
100026a2:	b084      	sub	sp, #16
100026a4:	4698      	mov	r8, r3
100026a6:	ab0e      	add	r3, sp, #56	; 0x38
100026a8:	781b      	ldrb	r3, [r3, #0]
100026aa:	9f12      	ldr	r7, [sp, #72]	; 0x48
100026ac:	4699      	mov	r9, r3
100026ae:	4694      	mov	ip, r2
100026b0:	9c0d      	ldr	r4, [sp, #52]	; 0x34
100026b2:	9b10      	ldr	r3, [sp, #64]	; 0x40
100026b4:	9e11      	ldr	r6, [sp, #68]	; 0x44
100026b6:	07ba      	lsls	r2, r7, #30
100026b8:	d425      	bmi.n	10002706 <_ntoa_format+0x6e>
100026ba:	2e00      	cmp	r6, #0
100026bc:	d14b      	bne.n	10002756 <_ntoa_format+0xbe>
100026be:	429c      	cmp	r4, r3
100026c0:	d300      	bcc.n	100026c4 <_ntoa_format+0x2c>
100026c2:	e0bf      	b.n	10002844 <_ntoa_format+0x1ac>
100026c4:	2201      	movs	r2, #1
100026c6:	403a      	ands	r2, r7
100026c8:	4692      	mov	sl, r2
100026ca:	2c1f      	cmp	r4, #31
100026cc:	d900      	bls.n	100026d0 <_ntoa_format+0x38>
100026ce:	e0b8      	b.n	10002842 <_ntoa_format+0x1aa>
100026d0:	9a0c      	ldr	r2, [sp, #48]	; 0x30
100026d2:	1e55      	subs	r5, r2, #1
100026d4:	2230      	movs	r2, #48	; 0x30
100026d6:	e001      	b.n	100026dc <_ntoa_format+0x44>
100026d8:	2c20      	cmp	r4, #32
100026da:	d003      	beq.n	100026e4 <_ntoa_format+0x4c>
100026dc:	3401      	adds	r4, #1
100026de:	552a      	strb	r2, [r5, r4]
100026e0:	42a3      	cmp	r3, r4
100026e2:	d8f9      	bhi.n	100026d8 <_ntoa_format+0x40>
100026e4:	4652      	mov	r2, sl
100026e6:	2a00      	cmp	r2, #0
100026e8:	d00d      	beq.n	10002706 <_ntoa_format+0x6e>
100026ea:	42a6      	cmp	r6, r4
100026ec:	d90b      	bls.n	10002706 <_ntoa_format+0x6e>
100026ee:	2c20      	cmp	r4, #32
100026f0:	d044      	beq.n	1000277c <_ntoa_format+0xe4>
100026f2:	9a0c      	ldr	r2, [sp, #48]	; 0x30
100026f4:	1e55      	subs	r5, r2, #1
100026f6:	2230      	movs	r2, #48	; 0x30
100026f8:	e001      	b.n	100026fe <_ntoa_format+0x66>
100026fa:	2c20      	cmp	r4, #32
100026fc:	d03e      	beq.n	1000277c <_ntoa_format+0xe4>
100026fe:	3401      	adds	r4, #1
10002700:	552a      	strb	r2, [r5, r4]
10002702:	42b4      	cmp	r4, r6
10002704:	d1f9      	bne.n	100026fa <_ntoa_format+0x62>
10002706:	06fa      	lsls	r2, r7, #27
10002708:	d54d      	bpl.n	100027a6 <_ntoa_format+0x10e>
1000270a:	057a      	lsls	r2, r7, #21
1000270c:	d43f      	bmi.n	1000278e <_ntoa_format+0xf6>
1000270e:	2c00      	cmp	r4, #0
10002710:	d139      	bne.n	10002786 <_ntoa_format+0xee>
10002712:	9b0f      	ldr	r3, [sp, #60]	; 0x3c
10002714:	2b10      	cmp	r3, #16
10002716:	d100      	bne.n	1000271a <_ntoa_format+0x82>
10002718:	e079      	b.n	1000280e <_ntoa_format+0x176>
1000271a:	9b0f      	ldr	r3, [sp, #60]	; 0x3c
1000271c:	2b02      	cmp	r3, #2
1000271e:	d100      	bne.n	10002722 <_ntoa_format+0x8a>
10002720:	e08a      	b.n	10002838 <_ntoa_format+0x1a0>
10002722:	2330      	movs	r3, #48	; 0x30
10002724:	9a0c      	ldr	r2, [sp, #48]	; 0x30
10002726:	2401      	movs	r4, #1
10002728:	7013      	strb	r3, [r2, #0]
1000272a:	464b      	mov	r3, r9
1000272c:	2b00      	cmp	r3, #0
1000272e:	d03f      	beq.n	100027b0 <_ntoa_format+0x118>
10002730:	232d      	movs	r3, #45	; 0x2d
10002732:	9a0c      	ldr	r2, [sp, #48]	; 0x30
10002734:	5513      	strb	r3, [r2, r4]
10002736:	3401      	adds	r4, #1
10002738:	9b0c      	ldr	r3, [sp, #48]	; 0x30
1000273a:	4662      	mov	r2, ip
1000273c:	9300      	str	r3, [sp, #0]
1000273e:	9703      	str	r7, [sp, #12]
10002740:	4643      	mov	r3, r8
10002742:	9602      	str	r6, [sp, #8]
10002744:	9401      	str	r4, [sp, #4]
10002746:	f7ff ff59 	bl	100025fc <_out_rev>
1000274a:	b004      	add	sp, #16
1000274c:	bce0      	pop	{r5, r6, r7}
1000274e:	46ba      	mov	sl, r7
10002750:	46b1      	mov	r9, r6
10002752:	46a8      	mov	r8, r5
10002754:	bdf0      	pop	{r4, r5, r6, r7, pc}
10002756:	2201      	movs	r2, #1
10002758:	0015      	movs	r5, r2
1000275a:	403d      	ands	r5, r7
1000275c:	46aa      	mov	sl, r5
1000275e:	423a      	tst	r2, r7
10002760:	d02f      	beq.n	100027c2 <_ntoa_format+0x12a>
10002762:	464a      	mov	r2, r9
10002764:	2a00      	cmp	r2, #0
10002766:	d102      	bne.n	1000276e <_ntoa_format+0xd6>
10002768:	320c      	adds	r2, #12
1000276a:	423a      	tst	r2, r7
1000276c:	d000      	beq.n	10002770 <_ntoa_format+0xd8>
1000276e:	3e01      	subs	r6, #1
10002770:	429c      	cmp	r4, r3
10002772:	d2ba      	bcs.n	100026ea <_ntoa_format+0x52>
10002774:	2c1f      	cmp	r4, #31
10002776:	d9ab      	bls.n	100026d0 <_ntoa_format+0x38>
10002778:	2e20      	cmp	r6, #32
1000277a:	d927      	bls.n	100027cc <_ntoa_format+0x134>
1000277c:	2420      	movs	r4, #32
1000277e:	06fa      	lsls	r2, r7, #27
10002780:	d5da      	bpl.n	10002738 <_ntoa_format+0xa0>
10002782:	057a      	lsls	r2, r7, #21
10002784:	d403      	bmi.n	1000278e <_ntoa_format+0xf6>
10002786:	42a3      	cmp	r3, r4
10002788:	d02d      	beq.n	100027e6 <_ntoa_format+0x14e>
1000278a:	42a6      	cmp	r6, r4
1000278c:	d02b      	beq.n	100027e6 <_ntoa_format+0x14e>
1000278e:	9b0f      	ldr	r3, [sp, #60]	; 0x3c
10002790:	2b10      	cmp	r3, #16
10002792:	d032      	beq.n	100027fa <_ntoa_format+0x162>
10002794:	2b02      	cmp	r3, #2
10002796:	d020      	beq.n	100027da <_ntoa_format+0x142>
10002798:	2c20      	cmp	r4, #32
1000279a:	d0cd      	beq.n	10002738 <_ntoa_format+0xa0>
1000279c:	2230      	movs	r2, #48	; 0x30
1000279e:	9b0c      	ldr	r3, [sp, #48]	; 0x30
100027a0:	191b      	adds	r3, r3, r4
100027a2:	701a      	strb	r2, [r3, #0]
100027a4:	3401      	adds	r4, #1
100027a6:	2c20      	cmp	r4, #32
100027a8:	d0c6      	beq.n	10002738 <_ntoa_format+0xa0>
100027aa:	464b      	mov	r3, r9
100027ac:	2b00      	cmp	r3, #0
100027ae:	d1bf      	bne.n	10002730 <_ntoa_format+0x98>
100027b0:	077b      	lsls	r3, r7, #29
100027b2:	d40d      	bmi.n	100027d0 <_ntoa_format+0x138>
100027b4:	073b      	lsls	r3, r7, #28
100027b6:	d5bf      	bpl.n	10002738 <_ntoa_format+0xa0>
100027b8:	2320      	movs	r3, #32
100027ba:	9a0c      	ldr	r2, [sp, #48]	; 0x30
100027bc:	5513      	strb	r3, [r2, r4]
100027be:	3401      	adds	r4, #1
100027c0:	e7ba      	b.n	10002738 <_ntoa_format+0xa0>
100027c2:	429c      	cmp	r4, r3
100027c4:	d29f      	bcs.n	10002706 <_ntoa_format+0x6e>
100027c6:	2c1f      	cmp	r4, #31
100027c8:	d800      	bhi.n	100027cc <_ntoa_format+0x134>
100027ca:	e781      	b.n	100026d0 <_ntoa_format+0x38>
100027cc:	2420      	movs	r4, #32
100027ce:	e79a      	b.n	10002706 <_ntoa_format+0x6e>
100027d0:	232b      	movs	r3, #43	; 0x2b
100027d2:	9a0c      	ldr	r2, [sp, #48]	; 0x30
100027d4:	5513      	strb	r3, [r2, r4]
100027d6:	3401      	adds	r4, #1
100027d8:	e7ae      	b.n	10002738 <_ntoa_format+0xa0>
100027da:	2c20      	cmp	r4, #32
100027dc:	d0ac      	beq.n	10002738 <_ntoa_format+0xa0>
100027de:	9b0c      	ldr	r3, [sp, #48]	; 0x30
100027e0:	191b      	adds	r3, r3, r4
100027e2:	3401      	adds	r4, #1
100027e4:	e03a      	b.n	1000285c <_ntoa_format+0x1c4>
100027e6:	1e63      	subs	r3, r4, #1
100027e8:	2c01      	cmp	r4, #1
100027ea:	d092      	beq.n	10002712 <_ntoa_format+0x7a>
100027ec:	9a0f      	ldr	r2, [sp, #60]	; 0x3c
100027ee:	2a10      	cmp	r2, #16
100027f0:	d02a      	beq.n	10002848 <_ntoa_format+0x1b0>
100027f2:	2a02      	cmp	r2, #2
100027f4:	d02f      	beq.n	10002856 <_ntoa_format+0x1be>
100027f6:	001c      	movs	r4, r3
100027f8:	e7d0      	b.n	1000279c <_ntoa_format+0x104>
100027fa:	06bb      	lsls	r3, r7, #26
100027fc:	d40e      	bmi.n	1000281c <_ntoa_format+0x184>
100027fe:	2c20      	cmp	r4, #32
10002800:	d09a      	beq.n	10002738 <_ntoa_format+0xa0>
10002802:	9b0c      	ldr	r3, [sp, #48]	; 0x30
10002804:	191a      	adds	r2, r3, r4
10002806:	3401      	adds	r4, #1
10002808:	2378      	movs	r3, #120	; 0x78
1000280a:	7013      	strb	r3, [r2, #0]
1000280c:	e7c4      	b.n	10002798 <_ntoa_format+0x100>
1000280e:	06bb      	lsls	r3, r7, #26
10002810:	d40d      	bmi.n	1000282e <_ntoa_format+0x196>
10002812:	2378      	movs	r3, #120	; 0x78
10002814:	9a0c      	ldr	r2, [sp, #48]	; 0x30
10002816:	2401      	movs	r4, #1
10002818:	7013      	strb	r3, [r2, #0]
1000281a:	e7bf      	b.n	1000279c <_ntoa_format+0x104>
1000281c:	2c20      	cmp	r4, #32
1000281e:	d100      	bne.n	10002822 <_ntoa_format+0x18a>
10002820:	e78a      	b.n	10002738 <_ntoa_format+0xa0>
10002822:	2258      	movs	r2, #88	; 0x58
10002824:	9b0c      	ldr	r3, [sp, #48]	; 0x30
10002826:	191b      	adds	r3, r3, r4
10002828:	701a      	strb	r2, [r3, #0]
1000282a:	3401      	adds	r4, #1
1000282c:	e7b4      	b.n	10002798 <_ntoa_format+0x100>
1000282e:	2358      	movs	r3, #88	; 0x58
10002830:	9a0c      	ldr	r2, [sp, #48]	; 0x30
10002832:	2401      	movs	r4, #1
10002834:	7013      	strb	r3, [r2, #0]
10002836:	e7b1      	b.n	1000279c <_ntoa_format+0x104>
10002838:	9a0c      	ldr	r2, [sp, #48]	; 0x30
1000283a:	3360      	adds	r3, #96	; 0x60
1000283c:	2401      	movs	r4, #1
1000283e:	7013      	strb	r3, [r2, #0]
10002840:	e7ac      	b.n	1000279c <_ntoa_format+0x104>
10002842:	2420      	movs	r4, #32
10002844:	2600      	movs	r6, #0
10002846:	e75e      	b.n	10002706 <_ntoa_format+0x6e>
10002848:	3c02      	subs	r4, #2
1000284a:	06ba      	lsls	r2, r7, #26
1000284c:	d4e9      	bmi.n	10002822 <_ntoa_format+0x18a>
1000284e:	9a0c      	ldr	r2, [sp, #48]	; 0x30
10002850:	1912      	adds	r2, r2, r4
10002852:	001c      	movs	r4, r3
10002854:	e7d8      	b.n	10002808 <_ntoa_format+0x170>
10002856:	9a0c      	ldr	r2, [sp, #48]	; 0x30
10002858:	4692      	mov	sl, r2
1000285a:	4453      	add	r3, sl
1000285c:	2262      	movs	r2, #98	; 0x62
1000285e:	701a      	strb	r2, [r3, #0]
10002860:	e79a      	b.n	10002798 <_ntoa_format+0x100>
10002862:	46c0      	nop			; (mov r8, r8)

10002864 <_out_char>:
10002864:	b510      	push	{r4, lr}
10002866:	2800      	cmp	r0, #0
10002868:	d100      	bne.n	1000286c <_out_char+0x8>
1000286a:	bd10      	pop	{r4, pc}
1000286c:	f002 fab8 	bl	10004de0 <__wrap_putchar>
10002870:	e7fb      	b.n	1000286a <_out_char+0x6>
10002872:	46c0      	nop			; (mov r8, r8)

10002874 <_out_fct>:
10002874:	000b      	movs	r3, r1
10002876:	b510      	push	{r4, lr}
10002878:	2800      	cmp	r0, #0
1000287a:	d002      	beq.n	10002882 <_out_fct+0xe>
1000287c:	6849      	ldr	r1, [r1, #4]
1000287e:	681b      	ldr	r3, [r3, #0]
10002880:	4798      	blx	r3
10002882:	bd10      	pop	{r4, pc}

10002884 <_etoa>:
10002884:	b5f0      	push	{r4, r5, r6, r7, lr}
10002886:	46de      	mov	lr, fp
10002888:	4657      	mov	r7, sl
1000288a:	464e      	mov	r6, r9
1000288c:	4645      	mov	r5, r8
1000288e:	b5e0      	push	{r5, r6, r7, lr}
10002890:	b09b      	sub	sp, #108	; 0x6c
10002892:	469b      	mov	fp, r3
10002894:	9b24      	ldr	r3, [sp, #144]	; 0x90
10002896:	4689      	mov	r9, r1
10002898:	4698      	mov	r8, r3
1000289a:	9b25      	ldr	r3, [sp, #148]	; 0x94
1000289c:	900b      	str	r0, [sp, #44]	; 0x2c
1000289e:	920c      	str	r2, [sp, #48]	; 0x30
100028a0:	4640      	mov	r0, r8
100028a2:	4642      	mov	r2, r8
100028a4:	0019      	movs	r1, r3
100028a6:	469a      	mov	sl, r3
100028a8:	f001 fcbb 	bl	10004222 <__wrap___aeabi_dcmpun>
100028ac:	2800      	cmp	r0, #0
100028ae:	d000      	beq.n	100028b2 <_etoa+0x2e>
100028b0:	e0d8      	b.n	10002a64 <_etoa+0x1e0>
100028b2:	2201      	movs	r2, #1
100028b4:	4640      	mov	r0, r8
100028b6:	4651      	mov	r1, sl
100028b8:	4b77      	ldr	r3, [pc, #476]	; (10002a98 <_etoa+0x214>)
100028ba:	4252      	negs	r2, r2
100028bc:	f001 fcac 	bl	10004218 <__wrap___aeabi_dcmpgt>
100028c0:	2800      	cmp	r0, #0
100028c2:	d000      	beq.n	100028c6 <_etoa+0x42>
100028c4:	e0ce      	b.n	10002a64 <_etoa+0x1e0>
100028c6:	2201      	movs	r2, #1
100028c8:	4640      	mov	r0, r8
100028ca:	4651      	mov	r1, sl
100028cc:	4b73      	ldr	r3, [pc, #460]	; (10002a9c <_etoa+0x218>)
100028ce:	4252      	negs	r2, r2
100028d0:	f001 fc8c 	bl	100041ec <__wrap___aeabi_dcmplt>
100028d4:	2800      	cmp	r0, #0
100028d6:	d000      	beq.n	100028da <_etoa+0x56>
100028d8:	e0c4      	b.n	10002a64 <_etoa+0x1e0>
100028da:	2200      	movs	r2, #0
100028dc:	2300      	movs	r3, #0
100028de:	4640      	mov	r0, r8
100028e0:	4651      	mov	r1, sl
100028e2:	f001 fc83 	bl	100041ec <__wrap___aeabi_dcmplt>
100028e6:	2800      	cmp	r0, #0
100028e8:	d000      	beq.n	100028ec <_etoa+0x68>
100028ea:	e1b9      	b.n	10002c60 <_etoa+0x3dc>
100028ec:	4642      	mov	r2, r8
100028ee:	4653      	mov	r3, sl
100028f0:	920a      	str	r2, [sp, #40]	; 0x28
100028f2:	9309      	str	r3, [sp, #36]	; 0x24
100028f4:	2380      	movs	r3, #128	; 0x80
100028f6:	9a28      	ldr	r2, [sp, #160]	; 0xa0
100028f8:	00db      	lsls	r3, r3, #3
100028fa:	401a      	ands	r2, r3
100028fc:	920e      	str	r2, [sp, #56]	; 0x38
100028fe:	9a28      	ldr	r2, [sp, #160]	; 0xa0
10002900:	421a      	tst	r2, r3
10002902:	d101      	bne.n	10002908 <_etoa+0x84>
10002904:	2306      	movs	r3, #6
10002906:	9326      	str	r3, [sp, #152]	; 0x98
10002908:	9a0a      	ldr	r2, [sp, #40]	; 0x28
1000290a:	9b09      	ldr	r3, [sp, #36]	; 0x24
1000290c:	0016      	movs	r6, r2
1000290e:	4313      	orrs	r3, r2
10002910:	d000      	beq.n	10002914 <_etoa+0x90>
10002912:	e0c7      	b.n	10002aa4 <_etoa+0x220>
10002914:	9b28      	ldr	r3, [sp, #160]	; 0xa0
10002916:	2500      	movs	r5, #0
10002918:	2600      	movs	r6, #0
1000291a:	051b      	lsls	r3, r3, #20
1000291c:	d400      	bmi.n	10002920 <_etoa+0x9c>
1000291e:	e19b      	b.n	10002c58 <_etoa+0x3d4>
10002920:	2300      	movs	r3, #0
10002922:	930d      	str	r3, [sp, #52]	; 0x34
10002924:	9a26      	ldr	r2, [sp, #152]	; 0x98
10002926:	9b0d      	ldr	r3, [sp, #52]	; 0x34
10002928:	429a      	cmp	r2, r3
1000292a:	dc00      	bgt.n	1000292e <_etoa+0xaa>
1000292c:	e19f      	b.n	10002c6e <_etoa+0x3ea>
1000292e:	1ad0      	subs	r0, r2, r3
10002930:	1e43      	subs	r3, r0, #1
10002932:	9326      	str	r3, [sp, #152]	; 0x98
10002934:	2380      	movs	r3, #128	; 0x80
10002936:	9a28      	ldr	r2, [sp, #160]	; 0xa0
10002938:	00db      	lsls	r3, r3, #3
1000293a:	431a      	orrs	r2, r3
1000293c:	2300      	movs	r3, #0
1000293e:	2700      	movs	r7, #0
10002940:	9228      	str	r2, [sp, #160]	; 0xa0
10002942:	930d      	str	r3, [sp, #52]	; 0x34
10002944:	9b27      	ldr	r3, [sp, #156]	; 0x9c
10002946:	2400      	movs	r4, #0
10002948:	42bb      	cmp	r3, r7
1000294a:	d900      	bls.n	1000294e <_etoa+0xca>
1000294c:	1bdc      	subs	r4, r3, r7
1000294e:	2302      	movs	r3, #2
10002950:	9a28      	ldr	r2, [sp, #160]	; 0xa0
10002952:	401a      	ands	r2, r3
10002954:	920e      	str	r2, [sp, #56]	; 0x38
10002956:	9a28      	ldr	r2, [sp, #160]	; 0xa0
10002958:	4213      	tst	r3, r2
1000295a:	d003      	beq.n	10002964 <_etoa+0xe0>
1000295c:	427b      	negs	r3, r7
1000295e:	417b      	adcs	r3, r7
10002960:	425b      	negs	r3, r3
10002962:	401c      	ands	r4, r3
10002964:	9b0d      	ldr	r3, [sp, #52]	; 0x34
10002966:	2b00      	cmp	r3, #0
10002968:	d007      	beq.n	1000297a <_etoa+0xf6>
1000296a:	980a      	ldr	r0, [sp, #40]	; 0x28
1000296c:	9909      	ldr	r1, [sp, #36]	; 0x24
1000296e:	002a      	movs	r2, r5
10002970:	0033      	movs	r3, r6
10002972:	f001 fbda 	bl	1000412a <__wrap___aeabi_ddiv>
10002976:	900a      	str	r0, [sp, #40]	; 0x28
10002978:	9109      	str	r1, [sp, #36]	; 0x24
1000297a:	2200      	movs	r2, #0
1000297c:	2300      	movs	r3, #0
1000297e:	4640      	mov	r0, r8
10002980:	4651      	mov	r1, sl
10002982:	f001 fc33 	bl	100041ec <__wrap___aeabi_dcmplt>
10002986:	2800      	cmp	r0, #0
10002988:	d005      	beq.n	10002996 <_etoa+0x112>
1000298a:	2080      	movs	r0, #128	; 0x80
1000298c:	0600      	lsls	r0, r0, #24
1000298e:	4684      	mov	ip, r0
10002990:	9909      	ldr	r1, [sp, #36]	; 0x24
10002992:	4461      	add	r1, ip
10002994:	9109      	str	r1, [sp, #36]	; 0x24
10002996:	9a28      	ldr	r2, [sp, #160]	; 0xa0
10002998:	4b41      	ldr	r3, [pc, #260]	; (10002aa0 <_etoa+0x21c>)
1000299a:	9d0b      	ldr	r5, [sp, #44]	; 0x2c
1000299c:	4013      	ands	r3, r2
1000299e:	9304      	str	r3, [sp, #16]
100029a0:	9b26      	ldr	r3, [sp, #152]	; 0x98
100029a2:	9a0a      	ldr	r2, [sp, #40]	; 0x28
100029a4:	9302      	str	r3, [sp, #8]
100029a6:	9b09      	ldr	r3, [sp, #36]	; 0x24
100029a8:	9403      	str	r4, [sp, #12]
100029aa:	9200      	str	r2, [sp, #0]
100029ac:	9301      	str	r3, [sp, #4]
100029ae:	4649      	mov	r1, r9
100029b0:	465b      	mov	r3, fp
100029b2:	0028      	movs	r0, r5
100029b4:	9a0c      	ldr	r2, [sp, #48]	; 0x30
100029b6:	f000 f98b 	bl	10002cd0 <_ftoa>
100029ba:	0004      	movs	r4, r0
100029bc:	2f00      	cmp	r7, #0
100029be:	d062      	beq.n	10002a86 <_etoa+0x202>
100029c0:	9b28      	ldr	r3, [sp, #160]	; 0xa0
100029c2:	0022      	movs	r2, r4
100029c4:	0698      	lsls	r0, r3, #26
100029c6:	231f      	movs	r3, #31
100029c8:	17c0      	asrs	r0, r0, #31
100029ca:	4398      	bics	r0, r3
100029cc:	1c63      	adds	r3, r4, #1
100029ce:	4698      	mov	r8, r3
100029d0:	4649      	mov	r1, r9
100029d2:	465b      	mov	r3, fp
100029d4:	3065      	adds	r0, #101	; 0x65
100029d6:	47a8      	blx	r5
100029d8:	9b0d      	ldr	r3, [sp, #52]	; 0x34
100029da:	2500      	movs	r5, #0
100029dc:	17da      	asrs	r2, r3, #31
100029de:	189c      	adds	r4, r3, r2
100029e0:	0fdb      	lsrs	r3, r3, #31
100029e2:	469a      	mov	sl, r3
100029e4:	4054      	eors	r4, r2
100029e6:	3f01      	subs	r7, #1
100029e8:	e001      	b.n	100029ee <_etoa+0x16a>
100029ea:	2d20      	cmp	r5, #32
100029ec:	d013      	beq.n	10002a16 <_etoa+0x192>
100029ee:	aa0a      	add	r2, sp, #40	; 0x28
100029f0:	4694      	mov	ip, r2
100029f2:	231f      	movs	r3, #31
100029f4:	0020      	movs	r0, r4
100029f6:	4463      	add	r3, ip
100029f8:	210a      	movs	r1, #10
100029fa:	3501      	adds	r5, #1
100029fc:	195e      	adds	r6, r3, r5
100029fe:	f001 f93f 	bl	10003c80 <__wrap___aeabi_uidiv>
10002a02:	3130      	adds	r1, #48	; 0x30
10002a04:	7031      	strb	r1, [r6, #0]
10002a06:	0020      	movs	r0, r4
10002a08:	210a      	movs	r1, #10
10002a0a:	f001 f939 	bl	10003c80 <__wrap___aeabi_uidiv>
10002a0e:	0026      	movs	r6, r4
10002a10:	0004      	movs	r4, r0
10002a12:	2e09      	cmp	r6, #9
10002a14:	d8e9      	bhi.n	100029ea <_etoa+0x166>
10002a16:	2305      	movs	r3, #5
10002a18:	9306      	str	r3, [sp, #24]
10002a1a:	2300      	movs	r3, #0
10002a1c:	9304      	str	r3, [sp, #16]
10002a1e:	330a      	adds	r3, #10
10002a20:	9303      	str	r3, [sp, #12]
10002a22:	4653      	mov	r3, sl
10002a24:	9705      	str	r7, [sp, #20]
10002a26:	9f0b      	ldr	r7, [sp, #44]	; 0x2c
10002a28:	9302      	str	r3, [sp, #8]
10002a2a:	ab12      	add	r3, sp, #72	; 0x48
10002a2c:	9300      	str	r3, [sp, #0]
10002a2e:	4642      	mov	r2, r8
10002a30:	465b      	mov	r3, fp
10002a32:	4649      	mov	r1, r9
10002a34:	0038      	movs	r0, r7
10002a36:	9501      	str	r5, [sp, #4]
10002a38:	f7ff fe2e 	bl	10002698 <_ntoa_format>
10002a3c:	9b0e      	ldr	r3, [sp, #56]	; 0x38
10002a3e:	0004      	movs	r4, r0
10002a40:	2b00      	cmp	r3, #0
10002a42:	d020      	beq.n	10002a86 <_etoa+0x202>
10002a44:	9b0c      	ldr	r3, [sp, #48]	; 0x30
10002a46:	1ac5      	subs	r5, r0, r3
10002a48:	9b27      	ldr	r3, [sp, #156]	; 0x9c
10002a4a:	42ab      	cmp	r3, r5
10002a4c:	d91b      	bls.n	10002a86 <_etoa+0x202>
10002a4e:	001e      	movs	r6, r3
10002a50:	0022      	movs	r2, r4
10002a52:	465b      	mov	r3, fp
10002a54:	4649      	mov	r1, r9
10002a56:	2020      	movs	r0, #32
10002a58:	3501      	adds	r5, #1
10002a5a:	47b8      	blx	r7
10002a5c:	3401      	adds	r4, #1
10002a5e:	42ae      	cmp	r6, r5
10002a60:	d8f6      	bhi.n	10002a50 <_etoa+0x1cc>
10002a62:	e010      	b.n	10002a86 <_etoa+0x202>
10002a64:	9b28      	ldr	r3, [sp, #160]	; 0xa0
10002a66:	4642      	mov	r2, r8
10002a68:	9304      	str	r3, [sp, #16]
10002a6a:	9b27      	ldr	r3, [sp, #156]	; 0x9c
10002a6c:	4649      	mov	r1, r9
10002a6e:	9303      	str	r3, [sp, #12]
10002a70:	9b26      	ldr	r3, [sp, #152]	; 0x98
10002a72:	980b      	ldr	r0, [sp, #44]	; 0x2c
10002a74:	9302      	str	r3, [sp, #8]
10002a76:	4653      	mov	r3, sl
10002a78:	9200      	str	r2, [sp, #0]
10002a7a:	9301      	str	r3, [sp, #4]
10002a7c:	465b      	mov	r3, fp
10002a7e:	9a0c      	ldr	r2, [sp, #48]	; 0x30
10002a80:	f000 f926 	bl	10002cd0 <_ftoa>
10002a84:	0004      	movs	r4, r0
10002a86:	0020      	movs	r0, r4
10002a88:	b01b      	add	sp, #108	; 0x6c
10002a8a:	bcf0      	pop	{r4, r5, r6, r7}
10002a8c:	46bb      	mov	fp, r7
10002a8e:	46b2      	mov	sl, r6
10002a90:	46a9      	mov	r9, r5
10002a92:	46a0      	mov	r8, r4
10002a94:	bdf0      	pop	{r4, r5, r6, r7, pc}
10002a96:	46c0      	nop			; (mov r8, r8)
10002a98:	7fefffff 	.word	0x7fefffff
10002a9c:	ffefffff 	.word	0xffefffff
10002aa0:	fffff7ff 	.word	0xfffff7ff
10002aa4:	4b73      	ldr	r3, [pc, #460]	; (10002c74 <_etoa+0x3f0>)
10002aa6:	9f09      	ldr	r7, [sp, #36]	; 0x24
10002aa8:	469c      	mov	ip, r3
10002aaa:	0078      	lsls	r0, r7, #1
10002aac:	0d40      	lsrs	r0, r0, #21
10002aae:	4460      	add	r0, ip
10002ab0:	f001 fbca 	bl	10004248 <__wrap___aeabi_i2d>
10002ab4:	4a70      	ldr	r2, [pc, #448]	; (10002c78 <_etoa+0x3f4>)
10002ab6:	4b71      	ldr	r3, [pc, #452]	; (10002c7c <_etoa+0x3f8>)
10002ab8:	f001 fb55 	bl	10004166 <__wrap___aeabi_dmul>
10002abc:	4a70      	ldr	r2, [pc, #448]	; (10002c80 <_etoa+0x3fc>)
10002abe:	4b71      	ldr	r3, [pc, #452]	; (10002c84 <_etoa+0x400>)
10002ac0:	f001 fb2a 	bl	10004118 <__wrap___aeabi_dadd>
10002ac4:	033b      	lsls	r3, r7, #12
10002ac6:	4a70      	ldr	r2, [pc, #448]	; (10002c88 <_etoa+0x404>)
10002ac8:	0b1b      	lsrs	r3, r3, #12
10002aca:	431a      	orrs	r2, r3
10002acc:	0004      	movs	r4, r0
10002ace:	000d      	movs	r5, r1
10002ad0:	0030      	movs	r0, r6
10002ad2:	0011      	movs	r1, r2
10002ad4:	4b6d      	ldr	r3, [pc, #436]	; (10002c8c <_etoa+0x408>)
10002ad6:	2200      	movs	r2, #0
10002ad8:	f001 fb15 	bl	10004106 <__wrap___aeabi_dsub>
10002adc:	4a6c      	ldr	r2, [pc, #432]	; (10002c90 <_etoa+0x40c>)
10002ade:	4b6d      	ldr	r3, [pc, #436]	; (10002c94 <_etoa+0x410>)
10002ae0:	f001 fb41 	bl	10004166 <__wrap___aeabi_dmul>
10002ae4:	0002      	movs	r2, r0
10002ae6:	000b      	movs	r3, r1
10002ae8:	0020      	movs	r0, r4
10002aea:	0029      	movs	r1, r5
10002aec:	f001 fb14 	bl	10004118 <__wrap___aeabi_dadd>
10002af0:	f001 fbc2 	bl	10004278 <__wrap___aeabi_d2iz>
10002af4:	900d      	str	r0, [sp, #52]	; 0x34
10002af6:	f001 fba7 	bl	10004248 <__wrap___aeabi_i2d>
10002afa:	4a67      	ldr	r2, [pc, #412]	; (10002c98 <_etoa+0x414>)
10002afc:	4b67      	ldr	r3, [pc, #412]	; (10002c9c <_etoa+0x418>)
10002afe:	0004      	movs	r4, r0
10002b00:	000d      	movs	r5, r1
10002b02:	f001 fb30 	bl	10004166 <__wrap___aeabi_dmul>
10002b06:	2200      	movs	r2, #0
10002b08:	4b65      	ldr	r3, [pc, #404]	; (10002ca0 <_etoa+0x41c>)
10002b0a:	f001 fb05 	bl	10004118 <__wrap___aeabi_dadd>
10002b0e:	f001 fbb3 	bl	10004278 <__wrap___aeabi_d2iz>
10002b12:	4a64      	ldr	r2, [pc, #400]	; (10002ca4 <_etoa+0x420>)
10002b14:	0006      	movs	r6, r0
10002b16:	4b64      	ldr	r3, [pc, #400]	; (10002ca8 <_etoa+0x424>)
10002b18:	0020      	movs	r0, r4
10002b1a:	0029      	movs	r1, r5
10002b1c:	f001 fb23 	bl	10004166 <__wrap___aeabi_dmul>
10002b20:	0004      	movs	r4, r0
10002b22:	0030      	movs	r0, r6
10002b24:	000d      	movs	r5, r1
10002b26:	960f      	str	r6, [sp, #60]	; 0x3c
10002b28:	f001 fb8e 	bl	10004248 <__wrap___aeabi_i2d>
10002b2c:	4a5f      	ldr	r2, [pc, #380]	; (10002cac <_etoa+0x428>)
10002b2e:	4b60      	ldr	r3, [pc, #384]	; (10002cb0 <_etoa+0x42c>)
10002b30:	f001 fb19 	bl	10004166 <__wrap___aeabi_dmul>
10002b34:	0002      	movs	r2, r0
10002b36:	000b      	movs	r3, r1
10002b38:	0020      	movs	r0, r4
10002b3a:	0029      	movs	r1, r5
10002b3c:	f001 fae3 	bl	10004106 <__wrap___aeabi_dsub>
10002b40:	0002      	movs	r2, r0
10002b42:	000b      	movs	r3, r1
10002b44:	0006      	movs	r6, r0
10002b46:	000f      	movs	r7, r1
10002b48:	f001 fb0d 	bl	10004166 <__wrap___aeabi_dmul>
10002b4c:	0032      	movs	r2, r6
10002b4e:	0004      	movs	r4, r0
10002b50:	000d      	movs	r5, r1
10002b52:	003b      	movs	r3, r7
10002b54:	0030      	movs	r0, r6
10002b56:	0039      	movs	r1, r7
10002b58:	f001 fade 	bl	10004118 <__wrap___aeabi_dadd>
10002b5c:	2200      	movs	r2, #0
10002b5e:	9010      	str	r0, [sp, #64]	; 0x40
10002b60:	9111      	str	r1, [sp, #68]	; 0x44
10002b62:	4b54      	ldr	r3, [pc, #336]	; (10002cb4 <_etoa+0x430>)
10002b64:	0020      	movs	r0, r4
10002b66:	0029      	movs	r1, r5
10002b68:	f001 fadf 	bl	1000412a <__wrap___aeabi_ddiv>
10002b6c:	2200      	movs	r2, #0
10002b6e:	4b52      	ldr	r3, [pc, #328]	; (10002cb8 <_etoa+0x434>)
10002b70:	f001 fad2 	bl	10004118 <__wrap___aeabi_dadd>
10002b74:	0002      	movs	r2, r0
10002b76:	000b      	movs	r3, r1
10002b78:	0020      	movs	r0, r4
10002b7a:	0029      	movs	r1, r5
10002b7c:	f001 fad5 	bl	1000412a <__wrap___aeabi_ddiv>
10002b80:	2200      	movs	r2, #0
10002b82:	4b4e      	ldr	r3, [pc, #312]	; (10002cbc <_etoa+0x438>)
10002b84:	f001 fac8 	bl	10004118 <__wrap___aeabi_dadd>
10002b88:	0002      	movs	r2, r0
10002b8a:	000b      	movs	r3, r1
10002b8c:	0020      	movs	r0, r4
10002b8e:	0029      	movs	r1, r5
10002b90:	f001 facb 	bl	1000412a <__wrap___aeabi_ddiv>
10002b94:	000d      	movs	r5, r1
10002b96:	2180      	movs	r1, #128	; 0x80
10002b98:	0004      	movs	r4, r0
10002b9a:	0032      	movs	r2, r6
10002b9c:	003b      	movs	r3, r7
10002b9e:	2000      	movs	r0, #0
10002ba0:	05c9      	lsls	r1, r1, #23
10002ba2:	f001 fab0 	bl	10004106 <__wrap___aeabi_dsub>
10002ba6:	0002      	movs	r2, r0
10002ba8:	000b      	movs	r3, r1
10002baa:	0020      	movs	r0, r4
10002bac:	0029      	movs	r1, r5
10002bae:	f001 fab3 	bl	10004118 <__wrap___aeabi_dadd>
10002bb2:	0002      	movs	r2, r0
10002bb4:	000b      	movs	r3, r1
10002bb6:	9810      	ldr	r0, [sp, #64]	; 0x40
10002bb8:	9911      	ldr	r1, [sp, #68]	; 0x44
10002bba:	f001 fab6 	bl	1000412a <__wrap___aeabi_ddiv>
10002bbe:	2200      	movs	r2, #0
10002bc0:	4b31      	ldr	r3, [pc, #196]	; (10002c88 <_etoa+0x404>)
10002bc2:	f001 faa9 	bl	10004118 <__wrap___aeabi_dadd>
10002bc6:	4b3e      	ldr	r3, [pc, #248]	; (10002cc0 <_etoa+0x43c>)
10002bc8:	9c0f      	ldr	r4, [sp, #60]	; 0x3c
10002bca:	469c      	mov	ip, r3
10002bcc:	4464      	add	r4, ip
10002bce:	2200      	movs	r2, #0
10002bd0:	0523      	lsls	r3, r4, #20
10002bd2:	f001 fac8 	bl	10004166 <__wrap___aeabi_dmul>
10002bd6:	0005      	movs	r5, r0
10002bd8:	000e      	movs	r6, r1
10002bda:	0002      	movs	r2, r0
10002bdc:	000b      	movs	r3, r1
10002bde:	980a      	ldr	r0, [sp, #40]	; 0x28
10002be0:	9909      	ldr	r1, [sp, #36]	; 0x24
10002be2:	f001 fb03 	bl	100041ec <__wrap___aeabi_dcmplt>
10002be6:	2800      	cmp	r0, #0
10002be8:	d00a      	beq.n	10002c00 <_etoa+0x37c>
10002bea:	9b0d      	ldr	r3, [sp, #52]	; 0x34
10002bec:	0028      	movs	r0, r5
10002bee:	3b01      	subs	r3, #1
10002bf0:	0031      	movs	r1, r6
10002bf2:	930d      	str	r3, [sp, #52]	; 0x34
10002bf4:	2200      	movs	r2, #0
10002bf6:	4b30      	ldr	r3, [pc, #192]	; (10002cb8 <_etoa+0x434>)
10002bf8:	f001 fa97 	bl	1000412a <__wrap___aeabi_ddiv>
10002bfc:	0005      	movs	r5, r0
10002bfe:	000e      	movs	r6, r1
10002c00:	27c6      	movs	r7, #198	; 0xc6
10002c02:	990d      	ldr	r1, [sp, #52]	; 0x34
10002c04:	002b      	movs	r3, r5
10002c06:	3163      	adds	r1, #99	; 0x63
10002c08:	428f      	cmp	r7, r1
10002c0a:	41bf      	sbcs	r7, r7
10002c0c:	9928      	ldr	r1, [sp, #160]	; 0xa0
10002c0e:	427f      	negs	r7, r7
10002c10:	3704      	adds	r7, #4
10002c12:	0509      	lsls	r1, r1, #20
10002c14:	d400      	bmi.n	10002c18 <_etoa+0x394>
10002c16:	e695      	b.n	10002944 <_etoa+0xc0>
10002c18:	4333      	orrs	r3, r6
10002c1a:	d100      	bne.n	10002c1e <_etoa+0x39a>
10002c1c:	e682      	b.n	10002924 <_etoa+0xa0>
10002c1e:	9c09      	ldr	r4, [sp, #36]	; 0x24
10002c20:	4a28      	ldr	r2, [pc, #160]	; (10002cc4 <_etoa+0x440>)
10002c22:	0021      	movs	r1, r4
10002c24:	4b28      	ldr	r3, [pc, #160]	; (10002cc8 <_etoa+0x444>)
10002c26:	980a      	ldr	r0, [sp, #40]	; 0x28
10002c28:	f001 faee 	bl	10004208 <__wrap___aeabi_dcmpge>
10002c2c:	2800      	cmp	r0, #0
10002c2e:	d008      	beq.n	10002c42 <_etoa+0x3be>
10002c30:	2200      	movs	r2, #0
10002c32:	0021      	movs	r1, r4
10002c34:	4b25      	ldr	r3, [pc, #148]	; (10002ccc <_etoa+0x448>)
10002c36:	980a      	ldr	r0, [sp, #40]	; 0x28
10002c38:	f001 fad8 	bl	100041ec <__wrap___aeabi_dcmplt>
10002c3c:	2800      	cmp	r0, #0
10002c3e:	d000      	beq.n	10002c42 <_etoa+0x3be>
10002c40:	e670      	b.n	10002924 <_etoa+0xa0>
10002c42:	9b26      	ldr	r3, [sp, #152]	; 0x98
10002c44:	2b00      	cmp	r3, #0
10002c46:	d100      	bne.n	10002c4a <_etoa+0x3c6>
10002c48:	e67c      	b.n	10002944 <_etoa+0xc0>
10002c4a:	9b0e      	ldr	r3, [sp, #56]	; 0x38
10002c4c:	1e5a      	subs	r2, r3, #1
10002c4e:	4193      	sbcs	r3, r2
10002c50:	9a26      	ldr	r2, [sp, #152]	; 0x98
10002c52:	1ad3      	subs	r3, r2, r3
10002c54:	9326      	str	r3, [sp, #152]	; 0x98
10002c56:	e675      	b.n	10002944 <_etoa+0xc0>
10002c58:	2300      	movs	r3, #0
10002c5a:	2704      	movs	r7, #4
10002c5c:	930d      	str	r3, [sp, #52]	; 0x34
10002c5e:	e671      	b.n	10002944 <_etoa+0xc0>
10002c60:	4643      	mov	r3, r8
10002c62:	930a      	str	r3, [sp, #40]	; 0x28
10002c64:	2380      	movs	r3, #128	; 0x80
10002c66:	061b      	lsls	r3, r3, #24
10002c68:	4453      	add	r3, sl
10002c6a:	9309      	str	r3, [sp, #36]	; 0x24
10002c6c:	e642      	b.n	100028f4 <_etoa+0x70>
10002c6e:	2300      	movs	r3, #0
10002c70:	9326      	str	r3, [sp, #152]	; 0x98
10002c72:	e65f      	b.n	10002934 <_etoa+0xb0>
10002c74:	fffffc01 	.word	0xfffffc01
10002c78:	509f79fb 	.word	0x509f79fb
10002c7c:	3fd34413 	.word	0x3fd34413
10002c80:	8b60c8b3 	.word	0x8b60c8b3
10002c84:	3fc68a28 	.word	0x3fc68a28
10002c88:	3ff00000 	.word	0x3ff00000
10002c8c:	3ff80000 	.word	0x3ff80000
10002c90:	636f4361 	.word	0x636f4361
10002c94:	3fd287a7 	.word	0x3fd287a7
10002c98:	0979a371 	.word	0x0979a371
10002c9c:	400a934f 	.word	0x400a934f
10002ca0:	3fe00000 	.word	0x3fe00000
10002ca4:	bbb55516 	.word	0xbbb55516
10002ca8:	40026bb1 	.word	0x40026bb1
10002cac:	fefa39ef 	.word	0xfefa39ef
10002cb0:	3fe62e42 	.word	0x3fe62e42
10002cb4:	402c0000 	.word	0x402c0000
10002cb8:	40240000 	.word	0x40240000
10002cbc:	40180000 	.word	0x40180000
10002cc0:	000003ff 	.word	0x000003ff
10002cc4:	eb1c432d 	.word	0xeb1c432d
10002cc8:	3f1a36e2 	.word	0x3f1a36e2
10002ccc:	412e8480 	.word	0x412e8480

10002cd0 <_ftoa>:
10002cd0:	b5f0      	push	{r4, r5, r6, r7, lr}
10002cd2:	464e      	mov	r6, r9
10002cd4:	46de      	mov	lr, fp
10002cd6:	4657      	mov	r7, sl
10002cd8:	4645      	mov	r5, r8
10002cda:	b5e0      	push	{r5, r6, r7, lr}
10002cdc:	b097      	sub	sp, #92	; 0x5c
10002cde:	4699      	mov	r9, r3
10002ce0:	9e20      	ldr	r6, [sp, #128]	; 0x80
10002ce2:	9f21      	ldr	r7, [sp, #132]	; 0x84
10002ce4:	9b22      	ldr	r3, [sp, #136]	; 0x88
10002ce6:	4683      	mov	fp, r0
10002ce8:	4698      	mov	r8, r3
10002cea:	9107      	str	r1, [sp, #28]
10002cec:	920c      	str	r2, [sp, #48]	; 0x30
10002cee:	003b      	movs	r3, r7
10002cf0:	0032      	movs	r2, r6
10002cf2:	0030      	movs	r0, r6
10002cf4:	0039      	movs	r1, r7
10002cf6:	f001 fa94 	bl	10004222 <__wrap___aeabi_dcmpun>
10002cfa:	2800      	cmp	r0, #0
10002cfc:	d000      	beq.n	10002d00 <_ftoa+0x30>
10002cfe:	e1a9      	b.n	10003054 <_ftoa+0x384>
10002d00:	2201      	movs	r2, #1
10002d02:	0030      	movs	r0, r6
10002d04:	0039      	movs	r1, r7
10002d06:	4bca      	ldr	r3, [pc, #808]	; (10003030 <_ftoa+0x360>)
10002d08:	4252      	negs	r2, r2
10002d0a:	f001 fa6f 	bl	100041ec <__wrap___aeabi_dcmplt>
10002d0e:	2800      	cmp	r0, #0
10002d10:	d000      	beq.n	10002d14 <_ftoa+0x44>
10002d12:	e0e1      	b.n	10002ed8 <_ftoa+0x208>
10002d14:	2201      	movs	r2, #1
10002d16:	0030      	movs	r0, r6
10002d18:	0039      	movs	r1, r7
10002d1a:	4bc6      	ldr	r3, [pc, #792]	; (10003034 <_ftoa+0x364>)
10002d1c:	4252      	negs	r2, r2
10002d1e:	f001 fa7b 	bl	10004218 <__wrap___aeabi_dcmpgt>
10002d22:	2800      	cmp	r0, #0
10002d24:	d000      	beq.n	10002d28 <_ftoa+0x58>
10002d26:	e0b7      	b.n	10002e98 <_ftoa+0x1c8>
10002d28:	2200      	movs	r2, #0
10002d2a:	0030      	movs	r0, r6
10002d2c:	0039      	movs	r1, r7
10002d2e:	4bc2      	ldr	r3, [pc, #776]	; (10003038 <_ftoa+0x368>)
10002d30:	f001 fa72 	bl	10004218 <__wrap___aeabi_dcmpgt>
10002d34:	2800      	cmp	r0, #0
10002d36:	d000      	beq.n	10002d3a <_ftoa+0x6a>
10002d38:	e099      	b.n	10002e6e <_ftoa+0x19e>
10002d3a:	2200      	movs	r2, #0
10002d3c:	0030      	movs	r0, r6
10002d3e:	0039      	movs	r1, r7
10002d40:	4bbe      	ldr	r3, [pc, #760]	; (1000303c <_ftoa+0x36c>)
10002d42:	f001 fa53 	bl	100041ec <__wrap___aeabi_dcmplt>
10002d46:	2800      	cmp	r0, #0
10002d48:	d000      	beq.n	10002d4c <_ftoa+0x7c>
10002d4a:	e090      	b.n	10002e6e <_ftoa+0x19e>
10002d4c:	2200      	movs	r2, #0
10002d4e:	2300      	movs	r3, #0
10002d50:	0030      	movs	r0, r6
10002d52:	0039      	movs	r1, r7
10002d54:	f001 fa4a 	bl	100041ec <__wrap___aeabi_dcmplt>
10002d58:	2800      	cmp	r0, #0
10002d5a:	d000      	beq.n	10002d5e <_ftoa+0x8e>
10002d5c:	e0b1      	b.n	10002ec2 <_ftoa+0x1f2>
10002d5e:	2300      	movs	r3, #0
10002d60:	930d      	str	r3, [sp, #52]	; 0x34
10002d62:	9b24      	ldr	r3, [sp, #144]	; 0x90
10002d64:	055b      	lsls	r3, r3, #21
10002d66:	d401      	bmi.n	10002d6c <_ftoa+0x9c>
10002d68:	2306      	movs	r3, #6
10002d6a:	4698      	mov	r8, r3
10002d6c:	ab08      	add	r3, sp, #32
10002d6e:	469c      	mov	ip, r3
10002d70:	2217      	movs	r2, #23
10002d72:	2400      	movs	r4, #0
10002d74:	2330      	movs	r3, #48	; 0x30
10002d76:	4641      	mov	r1, r8
10002d78:	4462      	add	r2, ip
10002d7a:	e004      	b.n	10002d86 <_ftoa+0xb6>
10002d7c:	3401      	adds	r4, #1
10002d7e:	5513      	strb	r3, [r2, r4]
10002d80:	3901      	subs	r1, #1
10002d82:	2c20      	cmp	r4, #32
10002d84:	d001      	beq.n	10002d8a <_ftoa+0xba>
10002d86:	2909      	cmp	r1, #9
10002d88:	d8f8      	bhi.n	10002d7c <_ftoa+0xac>
10002d8a:	4688      	mov	r8, r1
10002d8c:	0030      	movs	r0, r6
10002d8e:	0039      	movs	r1, r7
10002d90:	f001 fa72 	bl	10004278 <__wrap___aeabi_d2iz>
10002d94:	4643      	mov	r3, r8
10002d96:	00da      	lsls	r2, r3, #3
10002d98:	4ba9      	ldr	r3, [pc, #676]	; (10003040 <_ftoa+0x370>)
10002d9a:	0005      	movs	r5, r0
10002d9c:	189b      	adds	r3, r3, r2
10002d9e:	681a      	ldr	r2, [r3, #0]
10002da0:	685b      	ldr	r3, [r3, #4]
10002da2:	9208      	str	r2, [sp, #32]
10002da4:	9309      	str	r3, [sp, #36]	; 0x24
10002da6:	f001 fa4f 	bl	10004248 <__wrap___aeabi_i2d>
10002daa:	0002      	movs	r2, r0
10002dac:	000b      	movs	r3, r1
10002dae:	0030      	movs	r0, r6
10002db0:	0039      	movs	r1, r7
10002db2:	f001 f9a8 	bl	10004106 <__wrap___aeabi_dsub>
10002db6:	9a08      	ldr	r2, [sp, #32]
10002db8:	9b09      	ldr	r3, [sp, #36]	; 0x24
10002dba:	f001 f9d4 	bl	10004166 <__wrap___aeabi_dmul>
10002dbe:	900a      	str	r0, [sp, #40]	; 0x28
10002dc0:	910b      	str	r1, [sp, #44]	; 0x2c
10002dc2:	f001 fa7d 	bl	100042c0 <__wrap___aeabi_d2uiz>
10002dc6:	4682      	mov	sl, r0
10002dc8:	f001 fa3a 	bl	10004240 <__wrap___aeabi_ui2d>
10002dcc:	0002      	movs	r2, r0
10002dce:	000b      	movs	r3, r1
10002dd0:	980a      	ldr	r0, [sp, #40]	; 0x28
10002dd2:	990b      	ldr	r1, [sp, #44]	; 0x2c
10002dd4:	f001 f997 	bl	10004106 <__wrap___aeabi_dsub>
10002dd8:	2200      	movs	r2, #0
10002dda:	4b9a      	ldr	r3, [pc, #616]	; (10003044 <_ftoa+0x374>)
10002ddc:	900a      	str	r0, [sp, #40]	; 0x28
10002dde:	910b      	str	r1, [sp, #44]	; 0x2c
10002de0:	f001 fa1a 	bl	10004218 <__wrap___aeabi_dcmpgt>
10002de4:	2800      	cmp	r0, #0
10002de6:	d100      	bne.n	10002dea <_ftoa+0x11a>
10002de8:	e0c0      	b.n	10002f6c <_ftoa+0x29c>
10002dea:	2301      	movs	r3, #1
10002dec:	469c      	mov	ip, r3
10002dee:	44e2      	add	sl, ip
10002df0:	4650      	mov	r0, sl
10002df2:	f001 fa25 	bl	10004240 <__wrap___aeabi_ui2d>
10002df6:	0002      	movs	r2, r0
10002df8:	000b      	movs	r3, r1
10002dfa:	9808      	ldr	r0, [sp, #32]
10002dfc:	9909      	ldr	r1, [sp, #36]	; 0x24
10002dfe:	f001 f9fb 	bl	100041f8 <__wrap___aeabi_dcmple>
10002e02:	2800      	cmp	r0, #0
10002e04:	d002      	beq.n	10002e0c <_ftoa+0x13c>
10002e06:	2300      	movs	r3, #0
10002e08:	469a      	mov	sl, r3
10002e0a:	3501      	adds	r5, #1
10002e0c:	4643      	mov	r3, r8
10002e0e:	2b00      	cmp	r3, #0
10002e10:	d06a      	beq.n	10002ee8 <_ftoa+0x218>
10002e12:	ab08      	add	r3, sp, #32
10002e14:	2617      	movs	r6, #23
10002e16:	469c      	mov	ip, r3
10002e18:	9508      	str	r5, [sp, #32]
10002e1a:	4466      	add	r6, ip
10002e1c:	4655      	mov	r5, sl
10002e1e:	e014      	b.n	10002e4a <_ftoa+0x17a>
10002e20:	2301      	movs	r3, #1
10002e22:	425b      	negs	r3, r3
10002e24:	4443      	add	r3, r8
10002e26:	210a      	movs	r1, #10
10002e28:	0028      	movs	r0, r5
10002e2a:	469a      	mov	sl, r3
10002e2c:	f000 ff28 	bl	10003c80 <__wrap___aeabi_uidiv>
10002e30:	3401      	adds	r4, #1
10002e32:	3130      	adds	r1, #48	; 0x30
10002e34:	1937      	adds	r7, r6, r4
10002e36:	7039      	strb	r1, [r7, #0]
10002e38:	0028      	movs	r0, r5
10002e3a:	210a      	movs	r1, #10
10002e3c:	f000 ff20 	bl	10003c80 <__wrap___aeabi_uidiv>
10002e40:	2d09      	cmp	r5, #9
10002e42:	d800      	bhi.n	10002e46 <_ftoa+0x176>
10002e44:	e0d0      	b.n	10002fe8 <_ftoa+0x318>
10002e46:	46d0      	mov	r8, sl
10002e48:	0005      	movs	r5, r0
10002e4a:	2c20      	cmp	r4, #32
10002e4c:	d1e8      	bne.n	10002e20 <_ftoa+0x150>
10002e4e:	ab0e      	add	r3, sp, #56	; 0x38
10002e50:	4698      	mov	r8, r3
10002e52:	2303      	movs	r3, #3
10002e54:	9a24      	ldr	r2, [sp, #144]	; 0x90
10002e56:	4013      	ands	r3, r2
10002e58:	2b01      	cmp	r3, #1
10002e5a:	d100      	bne.n	10002e5e <_ftoa+0x18e>
10002e5c:	e096      	b.n	10002f8c <_ftoa+0x2bc>
10002e5e:	2320      	movs	r3, #32
10002e60:	9a24      	ldr	r2, [sp, #144]	; 0x90
10002e62:	9301      	str	r3, [sp, #4]
10002e64:	9203      	str	r2, [sp, #12]
10002e66:	9a23      	ldr	r2, [sp, #140]	; 0x8c
10002e68:	4643      	mov	r3, r8
10002e6a:	9202      	str	r2, [sp, #8]
10002e6c:	e01e      	b.n	10002eac <_ftoa+0x1dc>
10002e6e:	9b24      	ldr	r3, [sp, #144]	; 0x90
10002e70:	4658      	mov	r0, fp
10002e72:	9304      	str	r3, [sp, #16]
10002e74:	9b23      	ldr	r3, [sp, #140]	; 0x8c
10002e76:	9600      	str	r6, [sp, #0]
10002e78:	9701      	str	r7, [sp, #4]
10002e7a:	9303      	str	r3, [sp, #12]
10002e7c:	4643      	mov	r3, r8
10002e7e:	9a0c      	ldr	r2, [sp, #48]	; 0x30
10002e80:	9302      	str	r3, [sp, #8]
10002e82:	9907      	ldr	r1, [sp, #28]
10002e84:	464b      	mov	r3, r9
10002e86:	f7ff fcfd 	bl	10002884 <_etoa>
10002e8a:	b017      	add	sp, #92	; 0x5c
10002e8c:	bcf0      	pop	{r4, r5, r6, r7}
10002e8e:	46bb      	mov	fp, r7
10002e90:	46b2      	mov	sl, r6
10002e92:	46a9      	mov	r9, r5
10002e94:	46a0      	mov	r8, r4
10002e96:	bdf0      	pop	{r4, r5, r6, r7, pc}
10002e98:	9b24      	ldr	r3, [sp, #144]	; 0x90
10002e9a:	075b      	lsls	r3, r3, #29
10002e9c:	d40e      	bmi.n	10002ebc <_ftoa+0x1ec>
10002e9e:	2203      	movs	r2, #3
10002ea0:	4b69      	ldr	r3, [pc, #420]	; (10003048 <_ftoa+0x378>)
10002ea2:	9924      	ldr	r1, [sp, #144]	; 0x90
10002ea4:	9201      	str	r2, [sp, #4]
10002ea6:	9103      	str	r1, [sp, #12]
10002ea8:	9923      	ldr	r1, [sp, #140]	; 0x8c
10002eaa:	9102      	str	r1, [sp, #8]
10002eac:	9300      	str	r3, [sp, #0]
10002eae:	4658      	mov	r0, fp
10002eb0:	464b      	mov	r3, r9
10002eb2:	9a0c      	ldr	r2, [sp, #48]	; 0x30
10002eb4:	9907      	ldr	r1, [sp, #28]
10002eb6:	f7ff fba1 	bl	100025fc <_out_rev>
10002eba:	e7e6      	b.n	10002e8a <_ftoa+0x1ba>
10002ebc:	2204      	movs	r2, #4
10002ebe:	4b63      	ldr	r3, [pc, #396]	; (1000304c <_ftoa+0x37c>)
10002ec0:	e7ef      	b.n	10002ea2 <_ftoa+0x1d2>
10002ec2:	003b      	movs	r3, r7
10002ec4:	0032      	movs	r2, r6
10002ec6:	2000      	movs	r0, #0
10002ec8:	2100      	movs	r1, #0
10002eca:	f001 f91c 	bl	10004106 <__wrap___aeabi_dsub>
10002ece:	2301      	movs	r3, #1
10002ed0:	0006      	movs	r6, r0
10002ed2:	000f      	movs	r7, r1
10002ed4:	930d      	str	r3, [sp, #52]	; 0x34
10002ed6:	e744      	b.n	10002d62 <_ftoa+0x92>
10002ed8:	9b24      	ldr	r3, [sp, #144]	; 0x90
10002eda:	9303      	str	r3, [sp, #12]
10002edc:	9b23      	ldr	r3, [sp, #140]	; 0x8c
10002ede:	9302      	str	r3, [sp, #8]
10002ee0:	2304      	movs	r3, #4
10002ee2:	9301      	str	r3, [sp, #4]
10002ee4:	4b5a      	ldr	r3, [pc, #360]	; (10003050 <_ftoa+0x380>)
10002ee6:	e7e1      	b.n	10002eac <_ftoa+0x1dc>
10002ee8:	0028      	movs	r0, r5
10002eea:	f001 f9ad 	bl	10004248 <__wrap___aeabi_i2d>
10002eee:	0002      	movs	r2, r0
10002ef0:	000b      	movs	r3, r1
10002ef2:	0030      	movs	r0, r6
10002ef4:	0039      	movs	r1, r7
10002ef6:	f001 f906 	bl	10004106 <__wrap___aeabi_dsub>
10002efa:	4b52      	ldr	r3, [pc, #328]	; (10003044 <_ftoa+0x374>)
10002efc:	2200      	movs	r2, #0
10002efe:	0006      	movs	r6, r0
10002f00:	000f      	movs	r7, r1
10002f02:	f001 f973 	bl	100041ec <__wrap___aeabi_dcmplt>
10002f06:	ab0e      	add	r3, sp, #56	; 0x38
10002f08:	4698      	mov	r8, r3
10002f0a:	2800      	cmp	r0, #0
10002f0c:	d10a      	bne.n	10002f24 <_ftoa+0x254>
10002f0e:	2200      	movs	r2, #0
10002f10:	0030      	movs	r0, r6
10002f12:	0039      	movs	r1, r7
10002f14:	4b4b      	ldr	r3, [pc, #300]	; (10003044 <_ftoa+0x374>)
10002f16:	f001 f97f 	bl	10004218 <__wrap___aeabi_dcmpgt>
10002f1a:	2800      	cmp	r0, #0
10002f1c:	d102      	bne.n	10002f24 <_ftoa+0x254>
10002f1e:	07eb      	lsls	r3, r5, #31
10002f20:	d500      	bpl.n	10002f24 <_ftoa+0x254>
10002f22:	3501      	adds	r5, #1
10002f24:	2c20      	cmp	r4, #32
10002f26:	d094      	beq.n	10002e52 <_ftoa+0x182>
10002f28:	aa08      	add	r2, sp, #32
10002f2a:	4694      	mov	ip, r2
10002f2c:	2317      	movs	r3, #23
10002f2e:	0028      	movs	r0, r5
10002f30:	4463      	add	r3, ip
10002f32:	210a      	movs	r1, #10
10002f34:	3401      	adds	r4, #1
10002f36:	191e      	adds	r6, r3, r4
10002f38:	f000 fe7a 	bl	10003c30 <__wrap___aeabi_idiv>
10002f3c:	3130      	adds	r1, #48	; 0x30
10002f3e:	0028      	movs	r0, r5
10002f40:	7031      	strb	r1, [r6, #0]
10002f42:	210a      	movs	r1, #10
10002f44:	f000 fe74 	bl	10003c30 <__wrap___aeabi_idiv>
10002f48:	1e05      	subs	r5, r0, #0
10002f4a:	d1eb      	bne.n	10002f24 <_ftoa+0x254>
10002f4c:	2303      	movs	r3, #3
10002f4e:	9a24      	ldr	r2, [sp, #144]	; 0x90
10002f50:	4013      	ands	r3, r2
10002f52:	2b01      	cmp	r3, #1
10002f54:	d01b      	beq.n	10002f8e <_ftoa+0x2be>
10002f56:	2c20      	cmp	r4, #32
10002f58:	d100      	bne.n	10002f5c <_ftoa+0x28c>
10002f5a:	e780      	b.n	10002e5e <_ftoa+0x18e>
10002f5c:	9b0d      	ldr	r3, [sp, #52]	; 0x34
10002f5e:	2b00      	cmp	r3, #0
10002f60:	d035      	beq.n	10002fce <_ftoa+0x2fe>
10002f62:	222d      	movs	r2, #45	; 0x2d
10002f64:	4641      	mov	r1, r8
10002f66:	1c63      	adds	r3, r4, #1
10002f68:	550a      	strb	r2, [r1, r4]
10002f6a:	e779      	b.n	10002e60 <_ftoa+0x190>
10002f6c:	2200      	movs	r2, #0
10002f6e:	980a      	ldr	r0, [sp, #40]	; 0x28
10002f70:	990b      	ldr	r1, [sp, #44]	; 0x2c
10002f72:	4b34      	ldr	r3, [pc, #208]	; (10003044 <_ftoa+0x374>)
10002f74:	f001 f93a 	bl	100041ec <__wrap___aeabi_dcmplt>
10002f78:	2800      	cmp	r0, #0
10002f7a:	d000      	beq.n	10002f7e <_ftoa+0x2ae>
10002f7c:	e746      	b.n	10002e0c <_ftoa+0x13c>
10002f7e:	4653      	mov	r3, sl
10002f80:	2b00      	cmp	r3, #0
10002f82:	d151      	bne.n	10003028 <_ftoa+0x358>
10002f84:	2301      	movs	r3, #1
10002f86:	469c      	mov	ip, r3
10002f88:	44e2      	add	sl, ip
10002f8a:	e73f      	b.n	10002e0c <_ftoa+0x13c>
10002f8c:	2420      	movs	r4, #32
10002f8e:	9b23      	ldr	r3, [sp, #140]	; 0x8c
10002f90:	2b00      	cmp	r3, #0
10002f92:	d0e0      	beq.n	10002f56 <_ftoa+0x286>
10002f94:	9b0d      	ldr	r3, [sp, #52]	; 0x34
10002f96:	2b00      	cmp	r3, #0
10002f98:	d103      	bne.n	10002fa2 <_ftoa+0x2d2>
10002f9a:	9a24      	ldr	r2, [sp, #144]	; 0x90
10002f9c:	330c      	adds	r3, #12
10002f9e:	4213      	tst	r3, r2
10002fa0:	d002      	beq.n	10002fa8 <_ftoa+0x2d8>
10002fa2:	9b23      	ldr	r3, [sp, #140]	; 0x8c
10002fa4:	3b01      	subs	r3, #1
10002fa6:	9323      	str	r3, [sp, #140]	; 0x8c
10002fa8:	9b23      	ldr	r3, [sp, #140]	; 0x8c
10002faa:	42a3      	cmp	r3, r4
10002fac:	d9d3      	bls.n	10002f56 <_ftoa+0x286>
10002fae:	ab08      	add	r3, sp, #32
10002fb0:	469c      	mov	ip, r3
10002fb2:	2217      	movs	r2, #23
10002fb4:	2330      	movs	r3, #48	; 0x30
10002fb6:	4462      	add	r2, ip
10002fb8:	2c20      	cmp	r4, #32
10002fba:	d100      	bne.n	10002fbe <_ftoa+0x2ee>
10002fbc:	e74f      	b.n	10002e5e <_ftoa+0x18e>
10002fbe:	9923      	ldr	r1, [sp, #140]	; 0x8c
10002fc0:	3401      	adds	r4, #1
10002fc2:	5513      	strb	r3, [r2, r4]
10002fc4:	428c      	cmp	r4, r1
10002fc6:	d0c6      	beq.n	10002f56 <_ftoa+0x286>
10002fc8:	2c20      	cmp	r4, #32
10002fca:	d1f8      	bne.n	10002fbe <_ftoa+0x2ee>
10002fcc:	e747      	b.n	10002e5e <_ftoa+0x18e>
10002fce:	9b24      	ldr	r3, [sp, #144]	; 0x90
10002fd0:	075b      	lsls	r3, r3, #29
10002fd2:	d424      	bmi.n	1000301e <_ftoa+0x34e>
10002fd4:	9a24      	ldr	r2, [sp, #144]	; 0x90
10002fd6:	0023      	movs	r3, r4
10002fd8:	0712      	lsls	r2, r2, #28
10002fda:	d400      	bmi.n	10002fde <_ftoa+0x30e>
10002fdc:	e740      	b.n	10002e60 <_ftoa+0x190>
10002fde:	2220      	movs	r2, #32
10002fe0:	4641      	mov	r1, r8
10002fe2:	3301      	adds	r3, #1
10002fe4:	550a      	strb	r2, [r1, r4]
10002fe6:	e73b      	b.n	10002e60 <_ftoa+0x190>
10002fe8:	4657      	mov	r7, sl
10002fea:	9d08      	ldr	r5, [sp, #32]
10002fec:	2c20      	cmp	r4, #32
10002fee:	d100      	bne.n	10002ff2 <_ftoa+0x322>
10002ff0:	e72d      	b.n	10002e4e <_ftoa+0x17e>
10002ff2:	0022      	movs	r2, r4
10002ff4:	2130      	movs	r1, #48	; 0x30
10002ff6:	4640      	mov	r0, r8
10002ff8:	2f00      	cmp	r7, #0
10002ffa:	d009      	beq.n	10003010 <_ftoa+0x340>
10002ffc:	3201      	adds	r2, #1
10002ffe:	54b1      	strb	r1, [r6, r2]
10003000:	2a20      	cmp	r2, #32
10003002:	d100      	bne.n	10003006 <_ftoa+0x336>
10003004:	e723      	b.n	10002e4e <_ftoa+0x17e>
10003006:	43d3      	mvns	r3, r2
10003008:	191b      	adds	r3, r3, r4
1000300a:	181b      	adds	r3, r3, r0
1000300c:	2b00      	cmp	r3, #0
1000300e:	d1f5      	bne.n	10002ffc <_ftoa+0x32c>
10003010:	ab0e      	add	r3, sp, #56	; 0x38
10003012:	4698      	mov	r8, r3
10003014:	232e      	movs	r3, #46	; 0x2e
10003016:	4641      	mov	r1, r8
10003018:	1c54      	adds	r4, r2, #1
1000301a:	548b      	strb	r3, [r1, r2]
1000301c:	e782      	b.n	10002f24 <_ftoa+0x254>
1000301e:	222b      	movs	r2, #43	; 0x2b
10003020:	4641      	mov	r1, r8
10003022:	1c63      	adds	r3, r4, #1
10003024:	550a      	strb	r2, [r1, r4]
10003026:	e71b      	b.n	10002e60 <_ftoa+0x190>
10003028:	07db      	lsls	r3, r3, #31
1000302a:	d400      	bmi.n	1000302e <_ftoa+0x35e>
1000302c:	e6ee      	b.n	10002e0c <_ftoa+0x13c>
1000302e:	e7a9      	b.n	10002f84 <_ftoa+0x2b4>
10003030:	ffefffff 	.word	0xffefffff
10003034:	7fefffff 	.word	0x7fefffff
10003038:	41cdcd65 	.word	0x41cdcd65
1000303c:	c1cdcd65 	.word	0xc1cdcd65
10003040:	1000b728 	.word	0x1000b728
10003044:	3fe00000 	.word	0x3fe00000
10003048:	1000b52c 	.word	0x1000b52c
1000304c:	1000b530 	.word	0x1000b530
10003050:	1000b53c 	.word	0x1000b53c
10003054:	9b24      	ldr	r3, [sp, #144]	; 0x90
10003056:	9303      	str	r3, [sp, #12]
10003058:	9b23      	ldr	r3, [sp, #140]	; 0x8c
1000305a:	9302      	str	r3, [sp, #8]
1000305c:	2303      	movs	r3, #3
1000305e:	9301      	str	r3, [sp, #4]
10003060:	4b00      	ldr	r3, [pc, #0]	; (10003064 <_ftoa+0x394>)
10003062:	e723      	b.n	10002eac <_ftoa+0x1dc>
10003064:	1000b538 	.word	0x1000b538

10003068 <_vsnprintf>:
10003068:	b5f0      	push	{r4, r5, r6, r7, lr}
1000306a:	46de      	mov	lr, fp
1000306c:	464e      	mov	r6, r9
1000306e:	4657      	mov	r7, sl
10003070:	4645      	mov	r5, r8
10003072:	b5e0      	push	{r5, r6, r7, lr}
10003074:	b09f      	sub	sp, #124	; 0x7c
10003076:	001c      	movs	r4, r3
10003078:	9b28      	ldr	r3, [sp, #160]	; 0xa0
1000307a:	4691      	mov	r9, r2
1000307c:	9309      	str	r3, [sp, #36]	; 0x24
1000307e:	4ac9      	ldr	r2, [pc, #804]	; (100033a4 <_vsnprintf+0x33c>)
10003080:	4bc9      	ldr	r3, [pc, #804]	; (100033a8 <_vsnprintf+0x340>)
10003082:	468b      	mov	fp, r1
10003084:	9008      	str	r0, [sp, #32]
10003086:	601a      	str	r2, [r3, #0]
10003088:	2900      	cmp	r1, #0
1000308a:	d100      	bne.n	1000308e <_vsnprintf+0x26>
1000308c:	e218      	b.n	100034c0 <_vsnprintf+0x458>
1000308e:	2300      	movs	r3, #0
10003090:	7820      	ldrb	r0, [r4, #0]
10003092:	469a      	mov	sl, r3
10003094:	2800      	cmp	r0, #0
10003096:	d100      	bne.n	1000309a <_vsnprintf+0x32>
10003098:	e21a      	b.n	100034d0 <_vsnprintf+0x468>
1000309a:	0026      	movs	r6, r4
1000309c:	001d      	movs	r5, r3
1000309e:	465c      	mov	r4, fp
100030a0:	e00a      	b.n	100030b8 <_vsnprintf+0x50>
100030a2:	002a      	movs	r2, r5
100030a4:	1c6f      	adds	r7, r5, #1
100030a6:	464b      	mov	r3, r9
100030a8:	9d08      	ldr	r5, [sp, #32]
100030aa:	0021      	movs	r1, r4
100030ac:	47a8      	blx	r5
100030ae:	003d      	movs	r5, r7
100030b0:	3601      	adds	r6, #1
100030b2:	7830      	ldrb	r0, [r6, #0]
100030b4:	2800      	cmp	r0, #0
100030b6:	d070      	beq.n	1000319a <_vsnprintf+0x132>
100030b8:	2825      	cmp	r0, #37	; 0x25
100030ba:	d1f2      	bne.n	100030a2 <_vsnprintf+0x3a>
100030bc:	2310      	movs	r3, #16
100030be:	469b      	mov	fp, r3
100030c0:	3b08      	subs	r3, #8
100030c2:	469a      	mov	sl, r3
100030c4:	3b04      	subs	r3, #4
100030c6:	4698      	mov	r8, r3
100030c8:	3b02      	subs	r3, #2
100030ca:	2100      	movs	r1, #0
100030cc:	469c      	mov	ip, r3
100030ce:	1c72      	adds	r2, r6, #1
100030d0:	7810      	ldrb	r0, [r2, #0]
100030d2:	0016      	movs	r6, r2
100030d4:	0003      	movs	r3, r0
100030d6:	3b20      	subs	r3, #32
100030d8:	b2db      	uxtb	r3, r3
100030da:	2b10      	cmp	r3, #16
100030dc:	d803      	bhi.n	100030e6 <_vsnprintf+0x7e>
100030de:	4fb3      	ldr	r7, [pc, #716]	; (100033ac <_vsnprintf+0x344>)
100030e0:	009b      	lsls	r3, r3, #2
100030e2:	58fb      	ldr	r3, [r7, r3]
100030e4:	469f      	mov	pc, r3
100030e6:	0003      	movs	r3, r0
100030e8:	3b30      	subs	r3, #48	; 0x30
100030ea:	2b09      	cmp	r3, #9
100030ec:	d932      	bls.n	10003154 <_vsnprintf+0xec>
100030ee:	2300      	movs	r3, #0
100030f0:	930a      	str	r3, [sp, #40]	; 0x28
100030f2:	282a      	cmp	r0, #42	; 0x2a
100030f4:	d068      	beq.n	100031c8 <_vsnprintf+0x160>
100030f6:	2300      	movs	r3, #0
100030f8:	4698      	mov	r8, r3
100030fa:	282e      	cmp	r0, #46	; 0x2e
100030fc:	d03e      	beq.n	1000317c <_vsnprintf+0x114>
100030fe:	0003      	movs	r3, r0
10003100:	3b68      	subs	r3, #104	; 0x68
10003102:	b2db      	uxtb	r3, r3
10003104:	2b12      	cmp	r3, #18
10003106:	d81c      	bhi.n	10003142 <_vsnprintf+0xda>
10003108:	4aa9      	ldr	r2, [pc, #676]	; (100033b0 <_vsnprintf+0x348>)
1000310a:	009b      	lsls	r3, r3, #2
1000310c:	58d3      	ldr	r3, [r2, r3]
1000310e:	469f      	mov	pc, r3
10003110:	2301      	movs	r3, #1
10003112:	3201      	adds	r2, #1
10003114:	4319      	orrs	r1, r3
10003116:	e7db      	b.n	100030d0 <_vsnprintf+0x68>
10003118:	4663      	mov	r3, ip
1000311a:	3201      	adds	r2, #1
1000311c:	4319      	orrs	r1, r3
1000311e:	e7d7      	b.n	100030d0 <_vsnprintf+0x68>
10003120:	4643      	mov	r3, r8
10003122:	3201      	adds	r2, #1
10003124:	4319      	orrs	r1, r3
10003126:	e7d3      	b.n	100030d0 <_vsnprintf+0x68>
10003128:	465b      	mov	r3, fp
1000312a:	3201      	adds	r2, #1
1000312c:	4319      	orrs	r1, r3
1000312e:	e7cf      	b.n	100030d0 <_vsnprintf+0x68>
10003130:	4653      	mov	r3, sl
10003132:	3201      	adds	r2, #1
10003134:	4319      	orrs	r1, r3
10003136:	e7cb      	b.n	100030d0 <_vsnprintf+0x68>
10003138:	2380      	movs	r3, #128	; 0x80
1000313a:	005b      	lsls	r3, r3, #1
1000313c:	7870      	ldrb	r0, [r6, #1]
1000313e:	4319      	orrs	r1, r3
10003140:	3601      	adds	r6, #1
10003142:	0003      	movs	r3, r0
10003144:	3b25      	subs	r3, #37	; 0x25
10003146:	b2db      	uxtb	r3, r3
10003148:	2b53      	cmp	r3, #83	; 0x53
1000314a:	d8aa      	bhi.n	100030a2 <_vsnprintf+0x3a>
1000314c:	4a99      	ldr	r2, [pc, #612]	; (100033b4 <_vsnprintf+0x34c>)
1000314e:	009b      	lsls	r3, r3, #2
10003150:	58d3      	ldr	r3, [r2, r3]
10003152:	469f      	mov	pc, r3
10003154:	2700      	movs	r7, #0
10003156:	0003      	movs	r3, r0
10003158:	00b8      	lsls	r0, r7, #2
1000315a:	19c0      	adds	r0, r0, r7
1000315c:	3601      	adds	r6, #1
1000315e:	0040      	lsls	r0, r0, #1
10003160:	18c0      	adds	r0, r0, r3
10003162:	7833      	ldrb	r3, [r6, #0]
10003164:	3830      	subs	r0, #48	; 0x30
10003166:	001a      	movs	r2, r3
10003168:	3a30      	subs	r2, #48	; 0x30
1000316a:	0007      	movs	r7, r0
1000316c:	2a09      	cmp	r2, #9
1000316e:	d9f3      	bls.n	10003158 <_vsnprintf+0xf0>
10003170:	900a      	str	r0, [sp, #40]	; 0x28
10003172:	0018      	movs	r0, r3
10003174:	2300      	movs	r3, #0
10003176:	4698      	mov	r8, r3
10003178:	282e      	cmp	r0, #46	; 0x2e
1000317a:	d1c0      	bne.n	100030fe <_vsnprintf+0x96>
1000317c:	2380      	movs	r3, #128	; 0x80
1000317e:	7870      	ldrb	r0, [r6, #1]
10003180:	00db      	lsls	r3, r3, #3
10003182:	4319      	orrs	r1, r3
10003184:	0003      	movs	r3, r0
10003186:	3b30      	subs	r3, #48	; 0x30
10003188:	1c72      	adds	r2, r6, #1
1000318a:	2b09      	cmp	r3, #9
1000318c:	d800      	bhi.n	10003190 <_vsnprintf+0x128>
1000318e:	e1a1      	b.n	100034d4 <_vsnprintf+0x46c>
10003190:	282a      	cmp	r0, #42	; 0x2a
10003192:	d100      	bne.n	10003196 <_vsnprintf+0x12e>
10003194:	e1b2      	b.n	100034fc <_vsnprintf+0x494>
10003196:	0016      	movs	r6, r2
10003198:	e7b1      	b.n	100030fe <_vsnprintf+0x96>
1000319a:	46a3      	mov	fp, r4
1000319c:	46aa      	mov	sl, r5
1000319e:	002c      	movs	r4, r5
100031a0:	45d1      	cmp	r9, sl
100031a2:	d803      	bhi.n	100031ac <_vsnprintf+0x144>
100031a4:	2301      	movs	r3, #1
100031a6:	425b      	negs	r3, r3
100031a8:	444b      	add	r3, r9
100031aa:	469a      	mov	sl, r3
100031ac:	464b      	mov	r3, r9
100031ae:	4652      	mov	r2, sl
100031b0:	4659      	mov	r1, fp
100031b2:	2000      	movs	r0, #0
100031b4:	9d08      	ldr	r5, [sp, #32]
100031b6:	47a8      	blx	r5
100031b8:	0020      	movs	r0, r4
100031ba:	b01f      	add	sp, #124	; 0x7c
100031bc:	bcf0      	pop	{r4, r5, r6, r7}
100031be:	46bb      	mov	fp, r7
100031c0:	46b2      	mov	sl, r6
100031c2:	46a9      	mov	r9, r5
100031c4:	46a0      	mov	r8, r4
100031c6:	bdf0      	pop	{r4, r5, r6, r7, pc}
100031c8:	9b09      	ldr	r3, [sp, #36]	; 0x24
100031ca:	cb40      	ldmia	r3!, {r6}
100031cc:	960a      	str	r6, [sp, #40]	; 0x28
100031ce:	2e00      	cmp	r6, #0
100031d0:	db03      	blt.n	100031da <_vsnprintf+0x172>
100031d2:	7850      	ldrb	r0, [r2, #1]
100031d4:	9309      	str	r3, [sp, #36]	; 0x24
100031d6:	1c56      	adds	r6, r2, #1
100031d8:	e78d      	b.n	100030f6 <_vsnprintf+0x8e>
100031da:	3828      	subs	r0, #40	; 0x28
100031dc:	4301      	orrs	r1, r0
100031de:	4270      	negs	r0, r6
100031e0:	900a      	str	r0, [sp, #40]	; 0x28
100031e2:	9309      	str	r3, [sp, #36]	; 0x24
100031e4:	7850      	ldrb	r0, [r2, #1]
100031e6:	1c56      	adds	r6, r2, #1
100031e8:	e785      	b.n	100030f6 <_vsnprintf+0x8e>
100031ea:	2878      	cmp	r0, #120	; 0x78
100031ec:	d100      	bne.n	100031f0 <_vsnprintf+0x188>
100031ee:	e1df      	b.n	100035b0 <_vsnprintf+0x548>
100031f0:	2858      	cmp	r0, #88	; 0x58
100031f2:	d100      	bne.n	100031f6 <_vsnprintf+0x18e>
100031f4:	e24c      	b.n	10003690 <_vsnprintf+0x628>
100031f6:	286f      	cmp	r0, #111	; 0x6f
100031f8:	d100      	bne.n	100031fc <_vsnprintf+0x194>
100031fa:	e34f      	b.n	1000389c <_vsnprintf+0x834>
100031fc:	2862      	cmp	r0, #98	; 0x62
100031fe:	d101      	bne.n	10003204 <_vsnprintf+0x19c>
10003200:	f000 fc30 	bl	10003a64 <_vsnprintf+0x9fc>
10003204:	2310      	movs	r3, #16
10003206:	000a      	movs	r2, r1
10003208:	439a      	bics	r2, r3
1000320a:	920b      	str	r2, [sp, #44]	; 0x2c
1000320c:	2869      	cmp	r0, #105	; 0x69
1000320e:	d001      	beq.n	10003214 <_vsnprintf+0x1ac>
10003210:	f000 fca9 	bl	10003b66 <_vsnprintf+0xafe>
10003214:	230a      	movs	r3, #10
10003216:	930c      	str	r3, [sp, #48]	; 0x30
10003218:	054b      	lsls	r3, r1, #21
1000321a:	d500      	bpl.n	1000321e <_vsnprintf+0x1b6>
1000321c:	e1d0      	b.n	100035c0 <_vsnprintf+0x558>
1000321e:	9a0b      	ldr	r2, [sp, #44]	; 0x2c
10003220:	2380      	movs	r3, #128	; 0x80
10003222:	0011      	movs	r1, r2
10003224:	009b      	lsls	r3, r3, #2
10003226:	4019      	ands	r1, r3
10003228:	468b      	mov	fp, r1
1000322a:	421a      	tst	r2, r3
1000322c:	d000      	beq.n	10003230 <_vsnprintf+0x1c8>
1000322e:	e2a1      	b.n	10003774 <_vsnprintf+0x70c>
10003230:	2380      	movs	r3, #128	; 0x80
10003232:	0011      	movs	r1, r2
10003234:	005b      	lsls	r3, r3, #1
10003236:	4019      	ands	r1, r3
10003238:	468a      	mov	sl, r1
1000323a:	421a      	tst	r2, r3
1000323c:	d000      	beq.n	10003240 <_vsnprintf+0x1d8>
1000323e:	e3b6      	b.n	100039ae <_vsnprintf+0x946>
10003240:	0013      	movs	r3, r2
10003242:	065b      	lsls	r3, r3, #25
10003244:	d500      	bpl.n	10003248 <_vsnprintf+0x1e0>
10003246:	e2ed      	b.n	10003824 <_vsnprintf+0x7bc>
10003248:	0013      	movs	r3, r2
1000324a:	9909      	ldr	r1, [sp, #36]	; 0x24
1000324c:	061b      	lsls	r3, r3, #24
1000324e:	d401      	bmi.n	10003254 <_vsnprintf+0x1ec>
10003250:	f000 fc76 	bl	10003b40 <_vsnprintf+0xad8>
10003254:	c908      	ldmia	r1!, {r3}
10003256:	b21b      	sxth	r3, r3
10003258:	17d8      	asrs	r0, r3, #31
1000325a:	181a      	adds	r2, r3, r0
1000325c:	4042      	eors	r2, r0
1000325e:	b292      	uxth	r2, r2
10003260:	9109      	str	r1, [sp, #36]	; 0x24
10003262:	4693      	mov	fp, r2
10003264:	0fda      	lsrs	r2, r3, #31
10003266:	9212      	str	r2, [sp, #72]	; 0x48
10003268:	2b00      	cmp	r3, #0
1000326a:	d109      	bne.n	10003280 <_vsnprintf+0x218>
1000326c:	2380      	movs	r3, #128	; 0x80
1000326e:	2210      	movs	r2, #16
10003270:	990b      	ldr	r1, [sp, #44]	; 0x2c
10003272:	00db      	lsls	r3, r3, #3
10003274:	400b      	ands	r3, r1
10003276:	4391      	bics	r1, r2
10003278:	910b      	str	r1, [sp, #44]	; 0x2c
1000327a:	2b00      	cmp	r3, #0
1000327c:	d000      	beq.n	10003280 <_vsnprintf+0x218>
1000327e:	e2e4      	b.n	1000384a <_vsnprintf+0x7e2>
10003280:	9a0b      	ldr	r2, [sp, #44]	; 0x2c
10003282:	2361      	movs	r3, #97	; 0x61
10003284:	0692      	lsls	r2, r2, #26
10003286:	d500      	bpl.n	1000328a <_vsnprintf+0x222>
10003288:	2341      	movs	r3, #65	; 0x41
1000328a:	a90e      	add	r1, sp, #56	; 0x38
1000328c:	221f      	movs	r2, #31
1000328e:	468c      	mov	ip, r1
10003290:	b2db      	uxtb	r3, r3
10003292:	4462      	add	r2, ip
10003294:	3b0a      	subs	r3, #10
10003296:	465f      	mov	r7, fp
10003298:	9513      	str	r5, [sp, #76]	; 0x4c
1000329a:	46a3      	mov	fp, r4
1000329c:	4655      	mov	r5, sl
1000329e:	9c0c      	ldr	r4, [sp, #48]	; 0x30
100032a0:	46b2      	mov	sl, r6
100032a2:	930d      	str	r3, [sp, #52]	; 0x34
100032a4:	0016      	movs	r6, r2
100032a6:	e00a      	b.n	100032be <_vsnprintf+0x256>
100032a8:	3330      	adds	r3, #48	; 0x30
100032aa:	b2db      	uxtb	r3, r3
100032ac:	3501      	adds	r5, #1
100032ae:	5573      	strb	r3, [r6, r5]
100032b0:	42a7      	cmp	r7, r4
100032b2:	d200      	bcs.n	100032b6 <_vsnprintf+0x24e>
100032b4:	e2ed      	b.n	10003892 <_vsnprintf+0x82a>
100032b6:	2d20      	cmp	r5, #32
100032b8:	d100      	bne.n	100032bc <_vsnprintf+0x254>
100032ba:	e2ea      	b.n	10003892 <_vsnprintf+0x82a>
100032bc:	0007      	movs	r7, r0
100032be:	0021      	movs	r1, r4
100032c0:	0038      	movs	r0, r7
100032c2:	f000 fcdd 	bl	10003c80 <__wrap___aeabi_uidiv>
100032c6:	b2cb      	uxtb	r3, r1
100032c8:	2909      	cmp	r1, #9
100032ca:	d9ed      	bls.n	100032a8 <_vsnprintf+0x240>
100032cc:	9a0d      	ldr	r2, [sp, #52]	; 0x34
100032ce:	4694      	mov	ip, r2
100032d0:	4463      	add	r3, ip
100032d2:	b2db      	uxtb	r3, r3
100032d4:	e7ea      	b.n	100032ac <_vsnprintf+0x244>
100032d6:	2380      	movs	r3, #128	; 0x80
100032d8:	009b      	lsls	r3, r3, #2
100032da:	7870      	ldrb	r0, [r6, #1]
100032dc:	4319      	orrs	r1, r3
100032de:	3601      	adds	r6, #1
100032e0:	e72f      	b.n	10003142 <_vsnprintf+0xda>
100032e2:	7870      	ldrb	r0, [r6, #1]
100032e4:	2868      	cmp	r0, #104	; 0x68
100032e6:	d100      	bne.n	100032ea <_vsnprintf+0x282>
100032e8:	e1cd      	b.n	10003686 <_vsnprintf+0x61e>
100032ea:	2380      	movs	r3, #128	; 0x80
100032ec:	3601      	adds	r6, #1
100032ee:	4319      	orrs	r1, r3
100032f0:	e727      	b.n	10003142 <_vsnprintf+0xda>
100032f2:	7870      	ldrb	r0, [r6, #1]
100032f4:	286c      	cmp	r0, #108	; 0x6c
100032f6:	d100      	bne.n	100032fa <_vsnprintf+0x292>
100032f8:	e1bf      	b.n	1000367a <_vsnprintf+0x612>
100032fa:	2380      	movs	r3, #128	; 0x80
100032fc:	005b      	lsls	r3, r3, #1
100032fe:	4319      	orrs	r1, r3
10003300:	3601      	adds	r6, #1
10003302:	e71e      	b.n	10003142 <_vsnprintf+0xda>
10003304:	2846      	cmp	r0, #70	; 0x46
10003306:	d100      	bne.n	1000330a <_vsnprintf+0x2a2>
10003308:	e19b      	b.n	10003642 <_vsnprintf+0x5da>
1000330a:	2207      	movs	r2, #7
1000330c:	9b09      	ldr	r3, [sp, #36]	; 0x24
1000330e:	9104      	str	r1, [sp, #16]
10003310:	3307      	adds	r3, #7
10003312:	4393      	bics	r3, r2
10003314:	9a0a      	ldr	r2, [sp, #40]	; 0x28
10003316:	0019      	movs	r1, r3
10003318:	9203      	str	r2, [sp, #12]
1000331a:	4642      	mov	r2, r8
1000331c:	9202      	str	r2, [sp, #8]
1000331e:	c90c      	ldmia	r1!, {r2, r3}
10003320:	9808      	ldr	r0, [sp, #32]
10003322:	9200      	str	r2, [sp, #0]
10003324:	9301      	str	r3, [sp, #4]
10003326:	9109      	str	r1, [sp, #36]	; 0x24
10003328:	002a      	movs	r2, r5
1000332a:	464b      	mov	r3, r9
1000332c:	0021      	movs	r1, r4
1000332e:	f7ff fccf 	bl	10002cd0 <_ftoa>
10003332:	3601      	adds	r6, #1
10003334:	0005      	movs	r5, r0
10003336:	e6bc      	b.n	100030b2 <_vsnprintf+0x4a>
10003338:	002a      	movs	r2, r5
1000333a:	1c6f      	adds	r7, r5, #1
1000333c:	464b      	mov	r3, r9
1000333e:	9d08      	ldr	r5, [sp, #32]
10003340:	0021      	movs	r1, r4
10003342:	2025      	movs	r0, #37	; 0x25
10003344:	47a8      	blx	r5
10003346:	3601      	adds	r6, #1
10003348:	003d      	movs	r5, r7
1000334a:	e6b2      	b.n	100030b2 <_vsnprintf+0x4a>
1000334c:	078b      	lsls	r3, r1, #30
1000334e:	d400      	bmi.n	10003352 <_vsnprintf+0x2ea>
10003350:	e1ad      	b.n	100036ae <_vsnprintf+0x646>
10003352:	9b09      	ldr	r3, [sp, #36]	; 0x24
10003354:	002a      	movs	r2, r5
10003356:	469a      	mov	sl, r3
10003358:	1c6b      	adds	r3, r5, #1
1000335a:	4698      	mov	r8, r3
1000335c:	4653      	mov	r3, sl
1000335e:	cb01      	ldmia	r3!, {r0}
10003360:	0021      	movs	r1, r4
10003362:	469a      	mov	sl, r3
10003364:	9f08      	ldr	r7, [sp, #32]
10003366:	464b      	mov	r3, r9
10003368:	b2c0      	uxtb	r0, r0
1000336a:	47b8      	blx	r7
1000336c:	9b0a      	ldr	r3, [sp, #40]	; 0x28
1000336e:	469c      	mov	ip, r3
10003370:	4465      	add	r5, ip
10003372:	2b01      	cmp	r3, #1
10003374:	d800      	bhi.n	10003378 <_vsnprintf+0x310>
10003376:	e286      	b.n	10003886 <_vsnprintf+0x81e>
10003378:	9b08      	ldr	r3, [sp, #32]
1000337a:	4647      	mov	r7, r8
1000337c:	46b0      	mov	r8, r6
1000337e:	0026      	movs	r6, r4
10003380:	464c      	mov	r4, r9
10003382:	4699      	mov	r9, r3
10003384:	003a      	movs	r2, r7
10003386:	0023      	movs	r3, r4
10003388:	3701      	adds	r7, #1
1000338a:	0031      	movs	r1, r6
1000338c:	2020      	movs	r0, #32
1000338e:	47c8      	blx	r9
10003390:	42af      	cmp	r7, r5
10003392:	d1f7      	bne.n	10003384 <_vsnprintf+0x31c>
10003394:	46a1      	mov	r9, r4
10003396:	4653      	mov	r3, sl
10003398:	0034      	movs	r4, r6
1000339a:	4646      	mov	r6, r8
1000339c:	9309      	str	r3, [sp, #36]	; 0x24
1000339e:	3601      	adds	r6, #1
100033a0:	e687      	b.n	100030b2 <_vsnprintf+0x4a>
100033a2:	46c0      	nop			; (mov r8, r8)
100033a4:	10003069 	.word	0x10003069
100033a8:	20001bdc 	.word	0x20001bdc
100033ac:	1000b544 	.word	0x1000b544
100033b0:	1000b588 	.word	0x1000b588
100033b4:	1000b5d4 	.word	0x1000b5d4
100033b8:	9b09      	ldr	r3, [sp, #36]	; 0x24
100033ba:	cb04      	ldmia	r3!, {r2}
100033bc:	469b      	mov	fp, r3
100033be:	4643      	mov	r3, r8
100033c0:	9209      	str	r2, [sp, #36]	; 0x24
100033c2:	2b00      	cmp	r3, #0
100033c4:	d100      	bne.n	100033c8 <_vsnprintf+0x360>
100033c6:	e0c6      	b.n	10003556 <_vsnprintf+0x4ee>
100033c8:	7813      	ldrb	r3, [r2, #0]
100033ca:	469c      	mov	ip, r3
100033cc:	2b00      	cmp	r3, #0
100033ce:	d100      	bne.n	100033d2 <_vsnprintf+0x36a>
100033d0:	e3bd      	b.n	10003b4e <_vsnprintf+0xae6>
100033d2:	4643      	mov	r3, r8
100033d4:	3b01      	subs	r3, #1
100033d6:	9a09      	ldr	r2, [sp, #36]	; 0x24
100033d8:	3301      	adds	r3, #1
100033da:	18d0      	adds	r0, r2, r3
100033dc:	9f0a      	ldr	r7, [sp, #40]	; 0x28
100033de:	0013      	movs	r3, r2
100033e0:	e001      	b.n	100033e6 <_vsnprintf+0x37e>
100033e2:	4283      	cmp	r3, r0
100033e4:	d003      	beq.n	100033ee <_vsnprintf+0x386>
100033e6:	785a      	ldrb	r2, [r3, #1]
100033e8:	3301      	adds	r3, #1
100033ea:	2a00      	cmp	r2, #0
100033ec:	d1f9      	bne.n	100033e2 <_vsnprintf+0x37a>
100033ee:	9a09      	ldr	r2, [sp, #36]	; 0x24
100033f0:	970a      	str	r7, [sp, #40]	; 0x28
100033f2:	1a9b      	subs	r3, r3, r2
100033f4:	930b      	str	r3, [sp, #44]	; 0x2c
100033f6:	2380      	movs	r3, #128	; 0x80
100033f8:	000a      	movs	r2, r1
100033fa:	00db      	lsls	r3, r3, #3
100033fc:	401a      	ands	r2, r3
100033fe:	920c      	str	r2, [sp, #48]	; 0x30
10003400:	4219      	tst	r1, r3
10003402:	d004      	beq.n	1000340e <_vsnprintf+0x3a6>
10003404:	9b0b      	ldr	r3, [sp, #44]	; 0x2c
10003406:	4543      	cmp	r3, r8
10003408:	d901      	bls.n	1000340e <_vsnprintf+0x3a6>
1000340a:	4643      	mov	r3, r8
1000340c:	930b      	str	r3, [sp, #44]	; 0x2c
1000340e:	2302      	movs	r3, #2
10003410:	001a      	movs	r2, r3
10003412:	400a      	ands	r2, r1
10003414:	920d      	str	r2, [sp, #52]	; 0x34
10003416:	420b      	tst	r3, r1
10003418:	d100      	bne.n	1000341c <_vsnprintf+0x3b4>
1000341a:	e187      	b.n	1000372c <_vsnprintf+0x6c4>
1000341c:	4660      	mov	r0, ip
1000341e:	2800      	cmp	r0, #0
10003420:	d100      	bne.n	10003424 <_vsnprintf+0x3bc>
10003422:	e168      	b.n	100036f6 <_vsnprintf+0x68e>
10003424:	9b0c      	ldr	r3, [sp, #48]	; 0x30
10003426:	2b00      	cmp	r3, #0
10003428:	d100      	bne.n	1000342c <_vsnprintf+0x3c4>
1000342a:	e10d      	b.n	10003648 <_vsnprintf+0x5e0>
1000342c:	44a8      	add	r8, r5
1000342e:	46c2      	mov	sl, r8
10003430:	9b09      	ldr	r3, [sp, #36]	; 0x24
10003432:	4657      	mov	r7, sl
10003434:	1b5b      	subs	r3, r3, r5
10003436:	4698      	mov	r8, r3
10003438:	9b08      	ldr	r3, [sp, #32]
1000343a:	46b2      	mov	sl, r6
1000343c:	002a      	movs	r2, r5
1000343e:	0026      	movs	r6, r4
10003440:	464c      	mov	r4, r9
10003442:	4699      	mov	r9, r3
10003444:	e009      	b.n	1000345a <_vsnprintf+0x3f2>
10003446:	0023      	movs	r3, r4
10003448:	0031      	movs	r1, r6
1000344a:	1c55      	adds	r5, r2, #1
1000344c:	47c8      	blx	r9
1000344e:	4643      	mov	r3, r8
10003450:	5d58      	ldrb	r0, [r3, r5]
10003452:	2800      	cmp	r0, #0
10003454:	d100      	bne.n	10003458 <_vsnprintf+0x3f0>
10003456:	e126      	b.n	100036a6 <_vsnprintf+0x63e>
10003458:	002a      	movs	r2, r5
1000345a:	4297      	cmp	r7, r2
1000345c:	d1f3      	bne.n	10003446 <_vsnprintf+0x3de>
1000345e:	46a1      	mov	r9, r4
10003460:	003d      	movs	r5, r7
10003462:	0034      	movs	r4, r6
10003464:	4656      	mov	r6, sl
10003466:	9b0d      	ldr	r3, [sp, #52]	; 0x34
10003468:	2b00      	cmp	r3, #0
1000346a:	d000      	beq.n	1000346e <_vsnprintf+0x406>
1000346c:	e143      	b.n	100036f6 <_vsnprintf+0x68e>
1000346e:	465b      	mov	r3, fp
10003470:	3601      	adds	r6, #1
10003472:	9309      	str	r3, [sp, #36]	; 0x24
10003474:	e61d      	b.n	100030b2 <_vsnprintf+0x4a>
10003476:	9b09      	ldr	r3, [sp, #36]	; 0x24
10003478:	001a      	movs	r2, r3
1000347a:	ca08      	ldmia	r2!, {r3}
1000347c:	4692      	mov	sl, r2
1000347e:	2b00      	cmp	r3, #0
10003480:	d048      	beq.n	10003514 <_vsnprintf+0x4ac>
10003482:	2221      	movs	r2, #33	; 0x21
10003484:	4311      	orrs	r1, r2
10003486:	468b      	mov	fp, r1
10003488:	a80e      	add	r0, sp, #56	; 0x38
1000348a:	4684      	mov	ip, r0
1000348c:	211f      	movs	r1, #31
1000348e:	4461      	add	r1, ip
10003490:	9509      	str	r5, [sp, #36]	; 0x24
10003492:	2200      	movs	r2, #0
10003494:	270f      	movs	r7, #15
10003496:	46a4      	mov	ip, r4
10003498:	000d      	movs	r5, r1
1000349a:	e002      	b.n	100034a2 <_vsnprintf+0x43a>
1000349c:	2a20      	cmp	r2, #32
1000349e:	d00c      	beq.n	100034ba <_vsnprintf+0x452>
100034a0:	000b      	movs	r3, r1
100034a2:	003c      	movs	r4, r7
100034a4:	401c      	ands	r4, r3
100034a6:	0020      	movs	r0, r4
100034a8:	3037      	adds	r0, #55	; 0x37
100034aa:	2c09      	cmp	r4, #9
100034ac:	d800      	bhi.n	100034b0 <_vsnprintf+0x448>
100034ae:	3807      	subs	r0, #7
100034b0:	3201      	adds	r2, #1
100034b2:	54a8      	strb	r0, [r5, r2]
100034b4:	0919      	lsrs	r1, r3, #4
100034b6:	2b0f      	cmp	r3, #15
100034b8:	d8f0      	bhi.n	1000349c <_vsnprintf+0x434>
100034ba:	4664      	mov	r4, ip
100034bc:	9d09      	ldr	r5, [sp, #36]	; 0x24
100034be:	e032      	b.n	10003526 <_vsnprintf+0x4be>
100034c0:	4bdc      	ldr	r3, [pc, #880]	; (10003834 <_vsnprintf+0x7cc>)
100034c2:	7820      	ldrb	r0, [r4, #0]
100034c4:	9308      	str	r3, [sp, #32]
100034c6:	2300      	movs	r3, #0
100034c8:	469a      	mov	sl, r3
100034ca:	2800      	cmp	r0, #0
100034cc:	d000      	beq.n	100034d0 <_vsnprintf+0x468>
100034ce:	e5e4      	b.n	1000309a <_vsnprintf+0x32>
100034d0:	2400      	movs	r4, #0
100034d2:	e665      	b.n	100031a0 <_vsnprintf+0x138>
100034d4:	4643      	mov	r3, r8
100034d6:	0006      	movs	r6, r0
100034d8:	9f0a      	ldr	r7, [sp, #40]	; 0x28
100034da:	0098      	lsls	r0, r3, #2
100034dc:	18c0      	adds	r0, r0, r3
100034de:	3201      	adds	r2, #1
100034e0:	0040      	lsls	r0, r0, #1
100034e2:	1980      	adds	r0, r0, r6
100034e4:	7816      	ldrb	r6, [r2, #0]
100034e6:	0003      	movs	r3, r0
100034e8:	0030      	movs	r0, r6
100034ea:	3830      	subs	r0, #48	; 0x30
100034ec:	3b30      	subs	r3, #48	; 0x30
100034ee:	2809      	cmp	r0, #9
100034f0:	d9f3      	bls.n	100034da <_vsnprintf+0x472>
100034f2:	0030      	movs	r0, r6
100034f4:	4698      	mov	r8, r3
100034f6:	0016      	movs	r6, r2
100034f8:	970a      	str	r7, [sp, #40]	; 0x28
100034fa:	e600      	b.n	100030fe <_vsnprintf+0x96>
100034fc:	9b09      	ldr	r3, [sp, #36]	; 0x24
100034fe:	3602      	adds	r6, #2
10003500:	cb04      	ldmia	r3!, {r2}
10003502:	4690      	mov	r8, r2
10003504:	43d2      	mvns	r2, r2
10003506:	4640      	mov	r0, r8
10003508:	17d2      	asrs	r2, r2, #31
1000350a:	4010      	ands	r0, r2
1000350c:	4680      	mov	r8, r0
1000350e:	9309      	str	r3, [sp, #36]	; 0x24
10003510:	7830      	ldrb	r0, [r6, #0]
10003512:	e5f4      	b.n	100030fe <_vsnprintf+0x96>
10003514:	2210      	movs	r2, #16
10003516:	0008      	movs	r0, r1
10003518:	4390      	bics	r0, r2
1000351a:	3211      	adds	r2, #17
1000351c:	4310      	orrs	r0, r2
1000351e:	4683      	mov	fp, r0
10003520:	2200      	movs	r2, #0
10003522:	0549      	lsls	r1, r1, #21
10003524:	d5b0      	bpl.n	10003488 <_vsnprintf+0x420>
10003526:	465b      	mov	r3, fp
10003528:	9306      	str	r3, [sp, #24]
1000352a:	2308      	movs	r3, #8
1000352c:	9305      	str	r3, [sp, #20]
1000352e:	4643      	mov	r3, r8
10003530:	9304      	str	r3, [sp, #16]
10003532:	2310      	movs	r3, #16
10003534:	9303      	str	r3, [sp, #12]
10003536:	2300      	movs	r3, #0
10003538:	9302      	str	r3, [sp, #8]
1000353a:	ab16      	add	r3, sp, #88	; 0x58
1000353c:	9201      	str	r2, [sp, #4]
1000353e:	9300      	str	r3, [sp, #0]
10003540:	002a      	movs	r2, r5
10003542:	464b      	mov	r3, r9
10003544:	0021      	movs	r1, r4
10003546:	9808      	ldr	r0, [sp, #32]
10003548:	f7ff f8a6 	bl	10002698 <_ntoa_format>
1000354c:	4653      	mov	r3, sl
1000354e:	0005      	movs	r5, r0
10003550:	3601      	adds	r6, #1
10003552:	9309      	str	r3, [sp, #36]	; 0x24
10003554:	e5ad      	b.n	100030b2 <_vsnprintf+0x4a>
10003556:	7813      	ldrb	r3, [r2, #0]
10003558:	469c      	mov	ip, r3
1000355a:	2b00      	cmp	r3, #0
1000355c:	d100      	bne.n	10003560 <_vsnprintf+0x4f8>
1000355e:	e2f7      	b.n	10003b50 <_vsnprintf+0xae8>
10003560:	2302      	movs	r3, #2
10003562:	425b      	negs	r3, r3
10003564:	e737      	b.n	100033d6 <_vsnprintf+0x36e>
10003566:	2320      	movs	r3, #32
10003568:	0002      	movs	r2, r0
1000356a:	439a      	bics	r2, r3
1000356c:	2a47      	cmp	r2, #71	; 0x47
1000356e:	d104      	bne.n	1000357a <_vsnprintf+0x512>
10003570:	2380      	movs	r3, #128	; 0x80
10003572:	011b      	lsls	r3, r3, #4
10003574:	4319      	orrs	r1, r3
10003576:	2302      	movs	r3, #2
10003578:	4398      	bics	r0, r3
1000357a:	2845      	cmp	r0, #69	; 0x45
1000357c:	d101      	bne.n	10003582 <_vsnprintf+0x51a>
1000357e:	2320      	movs	r3, #32
10003580:	4319      	orrs	r1, r3
10003582:	2207      	movs	r2, #7
10003584:	9b09      	ldr	r3, [sp, #36]	; 0x24
10003586:	9104      	str	r1, [sp, #16]
10003588:	3307      	adds	r3, #7
1000358a:	4393      	bics	r3, r2
1000358c:	9a0a      	ldr	r2, [sp, #40]	; 0x28
1000358e:	0019      	movs	r1, r3
10003590:	9203      	str	r2, [sp, #12]
10003592:	4642      	mov	r2, r8
10003594:	9202      	str	r2, [sp, #8]
10003596:	c90c      	ldmia	r1!, {r2, r3}
10003598:	9808      	ldr	r0, [sp, #32]
1000359a:	9200      	str	r2, [sp, #0]
1000359c:	9301      	str	r3, [sp, #4]
1000359e:	9109      	str	r1, [sp, #36]	; 0x24
100035a0:	002a      	movs	r2, r5
100035a2:	464b      	mov	r3, r9
100035a4:	0021      	movs	r1, r4
100035a6:	f7ff f96d 	bl	10002884 <_etoa>
100035aa:	3601      	adds	r6, #1
100035ac:	0005      	movs	r5, r0
100035ae:	e580      	b.n	100030b2 <_vsnprintf+0x4a>
100035b0:	2310      	movs	r3, #16
100035b2:	930c      	str	r3, [sp, #48]	; 0x30
100035b4:	230c      	movs	r3, #12
100035b6:	000a      	movs	r2, r1
100035b8:	439a      	bics	r2, r3
100035ba:	920b      	str	r2, [sp, #44]	; 0x2c
100035bc:	054b      	lsls	r3, r1, #21
100035be:	d503      	bpl.n	100035c8 <_vsnprintf+0x560>
100035c0:	2301      	movs	r3, #1
100035c2:	9a0b      	ldr	r2, [sp, #44]	; 0x2c
100035c4:	439a      	bics	r2, r3
100035c6:	920b      	str	r2, [sp, #44]	; 0x2c
100035c8:	2869      	cmp	r0, #105	; 0x69
100035ca:	d100      	bne.n	100035ce <_vsnprintf+0x566>
100035cc:	e627      	b.n	1000321e <_vsnprintf+0x1b6>
100035ce:	2864      	cmp	r0, #100	; 0x64
100035d0:	d100      	bne.n	100035d4 <_vsnprintf+0x56c>
100035d2:	e624      	b.n	1000321e <_vsnprintf+0x1b6>
100035d4:	9a0b      	ldr	r2, [sp, #44]	; 0x2c
100035d6:	2380      	movs	r3, #128	; 0x80
100035d8:	0011      	movs	r1, r2
100035da:	009b      	lsls	r3, r3, #2
100035dc:	4019      	ands	r1, r3
100035de:	468b      	mov	fp, r1
100035e0:	421a      	tst	r2, r3
100035e2:	d000      	beq.n	100035e6 <_vsnprintf+0x57e>
100035e4:	e166      	b.n	100038b4 <_vsnprintf+0x84c>
100035e6:	2380      	movs	r3, #128	; 0x80
100035e8:	0011      	movs	r1, r2
100035ea:	005b      	lsls	r3, r3, #1
100035ec:	4019      	ands	r1, r3
100035ee:	468a      	mov	sl, r1
100035f0:	421a      	tst	r2, r3
100035f2:	d000      	beq.n	100035f6 <_vsnprintf+0x58e>
100035f4:	e239      	b.n	10003a6a <_vsnprintf+0xa02>
100035f6:	0013      	movs	r3, r2
100035f8:	065b      	lsls	r3, r3, #25
100035fa:	d500      	bpl.n	100035fe <_vsnprintf+0x596>
100035fc:	e13c      	b.n	10003878 <_vsnprintf+0x810>
100035fe:	0013      	movs	r3, r2
10003600:	061b      	lsls	r3, r3, #24
10003602:	d400      	bmi.n	10003606 <_vsnprintf+0x59e>
10003604:	e2a6      	b.n	10003b54 <_vsnprintf+0xaec>
10003606:	9b09      	ldr	r3, [sp, #36]	; 0x24
10003608:	cb04      	ldmia	r3!, {r2}
1000360a:	0412      	lsls	r2, r2, #16
1000360c:	0c12      	lsrs	r2, r2, #16
1000360e:	4693      	mov	fp, r2
10003610:	9309      	str	r3, [sp, #36]	; 0x24
10003612:	465b      	mov	r3, fp
10003614:	2b00      	cmp	r3, #0
10003616:	d000      	beq.n	1000361a <_vsnprintf+0x5b2>
10003618:	e19a      	b.n	10003950 <_vsnprintf+0x8e8>
1000361a:	9a0b      	ldr	r2, [sp, #44]	; 0x2c
1000361c:	3310      	adds	r3, #16
1000361e:	0011      	movs	r1, r2
10003620:	4399      	bics	r1, r3
10003622:	910b      	str	r1, [sp, #44]	; 0x2c
10003624:	0552      	lsls	r2, r2, #21
10003626:	d400      	bmi.n	1000362a <_vsnprintf+0x5c2>
10003628:	e192      	b.n	10003950 <_vsnprintf+0x8e8>
1000362a:	2300      	movs	r3, #0
1000362c:	469a      	mov	sl, r3
1000362e:	9b0b      	ldr	r3, [sp, #44]	; 0x2c
10003630:	9306      	str	r3, [sp, #24]
10003632:	9b0a      	ldr	r3, [sp, #40]	; 0x28
10003634:	9305      	str	r3, [sp, #20]
10003636:	4643      	mov	r3, r8
10003638:	9304      	str	r3, [sp, #16]
1000363a:	9b0c      	ldr	r3, [sp, #48]	; 0x30
1000363c:	9303      	str	r3, [sp, #12]
1000363e:	2300      	movs	r3, #0
10003640:	e10c      	b.n	1000385c <_vsnprintf+0x7f4>
10003642:	2320      	movs	r3, #32
10003644:	4319      	orrs	r1, r3
10003646:	e660      	b.n	1000330a <_vsnprintf+0x2a2>
10003648:	9b09      	ldr	r3, [sp, #36]	; 0x24
1000364a:	9a0a      	ldr	r2, [sp, #40]	; 0x28
1000364c:	1b5b      	subs	r3, r3, r5
1000364e:	4698      	mov	r8, r3
10003650:	464b      	mov	r3, r9
10003652:	4691      	mov	r9, r2
10003654:	001f      	movs	r7, r3
10003656:	46b2      	mov	sl, r6
10003658:	0026      	movs	r6, r4
1000365a:	9c08      	ldr	r4, [sp, #32]
1000365c:	002a      	movs	r2, r5
1000365e:	003b      	movs	r3, r7
10003660:	0031      	movs	r1, r6
10003662:	47a0      	blx	r4
10003664:	4643      	mov	r3, r8
10003666:	3501      	adds	r5, #1
10003668:	5d58      	ldrb	r0, [r3, r5]
1000366a:	2800      	cmp	r0, #0
1000366c:	d1f6      	bne.n	1000365c <_vsnprintf+0x5f4>
1000366e:	464a      	mov	r2, r9
10003670:	0034      	movs	r4, r6
10003672:	46b9      	mov	r9, r7
10003674:	4656      	mov	r6, sl
10003676:	920a      	str	r2, [sp, #40]	; 0x28
10003678:	e6f5      	b.n	10003466 <_vsnprintf+0x3fe>
1000367a:	23c0      	movs	r3, #192	; 0xc0
1000367c:	009b      	lsls	r3, r3, #2
1000367e:	78b0      	ldrb	r0, [r6, #2]
10003680:	4319      	orrs	r1, r3
10003682:	3602      	adds	r6, #2
10003684:	e55d      	b.n	10003142 <_vsnprintf+0xda>
10003686:	23c0      	movs	r3, #192	; 0xc0
10003688:	78b0      	ldrb	r0, [r6, #2]
1000368a:	4319      	orrs	r1, r3
1000368c:	3602      	adds	r6, #2
1000368e:	e558      	b.n	10003142 <_vsnprintf+0xda>
10003690:	230c      	movs	r3, #12
10003692:	000a      	movs	r2, r1
10003694:	439a      	bics	r2, r3
10003696:	3314      	adds	r3, #20
10003698:	431a      	orrs	r2, r3
1000369a:	3b10      	subs	r3, #16
1000369c:	920b      	str	r2, [sp, #44]	; 0x2c
1000369e:	930c      	str	r3, [sp, #48]	; 0x30
100036a0:	054b      	lsls	r3, r1, #21
100036a2:	d48d      	bmi.n	100035c0 <_vsnprintf+0x558>
100036a4:	e796      	b.n	100035d4 <_vsnprintf+0x56c>
100036a6:	46a1      	mov	r9, r4
100036a8:	0034      	movs	r4, r6
100036aa:	4656      	mov	r6, sl
100036ac:	e6db      	b.n	10003466 <_vsnprintf+0x3fe>
100036ae:	9a0a      	ldr	r2, [sp, #40]	; 0x28
100036b0:	2a01      	cmp	r2, #1
100036b2:	d800      	bhi.n	100036b6 <_vsnprintf+0x64e>
100036b4:	e253      	b.n	10003b5e <_vsnprintf+0xaf6>
100036b6:	1e6b      	subs	r3, r5, #1
100036b8:	189f      	adds	r7, r3, r2
100036ba:	9b08      	ldr	r3, [sp, #32]
100036bc:	46b0      	mov	r8, r6
100036be:	0026      	movs	r6, r4
100036c0:	464c      	mov	r4, r9
100036c2:	4699      	mov	r9, r3
100036c4:	002a      	movs	r2, r5
100036c6:	0023      	movs	r3, r4
100036c8:	3501      	adds	r5, #1
100036ca:	0031      	movs	r1, r6
100036cc:	2020      	movs	r0, #32
100036ce:	47c8      	blx	r9
100036d0:	42bd      	cmp	r5, r7
100036d2:	d1f7      	bne.n	100036c4 <_vsnprintf+0x65c>
100036d4:	46a1      	mov	r9, r4
100036d6:	0034      	movs	r4, r6
100036d8:	4646      	mov	r6, r8
100036da:	9b09      	ldr	r3, [sp, #36]	; 0x24
100036dc:	003a      	movs	r2, r7
100036de:	cb01      	ldmia	r3!, {r0}
100036e0:	0021      	movs	r1, r4
100036e2:	4698      	mov	r8, r3
100036e4:	1c7d      	adds	r5, r7, #1
100036e6:	464b      	mov	r3, r9
100036e8:	9f08      	ldr	r7, [sp, #32]
100036ea:	b2c0      	uxtb	r0, r0
100036ec:	47b8      	blx	r7
100036ee:	4643      	mov	r3, r8
100036f0:	3601      	adds	r6, #1
100036f2:	9309      	str	r3, [sp, #36]	; 0x24
100036f4:	e4dd      	b.n	100030b2 <_vsnprintf+0x4a>
100036f6:	9b0b      	ldr	r3, [sp, #44]	; 0x2c
100036f8:	9a0a      	ldr	r2, [sp, #40]	; 0x28
100036fa:	46a8      	mov	r8, r5
100036fc:	429a      	cmp	r2, r3
100036fe:	d800      	bhi.n	10003702 <_vsnprintf+0x69a>
10003700:	e6b5      	b.n	1000346e <_vsnprintf+0x406>
10003702:	4694      	mov	ip, r2
10003704:	4465      	add	r5, ip
10003706:	1aed      	subs	r5, r5, r3
10003708:	9b08      	ldr	r3, [sp, #32]
1000370a:	4647      	mov	r7, r8
1000370c:	46b0      	mov	r8, r6
1000370e:	0026      	movs	r6, r4
10003710:	464c      	mov	r4, r9
10003712:	4699      	mov	r9, r3
10003714:	003a      	movs	r2, r7
10003716:	0023      	movs	r3, r4
10003718:	3701      	adds	r7, #1
1000371a:	0031      	movs	r1, r6
1000371c:	2020      	movs	r0, #32
1000371e:	47c8      	blx	r9
10003720:	42af      	cmp	r7, r5
10003722:	d1f7      	bne.n	10003714 <_vsnprintf+0x6ac>
10003724:	46a1      	mov	r9, r4
10003726:	0034      	movs	r4, r6
10003728:	4646      	mov	r6, r8
1000372a:	e6a0      	b.n	1000346e <_vsnprintf+0x406>
1000372c:	9a0b      	ldr	r2, [sp, #44]	; 0x2c
1000372e:	990a      	ldr	r1, [sp, #40]	; 0x28
10003730:	1c53      	adds	r3, r2, #1
10003732:	4291      	cmp	r1, r2
10003734:	d800      	bhi.n	10003738 <_vsnprintf+0x6d0>
10003736:	e214      	b.n	10003b62 <_vsnprintf+0xafa>
10003738:	194b      	adds	r3, r1, r5
1000373a:	1a9b      	subs	r3, r3, r2
1000373c:	001f      	movs	r7, r3
1000373e:	9b08      	ldr	r3, [sp, #32]
10003740:	46b2      	mov	sl, r6
10003742:	0026      	movs	r6, r4
10003744:	464c      	mov	r4, r9
10003746:	4699      	mov	r9, r3
10003748:	002a      	movs	r2, r5
1000374a:	0023      	movs	r3, r4
1000374c:	3501      	adds	r5, #1
1000374e:	0031      	movs	r1, r6
10003750:	2020      	movs	r0, #32
10003752:	47c8      	blx	r9
10003754:	42bd      	cmp	r5, r7
10003756:	d1f7      	bne.n	10003748 <_vsnprintf+0x6e0>
10003758:	9b0a      	ldr	r3, [sp, #40]	; 0x28
1000375a:	46a1      	mov	r9, r4
1000375c:	3301      	adds	r3, #1
1000375e:	930b      	str	r3, [sp, #44]	; 0x2c
10003760:	9b09      	ldr	r3, [sp, #36]	; 0x24
10003762:	0034      	movs	r4, r6
10003764:	781b      	ldrb	r3, [r3, #0]
10003766:	4656      	mov	r6, sl
10003768:	469c      	mov	ip, r3
1000376a:	4660      	mov	r0, ip
1000376c:	2800      	cmp	r0, #0
1000376e:	d000      	beq.n	10003772 <_vsnprintf+0x70a>
10003770:	e658      	b.n	10003424 <_vsnprintf+0x3bc>
10003772:	e67c      	b.n	1000346e <_vsnprintf+0x406>
10003774:	2207      	movs	r2, #7
10003776:	9b09      	ldr	r3, [sp, #36]	; 0x24
10003778:	3307      	adds	r3, #7
1000377a:	4393      	bics	r3, r2
1000377c:	3201      	adds	r2, #1
1000377e:	4694      	mov	ip, r2
10003780:	449c      	add	ip, r3
10003782:	4662      	mov	r2, ip
10003784:	685f      	ldr	r7, [r3, #4]
10003786:	9209      	str	r2, [sp, #36]	; 0x24
10003788:	681a      	ldr	r2, [r3, #0]
1000378a:	17fb      	asrs	r3, r7, #31
1000378c:	9310      	str	r3, [sp, #64]	; 0x40
1000378e:	9311      	str	r3, [sp, #68]	; 0x44
10003790:	9810      	ldr	r0, [sp, #64]	; 0x40
10003792:	9911      	ldr	r1, [sp, #68]	; 0x44
10003794:	0003      	movs	r3, r0
10003796:	4053      	eors	r3, r2
10003798:	930e      	str	r3, [sp, #56]	; 0x38
1000379a:	000b      	movs	r3, r1
1000379c:	407b      	eors	r3, r7
1000379e:	930f      	str	r3, [sp, #60]	; 0x3c
100037a0:	4694      	mov	ip, r2
100037a2:	9a0e      	ldr	r2, [sp, #56]	; 0x38
100037a4:	9b0f      	ldr	r3, [sp, #60]	; 0x3c
100037a6:	1a12      	subs	r2, r2, r0
100037a8:	418b      	sbcs	r3, r1
100037aa:	920e      	str	r2, [sp, #56]	; 0x38
100037ac:	930f      	str	r3, [sp, #60]	; 0x3c
100037ae:	0ffb      	lsrs	r3, r7, #31
100037b0:	4662      	mov	r2, ip
100037b2:	9312      	str	r3, [sp, #72]	; 0x48
100037b4:	2300      	movs	r3, #0
100037b6:	433a      	orrs	r2, r7
100037b8:	469b      	mov	fp, r3
100037ba:	d03d      	beq.n	10003838 <_vsnprintf+0x7d0>
100037bc:	9a0b      	ldr	r2, [sp, #44]	; 0x2c
100037be:	2361      	movs	r3, #97	; 0x61
100037c0:	0692      	lsls	r2, r2, #26
100037c2:	d500      	bpl.n	100037c6 <_vsnprintf+0x75e>
100037c4:	2341      	movs	r3, #65	; 0x41
100037c6:	2200      	movs	r2, #0
100037c8:	b2db      	uxtb	r3, r3
100037ca:	a90e      	add	r1, sp, #56	; 0x38
100037cc:	3b0a      	subs	r3, #10
100037ce:	468c      	mov	ip, r1
100037d0:	4692      	mov	sl, r2
100037d2:	930d      	str	r3, [sp, #52]	; 0x34
100037d4:	4643      	mov	r3, r8
100037d6:	321f      	adds	r2, #31
100037d8:	4462      	add	r2, ip
100037da:	9513      	str	r5, [sp, #76]	; 0x4c
100037dc:	9615      	str	r6, [sp, #84]	; 0x54
100037de:	4655      	mov	r5, sl
100037e0:	9e0e      	ldr	r6, [sp, #56]	; 0x38
100037e2:	9f0f      	ldr	r7, [sp, #60]	; 0x3c
100037e4:	46a2      	mov	sl, r4
100037e6:	4690      	mov	r8, r2
100037e8:	9c0c      	ldr	r4, [sp, #48]	; 0x30
100037ea:	9314      	str	r3, [sp, #80]	; 0x50
100037ec:	e00c      	b.n	10003808 <_vsnprintf+0x7a0>
100037ee:	3230      	adds	r2, #48	; 0x30
100037f0:	b2d2      	uxtb	r2, r2
100037f2:	4643      	mov	r3, r8
100037f4:	3501      	adds	r5, #1
100037f6:	555a      	strb	r2, [r3, r5]
100037f8:	45bb      	cmp	fp, r7
100037fa:	d100      	bne.n	100037fe <_vsnprintf+0x796>
100037fc:	e18a      	b.n	10003b14 <_vsnprintf+0xaac>
100037fe:	2d20      	cmp	r5, #32
10003800:	d100      	bne.n	10003804 <_vsnprintf+0x79c>
10003802:	e18a      	b.n	10003b1a <_vsnprintf+0xab2>
10003804:	0006      	movs	r6, r0
10003806:	000f      	movs	r7, r1
10003808:	0022      	movs	r2, r4
1000380a:	2300      	movs	r3, #0
1000380c:	0030      	movs	r0, r6
1000380e:	0039      	movs	r1, r7
10003810:	f000 fa78 	bl	10003d04 <__wrap___aeabi_uldivmod>
10003814:	b2d2      	uxtb	r2, r2
10003816:	2a09      	cmp	r2, #9
10003818:	d9e9      	bls.n	100037ee <_vsnprintf+0x786>
1000381a:	9b0d      	ldr	r3, [sp, #52]	; 0x34
1000381c:	469c      	mov	ip, r3
1000381e:	4462      	add	r2, ip
10003820:	b2d2      	uxtb	r2, r2
10003822:	e7e6      	b.n	100037f2 <_vsnprintf+0x78a>
10003824:	23ff      	movs	r3, #255	; 0xff
10003826:	9909      	ldr	r1, [sp, #36]	; 0x24
10003828:	c904      	ldmia	r1!, {r2}
1000382a:	4013      	ands	r3, r2
1000382c:	001a      	movs	r2, r3
1000382e:	9109      	str	r1, [sp, #36]	; 0x24
10003830:	e517      	b.n	10003262 <_vsnprintf+0x1fa>
10003832:	46c0      	nop			; (mov r8, r8)
10003834:	100025f9 	.word	0x100025f9
10003838:	9a0b      	ldr	r2, [sp, #44]	; 0x2c
1000383a:	3310      	adds	r3, #16
1000383c:	0011      	movs	r1, r2
1000383e:	4399      	bics	r1, r3
10003840:	910b      	str	r1, [sp, #44]	; 0x2c
10003842:	0552      	lsls	r2, r2, #21
10003844:	d5ba      	bpl.n	100037bc <_vsnprintf+0x754>
10003846:	2300      	movs	r3, #0
10003848:	469a      	mov	sl, r3
1000384a:	9b0b      	ldr	r3, [sp, #44]	; 0x2c
1000384c:	9306      	str	r3, [sp, #24]
1000384e:	9b0a      	ldr	r3, [sp, #40]	; 0x28
10003850:	9305      	str	r3, [sp, #20]
10003852:	4643      	mov	r3, r8
10003854:	9304      	str	r3, [sp, #16]
10003856:	9b0c      	ldr	r3, [sp, #48]	; 0x30
10003858:	9303      	str	r3, [sp, #12]
1000385a:	9b12      	ldr	r3, [sp, #72]	; 0x48
1000385c:	9302      	str	r3, [sp, #8]
1000385e:	4653      	mov	r3, sl
10003860:	9301      	str	r3, [sp, #4]
10003862:	ab16      	add	r3, sp, #88	; 0x58
10003864:	002a      	movs	r2, r5
10003866:	9300      	str	r3, [sp, #0]
10003868:	0021      	movs	r1, r4
1000386a:	464b      	mov	r3, r9
1000386c:	9808      	ldr	r0, [sp, #32]
1000386e:	f7fe ff13 	bl	10002698 <_ntoa_format>
10003872:	3601      	adds	r6, #1
10003874:	0005      	movs	r5, r0
10003876:	e41c      	b.n	100030b2 <_vsnprintf+0x4a>
10003878:	22ff      	movs	r2, #255	; 0xff
1000387a:	9b09      	ldr	r3, [sp, #36]	; 0x24
1000387c:	cb02      	ldmia	r3!, {r1}
1000387e:	4011      	ands	r1, r2
10003880:	468b      	mov	fp, r1
10003882:	9309      	str	r3, [sp, #36]	; 0x24
10003884:	e6c5      	b.n	10003612 <_vsnprintf+0x5aa>
10003886:	4653      	mov	r3, sl
10003888:	4645      	mov	r5, r8
1000388a:	9309      	str	r3, [sp, #36]	; 0x24
1000388c:	3601      	adds	r6, #1
1000388e:	f7ff fc10 	bl	100030b2 <_vsnprintf+0x4a>
10003892:	4656      	mov	r6, sl
10003894:	465c      	mov	r4, fp
10003896:	46aa      	mov	sl, r5
10003898:	9d13      	ldr	r5, [sp, #76]	; 0x4c
1000389a:	e7d6      	b.n	1000384a <_vsnprintf+0x7e2>
1000389c:	2308      	movs	r3, #8
1000389e:	930c      	str	r3, [sp, #48]	; 0x30
100038a0:	910b      	str	r1, [sp, #44]	; 0x2c
100038a2:	990b      	ldr	r1, [sp, #44]	; 0x2c
100038a4:	2864      	cmp	r0, #100	; 0x64
100038a6:	d000      	beq.n	100038aa <_vsnprintf+0x842>
100038a8:	e684      	b.n	100035b4 <_vsnprintf+0x54c>
100038aa:	9b0b      	ldr	r3, [sp, #44]	; 0x2c
100038ac:	055b      	lsls	r3, r3, #21
100038ae:	d500      	bpl.n	100038b2 <_vsnprintf+0x84a>
100038b0:	e686      	b.n	100035c0 <_vsnprintf+0x558>
100038b2:	e4b4      	b.n	1000321e <_vsnprintf+0x1b6>
100038b4:	2207      	movs	r2, #7
100038b6:	9b09      	ldr	r3, [sp, #36]	; 0x24
100038b8:	3307      	adds	r3, #7
100038ba:	4393      	bics	r3, r2
100038bc:	3201      	adds	r2, #1
100038be:	4694      	mov	ip, r2
100038c0:	449c      	add	ip, r3
100038c2:	4662      	mov	r2, ip
100038c4:	9209      	str	r2, [sp, #36]	; 0x24
100038c6:	681a      	ldr	r2, [r3, #0]
100038c8:	685b      	ldr	r3, [r3, #4]
100038ca:	0010      	movs	r0, r2
100038cc:	469b      	mov	fp, r3
100038ce:	0013      	movs	r3, r2
100038d0:	465a      	mov	r2, fp
100038d2:	4313      	orrs	r3, r2
100038d4:	d107      	bne.n	100038e6 <_vsnprintf+0x87e>
100038d6:	9a0b      	ldr	r2, [sp, #44]	; 0x2c
100038d8:	3310      	adds	r3, #16
100038da:	0011      	movs	r1, r2
100038dc:	4399      	bics	r1, r3
100038de:	910b      	str	r1, [sp, #44]	; 0x2c
100038e0:	0552      	lsls	r2, r2, #21
100038e2:	d500      	bpl.n	100038e6 <_vsnprintf+0x87e>
100038e4:	e6a1      	b.n	1000362a <_vsnprintf+0x5c2>
100038e6:	9a0b      	ldr	r2, [sp, #44]	; 0x2c
100038e8:	2361      	movs	r3, #97	; 0x61
100038ea:	0692      	lsls	r2, r2, #26
100038ec:	d500      	bpl.n	100038f0 <_vsnprintf+0x888>
100038ee:	2341      	movs	r3, #65	; 0x41
100038f0:	2200      	movs	r2, #0
100038f2:	b2db      	uxtb	r3, r3
100038f4:	a90e      	add	r1, sp, #56	; 0x38
100038f6:	3b0a      	subs	r3, #10
100038f8:	468c      	mov	ip, r1
100038fa:	4692      	mov	sl, r2
100038fc:	930d      	str	r3, [sp, #52]	; 0x34
100038fe:	4643      	mov	r3, r8
10003900:	321f      	adds	r2, #31
10003902:	4462      	add	r2, ip
10003904:	465f      	mov	r7, fp
10003906:	9512      	str	r5, [sp, #72]	; 0x48
10003908:	46a3      	mov	fp, r4
1000390a:	4655      	mov	r5, sl
1000390c:	0004      	movs	r4, r0
1000390e:	46b2      	mov	sl, r6
10003910:	4690      	mov	r8, r2
10003912:	9e0c      	ldr	r6, [sp, #48]	; 0x30
10003914:	9313      	str	r3, [sp, #76]	; 0x4c
10003916:	e00d      	b.n	10003934 <_vsnprintf+0x8cc>
10003918:	3230      	adds	r2, #48	; 0x30
1000391a:	b2d2      	uxtb	r2, r2
1000391c:	4643      	mov	r3, r8
1000391e:	3501      	adds	r5, #1
10003920:	555a      	strb	r2, [r3, r5]
10003922:	2300      	movs	r3, #0
10003924:	42bb      	cmp	r3, r7
10003926:	d100      	bne.n	1000392a <_vsnprintf+0x8c2>
10003928:	e100      	b.n	10003b2c <_vsnprintf+0xac4>
1000392a:	2d20      	cmp	r5, #32
1000392c:	d100      	bne.n	10003930 <_vsnprintf+0x8c8>
1000392e:	e100      	b.n	10003b32 <_vsnprintf+0xaca>
10003930:	0004      	movs	r4, r0
10003932:	000f      	movs	r7, r1
10003934:	0032      	movs	r2, r6
10003936:	2300      	movs	r3, #0
10003938:	0020      	movs	r0, r4
1000393a:	0039      	movs	r1, r7
1000393c:	f000 f9e2 	bl	10003d04 <__wrap___aeabi_uldivmod>
10003940:	b2d2      	uxtb	r2, r2
10003942:	2a09      	cmp	r2, #9
10003944:	d9e8      	bls.n	10003918 <_vsnprintf+0x8b0>
10003946:	9b0d      	ldr	r3, [sp, #52]	; 0x34
10003948:	469c      	mov	ip, r3
1000394a:	4462      	add	r2, ip
1000394c:	b2d2      	uxtb	r2, r2
1000394e:	e7e5      	b.n	1000391c <_vsnprintf+0x8b4>
10003950:	9a0b      	ldr	r2, [sp, #44]	; 0x2c
10003952:	2361      	movs	r3, #97	; 0x61
10003954:	0692      	lsls	r2, r2, #26
10003956:	d500      	bpl.n	1000395a <_vsnprintf+0x8f2>
10003958:	2341      	movs	r3, #65	; 0x41
1000395a:	b2db      	uxtb	r3, r3
1000395c:	a90e      	add	r1, sp, #56	; 0x38
1000395e:	3b0a      	subs	r3, #10
10003960:	221f      	movs	r2, #31
10003962:	468c      	mov	ip, r1
10003964:	930d      	str	r3, [sp, #52]	; 0x34
10003966:	0023      	movs	r3, r4
10003968:	4462      	add	r2, ip
1000396a:	465c      	mov	r4, fp
1000396c:	9512      	str	r5, [sp, #72]	; 0x48
1000396e:	0017      	movs	r7, r2
10003970:	4655      	mov	r5, sl
10003972:	469b      	mov	fp, r3
10003974:	46b2      	mov	sl, r6
10003976:	9e0c      	ldr	r6, [sp, #48]	; 0x30
10003978:	e008      	b.n	1000398c <_vsnprintf+0x924>
1000397a:	3330      	adds	r3, #48	; 0x30
1000397c:	b2db      	uxtb	r3, r3
1000397e:	3501      	adds	r5, #1
10003980:	557b      	strb	r3, [r7, r5]
10003982:	42b4      	cmp	r4, r6
10003984:	d30e      	bcc.n	100039a4 <_vsnprintf+0x93c>
10003986:	2d20      	cmp	r5, #32
10003988:	d00c      	beq.n	100039a4 <_vsnprintf+0x93c>
1000398a:	0004      	movs	r4, r0
1000398c:	0031      	movs	r1, r6
1000398e:	0020      	movs	r0, r4
10003990:	f000 f976 	bl	10003c80 <__wrap___aeabi_uidiv>
10003994:	b2cb      	uxtb	r3, r1
10003996:	2909      	cmp	r1, #9
10003998:	d9ef      	bls.n	1000397a <_vsnprintf+0x912>
1000399a:	9a0d      	ldr	r2, [sp, #52]	; 0x34
1000399c:	4694      	mov	ip, r2
1000399e:	4463      	add	r3, ip
100039a0:	b2db      	uxtb	r3, r3
100039a2:	e7ec      	b.n	1000397e <_vsnprintf+0x916>
100039a4:	4656      	mov	r6, sl
100039a6:	465c      	mov	r4, fp
100039a8:	46aa      	mov	sl, r5
100039aa:	9d12      	ldr	r5, [sp, #72]	; 0x48
100039ac:	e63f      	b.n	1000362e <_vsnprintf+0x5c6>
100039ae:	9b09      	ldr	r3, [sp, #36]	; 0x24
100039b0:	001a      	movs	r2, r3
100039b2:	ca08      	ldmia	r2!, {r3}
100039b4:	17d9      	asrs	r1, r3, #31
100039b6:	9213      	str	r2, [sp, #76]	; 0x4c
100039b8:	185a      	adds	r2, r3, r1
100039ba:	404a      	eors	r2, r1
100039bc:	4692      	mov	sl, r2
100039be:	0fda      	lsrs	r2, r3, #31
100039c0:	9212      	str	r2, [sp, #72]	; 0x48
100039c2:	2b00      	cmp	r3, #0
100039c4:	d108      	bne.n	100039d8 <_vsnprintf+0x970>
100039c6:	2380      	movs	r3, #128	; 0x80
100039c8:	2210      	movs	r2, #16
100039ca:	990b      	ldr	r1, [sp, #44]	; 0x2c
100039cc:	00db      	lsls	r3, r3, #3
100039ce:	400b      	ands	r3, r1
100039d0:	4391      	bics	r1, r2
100039d2:	910b      	str	r1, [sp, #44]	; 0x2c
100039d4:	2b00      	cmp	r3, #0
100039d6:	d12b      	bne.n	10003a30 <_vsnprintf+0x9c8>
100039d8:	9a0b      	ldr	r2, [sp, #44]	; 0x2c
100039da:	2361      	movs	r3, #97	; 0x61
100039dc:	0692      	lsls	r2, r2, #26
100039de:	d500      	bpl.n	100039e2 <_vsnprintf+0x97a>
100039e0:	2341      	movs	r3, #65	; 0x41
100039e2:	aa0e      	add	r2, sp, #56	; 0x38
100039e4:	271f      	movs	r7, #31
100039e6:	4694      	mov	ip, r2
100039e8:	b2db      	uxtb	r3, r3
100039ea:	3b0a      	subs	r3, #10
100039ec:	950d      	str	r5, [sp, #52]	; 0x34
100039ee:	4467      	add	r7, ip
100039f0:	465d      	mov	r5, fp
100039f2:	9309      	str	r3, [sp, #36]	; 0x24
100039f4:	46a3      	mov	fp, r4
100039f6:	4654      	mov	r4, sl
100039f8:	46b2      	mov	sl, r6
100039fa:	9e0c      	ldr	r6, [sp, #48]	; 0x30
100039fc:	e008      	b.n	10003a10 <_vsnprintf+0x9a8>
100039fe:	3330      	adds	r3, #48	; 0x30
10003a00:	b2db      	uxtb	r3, r3
10003a02:	3501      	adds	r5, #1
10003a04:	557b      	strb	r3, [r7, r5]
10003a06:	42b4      	cmp	r4, r6
10003a08:	d30e      	bcc.n	10003a28 <_vsnprintf+0x9c0>
10003a0a:	2d20      	cmp	r5, #32
10003a0c:	d00c      	beq.n	10003a28 <_vsnprintf+0x9c0>
10003a0e:	0004      	movs	r4, r0
10003a10:	0031      	movs	r1, r6
10003a12:	0020      	movs	r0, r4
10003a14:	f000 f934 	bl	10003c80 <__wrap___aeabi_uidiv>
10003a18:	b2cb      	uxtb	r3, r1
10003a1a:	2909      	cmp	r1, #9
10003a1c:	d9ef      	bls.n	100039fe <_vsnprintf+0x996>
10003a1e:	9a09      	ldr	r2, [sp, #36]	; 0x24
10003a20:	4694      	mov	ip, r2
10003a22:	4463      	add	r3, ip
10003a24:	b2db      	uxtb	r3, r3
10003a26:	e7ec      	b.n	10003a02 <_vsnprintf+0x99a>
10003a28:	4656      	mov	r6, sl
10003a2a:	465c      	mov	r4, fp
10003a2c:	46ab      	mov	fp, r5
10003a2e:	9d0d      	ldr	r5, [sp, #52]	; 0x34
10003a30:	9b0b      	ldr	r3, [sp, #44]	; 0x2c
10003a32:	002a      	movs	r2, r5
10003a34:	9306      	str	r3, [sp, #24]
10003a36:	9b0a      	ldr	r3, [sp, #40]	; 0x28
10003a38:	0021      	movs	r1, r4
10003a3a:	9305      	str	r3, [sp, #20]
10003a3c:	4643      	mov	r3, r8
10003a3e:	9304      	str	r3, [sp, #16]
10003a40:	9b0c      	ldr	r3, [sp, #48]	; 0x30
10003a42:	9808      	ldr	r0, [sp, #32]
10003a44:	9303      	str	r3, [sp, #12]
10003a46:	9b12      	ldr	r3, [sp, #72]	; 0x48
10003a48:	3601      	adds	r6, #1
10003a4a:	9302      	str	r3, [sp, #8]
10003a4c:	465b      	mov	r3, fp
10003a4e:	9301      	str	r3, [sp, #4]
10003a50:	ab16      	add	r3, sp, #88	; 0x58
10003a52:	9300      	str	r3, [sp, #0]
10003a54:	464b      	mov	r3, r9
10003a56:	f7fe fe1f 	bl	10002698 <_ntoa_format>
10003a5a:	9b13      	ldr	r3, [sp, #76]	; 0x4c
10003a5c:	0005      	movs	r5, r0
10003a5e:	9309      	str	r3, [sp, #36]	; 0x24
10003a60:	f7ff fb27 	bl	100030b2 <_vsnprintf+0x4a>
10003a64:	2302      	movs	r3, #2
10003a66:	930c      	str	r3, [sp, #48]	; 0x30
10003a68:	e71a      	b.n	100038a0 <_vsnprintf+0x838>
10003a6a:	9b09      	ldr	r3, [sp, #36]	; 0x24
10003a6c:	cb04      	ldmia	r3!, {r2}
10003a6e:	4692      	mov	sl, r2
10003a70:	9312      	str	r3, [sp, #72]	; 0x48
10003a72:	2a00      	cmp	r2, #0
10003a74:	d108      	bne.n	10003a88 <_vsnprintf+0xa20>
10003a76:	2380      	movs	r3, #128	; 0x80
10003a78:	2210      	movs	r2, #16
10003a7a:	990b      	ldr	r1, [sp, #44]	; 0x2c
10003a7c:	00db      	lsls	r3, r3, #3
10003a7e:	400b      	ands	r3, r1
10003a80:	4391      	bics	r1, r2
10003a82:	910b      	str	r1, [sp, #44]	; 0x2c
10003a84:	2b00      	cmp	r3, #0
10003a86:	d12b      	bne.n	10003ae0 <_vsnprintf+0xa78>
10003a88:	9a0b      	ldr	r2, [sp, #44]	; 0x2c
10003a8a:	2361      	movs	r3, #97	; 0x61
10003a8c:	0692      	lsls	r2, r2, #26
10003a8e:	d500      	bpl.n	10003a92 <_vsnprintf+0xa2a>
10003a90:	2341      	movs	r3, #65	; 0x41
10003a92:	aa0e      	add	r2, sp, #56	; 0x38
10003a94:	271f      	movs	r7, #31
10003a96:	4694      	mov	ip, r2
10003a98:	b2db      	uxtb	r3, r3
10003a9a:	3b0a      	subs	r3, #10
10003a9c:	950d      	str	r5, [sp, #52]	; 0x34
10003a9e:	4467      	add	r7, ip
10003aa0:	465d      	mov	r5, fp
10003aa2:	9309      	str	r3, [sp, #36]	; 0x24
10003aa4:	46a3      	mov	fp, r4
10003aa6:	4654      	mov	r4, sl
10003aa8:	46b2      	mov	sl, r6
10003aaa:	9e0c      	ldr	r6, [sp, #48]	; 0x30
10003aac:	e008      	b.n	10003ac0 <_vsnprintf+0xa58>
10003aae:	3330      	adds	r3, #48	; 0x30
10003ab0:	b2db      	uxtb	r3, r3
10003ab2:	3501      	adds	r5, #1
10003ab4:	557b      	strb	r3, [r7, r5]
10003ab6:	42b4      	cmp	r4, r6
10003ab8:	d30e      	bcc.n	10003ad8 <_vsnprintf+0xa70>
10003aba:	2d20      	cmp	r5, #32
10003abc:	d00c      	beq.n	10003ad8 <_vsnprintf+0xa70>
10003abe:	0004      	movs	r4, r0
10003ac0:	0031      	movs	r1, r6
10003ac2:	0020      	movs	r0, r4
10003ac4:	f000 f8dc 	bl	10003c80 <__wrap___aeabi_uidiv>
10003ac8:	b2cb      	uxtb	r3, r1
10003aca:	2909      	cmp	r1, #9
10003acc:	d9ef      	bls.n	10003aae <_vsnprintf+0xa46>
10003ace:	9a09      	ldr	r2, [sp, #36]	; 0x24
10003ad0:	4694      	mov	ip, r2
10003ad2:	4463      	add	r3, ip
10003ad4:	b2db      	uxtb	r3, r3
10003ad6:	e7ec      	b.n	10003ab2 <_vsnprintf+0xa4a>
10003ad8:	4656      	mov	r6, sl
10003ada:	465c      	mov	r4, fp
10003adc:	46ab      	mov	fp, r5
10003ade:	9d0d      	ldr	r5, [sp, #52]	; 0x34
10003ae0:	9b0b      	ldr	r3, [sp, #44]	; 0x2c
10003ae2:	002a      	movs	r2, r5
10003ae4:	9306      	str	r3, [sp, #24]
10003ae6:	9b0a      	ldr	r3, [sp, #40]	; 0x28
10003ae8:	0021      	movs	r1, r4
10003aea:	9305      	str	r3, [sp, #20]
10003aec:	4643      	mov	r3, r8
10003aee:	9304      	str	r3, [sp, #16]
10003af0:	9b0c      	ldr	r3, [sp, #48]	; 0x30
10003af2:	9808      	ldr	r0, [sp, #32]
10003af4:	9303      	str	r3, [sp, #12]
10003af6:	2300      	movs	r3, #0
10003af8:	9302      	str	r3, [sp, #8]
10003afa:	465b      	mov	r3, fp
10003afc:	9301      	str	r3, [sp, #4]
10003afe:	ab16      	add	r3, sp, #88	; 0x58
10003b00:	9300      	str	r3, [sp, #0]
10003b02:	464b      	mov	r3, r9
10003b04:	f7fe fdc8 	bl	10002698 <_ntoa_format>
10003b08:	9b12      	ldr	r3, [sp, #72]	; 0x48
10003b0a:	0005      	movs	r5, r0
10003b0c:	9309      	str	r3, [sp, #36]	; 0x24
10003b0e:	3601      	adds	r6, #1
10003b10:	f7ff facf 	bl	100030b2 <_vsnprintf+0x4a>
10003b14:	42b4      	cmp	r4, r6
10003b16:	d800      	bhi.n	10003b1a <_vsnprintf+0xab2>
10003b18:	e671      	b.n	100037fe <_vsnprintf+0x796>
10003b1a:	9b14      	ldr	r3, [sp, #80]	; 0x50
10003b1c:	4654      	mov	r4, sl
10003b1e:	960e      	str	r6, [sp, #56]	; 0x38
10003b20:	970f      	str	r7, [sp, #60]	; 0x3c
10003b22:	46aa      	mov	sl, r5
10003b24:	4698      	mov	r8, r3
10003b26:	9e15      	ldr	r6, [sp, #84]	; 0x54
10003b28:	9d13      	ldr	r5, [sp, #76]	; 0x4c
10003b2a:	e68e      	b.n	1000384a <_vsnprintf+0x7e2>
10003b2c:	42a6      	cmp	r6, r4
10003b2e:	d800      	bhi.n	10003b32 <_vsnprintf+0xaca>
10003b30:	e6fb      	b.n	1000392a <_vsnprintf+0x8c2>
10003b32:	9b13      	ldr	r3, [sp, #76]	; 0x4c
10003b34:	4656      	mov	r6, sl
10003b36:	4698      	mov	r8, r3
10003b38:	46aa      	mov	sl, r5
10003b3a:	465c      	mov	r4, fp
10003b3c:	9d12      	ldr	r5, [sp, #72]	; 0x48
10003b3e:	e576      	b.n	1000362e <_vsnprintf+0x5c6>
10003b40:	c908      	ldmia	r1!, {r3}
10003b42:	17d8      	asrs	r0, r3, #31
10003b44:	181a      	adds	r2, r3, r0
10003b46:	4042      	eors	r2, r0
10003b48:	9109      	str	r1, [sp, #36]	; 0x24
10003b4a:	f7ff fb8a 	bl	10003262 <_vsnprintf+0x1fa>
10003b4e:	2300      	movs	r3, #0
10003b50:	930b      	str	r3, [sp, #44]	; 0x2c
10003b52:	e450      	b.n	100033f6 <_vsnprintf+0x38e>
10003b54:	9b09      	ldr	r3, [sp, #36]	; 0x24
10003b56:	cb04      	ldmia	r3!, {r2}
10003b58:	4693      	mov	fp, r2
10003b5a:	9309      	str	r3, [sp, #36]	; 0x24
10003b5c:	e559      	b.n	10003612 <_vsnprintf+0x5aa>
10003b5e:	002f      	movs	r7, r5
10003b60:	e5bb      	b.n	100036da <_vsnprintf+0x672>
10003b62:	930b      	str	r3, [sp, #44]	; 0x2c
10003b64:	e601      	b.n	1000376a <_vsnprintf+0x702>
10003b66:	3b06      	subs	r3, #6
10003b68:	930c      	str	r3, [sp, #48]	; 0x30
10003b6a:	e69a      	b.n	100038a2 <_vsnprintf+0x83a>

10003b6c <vfctprintf>:
10003b6c:	b500      	push	{lr}
10003b6e:	b085      	sub	sp, #20
10003b70:	9103      	str	r1, [sp, #12]
10003b72:	2101      	movs	r1, #1
10003b74:	9002      	str	r0, [sp, #8]
10003b76:	9300      	str	r3, [sp, #0]
10003b78:	4803      	ldr	r0, [pc, #12]	; (10003b88 <vfctprintf+0x1c>)
10003b7a:	0013      	movs	r3, r2
10003b7c:	424a      	negs	r2, r1
10003b7e:	a902      	add	r1, sp, #8
10003b80:	f7ff fa72 	bl	10003068 <_vsnprintf>
10003b84:	b005      	add	sp, #20
10003b86:	bd00      	pop	{pc}
10003b88:	10002875 	.word	0x10002875

10003b8c <weak_raw_vprintf>:
10003b8c:	b510      	push	{r4, lr}
10003b8e:	4a09      	ldr	r2, [pc, #36]	; (10003bb4 <weak_raw_vprintf+0x28>)
10003b90:	0003      	movs	r3, r0
10003b92:	6814      	ldr	r4, [r2, #0]
10003b94:	b084      	sub	sp, #16
10003b96:	2c00      	cmp	r4, #0
10003b98:	d008      	beq.n	10003bac <weak_raw_vprintf+0x20>
10003b9a:	2201      	movs	r2, #1
10003b9c:	9100      	str	r1, [sp, #0]
10003b9e:	4806      	ldr	r0, [pc, #24]	; (10003bb8 <weak_raw_vprintf+0x2c>)
10003ba0:	4252      	negs	r2, r2
10003ba2:	a903      	add	r1, sp, #12
10003ba4:	47a0      	blx	r4
10003ba6:	2001      	movs	r0, #1
10003ba8:	b004      	add	sp, #16
10003baa:	bd10      	pop	{r4, pc}
10003bac:	f001 f968 	bl	10004e80 <__wrap_puts>
10003bb0:	2000      	movs	r0, #0
10003bb2:	e7f9      	b.n	10003ba8 <weak_raw_vprintf+0x1c>
10003bb4:	20001bdc 	.word	0x20001bdc
10003bb8:	10002865 	.word	0x10002865

10003bbc <__aeabi_bits_init>:
10003bbc:	4801      	ldr	r0, [pc, #4]	; (10003bc4 <__aeabi_bits_init+0x8>)
10003bbe:	2104      	movs	r1, #4
10003bc0:	4b01      	ldr	r3, [pc, #4]	; (10003bc8 <__aeabi_bits_init+0xc>)
10003bc2:	4718      	bx	r3
10003bc4:	20000410 	.word	0x20000410
10003bc8:	10003bed 	.word	0x10003bed

10003bcc <rom_func_lookup>:
10003bcc:	2314      	movs	r3, #20
10003bce:	b510      	push	{r4, lr}
10003bd0:	0001      	movs	r1, r0
10003bd2:	8818      	ldrh	r0, [r3, #0]
10003bd4:	3304      	adds	r3, #4
10003bd6:	881b      	ldrh	r3, [r3, #0]
10003bd8:	4798      	blx	r3
10003bda:	bd10      	pop	{r4, pc}

10003bdc <rom_data_lookup>:
10003bdc:	2316      	movs	r3, #22
10003bde:	b510      	push	{r4, lr}
10003be0:	0001      	movs	r1, r0
10003be2:	8818      	ldrh	r0, [r3, #0]
10003be4:	3302      	adds	r3, #2
10003be6:	881b      	ldrh	r3, [r3, #0]
10003be8:	4798      	blx	r3
10003bea:	bd10      	pop	{r4, pc}

10003bec <rom_funcs_lookup>:
10003bec:	b5f8      	push	{r3, r4, r5, r6, r7, lr}
10003bee:	4647      	mov	r7, r8
10003bf0:	46ce      	mov	lr, r9
10003bf2:	b580      	push	{r7, lr}
10003bf4:	1e0f      	subs	r7, r1, #0
10003bf6:	d019      	beq.n	10003c2c <rom_funcs_lookup+0x40>
10003bf8:	2314      	movs	r3, #20
10003bfa:	4699      	mov	r9, r3
10003bfc:	3304      	adds	r3, #4
10003bfe:	0004      	movs	r4, r0
10003c00:	2500      	movs	r5, #0
10003c02:	2601      	movs	r6, #1
10003c04:	4698      	mov	r8, r3
10003c06:	464b      	mov	r3, r9
10003c08:	8818      	ldrh	r0, [r3, #0]
10003c0a:	4643      	mov	r3, r8
10003c0c:	6821      	ldr	r1, [r4, #0]
10003c0e:	881b      	ldrh	r3, [r3, #0]
10003c10:	4798      	blx	r3
10003c12:	c401      	stmia	r4!, {r0}
10003c14:	1e43      	subs	r3, r0, #1
10003c16:	4198      	sbcs	r0, r3
10003c18:	3501      	adds	r5, #1
10003c1a:	4240      	negs	r0, r0
10003c1c:	4006      	ands	r6, r0
10003c1e:	42af      	cmp	r7, r5
10003c20:	d1f1      	bne.n	10003c06 <rom_funcs_lookup+0x1a>
10003c22:	0030      	movs	r0, r6
10003c24:	bcc0      	pop	{r6, r7}
10003c26:	46b9      	mov	r9, r7
10003c28:	46b0      	mov	r8, r6
10003c2a:	bdf8      	pop	{r3, r4, r5, r6, r7, pc}
10003c2c:	2601      	movs	r6, #1
10003c2e:	e7f8      	b.n	10003c22 <rom_funcs_lookup+0x36>

10003c30 <__wrap___aeabi_idiv>:
10003c30:	4a12      	ldr	r2, [pc, #72]	; (10003c7c <divmod_s32s32_savestate+0x18>)
10003c32:	6f93      	ldr	r3, [r2, #120]	; 0x78
10003c34:	089b      	lsrs	r3, r3, #2
10003c36:	d215      	bcs.n	10003c64 <divmod_s32s32_savestate>

10003c38 <divmod_s32s32_unsafe>:
10003c38:	6690      	str	r0, [r2, #104]	; 0x68
10003c3a:	66d1      	str	r1, [r2, #108]	; 0x6c
10003c3c:	2900      	cmp	r1, #0
10003c3e:	d005      	beq.n	10003c4c <divmod_s32s32_unsafe+0x14>
10003c40:	e7ff      	b.n	10003c42 <divmod_s32s32_unsafe+0xa>
10003c42:	e7ff      	b.n	10003c44 <divmod_s32s32_unsafe+0xc>
10003c44:	e7ff      	b.n	10003c46 <divmod_s32s32_unsafe+0xe>
10003c46:	6f51      	ldr	r1, [r2, #116]	; 0x74
10003c48:	6f10      	ldr	r0, [r2, #112]	; 0x70
10003c4a:	4770      	bx	lr
10003c4c:	b504      	push	{r2, lr}
10003c4e:	2180      	movs	r1, #128	; 0x80
10003c50:	0609      	lsls	r1, r1, #24
10003c52:	17c2      	asrs	r2, r0, #31
10003c54:	4051      	eors	r1, r2
10003c56:	2800      	cmp	r0, #0
10003c58:	d000      	beq.n	10003c5c <divmod_s32s32_unsafe+0x24>
10003c5a:	43c8      	mvns	r0, r1
10003c5c:	f007 fb8c 	bl	1000b378 <____aeabi_idiv0_veneer>
10003c60:	2100      	movs	r1, #0
10003c62:	bd04      	pop	{r2, pc}

10003c64 <divmod_s32s32_savestate>:
10003c64:	b5f0      	push	{r4, r5, r6, r7, lr}
10003c66:	6e14      	ldr	r4, [r2, #96]	; 0x60
10003c68:	6e55      	ldr	r5, [r2, #100]	; 0x64
10003c6a:	6f57      	ldr	r7, [r2, #116]	; 0x74
10003c6c:	6f16      	ldr	r6, [r2, #112]	; 0x70
10003c6e:	f7ff ffe3 	bl	10003c38 <divmod_s32s32_unsafe>
10003c72:	6614      	str	r4, [r2, #96]	; 0x60
10003c74:	6655      	str	r5, [r2, #100]	; 0x64
10003c76:	6757      	str	r7, [r2, #116]	; 0x74
10003c78:	6716      	str	r6, [r2, #112]	; 0x70
10003c7a:	bdf0      	pop	{r4, r5, r6, r7, pc}
10003c7c:	d0000000 	.word	0xd0000000

10003c80 <__wrap___aeabi_uidiv>:
10003c80:	4a11      	ldr	r2, [pc, #68]	; (10003cc8 <divmod_u32u32_savestate+0x18>)
10003c82:	6f93      	ldr	r3, [r2, #120]	; 0x78
10003c84:	089b      	lsrs	r3, r3, #2
10003c86:	d213      	bcs.n	10003cb0 <divmod_u32u32_savestate>

10003c88 <divmod_u32u32_unsafe>:
10003c88:	6610      	str	r0, [r2, #96]	; 0x60
10003c8a:	6651      	str	r1, [r2, #100]	; 0x64
10003c8c:	2900      	cmp	r1, #0
10003c8e:	d005      	beq.n	10003c9c <divmod_u32u32_unsafe+0x14>
10003c90:	e7ff      	b.n	10003c92 <divmod_u32u32_unsafe+0xa>
10003c92:	e7ff      	b.n	10003c94 <divmod_u32u32_unsafe+0xc>
10003c94:	e7ff      	b.n	10003c96 <divmod_u32u32_unsafe+0xe>
10003c96:	6f51      	ldr	r1, [r2, #116]	; 0x74
10003c98:	6f10      	ldr	r0, [r2, #112]	; 0x70
10003c9a:	4770      	bx	lr
10003c9c:	b504      	push	{r2, lr}
10003c9e:	2800      	cmp	r0, #0
10003ca0:	d001      	beq.n	10003ca6 <divmod_u32u32_unsafe+0x1e>
10003ca2:	2000      	movs	r0, #0
10003ca4:	43c0      	mvns	r0, r0
10003ca6:	f007 fb67 	bl	1000b378 <____aeabi_idiv0_veneer>
10003caa:	2100      	movs	r1, #0
10003cac:	bd04      	pop	{r2, pc}
10003cae:	46c0      	nop			; (mov r8, r8)

10003cb0 <divmod_u32u32_savestate>:
10003cb0:	b5f0      	push	{r4, r5, r6, r7, lr}
10003cb2:	6e14      	ldr	r4, [r2, #96]	; 0x60
10003cb4:	6e55      	ldr	r5, [r2, #100]	; 0x64
10003cb6:	6f57      	ldr	r7, [r2, #116]	; 0x74
10003cb8:	6f16      	ldr	r6, [r2, #112]	; 0x70
10003cba:	f7ff ffe5 	bl	10003c88 <divmod_u32u32_unsafe>
10003cbe:	6614      	str	r4, [r2, #96]	; 0x60
10003cc0:	6655      	str	r5, [r2, #100]	; 0x64
10003cc2:	6757      	str	r7, [r2, #116]	; 0x74
10003cc4:	6716      	str	r6, [r2, #112]	; 0x70
10003cc6:	bdf0      	pop	{r4, r5, r6, r7, pc}
10003cc8:	d0000000 	.word	0xd0000000

10003ccc <__wrap___aeabi_ldivmod>:
10003ccc:	4694      	mov	ip, r2
10003cce:	4a4e      	ldr	r2, [pc, #312]	; (10003e08 <udiv0+0x1a>)
10003cd0:	6f92      	ldr	r2, [r2, #120]	; 0x78
10003cd2:	0892      	lsrs	r2, r2, #2
10003cd4:	4662      	mov	r2, ip
10003cd6:	d201      	bcs.n	10003cdc <divmod_s64s64_savestate>
10003cd8:	e030      	b.n	10003d3c <divmod_s64s64_unsafe>
10003cda:	46c0      	nop			; (mov r8, r8)

10003cdc <divmod_s64s64_savestate>:
10003cdc:	b5f0      	push	{r4, r5, r6, r7, lr}
10003cde:	4e4a      	ldr	r6, [pc, #296]	; (10003e08 <udiv0+0x1a>)
10003ce0:	6fb5      	ldr	r5, [r6, #120]	; 0x78
10003ce2:	086d      	lsrs	r5, r5, #1
10003ce4:	d3fc      	bcc.n	10003ce0 <divmod_s64s64_savestate+0x4>
10003ce6:	6e34      	ldr	r4, [r6, #96]	; 0x60
10003ce8:	6e75      	ldr	r5, [r6, #100]	; 0x64
10003cea:	6f77      	ldr	r7, [r6, #116]	; 0x74
10003cec:	6f36      	ldr	r6, [r6, #112]	; 0x70
10003cee:	f000 f825 	bl	10003d3c <divmod_s64s64_unsafe>
10003cf2:	4694      	mov	ip, r2
10003cf4:	4a44      	ldr	r2, [pc, #272]	; (10003e08 <udiv0+0x1a>)
10003cf6:	6614      	str	r4, [r2, #96]	; 0x60
10003cf8:	6655      	str	r5, [r2, #100]	; 0x64
10003cfa:	6757      	str	r7, [r2, #116]	; 0x74
10003cfc:	6716      	str	r6, [r2, #112]	; 0x70
10003cfe:	4662      	mov	r2, ip
10003d00:	bdf0      	pop	{r4, r5, r6, r7, pc}
10003d02:	46c0      	nop			; (mov r8, r8)

10003d04 <__wrap___aeabi_uldivmod>:
10003d04:	4694      	mov	ip, r2
10003d06:	4a40      	ldr	r2, [pc, #256]	; (10003e08 <udiv0+0x1a>)
10003d08:	6f92      	ldr	r2, [r2, #120]	; 0x78
10003d0a:	0892      	lsrs	r2, r2, #2
10003d0c:	4662      	mov	r2, ip
10003d0e:	d201      	bcs.n	10003d14 <divmod_u64u64_savestate>
10003d10:	e058      	b.n	10003dc4 <divmod_u64u64_unsafe>
10003d12:	46c0      	nop			; (mov r8, r8)

10003d14 <divmod_u64u64_savestate>:
10003d14:	b5f0      	push	{r4, r5, r6, r7, lr}
10003d16:	4e3c      	ldr	r6, [pc, #240]	; (10003e08 <udiv0+0x1a>)
10003d18:	6fb5      	ldr	r5, [r6, #120]	; 0x78
10003d1a:	086d      	lsrs	r5, r5, #1
10003d1c:	d3fc      	bcc.n	10003d18 <divmod_u64u64_savestate+0x4>
10003d1e:	6e34      	ldr	r4, [r6, #96]	; 0x60
10003d20:	6e75      	ldr	r5, [r6, #100]	; 0x64
10003d22:	6f77      	ldr	r7, [r6, #116]	; 0x74
10003d24:	6f36      	ldr	r6, [r6, #112]	; 0x70
10003d26:	f000 f84d 	bl	10003dc4 <divmod_u64u64_unsafe>
10003d2a:	4694      	mov	ip, r2
10003d2c:	4a36      	ldr	r2, [pc, #216]	; (10003e08 <udiv0+0x1a>)
10003d2e:	6614      	str	r4, [r2, #96]	; 0x60
10003d30:	6655      	str	r5, [r2, #100]	; 0x64
10003d32:	6757      	str	r7, [r2, #116]	; 0x74
10003d34:	6716      	str	r6, [r2, #112]	; 0x70
10003d36:	4662      	mov	r2, ip
10003d38:	bdf0      	pop	{r4, r5, r6, r7, pc}
10003d3a:	46c0      	nop			; (mov r8, r8)

10003d3c <divmod_s64s64_unsafe>:
10003d3c:	2b00      	cmp	r3, #0
10003d3e:	db24      	blt.n	10003d8a <l41_1+0x26>
10003d40:	d011      	beq.n	10003d66 <l41_1+0x2>
10003d42:	2900      	cmp	r1, #0
10003d44:	da3e      	bge.n	10003dc4 <divmod_u64u64_unsafe>
10003d46:	b500      	push	{lr}
10003d48:	43c9      	mvns	r1, r1
10003d4a:	4240      	negs	r0, r0
10003d4c:	d100      	bne.n	10003d50 <l39_1>
10003d4e:	3101      	adds	r1, #1

10003d50 <l39_1>:
10003d50:	f000 f838 	bl	10003dc4 <divmod_u64u64_unsafe>
10003d54:	43c9      	mvns	r1, r1
10003d56:	4240      	negs	r0, r0
10003d58:	d100      	bne.n	10003d5c <l40_1>
10003d5a:	3101      	adds	r1, #1

10003d5c <l40_1>:
10003d5c:	43db      	mvns	r3, r3
10003d5e:	4252      	negs	r2, r2
10003d60:	d100      	bne.n	10003d64 <l41_1>
10003d62:	3301      	adds	r3, #1

10003d64 <l41_1>:
10003d64:	bd00      	pop	{pc}
10003d66:	2a00      	cmp	r2, #0
10003d68:	d1eb      	bne.n	10003d42 <divmod_s64s64_unsafe+0x6>
10003d6a:	2800      	cmp	r0, #0
10003d6c:	d101      	bne.n	10003d72 <l41_1+0xe>
10003d6e:	2900      	cmp	r1, #0
10003d70:	d005      	beq.n	10003d7e <l41_1+0x1a>
10003d72:	2000      	movs	r0, #0
10003d74:	0fc9      	lsrs	r1, r1, #31
10003d76:	07c9      	lsls	r1, r1, #31
10003d78:	d101      	bne.n	10003d7e <l41_1+0x1a>
10003d7a:	43c0      	mvns	r0, r0
10003d7c:	0841      	lsrs	r1, r0, #1
10003d7e:	b500      	push	{lr}
10003d80:	f007 faf2 	bl	1000b368 <____aeabi_ldiv0_veneer>
10003d84:	2200      	movs	r2, #0
10003d86:	2300      	movs	r3, #0
10003d88:	bd00      	pop	{pc}
10003d8a:	b500      	push	{lr}
10003d8c:	2900      	cmp	r1, #0
10003d8e:	db0a      	blt.n	10003da6 <l43_1+0x2>
10003d90:	43db      	mvns	r3, r3
10003d92:	4252      	negs	r2, r2
10003d94:	d100      	bne.n	10003d98 <l42_1>
10003d96:	3301      	adds	r3, #1

10003d98 <l42_1>:
10003d98:	f000 f814 	bl	10003dc4 <divmod_u64u64_unsafe>
10003d9c:	43c9      	mvns	r1, r1
10003d9e:	4240      	negs	r0, r0
10003da0:	d100      	bne.n	10003da4 <l43_1>
10003da2:	3101      	adds	r1, #1

10003da4 <l43_1>:
10003da4:	bd00      	pop	{pc}
10003da6:	43c9      	mvns	r1, r1
10003da8:	4240      	negs	r0, r0
10003daa:	d100      	bne.n	10003dae <l44_1>
10003dac:	3101      	adds	r1, #1

10003dae <l44_1>:
10003dae:	43db      	mvns	r3, r3
10003db0:	4252      	negs	r2, r2
10003db2:	d100      	bne.n	10003db6 <l45_1>
10003db4:	3301      	adds	r3, #1

10003db6 <l45_1>:
10003db6:	f000 f805 	bl	10003dc4 <divmod_u64u64_unsafe>
10003dba:	43db      	mvns	r3, r3
10003dbc:	4252      	negs	r2, r2
10003dbe:	d100      	bne.n	10003dc2 <l46_1>
10003dc0:	3301      	adds	r3, #1

10003dc2 <l46_1>:
10003dc2:	bd00      	pop	{pc}

10003dc4 <divmod_u64u64_unsafe>:
10003dc4:	2900      	cmp	r1, #0
10003dc6:	d123      	bne.n	10003e10 <y64>
10003dc8:	2b00      	cmp	r3, #0
10003dca:	d118      	bne.n	10003dfe <udiv0+0x10>
10003dcc:	2a00      	cmp	r2, #0
10003dce:	d00c      	beq.n	10003dea <divmod_u64u64_unsafe+0x26>
10003dd0:	46bc      	mov	ip, r7
10003dd2:	4f0d      	ldr	r7, [pc, #52]	; (10003e08 <udiv0+0x1a>)
10003dd4:	6638      	str	r0, [r7, #96]	; 0x60
10003dd6:	667a      	str	r2, [r7, #100]	; 0x64
10003dd8:	2100      	movs	r1, #0
10003dda:	2300      	movs	r3, #0
10003ddc:	e7ff      	b.n	10003dde <divmod_u64u64_unsafe+0x1a>
10003dde:	e7ff      	b.n	10003de0 <divmod_u64u64_unsafe+0x1c>
10003de0:	e7ff      	b.n	10003de2 <divmod_u64u64_unsafe+0x1e>
10003de2:	6f7a      	ldr	r2, [r7, #116]	; 0x74
10003de4:	6f38      	ldr	r0, [r7, #112]	; 0x70
10003de6:	4667      	mov	r7, ip
10003de8:	4770      	bx	lr
10003dea:	2800      	cmp	r0, #0
10003dec:	d001      	beq.n	10003df2 <udiv0+0x4>

10003dee <udiv0>:
10003dee:	4807      	ldr	r0, [pc, #28]	; (10003e0c <udiv0+0x1e>)
10003df0:	0001      	movs	r1, r0
10003df2:	b500      	push	{lr}
10003df4:	f007 fab8 	bl	1000b368 <____aeabi_ldiv0_veneer>
10003df8:	2200      	movs	r2, #0
10003dfa:	2300      	movs	r3, #0
10003dfc:	bd00      	pop	{pc}
10003dfe:	0002      	movs	r2, r0
10003e00:	000b      	movs	r3, r1
10003e02:	2000      	movs	r0, #0
10003e04:	2100      	movs	r1, #0
10003e06:	4770      	bx	lr
10003e08:	d0000000 	.word	0xd0000000
10003e0c:	ffffffff 	.word	0xffffffff

10003e10 <y64>:
10003e10:	2b00      	cmp	r3, #0
10003e12:	d000      	beq.n	10003e16 <y64+0x6>
10003e14:	e0bf      	b.n	10003f96 <y64_x48>
10003e16:	0c13      	lsrs	r3, r2, #16
10003e18:	d128      	bne.n	10003e6c <y64_x32>
10003e1a:	2a00      	cmp	r2, #0
10003e1c:	d0e7      	beq.n	10003dee <udiv0>
10003e1e:	b480      	push	{r7}
10003e20:	4f11      	ldr	r7, [pc, #68]	; (10003e68 <y64+0x58>)
10003e22:	6639      	str	r1, [r7, #96]	; 0x60
10003e24:	667a      	str	r2, [r7, #100]	; 0x64
10003e26:	e7ff      	b.n	10003e28 <y64+0x18>
10003e28:	e7ff      	b.n	10003e2a <y64+0x1a>
10003e2a:	b430      	push	{r4, r5}
10003e2c:	0c04      	lsrs	r4, r0, #16
10003e2e:	6f7b      	ldr	r3, [r7, #116]	; 0x74
10003e30:	6f39      	ldr	r1, [r7, #112]	; 0x70
10003e32:	041b      	lsls	r3, r3, #16
10003e34:	4323      	orrs	r3, r4
10003e36:	663b      	str	r3, [r7, #96]	; 0x60
10003e38:	667a      	str	r2, [r7, #100]	; 0x64
10003e3a:	e7ff      	b.n	10003e3c <y64+0x2c>
10003e3c:	e7ff      	b.n	10003e3e <y64+0x2e>
10003e3e:	e7ff      	b.n	10003e40 <y64+0x30>
10003e40:	46c0      	nop			; (mov r8, r8)
10003e42:	b284      	uxth	r4, r0
10003e44:	6f7b      	ldr	r3, [r7, #116]	; 0x74
10003e46:	6f3d      	ldr	r5, [r7, #112]	; 0x70
10003e48:	041b      	lsls	r3, r3, #16
10003e4a:	4323      	orrs	r3, r4
10003e4c:	663b      	str	r3, [r7, #96]	; 0x60
10003e4e:	667a      	str	r2, [r7, #100]	; 0x64
10003e50:	e7ff      	b.n	10003e52 <y64+0x42>
10003e52:	e7ff      	b.n	10003e54 <y64+0x44>
10003e54:	46c0      	nop			; (mov r8, r8)
10003e56:	2300      	movs	r3, #0
10003e58:	042c      	lsls	r4, r5, #16
10003e5a:	0c2d      	lsrs	r5, r5, #16
10003e5c:	6f7a      	ldr	r2, [r7, #116]	; 0x74
10003e5e:	6f38      	ldr	r0, [r7, #112]	; 0x70
10003e60:	1900      	adds	r0, r0, r4
10003e62:	4169      	adcs	r1, r5
10003e64:	bcb0      	pop	{r4, r5, r7}
10003e66:	4770      	bx	lr
10003e68:	d0000000 	.word	0xd0000000

10003e6c <y64_x32>:
10003e6c:	b5f0      	push	{r4, r5, r6, r7, lr}
10003e6e:	4694      	mov	ip, r2
10003e70:	2500      	movs	r5, #0
10003e72:	0e14      	lsrs	r4, r2, #24
10003e74:	d101      	bne.n	10003e7a <y64_x32+0xe>
10003e76:	0212      	lsls	r2, r2, #8
10003e78:	3508      	adds	r5, #8
10003e7a:	0f14      	lsrs	r4, r2, #28
10003e7c:	d101      	bne.n	10003e82 <y64_x32+0x16>
10003e7e:	0112      	lsls	r2, r2, #4
10003e80:	3504      	adds	r5, #4
10003e82:	0f94      	lsrs	r4, r2, #30
10003e84:	d101      	bne.n	10003e8a <y64_x32+0x1e>
10003e86:	0092      	lsls	r2, r2, #2
10003e88:	3502      	adds	r5, #2
10003e8a:	0fd4      	lsrs	r4, r2, #31
10003e8c:	d101      	bne.n	10003e92 <y64_x32+0x26>
10003e8e:	0052      	lsls	r2, r2, #1
10003e90:	3501      	adds	r5, #1
10003e92:	0bd4      	lsrs	r4, r2, #15
10003e94:	3401      	adds	r4, #1
10003e96:	4f25      	ldr	r7, [pc, #148]	; (10003f2c <y64_x32+0xc0>)
10003e98:	667c      	str	r4, [r7, #100]	; 0x64
10003e9a:	4c25      	ldr	r4, [pc, #148]	; (10003f30 <y64_x32+0xc4>)
10003e9c:	663c      	str	r4, [r7, #96]	; 0x60
10003e9e:	0c0e      	lsrs	r6, r1, #16
10003ea0:	b293      	uxth	r3, r2
10003ea2:	e7ff      	b.n	10003ea4 <y64_x32+0x38>
10003ea4:	e7ff      	b.n	10003ea6 <y64_x32+0x3a>
10003ea6:	e7ff      	b.n	10003ea8 <y64_x32+0x3c>
10003ea8:	6f3c      	ldr	r4, [r7, #112]	; 0x70
10003eaa:	4366      	muls	r6, r4
10003eac:	0c36      	lsrs	r6, r6, #16
10003eae:	0377      	lsls	r7, r6, #13
10003eb0:	46be      	mov	lr, r7
10003eb2:	4373      	muls	r3, r6
10003eb4:	0bdf      	lsrs	r7, r3, #15
10003eb6:	045b      	lsls	r3, r3, #17
10003eb8:	1ac0      	subs	r0, r0, r3
10003eba:	41b9      	sbcs	r1, r7
10003ebc:	0c13      	lsrs	r3, r2, #16
10003ebe:	4373      	muls	r3, r6
10003ec0:	18db      	adds	r3, r3, r3
10003ec2:	1ac9      	subs	r1, r1, r3
10003ec4:	08ce      	lsrs	r6, r1, #3
10003ec6:	4366      	muls	r6, r4
10003ec8:	0c36      	lsrs	r6, r6, #16
10003eca:	44b6      	add	lr, r6
10003ecc:	b293      	uxth	r3, r2
10003ece:	4373      	muls	r3, r6
10003ed0:	0f1f      	lsrs	r7, r3, #28
10003ed2:	011b      	lsls	r3, r3, #4
10003ed4:	1ac0      	subs	r0, r0, r3
10003ed6:	41b9      	sbcs	r1, r7
10003ed8:	0c13      	lsrs	r3, r2, #16
10003eda:	4373      	muls	r3, r6
10003edc:	0b1f      	lsrs	r7, r3, #12
10003ede:	051b      	lsls	r3, r3, #20
10003ee0:	1ac0      	subs	r0, r0, r3
10003ee2:	41b9      	sbcs	r1, r7
10003ee4:	0d86      	lsrs	r6, r0, #22
10003ee6:	028f      	lsls	r7, r1, #10
10003ee8:	433e      	orrs	r6, r7
10003eea:	4366      	muls	r6, r4
10003eec:	0c36      	lsrs	r6, r6, #16
10003eee:	2d09      	cmp	r5, #9
10003ef0:	db24      	blt.n	10003f3c <last0>
10003ef2:	0a52      	lsrs	r2, r2, #9
10003ef4:	4372      	muls	r2, r6
10003ef6:	1a80      	subs	r0, r0, r2
10003ef8:	0377      	lsls	r7, r6, #13
10003efa:	0a46      	lsrs	r6, r0, #9
10003efc:	4366      	muls	r6, r4
10003efe:	0c36      	lsrs	r6, r6, #16
10003f00:	2316      	movs	r3, #22
10003f02:	1b5b      	subs	r3, r3, r5
10003f04:	40de      	lsrs	r6, r3
10003f06:	40df      	lsrs	r7, r3
10003f08:	19bf      	adds	r7, r7, r6
10003f0a:	4664      	mov	r4, ip
10003f0c:	4366      	muls	r6, r4
10003f0e:	1b82      	subs	r2, r0, r6
10003f10:	4670      	mov	r0, lr
10003f12:	3504      	adds	r5, #4
10003f14:	3306      	adds	r3, #6
10003f16:	0001      	movs	r1, r0
10003f18:	40d9      	lsrs	r1, r3
10003f1a:	40a8      	lsls	r0, r5
10003f1c:	19c0      	adds	r0, r0, r7
10003f1e:	d300      	bcc.n	10003f22 <y64_x32+0xb6>
10003f20:	3101      	adds	r1, #1
10003f22:	42a2      	cmp	r2, r4
10003f24:	d206      	bcs.n	10003f34 <y64_x32+0xc8>
10003f26:	2300      	movs	r3, #0
10003f28:	bdf0      	pop	{r4, r5, r6, r7, pc}
10003f2a:	0000      	.short	0x0000
10003f2c:	d0000000 	.word	0xd0000000
10003f30:	ffffffff 	.word	0xffffffff
10003f34:	1b12      	subs	r2, r2, r4
10003f36:	3001      	adds	r0, #1
10003f38:	d3f3      	bcc.n	10003f22 <y64_x32+0xb6>
10003f3a:	e7f1      	b.n	10003f20 <y64_x32+0xb4>

10003f3c <last0>:
10003f3c:	2709      	movs	r7, #9
10003f3e:	1b7f      	subs	r7, r7, r5
10003f40:	40fe      	lsrs	r6, r7
10003f42:	4664      	mov	r4, ip
10003f44:	b2a2      	uxth	r2, r4
10003f46:	4372      	muls	r2, r6
10003f48:	1a80      	subs	r0, r0, r2
10003f4a:	d200      	bcs.n	10003f4e <last0+0x12>
10003f4c:	3901      	subs	r1, #1
10003f4e:	0c22      	lsrs	r2, r4, #16
10003f50:	4372      	muls	r2, r6
10003f52:	0c13      	lsrs	r3, r2, #16
10003f54:	0412      	lsls	r2, r2, #16
10003f56:	1a82      	subs	r2, r0, r2
10003f58:	4199      	sbcs	r1, r3
10003f5a:	000b      	movs	r3, r1
10003f5c:	4670      	mov	r0, lr
10003f5e:	3504      	adds	r5, #4
10003f60:	3713      	adds	r7, #19
10003f62:	0001      	movs	r1, r0
10003f64:	40f9      	lsrs	r1, r7
10003f66:	40a8      	lsls	r0, r5
10003f68:	1980      	adds	r0, r0, r6
10003f6a:	d300      	bcc.n	10003f6e <last0+0x32>
10003f6c:	3101      	adds	r1, #1
10003f6e:	2b00      	cmp	r3, #0
10003f70:	d102      	bne.n	10003f78 <last0+0x3c>
10003f72:	42a2      	cmp	r2, r4
10003f74:	d20a      	bcs.n	10003f8c <last0+0x50>
10003f76:	bdf0      	pop	{r4, r5, r6, r7, pc}
10003f78:	3001      	adds	r0, #1
10003f7a:	d300      	bcc.n	10003f7e <last0+0x42>
10003f7c:	3101      	adds	r1, #1
10003f7e:	1b12      	subs	r2, r2, r4
10003f80:	d2fa      	bcs.n	10003f78 <last0+0x3c>
10003f82:	3b01      	subs	r3, #1
10003f84:	d1f8      	bne.n	10003f78 <last0+0x3c>
10003f86:	42a2      	cmp	r2, r4
10003f88:	d200      	bcs.n	10003f8c <last0+0x50>
10003f8a:	bdf0      	pop	{r4, r5, r6, r7, pc}
10003f8c:	3001      	adds	r0, #1
10003f8e:	d300      	bcc.n	10003f92 <last0+0x56>
10003f90:	3101      	adds	r1, #1
10003f92:	1b12      	subs	r2, r2, r4
10003f94:	e7f7      	b.n	10003f86 <last0+0x4a>

10003f96 <y64_x48>:
10003f96:	b5f0      	push	{r4, r5, r6, r7, lr}
10003f98:	0c1c      	lsrs	r4, r3, #16
10003f9a:	d000      	beq.n	10003f9e <y64_x48+0x8>
10003f9c:	e080      	b.n	100040a0 <y64_x64>
10003f9e:	b40c      	push	{r2, r3}
10003fa0:	2500      	movs	r5, #0
10003fa2:	0a1c      	lsrs	r4, r3, #8
10003fa4:	d104      	bne.n	10003fb0 <y64_x48+0x1a>
10003fa6:	021b      	lsls	r3, r3, #8
10003fa8:	0e16      	lsrs	r6, r2, #24
10003faa:	4333      	orrs	r3, r6
10003fac:	0212      	lsls	r2, r2, #8
10003fae:	3508      	adds	r5, #8
10003fb0:	0b1c      	lsrs	r4, r3, #12
10003fb2:	d104      	bne.n	10003fbe <y64_x48+0x28>
10003fb4:	011b      	lsls	r3, r3, #4
10003fb6:	0f16      	lsrs	r6, r2, #28
10003fb8:	4333      	orrs	r3, r6
10003fba:	0112      	lsls	r2, r2, #4
10003fbc:	3504      	adds	r5, #4
10003fbe:	0b9c      	lsrs	r4, r3, #14
10003fc0:	d104      	bne.n	10003fcc <y64_x48+0x36>
10003fc2:	009b      	lsls	r3, r3, #2
10003fc4:	0f96      	lsrs	r6, r2, #30
10003fc6:	4333      	orrs	r3, r6
10003fc8:	0092      	lsls	r2, r2, #2
10003fca:	3502      	adds	r5, #2
10003fcc:	0bdc      	lsrs	r4, r3, #15
10003fce:	d102      	bne.n	10003fd6 <y64_x48+0x40>
10003fd0:	1892      	adds	r2, r2, r2
10003fd2:	415b      	adcs	r3, r3
10003fd4:	3501      	adds	r5, #1
10003fd6:	001c      	movs	r4, r3
10003fd8:	1897      	adds	r7, r2, r2
10003fda:	4164      	adcs	r4, r4
10003fdc:	3401      	adds	r4, #1
10003fde:	4f46      	ldr	r7, [pc, #280]	; (100040f8 <y64_x64+0x58>)
10003fe0:	667c      	str	r4, [r7, #100]	; 0x64
10003fe2:	4c46      	ldr	r4, [pc, #280]	; (100040fc <y64_x64+0x5c>)
10003fe4:	663c      	str	r4, [r7, #96]	; 0x60
10003fe6:	0c0e      	lsrs	r6, r1, #16
10003fe8:	e7ff      	b.n	10003fea <y64_x48+0x54>
10003fea:	e7ff      	b.n	10003fec <y64_x48+0x56>
10003fec:	e7ff      	b.n	10003fee <y64_x48+0x58>
10003fee:	46c0      	nop			; (mov r8, r8)
10003ff0:	6f3c      	ldr	r4, [r7, #112]	; 0x70
10003ff2:	4366      	muls	r6, r4
10003ff4:	0c36      	lsrs	r6, r6, #16
10003ff6:	0377      	lsls	r7, r6, #13
10003ff8:	46be      	mov	lr, r7
10003ffa:	b297      	uxth	r7, r2
10003ffc:	4377      	muls	r7, r6
10003ffe:	1bc0      	subs	r0, r0, r7
10004000:	d200      	bcs.n	10004004 <y64_x48+0x6e>
10004002:	3901      	subs	r1, #1
10004004:	1bc0      	subs	r0, r0, r7
10004006:	d200      	bcs.n	1000400a <y64_x48+0x74>
10004008:	3901      	subs	r1, #1
1000400a:	b29f      	uxth	r7, r3
1000400c:	4377      	muls	r7, r6
1000400e:	1bc9      	subs	r1, r1, r7
10004010:	1bc9      	subs	r1, r1, r7
10004012:	0c17      	lsrs	r7, r2, #16
10004014:	4377      	muls	r7, r6
10004016:	047e      	lsls	r6, r7, #17
10004018:	0bff      	lsrs	r7, r7, #15
1000401a:	1b80      	subs	r0, r0, r6
1000401c:	41b9      	sbcs	r1, r7
1000401e:	08ce      	lsrs	r6, r1, #3
10004020:	4366      	muls	r6, r4
10004022:	0c36      	lsrs	r6, r6, #16
10004024:	2d0c      	cmp	r5, #12
10004026:	db33      	blt.n	10004090 <last1>
10004028:	44b6      	add	lr, r6
1000402a:	0b12      	lsrs	r2, r2, #12
1000402c:	051f      	lsls	r7, r3, #20
1000402e:	433a      	orrs	r2, r7
10004030:	0b1b      	lsrs	r3, r3, #12
10004032:	b297      	uxth	r7, r2
10004034:	4377      	muls	r7, r6
10004036:	1bc0      	subs	r0, r0, r7
10004038:	d200      	bcs.n	1000403c <y64_x48+0xa6>
1000403a:	3901      	subs	r1, #1
1000403c:	b29f      	uxth	r7, r3
1000403e:	4377      	muls	r7, r6
10004040:	1bc9      	subs	r1, r1, r7
10004042:	0c17      	lsrs	r7, r2, #16
10004044:	4377      	muls	r7, r6
10004046:	043e      	lsls	r6, r7, #16
10004048:	0c3f      	lsrs	r7, r7, #16
1000404a:	1b80      	subs	r0, r0, r6
1000404c:	41b9      	sbcs	r1, r7
1000404e:	0d86      	lsrs	r6, r0, #22
10004050:	028f      	lsls	r7, r1, #10
10004052:	433e      	orrs	r6, r7
10004054:	4366      	muls	r6, r4
10004056:	2729      	movs	r7, #41	; 0x29
10004058:	1b7f      	subs	r7, r7, r5
1000405a:	40fe      	lsrs	r6, r7
1000405c:	3d0c      	subs	r5, #12
1000405e:	4677      	mov	r7, lr
10004060:	40af      	lsls	r7, r5
10004062:	19bf      	adds	r7, r7, r6
10004064:	bc30      	pop	{r4, r5}
10004066:	b2a2      	uxth	r2, r4
10004068:	b2ab      	uxth	r3, r5
1000406a:	4372      	muls	r2, r6
1000406c:	4373      	muls	r3, r6
1000406e:	1a80      	subs	r0, r0, r2
10004070:	4199      	sbcs	r1, r3
10004072:	0c22      	lsrs	r2, r4, #16
10004074:	4372      	muls	r2, r6
10004076:	0c13      	lsrs	r3, r2, #16
10004078:	0412      	lsls	r2, r2, #16
1000407a:	1a80      	subs	r0, r0, r2
1000407c:	4199      	sbcs	r1, r3
1000407e:	0002      	movs	r2, r0
10004080:	000b      	movs	r3, r1
10004082:	3701      	adds	r7, #1
10004084:	1b00      	subs	r0, r0, r4
10004086:	41a9      	sbcs	r1, r5
10004088:	d2f9      	bcs.n	1000407e <y64_x48+0xe8>
1000408a:	1e78      	subs	r0, r7, #1
1000408c:	2100      	movs	r1, #0
1000408e:	bdf0      	pop	{r4, r5, r6, r7, pc}

10004090 <last1>:
10004090:	270c      	movs	r7, #12
10004092:	1b7f      	subs	r7, r7, r5
10004094:	40fe      	lsrs	r6, r7
10004096:	4677      	mov	r7, lr
10004098:	0b7f      	lsrs	r7, r7, #13
1000409a:	40af      	lsls	r7, r5
1000409c:	19ff      	adds	r7, r7, r7
1000409e:	e7e0      	b.n	10004062 <y64_x48+0xcc>

100040a0 <y64_x64>:
100040a0:	2400      	movs	r4, #0
100040a2:	1c5d      	adds	r5, r3, #1
100040a4:	d007      	beq.n	100040b6 <y64_x64+0x16>
100040a6:	4f14      	ldr	r7, [pc, #80]	; (100040f8 <y64_x64+0x58>)
100040a8:	667d      	str	r5, [r7, #100]	; 0x64
100040aa:	6639      	str	r1, [r7, #96]	; 0x60
100040ac:	e7ff      	b.n	100040ae <y64_x64+0xe>
100040ae:	e7ff      	b.n	100040b0 <y64_x64+0x10>
100040b0:	e7ff      	b.n	100040b2 <y64_x64+0x12>
100040b2:	e7ff      	b.n	100040b4 <y64_x64+0x14>
100040b4:	6f3c      	ldr	r4, [r7, #112]	; 0x70
100040b6:	b295      	uxth	r5, r2
100040b8:	b29e      	uxth	r6, r3
100040ba:	4365      	muls	r5, r4
100040bc:	4366      	muls	r6, r4
100040be:	1b40      	subs	r0, r0, r5
100040c0:	41b1      	sbcs	r1, r6
100040c2:	0c15      	lsrs	r5, r2, #16
100040c4:	0c1e      	lsrs	r6, r3, #16
100040c6:	4365      	muls	r5, r4
100040c8:	4366      	muls	r6, r4
100040ca:	0436      	lsls	r6, r6, #16
100040cc:	0c2f      	lsrs	r7, r5, #16
100040ce:	433e      	orrs	r6, r7
100040d0:	042d      	lsls	r5, r5, #16
100040d2:	1b40      	subs	r0, r0, r5
100040d4:	41b1      	sbcs	r1, r6
100040d6:	4299      	cmp	r1, r3
100040d8:	d204      	bcs.n	100040e4 <y64_x64+0x44>
100040da:	0002      	movs	r2, r0
100040dc:	000b      	movs	r3, r1
100040de:	0020      	movs	r0, r4
100040e0:	2100      	movs	r1, #0
100040e2:	bdf0      	pop	{r4, r5, r6, r7, pc}
100040e4:	d101      	bne.n	100040ea <y64_x64+0x4a>
100040e6:	4290      	cmp	r0, r2
100040e8:	d3f7      	bcc.n	100040da <y64_x64+0x3a>
100040ea:	1a80      	subs	r0, r0, r2
100040ec:	4199      	sbcs	r1, r3
100040ee:	3401      	adds	r4, #1
100040f0:	4299      	cmp	r1, r3
100040f2:	d3f2      	bcc.n	100040da <y64_x64+0x3a>
100040f4:	e7f6      	b.n	100040e4 <y64_x64+0x44>
100040f6:	0000      	.short	0x0000
100040f8:	d0000000 	.word	0xd0000000
100040fc:	ffffffff 	.word	0xffffffff

10004100 <__wrap___aeabi_drsub>:
10004100:	4048      	eors	r0, r1
10004102:	4041      	eors	r1, r0
10004104:	4048      	eors	r0, r1

10004106 <__wrap___aeabi_dsub>:
10004106:	b418      	push	{r3, r4}
10004108:	4b1b      	ldr	r3, [pc, #108]	; (10004178 <__wrap___aeabi_dmul+0x12>)
1000410a:	685b      	ldr	r3, [r3, #4]
1000410c:	46fc      	mov	ip, pc
1000410e:	9301      	str	r3, [sp, #4]
10004110:	bd08      	pop	{r3, pc}
10004112:	df04      	.short	0xdf04
10004114:	100043b7 	.word	0x100043b7

10004118 <__wrap___aeabi_dadd>:
10004118:	b418      	push	{r3, r4}
1000411a:	4b17      	ldr	r3, [pc, #92]	; (10004178 <__wrap___aeabi_dmul+0x12>)
1000411c:	681b      	ldr	r3, [r3, #0]
1000411e:	46fc      	mov	ip, pc
10004120:	9301      	str	r3, [sp, #4]
10004122:	bd08      	pop	{r3, pc}
10004124:	43c1df00 	.word	0x43c1df00
10004128:	1000      	.short	0x1000

1000412a <__wrap___aeabi_ddiv>:
1000412a:	4694      	mov	ip, r2
1000412c:	4a13      	ldr	r2, [pc, #76]	; (1000417c <__wrap___aeabi_dmul+0x16>)
1000412e:	6f92      	ldr	r2, [r2, #120]	; 0x78
10004130:	0892      	lsrs	r2, r2, #2
10004132:	d209      	bcs.n	10004148 <ddiv_save_state>
10004134:	4662      	mov	r2, ip

10004136 <ddiv_shim_call>:
10004136:	b418      	push	{r3, r4}
10004138:	4b0f      	ldr	r3, [pc, #60]	; (10004178 <__wrap___aeabi_dmul+0x12>)
1000413a:	68db      	ldr	r3, [r3, #12]
1000413c:	46fc      	mov	ip, pc
1000413e:	9301      	str	r3, [sp, #4]
10004140:	bd08      	pop	{r3, pc}
10004142:	df0c      	.short	0xdf0c
10004144:	10004679 	.word	0x10004679

10004148 <ddiv_save_state>:
10004148:	4a0c      	ldr	r2, [pc, #48]	; (1000417c <__wrap___aeabi_dmul+0x16>)
1000414a:	b5f0      	push	{r4, r5, r6, r7, lr}
1000414c:	6e14      	ldr	r4, [r2, #96]	; 0x60
1000414e:	6e55      	ldr	r5, [r2, #100]	; 0x64
10004150:	6f57      	ldr	r7, [r2, #116]	; 0x74
10004152:	6f16      	ldr	r6, [r2, #112]	; 0x70
10004154:	4662      	mov	r2, ip
10004156:	f7ff ffee 	bl	10004136 <ddiv_shim_call>
1000415a:	4a08      	ldr	r2, [pc, #32]	; (1000417c <__wrap___aeabi_dmul+0x16>)
1000415c:	6614      	str	r4, [r2, #96]	; 0x60
1000415e:	6655      	str	r5, [r2, #100]	; 0x64
10004160:	6757      	str	r7, [r2, #116]	; 0x74
10004162:	6716      	str	r6, [r2, #112]	; 0x70
10004164:	bdf0      	pop	{r4, r5, r6, r7, pc}

10004166 <__wrap___aeabi_dmul>:
10004166:	b418      	push	{r3, r4}
10004168:	4b03      	ldr	r3, [pc, #12]	; (10004178 <__wrap___aeabi_dmul+0x12>)
1000416a:	689b      	ldr	r3, [r3, #8]
1000416c:	46fc      	mov	ip, pc
1000416e:	9301      	str	r3, [sp, #4]
10004170:	bd08      	pop	{r3, pc}
10004172:	df08      	.short	0xdf08
10004174:	1000451d 	.word	0x1000451d
10004178:	20000e38 	.word	0x20000e38
1000417c:	d0000000 	.word	0xd0000000

10004180 <__wrap___aeabi_cdrcmple>:
10004180:	b5ff      	push	{r0, r1, r2, r3, r4, r5, r6, r7, lr}
10004182:	4050      	eors	r0, r2
10004184:	4042      	eors	r2, r0
10004186:	4050      	eors	r0, r2
10004188:	4059      	eors	r1, r3
1000418a:	404b      	eors	r3, r1
1000418c:	4059      	eors	r1, r3
1000418e:	e000      	b.n	10004192 <__aeabi_dfcmple_guts>

10004190 <__wrap___aeabi_cdcmpeq>:
10004190:	b5ff      	push	{r0, r1, r2, r3, r4, r5, r6, r7, lr}

10004192 <__aeabi_dfcmple_guts>:
10004192:	4f15      	ldr	r7, [pc, #84]	; (100041e8 <__aeabi_dfcmple_guts+0x56>)
10004194:	004c      	lsls	r4, r1, #1
10004196:	0d64      	lsrs	r4, r4, #21
10004198:	d003      	beq.n	100041a2 <__aeabi_dfcmple_guts+0x10>
1000419a:	42bc      	cmp	r4, r7
1000419c:	d104      	bne.n	100041a8 <__aeabi_dfcmple_guts+0x16>
1000419e:	030c      	lsls	r4, r1, #12
100041a0:	d814      	bhi.n	100041cc <__aeabi_dfcmple_guts+0x3a>
100041a2:	2000      	movs	r0, #0
100041a4:	0d09      	lsrs	r1, r1, #20
100041a6:	0509      	lsls	r1, r1, #20
100041a8:	005c      	lsls	r4, r3, #1
100041aa:	0d64      	lsrs	r4, r4, #21
100041ac:	d003      	beq.n	100041b6 <__aeabi_dfcmple_guts+0x24>
100041ae:	42bc      	cmp	r4, r7
100041b0:	d104      	bne.n	100041bc <__aeabi_dfcmple_guts+0x2a>
100041b2:	031c      	lsls	r4, r3, #12
100041b4:	d80a      	bhi.n	100041cc <__aeabi_dfcmple_guts+0x3a>
100041b6:	2200      	movs	r2, #0
100041b8:	0d1b      	lsrs	r3, r3, #20
100041ba:	051b      	lsls	r3, r3, #20
100041bc:	2601      	movs	r6, #1
100041be:	404b      	eors	r3, r1
100041c0:	d409      	bmi.n	100041d6 <__aeabi_dfcmple_guts+0x44>
100041c2:	404b      	eors	r3, r1
100041c4:	d503      	bpl.n	100041ce <__aeabi_dfcmple_guts+0x3c>
100041c6:	428b      	cmp	r3, r1
100041c8:	d100      	bne.n	100041cc <__aeabi_dfcmple_guts+0x3a>
100041ca:	4282      	cmp	r2, r0
100041cc:	bdff      	pop	{r0, r1, r2, r3, r4, r5, r6, r7, pc}
100041ce:	4299      	cmp	r1, r3
100041d0:	d1fc      	bne.n	100041cc <__aeabi_dfcmple_guts+0x3a>
100041d2:	4290      	cmp	r0, r2
100041d4:	bdff      	pop	{r0, r1, r2, r3, r4, r5, r6, r7, pc}
100041d6:	430b      	orrs	r3, r1
100041d8:	18db      	adds	r3, r3, r3
100041da:	4303      	orrs	r3, r0
100041dc:	4313      	orrs	r3, r2
100041de:	d0f5      	beq.n	100041cc <__aeabi_dfcmple_guts+0x3a>
100041e0:	43c9      	mvns	r1, r1
100041e2:	1849      	adds	r1, r1, r1
100041e4:	bdff      	pop	{r0, r1, r2, r3, r4, r5, r6, r7, pc}
100041e6:	0000      	.short	0x0000
100041e8:	000007ff 	.word	0x000007ff

100041ec <__wrap___aeabi_dcmplt>:
100041ec:	b500      	push	{lr}
100041ee:	f7ff ffcf 	bl	10004190 <__wrap___aeabi_cdcmpeq>
100041f2:	4180      	sbcs	r0, r0
100041f4:	bd00      	pop	{pc}
100041f6:	46c0      	nop			; (mov r8, r8)

100041f8 <__wrap___aeabi_dcmple>:
100041f8:	b500      	push	{lr}
100041fa:	f7ff ffc9 	bl	10004190 <__wrap___aeabi_cdcmpeq>
100041fe:	d901      	bls.n	10004204 <__wrap___aeabi_dcmple+0xc>
10004200:	2000      	movs	r0, #0
10004202:	bd00      	pop	{pc}
10004204:	2001      	movs	r0, #1
10004206:	bd00      	pop	{pc}

10004208 <__wrap___aeabi_dcmpge>:
10004208:	b500      	push	{lr}
1000420a:	f7ff ffb9 	bl	10004180 <__wrap___aeabi_cdrcmple>
1000420e:	d901      	bls.n	10004214 <__wrap___aeabi_dcmpge+0xc>
10004210:	2000      	movs	r0, #0
10004212:	bd00      	pop	{pc}
10004214:	2001      	movs	r0, #1
10004216:	bd00      	pop	{pc}

10004218 <__wrap___aeabi_dcmpgt>:
10004218:	b500      	push	{lr}
1000421a:	f7ff ffb1 	bl	10004180 <__wrap___aeabi_cdrcmple>
1000421e:	4180      	sbcs	r0, r0
10004220:	bd00      	pop	{pc}

10004222 <__wrap___aeabi_dcmpun>:
10004222:	2001      	movs	r0, #1
10004224:	0540      	lsls	r0, r0, #21
10004226:	004a      	lsls	r2, r1, #1
10004228:	1812      	adds	r2, r2, r0
1000422a:	d804      	bhi.n	10004236 <__wrap___aeabi_dcmpun+0x14>
1000422c:	005a      	lsls	r2, r3, #1
1000422e:	1812      	adds	r2, r2, r0
10004230:	d801      	bhi.n	10004236 <__wrap___aeabi_dcmpun+0x14>
10004232:	2000      	movs	r0, #0
10004234:	4770      	bx	lr
10004236:	2001      	movs	r0, #1
10004238:	4770      	bx	lr
1000423a:	2000      	movs	r0, #0
1000423c:	4770      	bx	lr
	...

10004240 <__wrap___aeabi_ui2d>:
10004240:	2100      	movs	r1, #0
10004242:	2800      	cmp	r0, #0
10004244:	d105      	bne.n	10004252 <__wrap___aeabi_i2d+0xa>
10004246:	4770      	bx	lr

10004248 <__wrap___aeabi_i2d>:
10004248:	17c1      	asrs	r1, r0, #31
1000424a:	4048      	eors	r0, r1
1000424c:	1a40      	subs	r0, r0, r1
1000424e:	d0fa      	beq.n	10004246 <__wrap___aeabi_ui2d+0x6>
10004250:	07c9      	lsls	r1, r1, #31
10004252:	b513      	push	{r0, r1, r4, lr}
10004254:	4b06      	ldr	r3, [pc, #24]	; (10004270 <__wrap___aeabi_i2d+0x28>)
10004256:	681b      	ldr	r3, [r3, #0]
10004258:	4798      	blx	r3
1000425a:	bc0c      	pop	{r2, r3}
1000425c:	1c44      	adds	r4, r0, #1
1000425e:	40a2      	lsls	r2, r4
10004260:	0510      	lsls	r0, r2, #20
10004262:	0b12      	lsrs	r2, r2, #12
10004264:	4903      	ldr	r1, [pc, #12]	; (10004274 <__wrap___aeabi_i2d+0x2c>)
10004266:	1b09      	subs	r1, r1, r4
10004268:	0509      	lsls	r1, r1, #20
1000426a:	4319      	orrs	r1, r3
1000426c:	4311      	orrs	r1, r2
1000426e:	bd10      	pop	{r4, pc}
10004270:	20001c08 	.word	0x20001c08
10004274:	0000041f 	.word	0x0000041f

10004278 <__wrap___aeabi_d2iz>:
10004278:	b510      	push	{r4, lr}
1000427a:	004c      	lsls	r4, r1, #1
1000427c:	0d62      	lsrs	r2, r4, #21
1000427e:	2380      	movs	r3, #128	; 0x80
10004280:	18d2      	adds	r2, r2, r3
10004282:	00db      	lsls	r3, r3, #3
10004284:	1ad2      	subs	r2, r2, r3
10004286:	055b      	lsls	r3, r3, #21
10004288:	2a7e      	cmp	r2, #126	; 0x7e
1000428a:	dd10      	ble.n	100042ae <__wrap___aeabi_d2iz+0x36>
1000428c:	3a9e      	subs	r2, #158	; 0x9e
1000428e:	da13      	bge.n	100042b8 <__wrap___aeabi_d2iz+0x40>
10004290:	17cc      	asrs	r4, r1, #31
10004292:	0309      	lsls	r1, r1, #12
10004294:	0849      	lsrs	r1, r1, #1
10004296:	4319      	orrs	r1, r3
10004298:	4252      	negs	r2, r2
1000429a:	40d1      	lsrs	r1, r2
1000429c:	0064      	lsls	r4, r4, #1
1000429e:	3401      	adds	r4, #1
100042a0:	3215      	adds	r2, #21
100042a2:	2a20      	cmp	r2, #32
100042a4:	da05      	bge.n	100042b2 <__wrap___aeabi_d2iz+0x3a>
100042a6:	40d0      	lsrs	r0, r2
100042a8:	4308      	orrs	r0, r1
100042aa:	4360      	muls	r0, r4
100042ac:	bd10      	pop	{r4, pc}
100042ae:	2000      	movs	r0, #0
100042b0:	bd10      	pop	{r4, pc}
100042b2:	4608      	mov	r0, r1
100042b4:	4360      	muls	r0, r4
100042b6:	bd10      	pop	{r4, pc}
100042b8:	0fc8      	lsrs	r0, r1, #31
100042ba:	18c0      	adds	r0, r0, r3
100042bc:	3801      	subs	r0, #1
100042be:	bd10      	pop	{r4, pc}

100042c0 <__wrap___aeabi_d2uiz>:
100042c0:	b418      	push	{r3, r4}
100042c2:	4b04      	ldr	r3, [pc, #16]	; (100042d4 <__wrap___aeabi_d2uiz+0x14>)
100042c4:	6a5b      	ldr	r3, [r3, #36]	; 0x24
100042c6:	46fc      	mov	ip, pc
100042c8:	9301      	str	r3, [sp, #4]
100042ca:	bd08      	pop	{r3, pc}
100042cc:	4829df24 	.word	0x4829df24
100042d0:	00001000 	.word	0x00001000
100042d4:	20000e38 	.word	0x20000e38

100042d8 <__wrap___aeabi_d2f>:
100042d8:	b418      	push	{r3, r4}
100042da:	4b04      	ldr	r3, [pc, #16]	; (100042ec <__wrap___aeabi_d2f+0x14>)
100042dc:	6fdb      	ldr	r3, [r3, #124]	; 0x7c
100042de:	46fc      	mov	ip, pc
100042e0:	9301      	str	r3, [sp, #4]
100042e2:	bd08      	pop	{r3, pc}
100042e4:	48a9df7c 	.word	0x48a9df7c
100042e8:	00001000 	.word	0x00001000
100042ec:	20000e38 	.word	0x20000e38

100042f0 <__aeabi_double_init>:
100042f0:	2313      	movs	r3, #19
100042f2:	b570      	push	{r4, r5, r6, lr}
100042f4:	781d      	ldrb	r5, [r3, #0]
100042f6:	2d01      	cmp	r5, #1
100042f8:	d015      	beq.n	10004326 <__aeabi_double_init+0x36>
100042fa:	dd10      	ble.n	1000431e <__aeabi_double_init+0x2e>
100042fc:	481c      	ldr	r0, [pc, #112]	; (10004370 <__aeabi_double_init+0x80>)
100042fe:	f7ff fc6d 	bl	10003bdc <rom_data_lookup>
10004302:	4c1c      	ldr	r4, [pc, #112]	; (10004374 <__aeabi_double_init+0x84>)
10004304:	0001      	movs	r1, r0
10004306:	2280      	movs	r2, #128	; 0x80
10004308:	0020      	movs	r0, r4
1000430a:	f000 fc51 	bl	10004bb0 <__wrap___aeabi_memcpy>
1000430e:	2d02      	cmp	r5, #2
10004310:	d006      	beq.n	10004320 <__aeabi_double_init+0x30>
10004312:	4819      	ldr	r0, [pc, #100]	; (10004378 <__aeabi_double_init+0x88>)
10004314:	f7ff fc5a 	bl	10003bcc <rom_func_lookup>
10004318:	4b18      	ldr	r3, [pc, #96]	; (1000437c <__aeabi_double_init+0x8c>)
1000431a:	6018      	str	r0, [r3, #0]
1000431c:	bd70      	pop	{r4, r5, r6, pc}
1000431e:	4c15      	ldr	r4, [pc, #84]	; (10004374 <__aeabi_double_init+0x84>)
10004320:	4b17      	ldr	r3, [pc, #92]	; (10004380 <__aeabi_double_init+0x90>)
10004322:	64a3      	str	r3, [r4, #72]	; 0x48
10004324:	e7f5      	b.n	10004312 <__aeabi_double_init+0x22>
10004326:	4b16      	ldr	r3, [pc, #88]	; (10004380 <__aeabi_double_init+0x90>)
10004328:	4c12      	ldr	r4, [pc, #72]	; (10004374 <__aeabi_double_init+0x84>)
1000432a:	6023      	str	r3, [r4, #0]
1000432c:	6063      	str	r3, [r4, #4]
1000432e:	60a3      	str	r3, [r4, #8]
10004330:	60e3      	str	r3, [r4, #12]
10004332:	6123      	str	r3, [r4, #16]
10004334:	6163      	str	r3, [r4, #20]
10004336:	61a3      	str	r3, [r4, #24]
10004338:	61e3      	str	r3, [r4, #28]
1000433a:	6223      	str	r3, [r4, #32]
1000433c:	6263      	str	r3, [r4, #36]	; 0x24
1000433e:	62a3      	str	r3, [r4, #40]	; 0x28
10004340:	62e3      	str	r3, [r4, #44]	; 0x2c
10004342:	6323      	str	r3, [r4, #48]	; 0x30
10004344:	6363      	str	r3, [r4, #52]	; 0x34
10004346:	63a3      	str	r3, [r4, #56]	; 0x38
10004348:	63e3      	str	r3, [r4, #60]	; 0x3c
1000434a:	6423      	str	r3, [r4, #64]	; 0x40
1000434c:	6463      	str	r3, [r4, #68]	; 0x44
1000434e:	64a3      	str	r3, [r4, #72]	; 0x48
10004350:	64e3      	str	r3, [r4, #76]	; 0x4c
10004352:	6523      	str	r3, [r4, #80]	; 0x50
10004354:	6563      	str	r3, [r4, #84]	; 0x54
10004356:	65a3      	str	r3, [r4, #88]	; 0x58
10004358:	65e3      	str	r3, [r4, #92]	; 0x5c
1000435a:	6623      	str	r3, [r4, #96]	; 0x60
1000435c:	6663      	str	r3, [r4, #100]	; 0x64
1000435e:	66a3      	str	r3, [r4, #104]	; 0x68
10004360:	66e3      	str	r3, [r4, #108]	; 0x6c
10004362:	6723      	str	r3, [r4, #112]	; 0x70
10004364:	6763      	str	r3, [r4, #116]	; 0x74
10004366:	67a3      	str	r3, [r4, #120]	; 0x78
10004368:	67e3      	str	r3, [r4, #124]	; 0x7c
1000436a:	64a3      	str	r3, [r4, #72]	; 0x48
1000436c:	e7d1      	b.n	10004312 <__aeabi_double_init+0x22>
1000436e:	46c0      	nop			; (mov r8, r8)
10004370:	00004453 	.word	0x00004453
10004374:	20000e38 	.word	0x20000e38
10004378:	0000334c 	.word	0x0000334c
1000437c:	20001c08 	.word	0x20001c08
10004380:	10004385 	.word	0x10004385

10004384 <double_table_shim_on_use_helper>:
10004384:	b507      	push	{r0, r1, r2, lr}
10004386:	4660      	mov	r0, ip
10004388:	8801      	ldrh	r1, [r0, #0]
1000438a:	0a0a      	lsrs	r2, r1, #8
1000438c:	3002      	adds	r0, #2
1000438e:	2adf      	cmp	r2, #223	; 0xdf
10004390:	d1fa      	bne.n	10004388 <double_table_shim_on_use_helper+0x4>
10004392:	b2c9      	uxtb	r1, r1
10004394:	0882      	lsrs	r2, r0, #2
10004396:	d304      	bcc.n	100043a2 <double_table_shim_on_use_helper+0x1e>
10004398:	8802      	ldrh	r2, [r0, #0]
1000439a:	8840      	ldrh	r0, [r0, #2]
1000439c:	0400      	lsls	r0, r0, #16
1000439e:	4310      	orrs	r0, r2
100043a0:	e000      	b.n	100043a4 <double_table_shim_on_use_helper+0x20>
100043a2:	6800      	ldr	r0, [r0, #0]
100043a4:	4a01      	ldr	r2, [pc, #4]	; (100043ac <double_table_shim_on_use_helper+0x28>)
100043a6:	5050      	str	r0, [r2, r1]
100043a8:	9003      	str	r0, [sp, #12]
100043aa:	bd07      	pop	{r0, r1, r2, pc}
100043ac:	20000e38 	.word	0x20000e38

100043b0 <drsub_shim>:
100043b0:	b40f      	push	{r0, r1, r2, r3}
100043b2:	bc03      	pop	{r0, r1}
100043b4:	bc0c      	pop	{r2, r3}

100043b6 <dsub_shim>:
100043b6:	b5f0      	push	{r4, r5, r6, r7, lr}
100043b8:	2401      	movs	r4, #1
100043ba:	07e4      	lsls	r4, r4, #31
100043bc:	4063      	eors	r3, r4
100043be:	e000      	b.n	100043c2 <da_entry>

100043c0 <dadd_shim>:
100043c0:	b5f0      	push	{r4, r5, r6, r7, lr}

100043c2 <da_entry>:
100043c2:	0d0c      	lsrs	r4, r1, #20
100043c4:	0fcf      	lsrs	r7, r1, #31
100043c6:	1e66      	subs	r6, r4, #1
100043c8:	0536      	lsls	r6, r6, #20
100043ca:	1b89      	subs	r1, r1, r6
100043cc:	0564      	lsls	r4, r4, #21
100043ce:	d303      	bcc.n	100043d8 <l7_1>
100043d0:	43c9      	mvns	r1, r1
100043d2:	4240      	negs	r0, r0
100043d4:	d300      	bcc.n	100043d8 <l7_1>
100043d6:	3101      	adds	r1, #1

100043d8 <l7_1>:
100043d8:	0d64      	lsrs	r4, r4, #21
100043da:	d003      	beq.n	100043e4 <l7_2>
100043dc:	1c66      	adds	r6, r4, #1
100043de:	0af6      	lsrs	r6, r6, #11
100043e0:	d007      	beq.n	100043f2 <l7_3>
100043e2:	1be4      	subs	r4, r4, r7

100043e4 <l7_2>:
100043e4:	2000      	movs	r0, #0
100043e6:	007f      	lsls	r7, r7, #1
100043e8:	1c79      	adds	r1, r7, #1
100043ea:	0789      	lsls	r1, r1, #30
100043ec:	1289      	asrs	r1, r1, #10
100043ee:	3c80      	subs	r4, #128	; 0x80
100043f0:	0324      	lsls	r4, r4, #12

100043f2 <l7_3>:
100043f2:	0d1d      	lsrs	r5, r3, #20
100043f4:	0fdf      	lsrs	r7, r3, #31
100043f6:	1e6e      	subs	r6, r5, #1
100043f8:	0536      	lsls	r6, r6, #20
100043fa:	1b9b      	subs	r3, r3, r6
100043fc:	056d      	lsls	r5, r5, #21
100043fe:	d303      	bcc.n	10004408 <l8_1>
10004400:	43db      	mvns	r3, r3
10004402:	4252      	negs	r2, r2
10004404:	d300      	bcc.n	10004408 <l8_1>
10004406:	3301      	adds	r3, #1

10004408 <l8_1>:
10004408:	0d6d      	lsrs	r5, r5, #21
1000440a:	d003      	beq.n	10004414 <l8_2>
1000440c:	1c6e      	adds	r6, r5, #1
1000440e:	0af6      	lsrs	r6, r6, #11
10004410:	d007      	beq.n	10004422 <l8_3>
10004412:	1bed      	subs	r5, r5, r7

10004414 <l8_2>:
10004414:	2200      	movs	r2, #0
10004416:	007f      	lsls	r7, r7, #1
10004418:	1c7b      	adds	r3, r7, #1
1000441a:	079b      	lsls	r3, r3, #30
1000441c:	129b      	asrs	r3, r3, #10
1000441e:	3d80      	subs	r5, #128	; 0x80
10004420:	032d      	lsls	r5, r5, #12

10004422 <l8_3>:
10004422:	1b2f      	subs	r7, r5, r4
10004424:	1b66      	subs	r6, r4, r5
10004426:	d458      	bmi.n	100044da <da_ygtx>
10004428:	46a4      	mov	ip, r4
1000442a:	2e20      	cmp	r6, #32
1000442c:	da46      	bge.n	100044bc <da_xrgty>
1000442e:	3720      	adds	r7, #32
10004430:	0014      	movs	r4, r2
10004432:	40bc      	lsls	r4, r7

10004434 <da_xgty0>:
10004434:	001d      	movs	r5, r3
10004436:	40bd      	lsls	r5, r7
10004438:	40f2      	lsrs	r2, r6
1000443a:	4133      	asrs	r3, r6
1000443c:	432a      	orrs	r2, r5

1000443e <da_add>:
1000443e:	1880      	adds	r0, r0, r2
10004440:	4159      	adcs	r1, r3

10004442 <da_pack>:
10004442:	0fcb      	lsrs	r3, r1, #31
10004444:	d005      	beq.n	10004452 <da_pack+0x10>
10004446:	43c9      	mvns	r1, r1
10004448:	43c0      	mvns	r0, r0
1000444a:	2200      	movs	r2, #0
1000444c:	4264      	negs	r4, r4
1000444e:	4150      	adcs	r0, r2
10004450:	4151      	adcs	r1, r2
10004452:	4662      	mov	r2, ip
10004454:	0d4d      	lsrs	r5, r1, #21
10004456:	d128      	bne.n	100044aa <da_0>
10004458:	0d0d      	lsrs	r5, r1, #20
1000445a:	d107      	bne.n	1000446c <da_1>
1000445c:	2800      	cmp	r0, #0
1000445e:	d01f      	beq.n	100044a0 <da_5>

10004460 <da_2>:
10004460:	1924      	adds	r4, r4, r4
10004462:	4140      	adcs	r0, r0
10004464:	4149      	adcs	r1, r1
10004466:	3a01      	subs	r2, #1
10004468:	0d0d      	lsrs	r5, r1, #20
1000446a:	d0f9      	beq.n	10004460 <da_2>

1000446c <da_1>:
1000446c:	0064      	lsls	r4, r4, #1
1000446e:	d306      	bcc.n	1000447e <da_3>

10004470 <da_4>:
10004470:	3001      	adds	r0, #1
10004472:	d300      	bcc.n	10004476 <da_4+0x6>
10004474:	3101      	adds	r1, #1
10004476:	2c00      	cmp	r4, #0
10004478:	d101      	bne.n	1000447e <da_3>
1000447a:	0840      	lsrs	r0, r0, #1
1000447c:	0040      	lsls	r0, r0, #1

1000447e <da_3>:
1000447e:	3a01      	subs	r2, #1
10004480:	d40b      	bmi.n	1000449a <da_6>
10004482:	1c94      	adds	r4, r2, #2
10004484:	0ae4      	lsrs	r4, r4, #11
10004486:	d104      	bne.n	10004492 <da_7>
10004488:	0512      	lsls	r2, r2, #20
1000448a:	4411      	add	r1, r2
1000448c:	07db      	lsls	r3, r3, #31
1000448e:	4419      	add	r1, r3
10004490:	bdf0      	pop	{r4, r5, r6, r7, pc}

10004492 <da_7>:
10004492:	07d9      	lsls	r1, r3, #31
10004494:	4b20      	ldr	r3, [pc, #128]	; (10004518 <da_xmgty+0x4>)
10004496:	4319      	orrs	r1, r3
10004498:	e000      	b.n	1000449c <da_6+0x2>

1000449a <da_6>:
1000449a:	07d9      	lsls	r1, r3, #31
1000449c:	2000      	movs	r0, #0
1000449e:	bdf0      	pop	{r4, r5, r6, r7, pc}

100044a0 <da_5>:
100044a0:	2900      	cmp	r1, #0
100044a2:	d1dd      	bne.n	10004460 <da_2>
100044a4:	2c00      	cmp	r4, #0
100044a6:	d1db      	bne.n	10004460 <da_2>
100044a8:	bdf0      	pop	{r4, r5, r6, r7, pc}

100044aa <da_0>:
100044aa:	3201      	adds	r2, #1
100044ac:	07c6      	lsls	r6, r0, #31
100044ae:	0840      	lsrs	r0, r0, #1
100044b0:	07cd      	lsls	r5, r1, #31
100044b2:	4328      	orrs	r0, r5
100044b4:	0849      	lsrs	r1, r1, #1
100044b6:	2e00      	cmp	r6, #0
100044b8:	d0e1      	beq.n	1000447e <da_3>
100044ba:	e7d9      	b.n	10004470 <da_4>

100044bc <da_xrgty>:
100044bc:	2e3c      	cmp	r6, #60	; 0x3c
100044be:	da29      	bge.n	10004514 <da_xmgty>
100044c0:	3e20      	subs	r6, #32
100044c2:	3740      	adds	r7, #64	; 0x40
100044c4:	0014      	movs	r4, r2
100044c6:	40bc      	lsls	r4, r7
100044c8:	d000      	beq.n	100044cc <da_xrgty+0x10>
100044ca:	2401      	movs	r4, #1
100044cc:	40f2      	lsrs	r2, r6
100044ce:	4314      	orrs	r4, r2
100044d0:	001a      	movs	r2, r3
100044d2:	40bb      	lsls	r3, r7
100044d4:	431c      	orrs	r4, r3
100044d6:	17d3      	asrs	r3, r2, #31
100044d8:	e7ac      	b.n	10004434 <da_xgty0>

100044da <da_ygtx>:
100044da:	46ac      	mov	ip, r5
100044dc:	2f20      	cmp	r7, #32
100044de:	da08      	bge.n	100044f2 <da_yrgtx>
100044e0:	3620      	adds	r6, #32
100044e2:	0004      	movs	r4, r0
100044e4:	40b4      	lsls	r4, r6

100044e6 <da_ygtx0>:
100044e6:	000d      	movs	r5, r1
100044e8:	40b5      	lsls	r5, r6
100044ea:	40f8      	lsrs	r0, r7
100044ec:	4139      	asrs	r1, r7
100044ee:	4328      	orrs	r0, r5
100044f0:	e7a5      	b.n	1000443e <da_add>

100044f2 <da_yrgtx>:
100044f2:	2f3c      	cmp	r7, #60	; 0x3c
100044f4:	da0c      	bge.n	10004510 <da_ymgtx>
100044f6:	3f20      	subs	r7, #32
100044f8:	3640      	adds	r6, #64	; 0x40
100044fa:	0004      	movs	r4, r0
100044fc:	40b4      	lsls	r4, r6
100044fe:	d000      	beq.n	10004502 <da_yrgtx+0x10>
10004500:	2401      	movs	r4, #1
10004502:	40f8      	lsrs	r0, r7
10004504:	4304      	orrs	r4, r0
10004506:	0008      	movs	r0, r1
10004508:	40b1      	lsls	r1, r6
1000450a:	430c      	orrs	r4, r1
1000450c:	17c1      	asrs	r1, r0, #31
1000450e:	e7ea      	b.n	100044e6 <da_ygtx0>

10004510 <da_ymgtx>:
10004510:	0010      	movs	r0, r2
10004512:	0019      	movs	r1, r3

10004514 <da_xmgty>:
10004514:	2400      	movs	r4, #0
10004516:	e794      	b.n	10004442 <da_pack>
10004518:	7ff00000 	.word	0x7ff00000

1000451c <dmul_shim>:
1000451c:	b5f0      	push	{r4, r5, r6, r7, lr}
1000451e:	0d0c      	lsrs	r4, r1, #20
10004520:	1e66      	subs	r6, r4, #1
10004522:	0536      	lsls	r6, r6, #20
10004524:	1b89      	subs	r1, r1, r6
10004526:	0ae6      	lsrs	r6, r4, #11
10004528:	0564      	lsls	r4, r4, #21
1000452a:	0d64      	lsrs	r4, r4, #21
1000452c:	d002      	beq.n	10004534 <l11_1>
1000452e:	1c65      	adds	r5, r4, #1
10004530:	0aed      	lsrs	r5, r5, #11
10004532:	d004      	beq.n	1000453e <l11_2>

10004534 <l11_1>:
10004534:	2000      	movs	r0, #0
10004536:	2101      	movs	r1, #1
10004538:	0509      	lsls	r1, r1, #20
1000453a:	3c80      	subs	r4, #128	; 0x80
1000453c:	0324      	lsls	r4, r4, #12

1000453e <l11_2>:
1000453e:	46a4      	mov	ip, r4
10004540:	0d1c      	lsrs	r4, r3, #20
10004542:	1e67      	subs	r7, r4, #1
10004544:	053f      	lsls	r7, r7, #20
10004546:	1bdb      	subs	r3, r3, r7
10004548:	0ae7      	lsrs	r7, r4, #11
1000454a:	0564      	lsls	r4, r4, #21
1000454c:	0d64      	lsrs	r4, r4, #21
1000454e:	d002      	beq.n	10004556 <l12_1>
10004550:	1c65      	adds	r5, r4, #1
10004552:	0aed      	lsrs	r5, r5, #11
10004554:	d004      	beq.n	10004560 <l12_2>

10004556 <l12_1>:
10004556:	2200      	movs	r2, #0
10004558:	2301      	movs	r3, #1
1000455a:	051b      	lsls	r3, r3, #20
1000455c:	3c80      	subs	r4, #128	; 0x80
1000455e:	0324      	lsls	r4, r4, #12

10004560 <l12_2>:
10004560:	4077      	eors	r7, r6
10004562:	4464      	add	r4, ip
10004564:	b497      	push	{r0, r1, r2, r4, r7}
10004566:	b284      	uxth	r4, r0
10004568:	b296      	uxth	r6, r2
1000456a:	4374      	muls	r4, r6
1000456c:	0c07      	lsrs	r7, r0, #16
1000456e:	437e      	muls	r6, r7
10004570:	0c15      	lsrs	r5, r2, #16
10004572:	436f      	muls	r7, r5
10004574:	b280      	uxth	r0, r0
10004576:	4368      	muls	r0, r5
10004578:	1836      	adds	r6, r6, r0
1000457a:	d302      	bcc.n	10004582 <l13_1>
1000457c:	2001      	movs	r0, #1
1000457e:	0400      	lsls	r0, r0, #16
10004580:	183f      	adds	r7, r7, r0

10004582 <l13_1>:
10004582:	0430      	lsls	r0, r6, #16
10004584:	0c35      	lsrs	r5, r6, #16
10004586:	1900      	adds	r0, r0, r4
10004588:	417d      	adcs	r5, r7
1000458a:	4684      	mov	ip, r0
1000458c:	b288      	uxth	r0, r1
1000458e:	b29a      	uxth	r2, r3
10004590:	4350      	muls	r0, r2
10004592:	0c0c      	lsrs	r4, r1, #16
10004594:	4362      	muls	r2, r4
10004596:	0c1f      	lsrs	r7, r3, #16
10004598:	437c      	muls	r4, r7
1000459a:	b28e      	uxth	r6, r1
1000459c:	437e      	muls	r6, r7
1000459e:	1992      	adds	r2, r2, r6
100045a0:	d302      	bcc.n	100045a8 <l14_1>
100045a2:	2601      	movs	r6, #1
100045a4:	0436      	lsls	r6, r6, #16
100045a6:	19a4      	adds	r4, r4, r6

100045a8 <l14_1>:
100045a8:	0416      	lsls	r6, r2, #16
100045aa:	0c17      	lsrs	r7, r2, #16
100045ac:	1836      	adds	r6, r6, r0
100045ae:	4167      	adcs	r7, r4
100045b0:	bc01      	pop	{r0}
100045b2:	b281      	uxth	r1, r0
100045b4:	b29a      	uxth	r2, r3
100045b6:	4351      	muls	r1, r2
100045b8:	0c04      	lsrs	r4, r0, #16
100045ba:	4362      	muls	r2, r4
100045bc:	0c1b      	lsrs	r3, r3, #16
100045be:	435c      	muls	r4, r3
100045c0:	b280      	uxth	r0, r0
100045c2:	4358      	muls	r0, r3
100045c4:	1812      	adds	r2, r2, r0
100045c6:	d302      	bcc.n	100045ce <l15_1>
100045c8:	2001      	movs	r0, #1
100045ca:	0400      	lsls	r0, r0, #16
100045cc:	1824      	adds	r4, r4, r0

100045ce <l15_1>:
100045ce:	0410      	lsls	r0, r2, #16
100045d0:	0c13      	lsrs	r3, r2, #16
100045d2:	1840      	adds	r0, r0, r1
100045d4:	4163      	adcs	r3, r4
100045d6:	182d      	adds	r5, r5, r0
100045d8:	415e      	adcs	r6, r3
100045da:	2000      	movs	r0, #0
100045dc:	4147      	adcs	r7, r0
100045de:	bc06      	pop	{r1, r2}
100045e0:	b288      	uxth	r0, r1
100045e2:	b293      	uxth	r3, r2
100045e4:	4358      	muls	r0, r3
100045e6:	0c0c      	lsrs	r4, r1, #16
100045e8:	4363      	muls	r3, r4
100045ea:	0c12      	lsrs	r2, r2, #16
100045ec:	4354      	muls	r4, r2
100045ee:	b289      	uxth	r1, r1
100045f0:	4351      	muls	r1, r2
100045f2:	185b      	adds	r3, r3, r1
100045f4:	d302      	bcc.n	100045fc <l16_1>
100045f6:	2101      	movs	r1, #1
100045f8:	0409      	lsls	r1, r1, #16
100045fa:	1864      	adds	r4, r4, r1

100045fc <l16_1>:
100045fc:	0419      	lsls	r1, r3, #16
100045fe:	0c1a      	lsrs	r2, r3, #16
10004600:	1809      	adds	r1, r1, r0
10004602:	4162      	adcs	r2, r4
10004604:	186d      	adds	r5, r5, r1
10004606:	4156      	adcs	r6, r2
10004608:	2000      	movs	r0, #0
1000460a:	4147      	adcs	r7, r0
1000460c:	bc18      	pop	{r3, r4}
1000460e:	02f9      	lsls	r1, r7, #11
10004610:	0d72      	lsrs	r2, r6, #21
10004612:	4311      	orrs	r1, r2
10004614:	02f0      	lsls	r0, r6, #11
10004616:	0d6a      	lsrs	r2, r5, #21
10004618:	4310      	orrs	r0, r2
1000461a:	02ed      	lsls	r5, r5, #11
1000461c:	0d0a      	lsrs	r2, r1, #20
1000461e:	d103      	bne.n	10004628 <l16_1+0x2c>
10004620:	196d      	adds	r5, r5, r5
10004622:	4140      	adcs	r0, r0
10004624:	4149      	adcs	r1, r1
10004626:	3b01      	subs	r3, #1
10004628:	4e12      	ldr	r6, [pc, #72]	; (10004674 <dm_1+0xa>)
1000462a:	1b9b      	subs	r3, r3, r6
1000462c:	0076      	lsls	r6, r6, #1
1000462e:	42b3      	cmp	r3, r6
10004630:	d20e      	bcs.n	10004650 <dm_0>
10004632:	006d      	lsls	r5, r5, #1
10004634:	d307      	bcc.n	10004646 <l16_1+0x4a>
10004636:	3001      	adds	r0, #1
10004638:	2600      	movs	r6, #0
1000463a:	4171      	adcs	r1, r6
1000463c:	4666      	mov	r6, ip
1000463e:	4335      	orrs	r5, r6
10004640:	d101      	bne.n	10004646 <l16_1+0x4a>
10004642:	0840      	lsrs	r0, r0, #1
10004644:	0040      	lsls	r0, r0, #1
10004646:	051b      	lsls	r3, r3, #20
10004648:	18c9      	adds	r1, r1, r3

1000464a <dm_2>:
1000464a:	07e4      	lsls	r4, r4, #31
1000464c:	4421      	add	r1, r4
1000464e:	bdf0      	pop	{r4, r5, r6, r7, pc}

10004650 <dm_0>:
10004650:	da0b      	bge.n	1000466a <dm_1>
10004652:	3301      	adds	r3, #1
10004654:	d106      	bne.n	10004664 <dm_0+0x14>
10004656:	3001      	adds	r0, #1
10004658:	d104      	bne.n	10004664 <dm_0+0x14>
1000465a:	3101      	adds	r1, #1
1000465c:	0d4f      	lsrs	r7, r1, #21
1000465e:	d001      	beq.n	10004664 <dm_0+0x14>
10004660:	0849      	lsrs	r1, r1, #1
10004662:	e7f2      	b.n	1000464a <dm_2>
10004664:	07e1      	lsls	r1, r4, #31
10004666:	2000      	movs	r0, #0
10004668:	bdf0      	pop	{r4, r5, r6, r7, pc}

1000466a <dm_1>:
1000466a:	3601      	adds	r6, #1
1000466c:	0531      	lsls	r1, r6, #20
1000466e:	2000      	movs	r0, #0
10004670:	e7eb      	b.n	1000464a <dm_2>
10004672:	0000      	.short	0x0000
10004674:	000003ff 	.word	0x000003ff

10004678 <ddiv_shim>:
10004678:	b5f0      	push	{r4, r5, r6, r7, lr}

1000467a <ddiv0>:
1000467a:	0d1c      	lsrs	r4, r3, #20
1000467c:	1e67      	subs	r7, r4, #1
1000467e:	053f      	lsls	r7, r7, #20
10004680:	1bdb      	subs	r3, r3, r7
10004682:	0ae7      	lsrs	r7, r4, #11
10004684:	0564      	lsls	r4, r4, #21
10004686:	0d64      	lsrs	r4, r4, #21
10004688:	d002      	beq.n	10004690 <l19_1>
1000468a:	1c66      	adds	r6, r4, #1
1000468c:	0af6      	lsrs	r6, r6, #11
1000468e:	d004      	beq.n	1000469a <l19_2>

10004690 <l19_1>:
10004690:	2200      	movs	r2, #0
10004692:	2301      	movs	r3, #1
10004694:	051b      	lsls	r3, r3, #20
10004696:	3c80      	subs	r4, #128	; 0x80
10004698:	0324      	lsls	r4, r4, #12

1000469a <l19_2>:
1000469a:	25d0      	movs	r5, #208	; 0xd0
1000469c:	062d      	lsls	r5, r5, #24
1000469e:	2600      	movs	r6, #0
100046a0:	43f6      	mvns	r6, r6
100046a2:	662e      	str	r6, [r5, #96]	; 0x60
100046a4:	091e      	lsrs	r6, r3, #4
100046a6:	666e      	str	r6, [r5, #100]	; 0x64
100046a8:	0fce      	lsrs	r6, r1, #31
100046aa:	19f6      	adds	r6, r6, r7
100046ac:	46b4      	mov	ip, r6
100046ae:	0049      	lsls	r1, r1, #1
100046b0:	0d4f      	lsrs	r7, r1, #21
100046b2:	d002      	beq.n	100046ba <l19_2+0x20>
100046b4:	1c7e      	adds	r6, r7, #1
100046b6:	0af6      	lsrs	r6, r6, #11
100046b8:	d003      	beq.n	100046c2 <l19_2+0x28>
100046ba:	2000      	movs	r0, #0
100046bc:	2100      	movs	r1, #0
100046be:	3f40      	subs	r7, #64	; 0x40
100046c0:	033f      	lsls	r7, r7, #12
100046c2:	1b3e      	subs	r6, r7, r4
100046c4:	00b6      	lsls	r6, r6, #2
100046c6:	44b4      	add	ip, r6
100046c8:	3f01      	subs	r7, #1
100046ca:	057f      	lsls	r7, r7, #21
100046cc:	1bc9      	subs	r1, r1, r7
100046ce:	0849      	lsrs	r1, r1, #1
100046d0:	6f2e      	ldr	r6, [r5, #112]	; 0x70
100046d2:	3601      	adds	r6, #1
100046d4:	0876      	lsrs	r6, r6, #1
100046d6:	029c      	lsls	r4, r3, #10
100046d8:	0d95      	lsrs	r5, r2, #22
100046da:	4325      	orrs	r5, r4
100046dc:	4375      	muls	r5, r6
100046de:	13ed      	asrs	r5, r5, #15
100046e0:	4375      	muls	r5, r6
100046e2:	13ad      	asrs	r5, r5, #14
100046e4:	3501      	adds	r5, #1
100046e6:	106d      	asrs	r5, r5, #1
100046e8:	03f6      	lsls	r6, r6, #15
100046ea:	1b76      	subs	r6, r6, r5
100046ec:	b40c      	push	{r2, r3}
100046ee:	02cc      	lsls	r4, r1, #11
100046f0:	0d45      	lsrs	r5, r0, #21
100046f2:	432c      	orrs	r4, r5
100046f4:	b2a2      	uxth	r2, r4
100046f6:	b2b3      	uxth	r3, r6
100046f8:	435a      	muls	r2, r3
100046fa:	0c27      	lsrs	r7, r4, #16
100046fc:	437b      	muls	r3, r7
100046fe:	0c35      	lsrs	r5, r6, #16
10004700:	436f      	muls	r7, r5
10004702:	b2a4      	uxth	r4, r4
10004704:	436c      	muls	r4, r5
10004706:	191b      	adds	r3, r3, r4
10004708:	d302      	bcc.n	10004710 <l20_1>
1000470a:	2401      	movs	r4, #1
1000470c:	0424      	lsls	r4, r4, #16
1000470e:	193f      	adds	r7, r7, r4

10004710 <l20_1>:
10004710:	041c      	lsls	r4, r3, #16
10004712:	0c1d      	lsrs	r5, r3, #16
10004714:	18a4      	adds	r4, r4, r2
10004716:	417d      	adcs	r5, r7
10004718:	1924      	adds	r4, r4, r4
1000471a:	416d      	adcs	r5, r5
1000471c:	9a00      	ldr	r2, [sp, #0]
1000471e:	b291      	uxth	r1, r2
10004720:	b2ac      	uxth	r4, r5
10004722:	4361      	muls	r1, r4
10004724:	0c17      	lsrs	r7, r2, #16
10004726:	437c      	muls	r4, r7
10004728:	0c2b      	lsrs	r3, r5, #16
1000472a:	435f      	muls	r7, r3
1000472c:	b292      	uxth	r2, r2
1000472e:	435a      	muls	r2, r3
10004730:	18a4      	adds	r4, r4, r2
10004732:	d302      	bcc.n	1000473a <l21_1>
10004734:	2201      	movs	r2, #1
10004736:	0412      	lsls	r2, r2, #16
10004738:	18bf      	adds	r7, r7, r2

1000473a <l21_1>:
1000473a:	0422      	lsls	r2, r4, #16
1000473c:	0c23      	lsrs	r3, r4, #16
1000473e:	1852      	adds	r2, r2, r1
10004740:	417b      	adcs	r3, r7
10004742:	9c01      	ldr	r4, [sp, #4]
10004744:	436c      	muls	r4, r5
10004746:	191b      	adds	r3, r3, r4
10004748:	0e52      	lsrs	r2, r2, #25
1000474a:	01d9      	lsls	r1, r3, #7
1000474c:	430a      	orrs	r2, r1
1000474e:	0144      	lsls	r4, r0, #5
10004750:	1aa0      	subs	r0, r4, r2
10004752:	b281      	uxth	r1, r0
10004754:	b2b2      	uxth	r2, r6
10004756:	4351      	muls	r1, r2
10004758:	1403      	asrs	r3, r0, #16
1000475a:	435a      	muls	r2, r3
1000475c:	0c36      	lsrs	r6, r6, #16
1000475e:	4373      	muls	r3, r6
10004760:	b287      	uxth	r7, r0
10004762:	4377      	muls	r7, r6
10004764:	17d6      	asrs	r6, r2, #31
10004766:	19d2      	adds	r2, r2, r7
10004768:	2700      	movs	r7, #0
1000476a:	417e      	adcs	r6, r7
1000476c:	0436      	lsls	r6, r6, #16
1000476e:	199b      	adds	r3, r3, r6
10004770:	0417      	lsls	r7, r2, #16
10004772:	0c16      	lsrs	r6, r2, #16
10004774:	187f      	adds	r7, r7, r1
10004776:	415e      	adcs	r6, r3
10004778:	1673      	asrs	r3, r6, #25
1000477a:	18ed      	adds	r5, r5, r3
1000477c:	01f3      	lsls	r3, r6, #7
1000477e:	2600      	movs	r6, #0
10004780:	3380      	adds	r3, #128	; 0x80
10004782:	4175      	adcs	r5, r6
10004784:	0fa9      	lsrs	r1, r5, #30
10004786:	d106      	bne.n	10004796 <dd_0>
10004788:	0064      	lsls	r4, r4, #1
1000478a:	0a69      	lsrs	r1, r5, #9
1000478c:	05e8      	lsls	r0, r5, #23
1000478e:	0a5b      	lsrs	r3, r3, #9
10004790:	4318      	orrs	r0, r3
10004792:	d209      	bcs.n	100047a8 <dd_1>
10004794:	e02f      	b.n	100047f6 <dd_2>

10004796 <dd_0>:
10004796:	2204      	movs	r2, #4
10004798:	4494      	add	ip, r2
1000479a:	3380      	adds	r3, #128	; 0x80
1000479c:	4175      	adcs	r5, r6
1000479e:	0aa9      	lsrs	r1, r5, #10
100047a0:	05a8      	lsls	r0, r5, #22
100047a2:	0a9b      	lsrs	r3, r3, #10
100047a4:	4318      	orrs	r0, r3
100047a6:	d326      	bcc.n	100047f6 <dd_2>

100047a8 <dd_1>:
100047a8:	4140      	adcs	r0, r0
100047aa:	4149      	adcs	r1, r1
100047ac:	0424      	lsls	r4, r4, #16
100047ae:	9a00      	ldr	r2, [sp, #0]
100047b0:	9b01      	ldr	r3, [sp, #4]
100047b2:	000d      	movs	r5, r1
100047b4:	4355      	muls	r5, r2
100047b6:	1b64      	subs	r4, r4, r5
100047b8:	4343      	muls	r3, r0
100047ba:	1ae4      	subs	r4, r4, r3
100047bc:	b295      	uxth	r5, r2
100047be:	b286      	uxth	r6, r0
100047c0:	4375      	muls	r5, r6
100047c2:	0c17      	lsrs	r7, r2, #16
100047c4:	437e      	muls	r6, r7
100047c6:	0c03      	lsrs	r3, r0, #16
100047c8:	435f      	muls	r7, r3
100047ca:	b292      	uxth	r2, r2
100047cc:	435a      	muls	r2, r3
100047ce:	18b6      	adds	r6, r6, r2
100047d0:	d302      	bcc.n	100047d8 <l23_1>
100047d2:	2201      	movs	r2, #1
100047d4:	0412      	lsls	r2, r2, #16
100047d6:	18bf      	adds	r7, r7, r2

100047d8 <l23_1>:
100047d8:	0432      	lsls	r2, r6, #16
100047da:	0c33      	lsrs	r3, r6, #16
100047dc:	1952      	adds	r2, r2, r5
100047de:	417b      	adcs	r3, r7
100047e0:	4252      	negs	r2, r2
100047e2:	419c      	sbcs	r4, r3
100047e4:	2c00      	cmp	r4, #0
100047e6:	d402      	bmi.n	100047ee <l23_1+0x16>
100047e8:	2200      	movs	r2, #0
100047ea:	3001      	adds	r0, #1
100047ec:	4151      	adcs	r1, r2
100047ee:	0840      	lsrs	r0, r0, #1
100047f0:	07ca      	lsls	r2, r1, #31
100047f2:	4310      	orrs	r0, r2
100047f4:	0849      	lsrs	r1, r1, #1

100047f6 <dd_2>:
100047f6:	b002      	add	sp, #8
100047f8:	4662      	mov	r2, ip
100047fa:	07d7      	lsls	r7, r2, #31
100047fc:	1092      	asrs	r2, r2, #2
100047fe:	4b08      	ldr	r3, [pc, #32]	; (10004820 <dd_4+0x6>)
10004800:	18d2      	adds	r2, r2, r3
10004802:	4b08      	ldr	r3, [pc, #32]	; (10004824 <dd_4+0xa>)
10004804:	429a      	cmp	r2, r3
10004806:	d203      	bcs.n	10004810 <dd_3>
10004808:	0512      	lsls	r2, r2, #20
1000480a:	1889      	adds	r1, r1, r2

1000480c <dd_5>:
1000480c:	19c9      	adds	r1, r1, r7
1000480e:	bdf0      	pop	{r4, r5, r6, r7, pc}

10004810 <dd_3>:
10004810:	2000      	movs	r0, #0
10004812:	2a00      	cmp	r2, #0
10004814:	dc01      	bgt.n	1000481a <dd_4>
10004816:	0039      	movs	r1, r7
10004818:	bdf0      	pop	{r4, r5, r6, r7, pc}

1000481a <dd_4>:
1000481a:	3301      	adds	r3, #1
1000481c:	0519      	lsls	r1, r3, #20
1000481e:	e7f5      	b.n	1000480c <dd_5>
10004820:	000003fd 	.word	0x000003fd
10004824:	000007fe 	.word	0x000007fe

10004828 <double2uint_shim>:
10004828:	2200      	movs	r2, #0

1000482a <double2ufix_shim>:
1000482a:	b500      	push	{lr}
1000482c:	3220      	adds	r2, #32
1000482e:	f000 f804 	bl	1000483a <double2ufix64_shim>
10004832:	0008      	movs	r0, r1
10004834:	bd00      	pop	{pc}
	...

10004838 <double2uint64_shim>:
10004838:	2200      	movs	r2, #0

1000483a <double2ufix64_shim>:
1000483a:	150b      	asrs	r3, r1, #20
1000483c:	d40a      	bmi.n	10004854 <ret_dzero>

1000483e <d2fix>:
1000483e:	b510      	push	{r4, lr}
10004840:	4694      	mov	ip, r2
10004842:	f000 f85f 	bl	10004904 <dunpacks>
10004846:	1414      	asrs	r4, r2, #16
10004848:	3401      	adds	r4, #1
1000484a:	da00      	bge.n	1000484e <d2fix+0x10>
1000484c:	2100      	movs	r1, #0
1000484e:	17cb      	asrs	r3, r1, #31
10004850:	4c14      	ldr	r4, [pc, #80]	; (100048a4 <d2fix_a+0x4a>)
10004852:	4720      	bx	r4

10004854 <ret_dzero>:
10004854:	2000      	movs	r0, #0
10004856:	2100      	movs	r1, #0
10004858:	4770      	bx	lr

1000485a <d2fix_a>:
1000485a:	4462      	add	r2, ip
1000485c:	3a34      	subs	r2, #52	; 0x34
1000485e:	d40c      	bmi.n	1000487a <d2fix_a+0x20>
10004860:	2a0c      	cmp	r2, #12
10004862:	da07      	bge.n	10004874 <d2fix_a+0x1a>
10004864:	0004      	movs	r4, r0
10004866:	4091      	lsls	r1, r2
10004868:	4090      	lsls	r0, r2
1000486a:	4252      	negs	r2, r2
1000486c:	3220      	adds	r2, #32
1000486e:	40d4      	lsrs	r4, r2
10004870:	4321      	orrs	r1, r4
10004872:	bd10      	pop	{r4, pc}
10004874:	43d8      	mvns	r0, r3
10004876:	43d9      	mvns	r1, r3
10004878:	bd10      	pop	{r4, pc}
1000487a:	3220      	adds	r2, #32
1000487c:	d407      	bmi.n	1000488e <d2fix_a+0x34>
1000487e:	460c      	mov	r4, r1
10004880:	4094      	lsls	r4, r2
10004882:	4252      	negs	r2, r2
10004884:	3220      	adds	r2, #32
10004886:	4111      	asrs	r1, r2
10004888:	40d0      	lsrs	r0, r2
1000488a:	4320      	orrs	r0, r4
1000488c:	bd10      	pop	{r4, pc}
1000488e:	0008      	movs	r0, r1
10004890:	17c9      	asrs	r1, r1, #31
10004892:	3220      	adds	r2, #32
10004894:	d403      	bmi.n	1000489e <d2fix_a+0x44>
10004896:	4252      	negs	r2, r2
10004898:	3220      	adds	r2, #32
1000489a:	4110      	asrs	r0, r2
1000489c:	bd10      	pop	{r4, pc}
1000489e:	0018      	movs	r0, r3
100048a0:	0019      	movs	r1, r3
100048a2:	bd10      	pop	{r4, pc}
100048a4:	1000485b 	.word	0x1000485b

100048a8 <double2float_shim>:
100048a8:	004a      	lsls	r2, r1, #1
100048aa:	0d52      	lsrs	r2, r2, #21
100048ac:	4b14      	ldr	r3, [pc, #80]	; (10004900 <double2float_shim+0x58>)
100048ae:	1ad2      	subs	r2, r2, r3
100048b0:	dd13      	ble.n	100048da <double2float_shim+0x32>
100048b2:	2aff      	cmp	r2, #255	; 0xff
100048b4:	da1e      	bge.n	100048f4 <double2float_shim+0x4c>
100048b6:	05d2      	lsls	r2, r2, #23
100048b8:	0fcb      	lsrs	r3, r1, #31
100048ba:	07db      	lsls	r3, r3, #31
100048bc:	431a      	orrs	r2, r3
100048be:	00c3      	lsls	r3, r0, #3
100048c0:	0f40      	lsrs	r0, r0, #29
100048c2:	0309      	lsls	r1, r1, #12
100048c4:	0a49      	lsrs	r1, r1, #9
100048c6:	4308      	orrs	r0, r1
100048c8:	4310      	orrs	r0, r2
100048ca:	005b      	lsls	r3, r3, #1
100048cc:	d301      	bcc.n	100048d2 <double2float_shim+0x2a>
100048ce:	d001      	beq.n	100048d4 <double2float_shim+0x2c>
100048d0:	3001      	adds	r0, #1
100048d2:	4770      	bx	lr
100048d4:	0843      	lsrs	r3, r0, #1
100048d6:	d2fb      	bcs.n	100048d0 <double2float_shim+0x28>
100048d8:	4770      	bx	lr
100048da:	d002      	beq.n	100048e2 <double2float_shim+0x3a>
100048dc:	0fc8      	lsrs	r0, r1, #31
100048de:	07c0      	lsls	r0, r0, #31
100048e0:	4770      	bx	lr
100048e2:	030a      	lsls	r2, r1, #12
100048e4:	1312      	asrs	r2, r2, #12
100048e6:	3201      	adds	r2, #1
100048e8:	d1f8      	bne.n	100048dc <double2float_shim+0x34>
100048ea:	0f42      	lsrs	r2, r0, #29
100048ec:	2a07      	cmp	r2, #7
100048ee:	d1f5      	bne.n	100048dc <double2float_shim+0x34>
100048f0:	2201      	movs	r2, #1
100048f2:	e000      	b.n	100048f6 <double2float_shim+0x4e>
100048f4:	22ff      	movs	r2, #255	; 0xff
100048f6:	0fc8      	lsrs	r0, r1, #31
100048f8:	0200      	lsls	r0, r0, #8
100048fa:	1880      	adds	r0, r0, r2
100048fc:	05c0      	lsls	r0, r0, #23
100048fe:	4770      	bx	lr
10004900:	00000380 	.word	0x00000380

10004904 <dunpacks>:
10004904:	0d0a      	lsrs	r2, r1, #20
10004906:	0fcc      	lsrs	r4, r1, #31
10004908:	1e53      	subs	r3, r2, #1
1000490a:	051b      	lsls	r3, r3, #20
1000490c:	1ac9      	subs	r1, r1, r3
1000490e:	0552      	lsls	r2, r2, #21
10004910:	d303      	bcc.n	1000491a <l59_1>
10004912:	43c9      	mvns	r1, r1
10004914:	4240      	negs	r0, r0
10004916:	d300      	bcc.n	1000491a <l59_1>
10004918:	3101      	adds	r1, #1

1000491a <l59_1>:
1000491a:	0d52      	lsrs	r2, r2, #21
1000491c:	d003      	beq.n	10004926 <l59_2>
1000491e:	1c53      	adds	r3, r2, #1
10004920:	0adb      	lsrs	r3, r3, #11
10004922:	d007      	beq.n	10004934 <l59_3>
10004924:	1b12      	subs	r2, r2, r4

10004926 <l59_2>:
10004926:	2000      	movs	r0, #0
10004928:	0064      	lsls	r4, r4, #1
1000492a:	1c61      	adds	r1, r4, #1
1000492c:	0789      	lsls	r1, r1, #30
1000492e:	1289      	asrs	r1, r1, #10
10004930:	3a80      	subs	r2, #128	; 0x80
10004932:	0312      	lsls	r2, r2, #12

10004934 <l59_3>:
10004934:	4b01      	ldr	r3, [pc, #4]	; (1000493c <l59_3+0x8>)
10004936:	1ad2      	subs	r2, r2, r3
10004938:	4770      	bx	lr
1000493a:	0000      	.short	0x0000
1000493c:	000003ff 	.word	0x000003ff

10004940 <__wrap___aeabi_lmul>:
10004940:	4351      	muls	r1, r2
10004942:	4343      	muls	r3, r0
10004944:	18c9      	adds	r1, r1, r3
10004946:	468c      	mov	ip, r1
10004948:	0c11      	lsrs	r1, r2, #16
1000494a:	b283      	uxth	r3, r0
1000494c:	434b      	muls	r3, r1
1000494e:	b410      	push	{r4}
10004950:	0c04      	lsrs	r4, r0, #16
10004952:	4361      	muls	r1, r4
10004954:	b292      	uxth	r2, r2
10004956:	b280      	uxth	r0, r0
10004958:	4350      	muls	r0, r2
1000495a:	4362      	muls	r2, r4
1000495c:	041c      	lsls	r4, r3, #16
1000495e:	0c1b      	lsrs	r3, r3, #16
10004960:	1900      	adds	r0, r0, r4
10004962:	bc10      	pop	{r4}
10004964:	4159      	adcs	r1, r3
10004966:	0413      	lsls	r3, r2, #16
10004968:	0c12      	lsrs	r2, r2, #16
1000496a:	18c0      	adds	r0, r0, r3
1000496c:	4151      	adcs	r1, r2
1000496e:	4461      	add	r1, ip
10004970:	4770      	bx	lr
	...

10004974 <__wrap___aeabi_frsub>:
10004974:	4048      	eors	r0, r1
10004976:	4041      	eors	r1, r0
10004978:	4048      	eors	r0, r1

1000497a <__wrap___aeabi_fsub>:
1000497a:	4b0e      	ldr	r3, [pc, #56]	; (100049b4 <__wrap___aeabi_fmul+0x6>)
1000497c:	685b      	ldr	r3, [r3, #4]
1000497e:	4718      	bx	r3

10004980 <__wrap___aeabi_fadd>:
10004980:	4b0c      	ldr	r3, [pc, #48]	; (100049b4 <__wrap___aeabi_fmul+0x6>)
10004982:	681b      	ldr	r3, [r3, #0]
10004984:	4718      	bx	r3

10004986 <__wrap___aeabi_fdiv>:
10004986:	4a0c      	ldr	r2, [pc, #48]	; (100049b8 <__wrap___aeabi_fmul+0xa>)
10004988:	6f93      	ldr	r3, [r2, #120]	; 0x78
1000498a:	089b      	lsrs	r3, r3, #2
1000498c:	d202      	bcs.n	10004994 <fdiv_save_state>

1000498e <fdiv_shim_call>:
1000498e:	4b09      	ldr	r3, [pc, #36]	; (100049b4 <__wrap___aeabi_fmul+0x6>)
10004990:	68db      	ldr	r3, [r3, #12]
10004992:	4718      	bx	r3

10004994 <fdiv_save_state>:
10004994:	b5f0      	push	{r4, r5, r6, r7, lr}
10004996:	6e14      	ldr	r4, [r2, #96]	; 0x60
10004998:	6e55      	ldr	r5, [r2, #100]	; 0x64
1000499a:	6f57      	ldr	r7, [r2, #116]	; 0x74
1000499c:	6f16      	ldr	r6, [r2, #112]	; 0x70
1000499e:	f7ff fff6 	bl	1000498e <fdiv_shim_call>
100049a2:	4a05      	ldr	r2, [pc, #20]	; (100049b8 <__wrap___aeabi_fmul+0xa>)
100049a4:	6614      	str	r4, [r2, #96]	; 0x60
100049a6:	6655      	str	r5, [r2, #100]	; 0x64
100049a8:	6757      	str	r7, [r2, #116]	; 0x74
100049aa:	6716      	str	r6, [r2, #112]	; 0x70
100049ac:	bdf0      	pop	{r4, r5, r6, r7, pc}

100049ae <__wrap___aeabi_fmul>:
100049ae:	4b01      	ldr	r3, [pc, #4]	; (100049b4 <__wrap___aeabi_fmul+0x6>)
100049b0:	689b      	ldr	r3, [r3, #8]
100049b2:	4718      	bx	r3
100049b4:	20000f38 	.word	0x20000f38
100049b8:	d0000000 	.word	0xd0000000

100049bc <__wrap___aeabi_ui2f>:
100049bc:	1a49      	subs	r1, r1, r1
100049be:	2800      	cmp	r0, #0
100049c0:	d108      	bne.n	100049d4 <__aeabi_i2f_main>
100049c2:	4608      	mov	r0, r1
100049c4:	4770      	bx	lr
	...

100049c8 <__wrap___aeabi_i2f>:
100049c8:	0fc1      	lsrs	r1, r0, #31
100049ca:	07c9      	lsls	r1, r1, #31
100049cc:	d500      	bpl.n	100049d0 <__wrap___aeabi_i2f+0x8>
100049ce:	4240      	negs	r0, r0
100049d0:	2800      	cmp	r0, #0
100049d2:	d017      	beq.n	10004a04 <__aeabi_i2f_main+0x30>

100049d4 <__aeabi_i2f_main>:
100049d4:	46f4      	mov	ip, lr
100049d6:	b403      	push	{r0, r1}
100049d8:	4b0b      	ldr	r3, [pc, #44]	; (10004a08 <__aeabi_i2f_main+0x34>)
100049da:	681b      	ldr	r3, [r3, #0]
100049dc:	4798      	blx	r3
100049de:	bc06      	pop	{r1, r2}
100049e0:	4081      	lsls	r1, r0
100049e2:	389e      	subs	r0, #158	; 0x9e
100049e4:	4240      	negs	r0, r0
100049e6:	3180      	adds	r1, #128	; 0x80
100049e8:	d207      	bcs.n	100049fa <__aeabi_i2f_main+0x26>
100049ea:	060b      	lsls	r3, r1, #24
100049ec:	d007      	beq.n	100049fe <__aeabi_i2f_main+0x2a>
100049ee:	0049      	lsls	r1, r1, #1
100049f0:	0a49      	lsrs	r1, r1, #9
100049f2:	05c0      	lsls	r0, r0, #23
100049f4:	4310      	orrs	r0, r2
100049f6:	4308      	orrs	r0, r1
100049f8:	4760      	bx	ip
100049fa:	3001      	adds	r0, #1
100049fc:	e7f8      	b.n	100049f0 <__aeabi_i2f_main+0x1c>
100049fe:	0a49      	lsrs	r1, r1, #9
10004a00:	0289      	lsls	r1, r1, #10
10004a02:	e7f5      	b.n	100049f0 <__aeabi_i2f_main+0x1c>
10004a04:	4770      	bx	lr
10004a06:	0000      	.short	0x0000
10004a08:	20001c08 	.word	0x20001c08

10004a0c <__wrap___aeabi_f2iz>:
10004a0c:	0041      	lsls	r1, r0, #1
10004a0e:	0e0a      	lsrs	r2, r1, #24
10004a10:	2380      	movs	r3, #128	; 0x80
10004a12:	061b      	lsls	r3, r3, #24
10004a14:	2a7e      	cmp	r2, #126	; 0x7e
10004a16:	dd0b      	ble.n	10004a30 <__wrap___aeabi_f2iz+0x24>
10004a18:	3a9e      	subs	r2, #158	; 0x9e
10004a1a:	da0b      	bge.n	10004a34 <__wrap___aeabi_f2iz+0x28>
10004a1c:	17c1      	asrs	r1, r0, #31
10004a1e:	0240      	lsls	r0, r0, #9
10004a20:	0840      	lsrs	r0, r0, #1
10004a22:	4318      	orrs	r0, r3
10004a24:	4252      	negs	r2, r2
10004a26:	40d0      	lsrs	r0, r2
10004a28:	0049      	lsls	r1, r1, #1
10004a2a:	3101      	adds	r1, #1
10004a2c:	4348      	muls	r0, r1
10004a2e:	4770      	bx	lr
10004a30:	2000      	movs	r0, #0
10004a32:	4770      	bx	lr
10004a34:	0fc0      	lsrs	r0, r0, #31
10004a36:	18c0      	adds	r0, r0, r3
10004a38:	3801      	subs	r0, #1
10004a3a:	4770      	bx	lr
10004a3c:	42c0      	cmn	r0, r0
10004a3e:	d30d      	bcc.n	10004a5c <float2int>
10004a40:	b500      	push	{lr}
10004a42:	0040      	lsls	r0, r0, #1
10004a44:	0840      	lsrs	r0, r0, #1
10004a46:	2100      	movs	r1, #0
10004a48:	f000 f812 	bl	10004a70 <__wrap___aeabi_f2uiz>
10004a4c:	2800      	cmp	r0, #0
10004a4e:	d401      	bmi.n	10004a54 <__wrap___aeabi_f2iz+0x48>
10004a50:	4240      	negs	r0, r0
10004a52:	bd00      	pop	{pc}
10004a54:	2080      	movs	r0, #128	; 0x80
10004a56:	0600      	lsls	r0, r0, #24
10004a58:	bd00      	pop	{pc}
	...

10004a5c <float2int>:
10004a5c:	4b03      	ldr	r3, [pc, #12]	; (10004a6c <float2int+0x10>)
10004a5e:	69db      	ldr	r3, [r3, #28]
10004a60:	46fc      	mov	ip, pc
10004a62:	4718      	bx	r3
10004a64:	4b21df1c 	.word	0x4b21df1c
10004a68:	00001000 	.word	0x00001000
10004a6c:	20000f38 	.word	0x20000f38

10004a70 <__wrap___aeabi_f2uiz>:
10004a70:	4b01      	ldr	r3, [pc, #4]	; (10004a78 <__wrap___aeabi_f2uiz+0x8>)
10004a72:	6a5b      	ldr	r3, [r3, #36]	; 0x24
10004a74:	4718      	bx	r3
10004a76:	0000      	.short	0x0000
10004a78:	20000f38 	.word	0x20000f38

10004a7c <__wrap___aeabi_f2d>:
10004a7c:	4b03      	ldr	r3, [pc, #12]	; (10004a8c <__wrap___aeabi_f2d+0x10>)
10004a7e:	6fdb      	ldr	r3, [r3, #124]	; 0x7c
10004a80:	46fc      	mov	ip, pc
10004a82:	4718      	bx	r3
10004a84:	4b39df7c 	.word	0x4b39df7c
10004a88:	00001000 	.word	0x00001000
10004a8c:	20000f38 	.word	0x20000f38

10004a90 <__aeabi_float_init>:
10004a90:	2313      	movs	r3, #19
10004a92:	b510      	push	{r4, lr}
10004a94:	4812      	ldr	r0, [pc, #72]	; (10004ae0 <__aeabi_float_init+0x50>)
10004a96:	781c      	ldrb	r4, [r3, #0]
10004a98:	f7ff f8a0 	bl	10003bdc <rom_data_lookup>
10004a9c:	0001      	movs	r1, r0
10004a9e:	2c01      	cmp	r4, #1
10004aa0:	d00a      	beq.n	10004ab8 <__aeabi_float_init+0x28>
10004aa2:	dd03      	ble.n	10004aac <__aeabi_float_init+0x1c>
10004aa4:	2280      	movs	r2, #128	; 0x80
10004aa6:	480f      	ldr	r0, [pc, #60]	; (10004ae4 <__aeabi_float_init+0x54>)
10004aa8:	f000 f882 	bl	10004bb0 <__wrap___aeabi_memcpy>
10004aac:	480e      	ldr	r0, [pc, #56]	; (10004ae8 <__aeabi_float_init+0x58>)
10004aae:	f7ff f88d 	bl	10003bcc <rom_func_lookup>
10004ab2:	4b0e      	ldr	r3, [pc, #56]	; (10004aec <__aeabi_float_init+0x5c>)
10004ab4:	6018      	str	r0, [r3, #0]
10004ab6:	bd10      	pop	{r4, pc}
10004ab8:	4c0a      	ldr	r4, [pc, #40]	; (10004ae4 <__aeabi_float_init+0x54>)
10004aba:	2254      	movs	r2, #84	; 0x54
10004abc:	0020      	movs	r0, r4
10004abe:	f000 f877 	bl	10004bb0 <__wrap___aeabi_memcpy>
10004ac2:	4b0b      	ldr	r3, [pc, #44]	; (10004af0 <__aeabi_float_init+0x60>)
10004ac4:	6563      	str	r3, [r4, #84]	; 0x54
10004ac6:	65a3      	str	r3, [r4, #88]	; 0x58
10004ac8:	65e3      	str	r3, [r4, #92]	; 0x5c
10004aca:	6623      	str	r3, [r4, #96]	; 0x60
10004acc:	6663      	str	r3, [r4, #100]	; 0x64
10004ace:	66a3      	str	r3, [r4, #104]	; 0x68
10004ad0:	66e3      	str	r3, [r4, #108]	; 0x6c
10004ad2:	6723      	str	r3, [r4, #112]	; 0x70
10004ad4:	6763      	str	r3, [r4, #116]	; 0x74
10004ad6:	67a3      	str	r3, [r4, #120]	; 0x78
10004ad8:	67e3      	str	r3, [r4, #124]	; 0x7c
10004ada:	6223      	str	r3, [r4, #32]
10004adc:	61e3      	str	r3, [r4, #28]
10004ade:	e7e5      	b.n	10004aac <__aeabi_float_init+0x1c>
10004ae0:	00004653 	.word	0x00004653
10004ae4:	20000f38 	.word	0x20000f38
10004ae8:	0000334c 	.word	0x0000334c
10004aec:	20001c08 	.word	0x20001c08
10004af0:	10004af5 	.word	0x10004af5

10004af4 <float_table_shim_on_use_helper>:
10004af4:	b507      	push	{r0, r1, r2, lr}
10004af6:	4660      	mov	r0, ip
10004af8:	8801      	ldrh	r1, [r0, #0]
10004afa:	0a0a      	lsrs	r2, r1, #8
10004afc:	3002      	adds	r0, #2
10004afe:	2adf      	cmp	r2, #223	; 0xdf
10004b00:	d1fa      	bne.n	10004af8 <float_table_shim_on_use_helper+0x4>
10004b02:	b2c9      	uxtb	r1, r1
10004b04:	0882      	lsrs	r2, r0, #2
10004b06:	d304      	bcc.n	10004b12 <float_table_shim_on_use_helper+0x1e>
10004b08:	8802      	ldrh	r2, [r0, #0]
10004b0a:	8840      	ldrh	r0, [r0, #2]
10004b0c:	0400      	lsls	r0, r0, #16
10004b0e:	4310      	orrs	r0, r2
10004b10:	e000      	b.n	10004b14 <float_table_shim_on_use_helper+0x20>
10004b12:	6800      	ldr	r0, [r0, #0]
10004b14:	4a01      	ldr	r2, [pc, #4]	; (10004b1c <float_table_shim_on_use_helper+0x28>)
10004b16:	5050      	str	r0, [r2, r1]
10004b18:	9003      	str	r0, [sp, #12]
10004b1a:	bd07      	pop	{r0, r1, r2, pc}
10004b1c:	20000f38 	.word	0x20000f38

10004b20 <float2int_shim>:
10004b20:	2100      	movs	r1, #0

10004b22 <float2fix_shim>:
10004b22:	15c2      	asrs	r2, r0, #23
10004b24:	3280      	adds	r2, #128	; 0x80
10004b26:	3280      	adds	r2, #128	; 0x80
10004b28:	d001      	beq.n	10004b2e <float2fix_shim+0xc>
10004b2a:	4a02      	ldr	r2, [pc, #8]	; (10004b34 <float2fix_shim+0x12>)
10004b2c:	4710      	bx	r2
10004b2e:	2000      	movs	r0, #0
10004b30:	4770      	bx	lr
10004b32:	0000      	.short	0x0000
10004b34:	00002acd 	.word	0x00002acd

10004b38 <float2double_shim>:
10004b38:	0fc3      	lsrs	r3, r0, #31
10004b3a:	07db      	lsls	r3, r3, #31
10004b3c:	0041      	lsls	r1, r0, #1
10004b3e:	0e0a      	lsrs	r2, r1, #24
10004b40:	d007      	beq.n	10004b52 <float2double_shim+0x1a>
10004b42:	2aff      	cmp	r2, #255	; 0xff
10004b44:	d008      	beq.n	10004b58 <float2double_shim+0x20>
10004b46:	0909      	lsrs	r1, r1, #4
10004b48:	4a05      	ldr	r2, [pc, #20]	; (10004b60 <float2double_shim+0x28>)
10004b4a:	1889      	adds	r1, r1, r2
10004b4c:	4319      	orrs	r1, r3
10004b4e:	0740      	lsls	r0, r0, #29
10004b50:	4770      	bx	lr
10004b52:	0019      	movs	r1, r3
10004b54:	2000      	movs	r0, #0
10004b56:	4770      	bx	lr
10004b58:	4902      	ldr	r1, [pc, #8]	; (10004b64 <float2double_shim+0x2c>)
10004b5a:	18c9      	adds	r1, r1, r3
10004b5c:	e7fa      	b.n	10004b54 <float2double_shim+0x1c>
10004b5e:	0000      	.short	0x0000
10004b60:	38000000 	.word	0x38000000
10004b64:	7ff00000 	.word	0x7ff00000

10004b68 <__wrap_malloc>:
10004b68:	b510      	push	{r4, lr}
10004b6a:	0004      	movs	r4, r0
10004b6c:	f005 ffa6 	bl	1000aabc <malloc>
10004b70:	2800      	cmp	r0, #0
10004b72:	d004      	beq.n	10004b7e <__wrap_malloc+0x16>
10004b74:	4b03      	ldr	r3, [pc, #12]	; (10004b84 <__wrap_malloc+0x1c>)
10004b76:	1904      	adds	r4, r0, r4
10004b78:	429c      	cmp	r4, r3
10004b7a:	d800      	bhi.n	10004b7e <__wrap_malloc+0x16>
10004b7c:	bd10      	pop	{r4, pc}
10004b7e:	4802      	ldr	r0, [pc, #8]	; (10004b88 <__wrap_malloc+0x20>)
10004b80:	f7fd faf8 	bl	10002174 <panic>
10004b84:	20040000 	.word	0x20040000
10004b88:	1000b778 	.word	0x1000b778

10004b8c <__wrap_free>:
10004b8c:	b510      	push	{r4, lr}
10004b8e:	f005 ff9f 	bl	1000aad0 <free>
10004b92:	bd10      	pop	{r4, pc}

10004b94 <__aeabi_mem_init>:
10004b94:	4801      	ldr	r0, [pc, #4]	; (10004b9c <__aeabi_mem_init+0x8>)
10004b96:	2104      	movs	r1, #4
10004b98:	4b01      	ldr	r3, [pc, #4]	; (10004ba0 <__aeabi_mem_init+0xc>)
10004b9a:	4718      	bx	r3
10004b9c:	20000420 	.word	0x20000420
10004ba0:	10003bed 	.word	0x10003bed

10004ba4 <__wrap_memset>:
10004ba4:	4b01      	ldr	r3, [pc, #4]	; (10004bac <__wrap_memset+0x8>)
10004ba6:	681b      	ldr	r3, [r3, #0]
10004ba8:	4718      	bx	r3
10004baa:	0000      	.short	0x0000
10004bac:	20000420 	.word	0x20000420

10004bb0 <__wrap___aeabi_memcpy>:
10004bb0:	4b01      	ldr	r3, [pc, #4]	; (10004bb8 <__wrap___aeabi_memcpy+0x8>)
10004bb2:	685b      	ldr	r3, [r3, #4]
10004bb4:	4718      	bx	r3
10004bb6:	0000      	.short	0x0000
10004bb8:	20000420 	.word	0x20000420

10004bbc <stdio_out_chars_no_crlf>:
10004bbc:	0003      	movs	r3, r0
10004bbe:	b510      	push	{r4, lr}
10004bc0:	0008      	movs	r0, r1
10004bc2:	0011      	movs	r1, r2
10004bc4:	681b      	ldr	r3, [r3, #0]
10004bc6:	4798      	blx	r3
10004bc8:	bd10      	pop	{r4, pc}
10004bca:	46c0      	nop			; (mov r8, r8)

10004bcc <stdio_out_chars_crlf>:
10004bcc:	b5f0      	push	{r4, r5, r6, r7, lr}
10004bce:	4646      	mov	r6, r8
10004bd0:	464f      	mov	r7, r9
10004bd2:	46d6      	mov	lr, sl
10004bd4:	b5c0      	push	{r6, r7, lr}
10004bd6:	7c43      	ldrb	r3, [r0, #17]
10004bd8:	4680      	mov	r8, r0
10004bda:	000e      	movs	r6, r1
10004bdc:	0017      	movs	r7, r2
10004bde:	2b00      	cmp	r3, #0
10004be0:	d046      	beq.n	10004c70 <stdio_out_chars_crlf+0xa4>
10004be2:	2a00      	cmp	r2, #0
10004be4:	dd3f      	ble.n	10004c66 <stdio_out_chars_crlf+0x9a>
10004be6:	1e4b      	subs	r3, r1, #1
10004be8:	4699      	mov	r9, r3
10004bea:	4b24      	ldr	r3, [pc, #144]	; (10004c7c <stdio_out_chars_crlf+0xb0>)
10004bec:	2501      	movs	r5, #1
10004bee:	2400      	movs	r4, #0
10004bf0:	2000      	movs	r0, #0
10004bf2:	469a      	mov	sl, r3
10004bf4:	e00d      	b.n	10004c12 <stdio_out_chars_crlf+0x46>
10004bf6:	464b      	mov	r3, r9
10004bf8:	5d1b      	ldrb	r3, [r3, r4]
10004bfa:	3b0d      	subs	r3, #13
10004bfc:	425a      	negs	r2, r3
10004bfe:	4153      	adcs	r3, r2
10004c00:	5d32      	ldrb	r2, [r6, r4]
10004c02:	b2db      	uxtb	r3, r3
10004c04:	2a0a      	cmp	r2, #10
10004c06:	d00b      	beq.n	10004c20 <stdio_out_chars_crlf+0x54>
10004c08:	002b      	movs	r3, r5
10004c0a:	3401      	adds	r4, #1
10004c0c:	3501      	adds	r5, #1
10004c0e:	429f      	cmp	r7, r3
10004c10:	dd1a      	ble.n	10004c48 <stdio_out_chars_crlf+0x7c>
10004c12:	2c00      	cmp	r4, #0
10004c14:	d1ef      	bne.n	10004bf6 <stdio_out_chars_crlf+0x2a>
10004c16:	4643      	mov	r3, r8
10004c18:	5d32      	ldrb	r2, [r6, r4]
10004c1a:	7c1b      	ldrb	r3, [r3, #16]
10004c1c:	2a0a      	cmp	r2, #10
10004c1e:	d1f3      	bne.n	10004c08 <stdio_out_chars_crlf+0x3c>
10004c20:	2b00      	cmp	r3, #0
10004c22:	d1f1      	bne.n	10004c08 <stdio_out_chars_crlf+0x3c>
10004c24:	42a0      	cmp	r0, r4
10004c26:	da04      	bge.n	10004c32 <stdio_out_chars_crlf+0x66>
10004c28:	4643      	mov	r3, r8
10004c2a:	1a21      	subs	r1, r4, r0
10004c2c:	681b      	ldr	r3, [r3, #0]
10004c2e:	1830      	adds	r0, r6, r0
10004c30:	4798      	blx	r3
10004c32:	4643      	mov	r3, r8
10004c34:	4650      	mov	r0, sl
10004c36:	681b      	ldr	r3, [r3, #0]
10004c38:	2102      	movs	r1, #2
10004c3a:	4798      	blx	r3
10004c3c:	3401      	adds	r4, #1
10004c3e:	0028      	movs	r0, r5
10004c40:	002b      	movs	r3, r5
10004c42:	3501      	adds	r5, #1
10004c44:	429f      	cmp	r7, r3
10004c46:	dce4      	bgt.n	10004c12 <stdio_out_chars_crlf+0x46>
10004c48:	4287      	cmp	r7, r0
10004c4a:	dd04      	ble.n	10004c56 <stdio_out_chars_crlf+0x8a>
10004c4c:	4643      	mov	r3, r8
10004c4e:	1a39      	subs	r1, r7, r0
10004c50:	681b      	ldr	r3, [r3, #0]
10004c52:	1830      	adds	r0, r6, r0
10004c54:	4798      	blx	r3
10004c56:	19f6      	adds	r6, r6, r7
10004c58:	3e01      	subs	r6, #1
10004c5a:	7833      	ldrb	r3, [r6, #0]
10004c5c:	3b0d      	subs	r3, #13
10004c5e:	425a      	negs	r2, r3
10004c60:	4153      	adcs	r3, r2
10004c62:	4642      	mov	r2, r8
10004c64:	7413      	strb	r3, [r2, #16]
10004c66:	bce0      	pop	{r5, r6, r7}
10004c68:	46ba      	mov	sl, r7
10004c6a:	46b1      	mov	r9, r6
10004c6c:	46a8      	mov	r8, r5
10004c6e:	bdf0      	pop	{r4, r5, r6, r7, pc}
10004c70:	6803      	ldr	r3, [r0, #0]
10004c72:	0011      	movs	r1, r2
10004c74:	0030      	movs	r0, r6
10004c76:	4798      	blx	r3
10004c78:	e7f5      	b.n	10004c66 <stdio_out_chars_crlf+0x9a>
10004c7a:	46c0      	nop			; (mov r8, r8)
10004c7c:	1000b7ec 	.word	0x1000b7ec

10004c80 <stdio_buffered_printer>:
10004c80:	b5f0      	push	{r4, r5, r6, r7, lr}
10004c82:	46c6      	mov	lr, r8
10004c84:	000c      	movs	r4, r1
10004c86:	6809      	ldr	r1, [r1, #0]
10004c88:	0006      	movs	r6, r0
10004c8a:	b500      	push	{lr}
10004c8c:	2980      	cmp	r1, #128	; 0x80
10004c8e:	d006      	beq.n	10004c9e <stdio_buffered_printer+0x1e>
10004c90:	1c4b      	adds	r3, r1, #1
10004c92:	6023      	str	r3, [r4, #0]
10004c94:	1864      	adds	r4, r4, r1
10004c96:	7126      	strb	r6, [r4, #4]
10004c98:	bc80      	pop	{r7}
10004c9a:	46b8      	mov	r8, r7
10004c9c:	bdf0      	pop	{r4, r5, r6, r7, pc}
10004c9e:	4b0f      	ldr	r3, [pc, #60]	; (10004cdc <stdio_buffered_printer+0x5c>)
10004ca0:	681d      	ldr	r5, [r3, #0]
10004ca2:	2d00      	cmp	r5, #0
10004ca4:	d016      	beq.n	10004cd4 <stdio_buffered_printer+0x54>
10004ca6:	1d23      	adds	r3, r4, #4
10004ca8:	4698      	mov	r8, r3
10004caa:	4f0d      	ldr	r7, [pc, #52]	; (10004ce0 <stdio_buffered_printer+0x60>)
10004cac:	e002      	b.n	10004cb4 <stdio_buffered_printer+0x34>
10004cae:	68ed      	ldr	r5, [r5, #12]
10004cb0:	2d00      	cmp	r5, #0
10004cb2:	d00f      	beq.n	10004cd4 <stdio_buffered_printer+0x54>
10004cb4:	682b      	ldr	r3, [r5, #0]
10004cb6:	2b00      	cmp	r3, #0
10004cb8:	d0f9      	beq.n	10004cae <stdio_buffered_printer+0x2e>
10004cba:	683b      	ldr	r3, [r7, #0]
10004cbc:	2b00      	cmp	r3, #0
10004cbe:	d001      	beq.n	10004cc4 <stdio_buffered_printer+0x44>
10004cc0:	42ab      	cmp	r3, r5
10004cc2:	d1f4      	bne.n	10004cae <stdio_buffered_printer+0x2e>
10004cc4:	0028      	movs	r0, r5
10004cc6:	4641      	mov	r1, r8
10004cc8:	6822      	ldr	r2, [r4, #0]
10004cca:	f7ff ff7f 	bl	10004bcc <stdio_out_chars_crlf>
10004cce:	68ed      	ldr	r5, [r5, #12]
10004cd0:	2d00      	cmp	r5, #0
10004cd2:	d1ef      	bne.n	10004cb4 <stdio_buffered_printer+0x34>
10004cd4:	2301      	movs	r3, #1
10004cd6:	2100      	movs	r1, #0
10004cd8:	e7db      	b.n	10004c92 <stdio_buffered_printer+0x12>
10004cda:	46c0      	nop			; (mov r8, r8)
10004cdc:	200017cc 	.word	0x200017cc
10004ce0:	200017d0 	.word	0x200017d0

10004ce4 <stdio_put_string.isra.0>:
10004ce4:	b5f0      	push	{r4, r5, r6, r7, lr}
10004ce6:	4657      	mov	r7, sl
10004ce8:	464e      	mov	r6, r9
10004cea:	4645      	mov	r5, r8
10004cec:	46de      	mov	lr, fp
10004cee:	001c      	movs	r4, r3
10004cf0:	23d0      	movs	r3, #208	; 0xd0
10004cf2:	b5e0      	push	{r5, r6, r7, lr}
10004cf4:	061b      	lsls	r3, r3, #24
10004cf6:	681f      	ldr	r7, [r3, #0]
10004cf8:	4b34      	ldr	r3, [pc, #208]	; (10004dcc <stdio_put_string.isra.0+0xe8>)
10004cfa:	b083      	sub	sp, #12
10004cfc:	0006      	movs	r6, r0
10004cfe:	000d      	movs	r5, r1
10004d00:	0018      	movs	r0, r3
10004d02:	a901      	add	r1, sp, #4
10004d04:	4691      	mov	r9, r2
10004d06:	469a      	mov	sl, r3
10004d08:	f006 fb3e 	bl	1000b388 <__mutex_try_enter_veneer>
10004d0c:	4680      	mov	r8, r0
10004d0e:	2800      	cmp	r0, #0
10004d10:	d108      	bne.n	10004d24 <stdio_put_string.isra.0+0x40>
10004d12:	9b01      	ldr	r3, [sp, #4]
10004d14:	b27f      	sxtb	r7, r7
10004d16:	429f      	cmp	r7, r3
10004d18:	d004      	beq.n	10004d24 <stdio_put_string.isra.0+0x40>
10004d1a:	4650      	mov	r0, sl
10004d1c:	f006 fb44 	bl	1000b3a8 <__mutex_enter_blocking_veneer>
10004d20:	2301      	movs	r3, #1
10004d22:	4698      	mov	r8, r3
10004d24:	1c6b      	adds	r3, r5, #1
10004d26:	d103      	bne.n	10004d30 <stdio_put_string.isra.0+0x4c>
10004d28:	0030      	movs	r0, r6
10004d2a:	f006 f9ab 	bl	1000b084 <strlen>
10004d2e:	0005      	movs	r5, r0
10004d30:	2c00      	cmp	r4, #0
10004d32:	d127      	bne.n	10004d84 <stdio_put_string.isra.0+0xa0>
10004d34:	4f26      	ldr	r7, [pc, #152]	; (10004dd0 <stdio_put_string.isra.0+0xec>)
10004d36:	4b27      	ldr	r3, [pc, #156]	; (10004dd4 <stdio_put_string.isra.0+0xf0>)
10004d38:	681c      	ldr	r4, [r3, #0]
10004d3a:	2c00      	cmp	r4, #0
10004d3c:	d018      	beq.n	10004d70 <stdio_put_string.isra.0+0x8c>
10004d3e:	464b      	mov	r3, r9
10004d40:	2b00      	cmp	r3, #0
10004d42:	d121      	bne.n	10004d88 <stdio_put_string.isra.0+0xa4>
10004d44:	4b24      	ldr	r3, [pc, #144]	; (10004dd8 <stdio_put_string.isra.0+0xf4>)
10004d46:	4699      	mov	r9, r3
10004d48:	e002      	b.n	10004d50 <stdio_put_string.isra.0+0x6c>
10004d4a:	68e4      	ldr	r4, [r4, #12]
10004d4c:	2c00      	cmp	r4, #0
10004d4e:	d00f      	beq.n	10004d70 <stdio_put_string.isra.0+0x8c>
10004d50:	6823      	ldr	r3, [r4, #0]
10004d52:	2b00      	cmp	r3, #0
10004d54:	d0f9      	beq.n	10004d4a <stdio_put_string.isra.0+0x66>
10004d56:	464b      	mov	r3, r9
10004d58:	681b      	ldr	r3, [r3, #0]
10004d5a:	2b00      	cmp	r3, #0
10004d5c:	d001      	beq.n	10004d62 <stdio_put_string.isra.0+0x7e>
10004d5e:	42a3      	cmp	r3, r4
10004d60:	d1f3      	bne.n	10004d4a <stdio_put_string.isra.0+0x66>
10004d62:	0020      	movs	r0, r4
10004d64:	002a      	movs	r2, r5
10004d66:	0031      	movs	r1, r6
10004d68:	47b8      	blx	r7
10004d6a:	68e4      	ldr	r4, [r4, #12]
10004d6c:	2c00      	cmp	r4, #0
10004d6e:	d1ef      	bne.n	10004d50 <stdio_put_string.isra.0+0x6c>
10004d70:	4643      	mov	r3, r8
10004d72:	2b00      	cmp	r3, #0
10004d74:	d125      	bne.n	10004dc2 <stdio_put_string.isra.0+0xde>
10004d76:	b003      	add	sp, #12
10004d78:	bcf0      	pop	{r4, r5, r6, r7}
10004d7a:	46bb      	mov	fp, r7
10004d7c:	46b2      	mov	sl, r6
10004d7e:	46a9      	mov	r9, r5
10004d80:	46a0      	mov	r8, r4
10004d82:	bdf0      	pop	{r4, r5, r6, r7, pc}
10004d84:	4f15      	ldr	r7, [pc, #84]	; (10004ddc <stdio_put_string.isra.0+0xf8>)
10004d86:	e7d6      	b.n	10004d36 <stdio_put_string.isra.0+0x52>
10004d88:	4b13      	ldr	r3, [pc, #76]	; (10004dd8 <stdio_put_string.isra.0+0xf4>)
10004d8a:	4699      	mov	r9, r3
10004d8c:	230a      	movs	r3, #10
10004d8e:	469b      	mov	fp, r3
10004d90:	e002      	b.n	10004d98 <stdio_put_string.isra.0+0xb4>
10004d92:	68e4      	ldr	r4, [r4, #12]
10004d94:	2c00      	cmp	r4, #0
10004d96:	d0eb      	beq.n	10004d70 <stdio_put_string.isra.0+0x8c>
10004d98:	6823      	ldr	r3, [r4, #0]
10004d9a:	2b00      	cmp	r3, #0
10004d9c:	d0f9      	beq.n	10004d92 <stdio_put_string.isra.0+0xae>
10004d9e:	464b      	mov	r3, r9
10004da0:	681b      	ldr	r3, [r3, #0]
10004da2:	2b00      	cmp	r3, #0
10004da4:	d001      	beq.n	10004daa <stdio_put_string.isra.0+0xc6>
10004da6:	42a3      	cmp	r3, r4
10004da8:	d1f3      	bne.n	10004d92 <stdio_put_string.isra.0+0xae>
10004daa:	002a      	movs	r2, r5
10004dac:	0031      	movs	r1, r6
10004dae:	0020      	movs	r0, r4
10004db0:	47b8      	blx	r7
10004db2:	465a      	mov	r2, fp
10004db4:	466b      	mov	r3, sp
10004db6:	0020      	movs	r0, r4
10004db8:	711a      	strb	r2, [r3, #4]
10004dba:	a901      	add	r1, sp, #4
10004dbc:	2201      	movs	r2, #1
10004dbe:	47b8      	blx	r7
10004dc0:	e7e7      	b.n	10004d92 <stdio_put_string.isra.0+0xae>
10004dc2:	4650      	mov	r0, sl
10004dc4:	f006 fac8 	bl	1000b358 <__mutex_exit_veneer>
10004dc8:	e7d5      	b.n	10004d76 <stdio_put_string.isra.0+0x92>
10004dca:	46c0      	nop			; (mov r8, r8)
10004dcc:	20000cc0 	.word	0x20000cc0
10004dd0:	10004bcd 	.word	0x10004bcd
10004dd4:	200017cc 	.word	0x200017cc
10004dd8:	200017d0 	.word	0x200017d0
10004ddc:	10004bbd 	.word	0x10004bbd

10004de0 <__wrap_putchar>:
10004de0:	b5f0      	push	{r4, r5, r6, r7, lr}
10004de2:	46ce      	mov	lr, r9
10004de4:	4647      	mov	r7, r8
10004de6:	b580      	push	{r7, lr}
10004de8:	b083      	sub	sp, #12
10004dea:	466b      	mov	r3, sp
10004dec:	1cde      	adds	r6, r3, #3
10004dee:	23d0      	movs	r3, #208	; 0xd0
10004df0:	7030      	strb	r0, [r6, #0]
10004df2:	061b      	lsls	r3, r3, #24
10004df4:	681c      	ldr	r4, [r3, #0]
10004df6:	4b1f      	ldr	r3, [pc, #124]	; (10004e74 <__wrap_putchar+0x94>)
10004df8:	4680      	mov	r8, r0
10004dfa:	a901      	add	r1, sp, #4
10004dfc:	0018      	movs	r0, r3
10004dfe:	4699      	mov	r9, r3
10004e00:	f006 fac2 	bl	1000b388 <__mutex_try_enter_veneer>
10004e04:	1e07      	subs	r7, r0, #0
10004e06:	d020      	beq.n	10004e4a <__wrap_putchar+0x6a>
10004e08:	4b1b      	ldr	r3, [pc, #108]	; (10004e78 <__wrap_putchar+0x98>)
10004e0a:	681c      	ldr	r4, [r3, #0]
10004e0c:	2c00      	cmp	r4, #0
10004e0e:	d028      	beq.n	10004e62 <__wrap_putchar+0x82>
10004e10:	4d1a      	ldr	r5, [pc, #104]	; (10004e7c <__wrap_putchar+0x9c>)
10004e12:	e002      	b.n	10004e1a <__wrap_putchar+0x3a>
10004e14:	68e4      	ldr	r4, [r4, #12]
10004e16:	2c00      	cmp	r4, #0
10004e18:	d00f      	beq.n	10004e3a <__wrap_putchar+0x5a>
10004e1a:	6823      	ldr	r3, [r4, #0]
10004e1c:	2b00      	cmp	r3, #0
10004e1e:	d0f9      	beq.n	10004e14 <__wrap_putchar+0x34>
10004e20:	682b      	ldr	r3, [r5, #0]
10004e22:	2b00      	cmp	r3, #0
10004e24:	d001      	beq.n	10004e2a <__wrap_putchar+0x4a>
10004e26:	42a3      	cmp	r3, r4
10004e28:	d1f4      	bne.n	10004e14 <__wrap_putchar+0x34>
10004e2a:	0020      	movs	r0, r4
10004e2c:	2201      	movs	r2, #1
10004e2e:	0031      	movs	r1, r6
10004e30:	f7ff fecc 	bl	10004bcc <stdio_out_chars_crlf>
10004e34:	68e4      	ldr	r4, [r4, #12]
10004e36:	2c00      	cmp	r4, #0
10004e38:	d1ef      	bne.n	10004e1a <__wrap_putchar+0x3a>
10004e3a:	2f00      	cmp	r7, #0
10004e3c:	d111      	bne.n	10004e62 <__wrap_putchar+0x82>
10004e3e:	4640      	mov	r0, r8
10004e40:	b003      	add	sp, #12
10004e42:	bcc0      	pop	{r6, r7}
10004e44:	46b9      	mov	r9, r7
10004e46:	46b0      	mov	r8, r6
10004e48:	bdf0      	pop	{r4, r5, r6, r7, pc}
10004e4a:	9b01      	ldr	r3, [sp, #4]
10004e4c:	b264      	sxtb	r4, r4
10004e4e:	429c      	cmp	r4, r3
10004e50:	d00b      	beq.n	10004e6a <__wrap_putchar+0x8a>
10004e52:	4648      	mov	r0, r9
10004e54:	f006 faa8 	bl	1000b3a8 <__mutex_enter_blocking_veneer>
10004e58:	4b07      	ldr	r3, [pc, #28]	; (10004e78 <__wrap_putchar+0x98>)
10004e5a:	2701      	movs	r7, #1
10004e5c:	681c      	ldr	r4, [r3, #0]
10004e5e:	2c00      	cmp	r4, #0
10004e60:	d1d6      	bne.n	10004e10 <__wrap_putchar+0x30>
10004e62:	4648      	mov	r0, r9
10004e64:	f006 fa78 	bl	1000b358 <__mutex_exit_veneer>
10004e68:	e7e9      	b.n	10004e3e <__wrap_putchar+0x5e>
10004e6a:	4b03      	ldr	r3, [pc, #12]	; (10004e78 <__wrap_putchar+0x98>)
10004e6c:	681c      	ldr	r4, [r3, #0]
10004e6e:	2c00      	cmp	r4, #0
10004e70:	d1ce      	bne.n	10004e10 <__wrap_putchar+0x30>
10004e72:	e7e4      	b.n	10004e3e <__wrap_putchar+0x5e>
10004e74:	20000cc0 	.word	0x20000cc0
10004e78:	200017cc 	.word	0x200017cc
10004e7c:	200017d0 	.word	0x200017d0

10004e80 <__wrap_puts>:
10004e80:	b570      	push	{r4, r5, r6, lr}
10004e82:	0004      	movs	r4, r0
10004e84:	f006 f8fe 	bl	1000b084 <strlen>
10004e88:	2300      	movs	r3, #0
10004e8a:	0001      	movs	r1, r0
10004e8c:	0005      	movs	r5, r0
10004e8e:	2201      	movs	r2, #1
10004e90:	0020      	movs	r0, r4
10004e92:	f7ff ff27 	bl	10004ce4 <stdio_put_string.isra.0>
10004e96:	4b08      	ldr	r3, [pc, #32]	; (10004eb8 <__wrap_puts+0x38>)
10004e98:	681c      	ldr	r4, [r3, #0]
10004e9a:	2c00      	cmp	r4, #0
10004e9c:	d006      	beq.n	10004eac <__wrap_puts+0x2c>
10004e9e:	6863      	ldr	r3, [r4, #4]
10004ea0:	2b00      	cmp	r3, #0
10004ea2:	d005      	beq.n	10004eb0 <__wrap_puts+0x30>
10004ea4:	4798      	blx	r3
10004ea6:	68e4      	ldr	r4, [r4, #12]
10004ea8:	2c00      	cmp	r4, #0
10004eaa:	d1f8      	bne.n	10004e9e <__wrap_puts+0x1e>
10004eac:	0028      	movs	r0, r5
10004eae:	bd70      	pop	{r4, r5, r6, pc}
10004eb0:	68e4      	ldr	r4, [r4, #12]
10004eb2:	2c00      	cmp	r4, #0
10004eb4:	d1f3      	bne.n	10004e9e <__wrap_puts+0x1e>
10004eb6:	e7f9      	b.n	10004eac <__wrap_puts+0x2c>
10004eb8:	200017cc 	.word	0x200017cc

10004ebc <stdio_set_driver_enabled>:
10004ebc:	4a0a      	ldr	r2, [pc, #40]	; (10004ee8 <stdio_set_driver_enabled+0x2c>)
10004ebe:	6813      	ldr	r3, [r2, #0]
10004ec0:	2b00      	cmp	r3, #0
10004ec2:	d105      	bne.n	10004ed0 <stdio_set_driver_enabled+0x14>
10004ec4:	e00c      	b.n	10004ee0 <stdio_set_driver_enabled+0x24>
10004ec6:	001a      	movs	r2, r3
10004ec8:	68db      	ldr	r3, [r3, #12]
10004eca:	320c      	adds	r2, #12
10004ecc:	2b00      	cmp	r3, #0
10004ece:	d007      	beq.n	10004ee0 <stdio_set_driver_enabled+0x24>
10004ed0:	4298      	cmp	r0, r3
10004ed2:	d1f8      	bne.n	10004ec6 <stdio_set_driver_enabled+0xa>
10004ed4:	2900      	cmp	r1, #0
10004ed6:	d102      	bne.n	10004ede <stdio_set_driver_enabled+0x22>
10004ed8:	68c3      	ldr	r3, [r0, #12]
10004eda:	6013      	str	r3, [r2, #0]
10004edc:	60c1      	str	r1, [r0, #12]
10004ede:	4770      	bx	lr
10004ee0:	2900      	cmp	r1, #0
10004ee2:	d0fc      	beq.n	10004ede <stdio_set_driver_enabled+0x22>
10004ee4:	6010      	str	r0, [r2, #0]
10004ee6:	e7fa      	b.n	10004ede <stdio_set_driver_enabled+0x22>
10004ee8:	200017cc 	.word	0x200017cc

10004eec <__wrap_vprintf>:
10004eec:	b5f0      	push	{r4, r5, r6, r7, lr}
10004eee:	4647      	mov	r7, r8
10004ef0:	46ce      	mov	lr, r9
10004ef2:	23d0      	movs	r3, #208	; 0xd0
10004ef4:	b580      	push	{r7, lr}
10004ef6:	061b      	lsls	r3, r3, #24
10004ef8:	681d      	ldr	r5, [r3, #0]
10004efa:	4b2e      	ldr	r3, [pc, #184]	; (10004fb4 <__wrap_vprintf+0xc8>)
10004efc:	b0a5      	sub	sp, #148	; 0x94
10004efe:	0007      	movs	r7, r0
10004f00:	000c      	movs	r4, r1
10004f02:	0018      	movs	r0, r3
10004f04:	a903      	add	r1, sp, #12
10004f06:	4698      	mov	r8, r3
10004f08:	f006 fa3e 	bl	1000b388 <__mutex_try_enter_veneer>
10004f0c:	1e06      	subs	r6, r0, #0
10004f0e:	d107      	bne.n	10004f20 <__wrap_vprintf+0x34>
10004f10:	9b03      	ldr	r3, [sp, #12]
10004f12:	b26d      	sxtb	r5, r5
10004f14:	429d      	cmp	r5, r3
10004f16:	d003      	beq.n	10004f20 <__wrap_vprintf+0x34>
10004f18:	4640      	mov	r0, r8
10004f1a:	f006 fa45 	bl	1000b3a8 <__mutex_enter_blocking_veneer>
10004f1e:	3601      	adds	r6, #1
10004f20:	2284      	movs	r2, #132	; 0x84
10004f22:	2100      	movs	r1, #0
10004f24:	a803      	add	r0, sp, #12
10004f26:	f7ff fe3d 	bl	10004ba4 <__wrap_memset>
10004f2a:	0023      	movs	r3, r4
10004f2c:	003a      	movs	r2, r7
10004f2e:	4822      	ldr	r0, [pc, #136]	; (10004fb8 <__wrap_vprintf+0xcc>)
10004f30:	a903      	add	r1, sp, #12
10004f32:	f7fe fe1b 	bl	10003b6c <vfctprintf>
10004f36:	9b03      	ldr	r3, [sp, #12]
10004f38:	0007      	movs	r7, r0
10004f3a:	2b00      	cmp	r3, #0
10004f3c:	d114      	bne.n	10004f68 <__wrap_vprintf+0x7c>
10004f3e:	4b1f      	ldr	r3, [pc, #124]	; (10004fbc <__wrap_vprintf+0xd0>)
10004f40:	681c      	ldr	r4, [r3, #0]
10004f42:	2c00      	cmp	r4, #0
10004f44:	d006      	beq.n	10004f54 <__wrap_vprintf+0x68>
10004f46:	6863      	ldr	r3, [r4, #4]
10004f48:	2b00      	cmp	r3, #0
10004f4a:	d00b      	beq.n	10004f64 <__wrap_vprintf+0x78>
10004f4c:	4798      	blx	r3
10004f4e:	68e4      	ldr	r4, [r4, #12]
10004f50:	2c00      	cmp	r4, #0
10004f52:	d1f8      	bne.n	10004f46 <__wrap_vprintf+0x5a>
10004f54:	2e00      	cmp	r6, #0
10004f56:	d127      	bne.n	10004fa8 <__wrap_vprintf+0xbc>
10004f58:	0038      	movs	r0, r7
10004f5a:	b025      	add	sp, #148	; 0x94
10004f5c:	bcc0      	pop	{r6, r7}
10004f5e:	46b9      	mov	r9, r7
10004f60:	46b0      	mov	r8, r6
10004f62:	bdf0      	pop	{r4, r5, r6, r7, pc}
10004f64:	68e4      	ldr	r4, [r4, #12]
10004f66:	e7ec      	b.n	10004f42 <__wrap_vprintf+0x56>
10004f68:	4b14      	ldr	r3, [pc, #80]	; (10004fbc <__wrap_vprintf+0xd0>)
10004f6a:	681d      	ldr	r5, [r3, #0]
10004f6c:	4699      	mov	r9, r3
10004f6e:	2d00      	cmp	r5, #0
10004f70:	d01e      	beq.n	10004fb0 <__wrap_vprintf+0xc4>
10004f72:	4c13      	ldr	r4, [pc, #76]	; (10004fc0 <__wrap_vprintf+0xd4>)
10004f74:	e002      	b.n	10004f7c <__wrap_vprintf+0x90>
10004f76:	68ed      	ldr	r5, [r5, #12]
10004f78:	2d00      	cmp	r5, #0
10004f7a:	d011      	beq.n	10004fa0 <__wrap_vprintf+0xb4>
10004f7c:	682b      	ldr	r3, [r5, #0]
10004f7e:	2b00      	cmp	r3, #0
10004f80:	d0f9      	beq.n	10004f76 <__wrap_vprintf+0x8a>
10004f82:	6823      	ldr	r3, [r4, #0]
10004f84:	2b00      	cmp	r3, #0
10004f86:	d001      	beq.n	10004f8c <__wrap_vprintf+0xa0>
10004f88:	42ab      	cmp	r3, r5
10004f8a:	d1f4      	bne.n	10004f76 <__wrap_vprintf+0x8a>
10004f8c:	9b03      	ldr	r3, [sp, #12]
10004f8e:	0028      	movs	r0, r5
10004f90:	001a      	movs	r2, r3
10004f92:	a904      	add	r1, sp, #16
10004f94:	9301      	str	r3, [sp, #4]
10004f96:	f7ff fe19 	bl	10004bcc <stdio_out_chars_crlf>
10004f9a:	68ed      	ldr	r5, [r5, #12]
10004f9c:	2d00      	cmp	r5, #0
10004f9e:	d1ed      	bne.n	10004f7c <__wrap_vprintf+0x90>
10004fa0:	464b      	mov	r3, r9
10004fa2:	9503      	str	r5, [sp, #12]
10004fa4:	681c      	ldr	r4, [r3, #0]
10004fa6:	e7cc      	b.n	10004f42 <__wrap_vprintf+0x56>
10004fa8:	4640      	mov	r0, r8
10004faa:	f006 f9d5 	bl	1000b358 <__mutex_exit_veneer>
10004fae:	e7d3      	b.n	10004f58 <__wrap_vprintf+0x6c>
10004fb0:	9503      	str	r5, [sp, #12]
10004fb2:	e7cf      	b.n	10004f54 <__wrap_vprintf+0x68>
10004fb4:	20000cc0 	.word	0x20000cc0
10004fb8:	10004c81 	.word	0x10004c81
10004fbc:	200017cc 	.word	0x200017cc
10004fc0:	200017d0 	.word	0x200017d0

10004fc4 <__wrap_printf>:
10004fc4:	b40f      	push	{r0, r1, r2, r3}
10004fc6:	b500      	push	{lr}
10004fc8:	b083      	sub	sp, #12
10004fca:	a904      	add	r1, sp, #16
10004fcc:	c901      	ldmia	r1!, {r0}
10004fce:	9101      	str	r1, [sp, #4]
10004fd0:	f7ff ff8c 	bl	10004eec <__wrap_vprintf>
10004fd4:	b003      	add	sp, #12
10004fd6:	bc08      	pop	{r3}
10004fd8:	b004      	add	sp, #16
10004fda:	4718      	bx	r3

10004fdc <stdio_init_all>:
10004fdc:	b510      	push	{r4, lr}
10004fde:	f000 f93d 	bl	1000525c <stdio_usb_init>
10004fe2:	bd10      	pop	{r4, pc}

10004fe4 <resetd_init>:
10004fe4:	4770      	bx	lr
10004fe6:	46c0      	nop			; (mov r8, r8)

10004fe8 <resetd_reset>:
10004fe8:	2200      	movs	r2, #0
10004fea:	4b01      	ldr	r3, [pc, #4]	; (10004ff0 <resetd_reset+0x8>)
10004fec:	701a      	strb	r2, [r3, #0]
10004fee:	4770      	bx	lr
10004ff0:	20001c4e 	.word	0x20001c4e

10004ff4 <resetd_open>:
10004ff4:	794b      	ldrb	r3, [r1, #5]
10004ff6:	2000      	movs	r0, #0
10004ff8:	2bff      	cmp	r3, #255	; 0xff
10004ffa:	d10b      	bne.n	10005014 <resetd_open+0x20>
10004ffc:	798b      	ldrb	r3, [r1, #6]
10004ffe:	2b00      	cmp	r3, #0
10005000:	d108      	bne.n	10005014 <resetd_open+0x20>
10005002:	79cb      	ldrb	r3, [r1, #7]
10005004:	2b01      	cmp	r3, #1
10005006:	d105      	bne.n	10005014 <resetd_open+0x20>
10005008:	2a08      	cmp	r2, #8
1000500a:	d903      	bls.n	10005014 <resetd_open+0x20>
1000500c:	788a      	ldrb	r2, [r1, #2]
1000500e:	4b02      	ldr	r3, [pc, #8]	; (10005018 <resetd_open+0x24>)
10005010:	3009      	adds	r0, #9
10005012:	701a      	strb	r2, [r3, #0]
10005014:	4770      	bx	lr
10005016:	46c0      	nop			; (mov r8, r8)
10005018:	20001c4e 	.word	0x20001c4e

1000501c <resetd_xfer_cb>:
1000501c:	2001      	movs	r0, #1
1000501e:	4770      	bx	lr

10005020 <resetd_control_xfer_cb>:
10005020:	b570      	push	{r4, r5, r6, lr}
10005022:	2900      	cmp	r1, #0
10005024:	d115      	bne.n	10005052 <resetd_control_xfer_cb+0x32>
10005026:	4915      	ldr	r1, [pc, #84]	; (1000507c <resetd_control_xfer_cb+0x5c>)
10005028:	7953      	ldrb	r3, [r2, #5]
1000502a:	7910      	ldrb	r0, [r2, #4]
1000502c:	7809      	ldrb	r1, [r1, #0]
1000502e:	021b      	lsls	r3, r3, #8
10005030:	4303      	orrs	r3, r0
10005032:	2000      	movs	r0, #0
10005034:	4299      	cmp	r1, r3
10005036:	d000      	beq.n	1000503a <resetd_control_xfer_cb+0x1a>
10005038:	bd70      	pop	{r4, r5, r6, pc}
1000503a:	7853      	ldrb	r3, [r2, #1]
1000503c:	2b01      	cmp	r3, #1
1000503e:	d00a      	beq.n	10005056 <resetd_control_xfer_cb+0x36>
10005040:	2b02      	cmp	r3, #2
10005042:	d1f9      	bne.n	10005038 <resetd_control_xfer_cb+0x18>
10005044:	2000      	movs	r0, #0
10005046:	2264      	movs	r2, #100	; 0x64
10005048:	2100      	movs	r1, #0
1000504a:	f7fd fa75 	bl	10002538 <watchdog_reboot>
1000504e:	2001      	movs	r0, #1
10005050:	e7f2      	b.n	10005038 <resetd_control_xfer_cb+0x18>
10005052:	2001      	movs	r0, #1
10005054:	e7f0      	b.n	10005038 <resetd_control_xfer_cb+0x18>
10005056:	7894      	ldrb	r4, [r2, #2]
10005058:	78d2      	ldrb	r2, [r2, #3]
1000505a:	0005      	movs	r5, r0
1000505c:	0212      	lsls	r2, r2, #8
1000505e:	4314      	orrs	r4, r2
10005060:	05d2      	lsls	r2, r2, #23
10005062:	d502      	bpl.n	1000506a <resetd_control_xfer_cb+0x4a>
10005064:	0a62      	lsrs	r2, r4, #9
10005066:	4093      	lsls	r3, r2
10005068:	001d      	movs	r5, r3
1000506a:	4805      	ldr	r0, [pc, #20]	; (10005080 <resetd_control_xfer_cb+0x60>)
1000506c:	f7fe fdae 	bl	10003bcc <rom_func_lookup>
10005070:	217f      	movs	r1, #127	; 0x7f
10005072:	0003      	movs	r3, r0
10005074:	4021      	ands	r1, r4
10005076:	0028      	movs	r0, r5
10005078:	4798      	blx	r3
1000507a:	46c0      	nop			; (mov r8, r8)
1000507c:	20001c4e 	.word	0x20001c4e
10005080:	00004255 	.word	0x00004255

10005084 <usbd_app_driver_get_cb>:
10005084:	2301      	movs	r3, #1
10005086:	7003      	strb	r3, [r0, #0]
10005088:	4800      	ldr	r0, [pc, #0]	; (1000508c <usbd_app_driver_get_cb+0x8>)
1000508a:	4770      	bx	lr
1000508c:	1000b7f0 	.word	0x1000b7f0

10005090 <tud_cdc_line_coding_cb>:
10005090:	7848      	ldrb	r0, [r1, #1]
10005092:	780b      	ldrb	r3, [r1, #0]
10005094:	788a      	ldrb	r2, [r1, #2]
10005096:	0200      	lsls	r0, r0, #8
10005098:	4318      	orrs	r0, r3
1000509a:	0412      	lsls	r2, r2, #16
1000509c:	4310      	orrs	r0, r2
1000509e:	2296      	movs	r2, #150	; 0x96
100050a0:	78cb      	ldrb	r3, [r1, #3]
100050a2:	b510      	push	{r4, lr}
100050a4:	061b      	lsls	r3, r3, #24
100050a6:	4303      	orrs	r3, r0
100050a8:	00d2      	lsls	r2, r2, #3
100050aa:	4293      	cmp	r3, r2
100050ac:	d000      	beq.n	100050b0 <tud_cdc_line_coding_cb+0x20>
100050ae:	bd10      	pop	{r4, pc}
100050b0:	4803      	ldr	r0, [pc, #12]	; (100050c0 <tud_cdc_line_coding_cb+0x30>)
100050b2:	f7fe fd8b 	bl	10003bcc <rom_func_lookup>
100050b6:	2100      	movs	r1, #0
100050b8:	0003      	movs	r3, r0
100050ba:	0008      	movs	r0, r1
100050bc:	4798      	blx	r3
100050be:	46c0      	nop			; (mov r8, r8)
100050c0:	00004255 	.word	0x00004255

100050c4 <stdio_usb_in_chars>:
100050c4:	b570      	push	{r4, r5, r6, lr}
100050c6:	4c18      	ldr	r4, [pc, #96]	; (10005128 <stdio_usb_in_chars+0x64>)
100050c8:	b082      	sub	sp, #8
100050ca:	0006      	movs	r6, r0
100050cc:	000d      	movs	r5, r1
100050ce:	0020      	movs	r0, r4
100050d0:	a901      	add	r1, sp, #4
100050d2:	f006 f959 	bl	1000b388 <__mutex_try_enter_veneer>
100050d6:	2800      	cmp	r0, #0
100050d8:	d108      	bne.n	100050ec <stdio_usb_in_chars+0x28>
100050da:	23d0      	movs	r3, #208	; 0xd0
100050dc:	061b      	lsls	r3, r3, #24
100050de:	681b      	ldr	r3, [r3, #0]
100050e0:	9a01      	ldr	r2, [sp, #4]
100050e2:	429a      	cmp	r2, r3
100050e4:	d01c      	beq.n	10005120 <stdio_usb_in_chars+0x5c>
100050e6:	0020      	movs	r0, r4
100050e8:	f006 f95e 	bl	1000b3a8 <__mutex_enter_blocking_veneer>
100050ec:	2000      	movs	r0, #0
100050ee:	f001 fe1f 	bl	10006d30 <tud_cdc_n_connected>
100050f2:	2800      	cmp	r0, #0
100050f4:	d107      	bne.n	10005106 <stdio_usb_in_chars+0x42>
100050f6:	2503      	movs	r5, #3
100050f8:	426d      	negs	r5, r5
100050fa:	0020      	movs	r0, r4
100050fc:	f006 f92c 	bl	1000b358 <__mutex_exit_veneer>
10005100:	0028      	movs	r0, r5
10005102:	b002      	add	sp, #8
10005104:	bd70      	pop	{r4, r5, r6, pc}
10005106:	2000      	movs	r0, #0
10005108:	f001 fe2a 	bl	10006d60 <tud_cdc_n_available>
1000510c:	2800      	cmp	r0, #0
1000510e:	d0f2      	beq.n	100050f6 <stdio_usb_in_chars+0x32>
10005110:	002a      	movs	r2, r5
10005112:	0031      	movs	r1, r6
10005114:	2000      	movs	r0, #0
10005116:	f001 fe2f 	bl	10006d78 <tud_cdc_n_read>
1000511a:	1e05      	subs	r5, r0, #0
1000511c:	d0eb      	beq.n	100050f6 <stdio_usb_in_chars+0x32>
1000511e:	e7ec      	b.n	100050fa <stdio_usb_in_chars+0x36>
10005120:	2503      	movs	r5, #3
10005122:	426d      	negs	r5, r5
10005124:	e7ec      	b.n	10005100 <stdio_usb_in_chars+0x3c>
10005126:	46c0      	nop			; (mov r8, r8)
10005128:	20001c10 	.word	0x20001c10

1000512c <stdio_usb_out_chars>:
1000512c:	b5f0      	push	{r4, r5, r6, r7, lr}
1000512e:	46de      	mov	lr, fp
10005130:	464f      	mov	r7, r9
10005132:	4646      	mov	r6, r8
10005134:	b5c0      	push	{r6, r7, lr}
10005136:	4b33      	ldr	r3, [pc, #204]	; (10005204 <stdio_usb_out_chars+0xd8>)
10005138:	b082      	sub	sp, #8
1000513a:	4681      	mov	r9, r0
1000513c:	000d      	movs	r5, r1
1000513e:	0018      	movs	r0, r3
10005140:	a901      	add	r1, sp, #4
10005142:	469b      	mov	fp, r3
10005144:	f006 f920 	bl	1000b388 <__mutex_try_enter_veneer>
10005148:	2800      	cmp	r0, #0
1000514a:	d108      	bne.n	1000515e <stdio_usb_out_chars+0x32>
1000514c:	23d0      	movs	r3, #208	; 0xd0
1000514e:	061b      	lsls	r3, r3, #24
10005150:	681b      	ldr	r3, [r3, #0]
10005152:	9a01      	ldr	r2, [sp, #4]
10005154:	429a      	cmp	r2, r3
10005156:	d04f      	beq.n	100051f8 <stdio_usb_out_chars+0xcc>
10005158:	4658      	mov	r0, fp
1000515a:	f006 f925 	bl	1000b3a8 <__mutex_enter_blocking_veneer>
1000515e:	2000      	movs	r0, #0
10005160:	f001 fde6 	bl	10006d30 <tud_cdc_n_connected>
10005164:	2800      	cmp	r0, #0
10005166:	d03f      	beq.n	100051e8 <stdio_usb_out_chars+0xbc>
10005168:	2400      	movs	r4, #0
1000516a:	2d00      	cmp	r5, #0
1000516c:	dd41      	ble.n	100051f2 <stdio_usb_out_chars+0xc6>
1000516e:	4e26      	ldr	r6, [pc, #152]	; (10005208 <stdio_usb_out_chars+0xdc>)
10005170:	e011      	b.n	10005196 <stdio_usb_out_chars+0x6a>
10005172:	464b      	mov	r3, r9
10005174:	2000      	movs	r0, #0
10005176:	1919      	adds	r1, r3, r4
10005178:	f001 fe72 	bl	10006e60 <tud_cdc_n_write>
1000517c:	4680      	mov	r8, r0
1000517e:	f000 fe65 	bl	10005e4c <tud_task>
10005182:	2000      	movs	r0, #0
10005184:	f001 fe30 	bl	10006de8 <tud_cdc_n_write_flush>
10005188:	f7fc fc84 	bl	10001a94 <time_us_64>
1000518c:	6030      	str	r0, [r6, #0]
1000518e:	6071      	str	r1, [r6, #4]
10005190:	4444      	add	r4, r8
10005192:	42ac      	cmp	r4, r5
10005194:	da2d      	bge.n	100051f2 <stdio_usb_out_chars+0xc6>
10005196:	2000      	movs	r0, #0
10005198:	f001 fe7c 	bl	10006e94 <tud_cdc_n_write_available>
1000519c:	1b2f      	subs	r7, r5, r4
1000519e:	0002      	movs	r2, r0
100051a0:	42b8      	cmp	r0, r7
100051a2:	dd00      	ble.n	100051a6 <stdio_usb_out_chars+0x7a>
100051a4:	003a      	movs	r2, r7
100051a6:	2a00      	cmp	r2, #0
100051a8:	d1e3      	bne.n	10005172 <stdio_usb_out_chars+0x46>
100051aa:	f000 fe4f 	bl	10005e4c <tud_task>
100051ae:	2000      	movs	r0, #0
100051b0:	f001 fe1a 	bl	10006de8 <tud_cdc_n_write_flush>
100051b4:	2000      	movs	r0, #0
100051b6:	f001 fdbb 	bl	10006d30 <tud_cdc_n_connected>
100051ba:	2800      	cmp	r0, #0
100051bc:	d019      	beq.n	100051f2 <stdio_usb_out_chars+0xc6>
100051be:	2000      	movs	r0, #0
100051c0:	f001 fe68 	bl	10006e94 <tud_cdc_n_write_available>
100051c4:	2800      	cmp	r0, #0
100051c6:	d1e4      	bne.n	10005192 <stdio_usb_out_chars+0x66>
100051c8:	f7fc fc64 	bl	10001a94 <time_us_64>
100051cc:	6832      	ldr	r2, [r6, #0]
100051ce:	6873      	ldr	r3, [r6, #4]
100051d0:	000f      	movs	r7, r1
100051d2:	2100      	movs	r1, #0
100051d4:	4684      	mov	ip, r0
100051d6:	480d      	ldr	r0, [pc, #52]	; (1000520c <stdio_usb_out_chars+0xe0>)
100051d8:	1812      	adds	r2, r2, r0
100051da:	414b      	adcs	r3, r1
100051dc:	429f      	cmp	r7, r3
100051de:	d808      	bhi.n	100051f2 <stdio_usb_out_chars+0xc6>
100051e0:	d1d7      	bne.n	10005192 <stdio_usb_out_chars+0x66>
100051e2:	4594      	cmp	ip, r2
100051e4:	d9d5      	bls.n	10005192 <stdio_usb_out_chars+0x66>
100051e6:	e004      	b.n	100051f2 <stdio_usb_out_chars+0xc6>
100051e8:	2000      	movs	r0, #0
100051ea:	2100      	movs	r1, #0
100051ec:	4b06      	ldr	r3, [pc, #24]	; (10005208 <stdio_usb_out_chars+0xdc>)
100051ee:	6018      	str	r0, [r3, #0]
100051f0:	6059      	str	r1, [r3, #4]
100051f2:	4658      	mov	r0, fp
100051f4:	f006 f8b0 	bl	1000b358 <__mutex_exit_veneer>
100051f8:	b002      	add	sp, #8
100051fa:	bce0      	pop	{r5, r6, r7}
100051fc:	46bb      	mov	fp, r7
100051fe:	46b1      	mov	r9, r6
10005200:	46a8      	mov	r8, r5
10005202:	bdf0      	pop	{r4, r5, r6, r7, pc}
10005204:	20001c10 	.word	0x20001c10
10005208:	20000e30 	.word	0x20000e30
1000520c:	0007a120 	.word	0x0007a120

10005210 <timer_task>:
10005210:	b510      	push	{r4, lr}
10005212:	4b04      	ldr	r3, [pc, #16]	; (10005224 <timer_task+0x14>)
10005214:	7818      	ldrb	r0, [r3, #0]
10005216:	f7fb fd9f 	bl	10000d58 <irq_set_pending>
1000521a:	20fa      	movs	r0, #250	; 0xfa
1000521c:	2100      	movs	r1, #0
1000521e:	0080      	lsls	r0, r0, #2
10005220:	bd10      	pop	{r4, pc}
10005222:	46c0      	nop			; (mov r8, r8)
10005224:	20001c4f 	.word	0x20001c4f

10005228 <usb_irq>:
10005228:	b510      	push	{r4, lr}
1000522a:	4b02      	ldr	r3, [pc, #8]	; (10005234 <usb_irq+0xc>)
1000522c:	7818      	ldrb	r0, [r3, #0]
1000522e:	f7fb fd93 	bl	10000d58 <irq_set_pending>
10005232:	bd10      	pop	{r4, pc}
10005234:	20001c4f 	.word	0x20001c4f

10005238 <low_priority_worker_irq>:
10005238:	b510      	push	{r4, lr}
1000523a:	4c07      	ldr	r4, [pc, #28]	; (10005258 <low_priority_worker_irq+0x20>)
1000523c:	2100      	movs	r1, #0
1000523e:	0020      	movs	r0, r4
10005240:	f006 f8a2 	bl	1000b388 <__mutex_try_enter_veneer>
10005244:	2800      	cmp	r0, #0
10005246:	d100      	bne.n	1000524a <low_priority_worker_irq+0x12>
10005248:	bd10      	pop	{r4, pc}
1000524a:	f000 fdff 	bl	10005e4c <tud_task>
1000524e:	0020      	movs	r0, r4
10005250:	f006 f882 	bl	1000b358 <__mutex_exit_veneer>
10005254:	e7f8      	b.n	10005248 <low_priority_worker_irq+0x10>
10005256:	46c0      	nop			; (mov r8, r8)
10005258:	20001c10 	.word	0x20001c10

1000525c <stdio_usb_init>:
1000525c:	b5f0      	push	{r4, r5, r6, r7, lr}
1000525e:	4b24      	ldr	r3, [pc, #144]	; (100052f0 <stdio_usb_init+0x94>)
10005260:	b085      	sub	sp, #20
10005262:	781b      	ldrb	r3, [r3, #0]
10005264:	f001 fffe 	bl	10007264 <tusb_init>
10005268:	4822      	ldr	r0, [pc, #136]	; (100052f4 <stdio_usb_init+0x98>)
1000526a:	f7fc fec3 	bl	10001ff4 <mutex_init>
1000526e:	2001      	movs	r0, #1
10005270:	f7fb fffa 	bl	10001268 <user_irq_claim_unused>
10005274:	23ff      	movs	r3, #255	; 0xff
10005276:	4c20      	ldr	r4, [pc, #128]	; (100052f8 <stdio_usb_init+0x9c>)
10005278:	4920      	ldr	r1, [pc, #128]	; (100052fc <stdio_usb_init+0xa0>)
1000527a:	7020      	strb	r0, [r4, #0]
1000527c:	4018      	ands	r0, r3
1000527e:	f7fb fd91 	bl	10000da4 <irq_set_exclusive_handler>
10005282:	7820      	ldrb	r0, [r4, #0]
10005284:	2101      	movs	r1, #1
10005286:	f7fb fd55 	bl	10000d34 <irq_set_enabled>
1000528a:	2005      	movs	r0, #5
1000528c:	f7fb fd6c 	bl	10000d68 <irq_has_shared_handler>
10005290:	1e04      	subs	r4, r0, #0
10005292:	d00c      	beq.n	100052ae <stdio_usb_init+0x52>
10005294:	2200      	movs	r2, #0
10005296:	2005      	movs	r0, #5
10005298:	4919      	ldr	r1, [pc, #100]	; (10005300 <stdio_usb_init+0xa4>)
1000529a:	f7fb fdad 	bl	10000df8 <irq_add_shared_handler>
1000529e:	2101      	movs	r1, #1
100052a0:	4818      	ldr	r0, [pc, #96]	; (10005304 <stdio_usb_init+0xa8>)
100052a2:	f7ff fe0b 	bl	10004ebc <stdio_set_driver_enabled>
100052a6:	2401      	movs	r4, #1
100052a8:	0020      	movs	r0, r4
100052aa:	b005      	add	sp, #20
100052ac:	bdf0      	pop	{r4, r5, r6, r7, pc}
100052ae:	f7fc fa51 	bl	10001754 <alarm_pool_get_default>
100052b2:	0005      	movs	r5, r0
100052b4:	f7fc fbee 	bl	10001a94 <time_us_64>
100052b8:	22fa      	movs	r2, #250	; 0xfa
100052ba:	0006      	movs	r6, r0
100052bc:	000f      	movs	r7, r1
100052be:	2300      	movs	r3, #0
100052c0:	0092      	lsls	r2, r2, #2
100052c2:	1992      	adds	r2, r2, r6
100052c4:	417b      	adcs	r3, r7
100052c6:	4299      	cmp	r1, r3
100052c8:	d80e      	bhi.n	100052e8 <stdio_usb_init+0x8c>
100052ca:	d00b      	beq.n	100052e4 <stdio_usb_init+0x88>
100052cc:	2101      	movs	r1, #1
100052ce:	9102      	str	r1, [sp, #8]
100052d0:	2100      	movs	r1, #0
100052d2:	9101      	str	r1, [sp, #4]
100052d4:	490c      	ldr	r1, [pc, #48]	; (10005308 <stdio_usb_init+0xac>)
100052d6:	0028      	movs	r0, r5
100052d8:	9100      	str	r1, [sp, #0]
100052da:	f7fc fa3f 	bl	1000175c <alarm_pool_add_alarm_at>
100052de:	2800      	cmp	r0, #0
100052e0:	d0e2      	beq.n	100052a8 <stdio_usb_init+0x4c>
100052e2:	e7dc      	b.n	1000529e <stdio_usb_init+0x42>
100052e4:	4290      	cmp	r0, r2
100052e6:	d9f1      	bls.n	100052cc <stdio_usb_init+0x70>
100052e8:	2201      	movs	r2, #1
100052ea:	4252      	negs	r2, r2
100052ec:	17d3      	asrs	r3, r2, #31
100052ee:	e7ed      	b.n	100052cc <stdio_usb_init+0x70>
100052f0:	1000ba38 	.word	0x1000ba38
100052f4:	20001c10 	.word	0x20001c10
100052f8:	20001c4f 	.word	0x20001c4f
100052fc:	10005239 	.word	0x10005239
10005300:	10005229 	.word	0x10005229
10005304:	20000430 	.word	0x20000430
10005308:	10005211 	.word	0x10005211

1000530c <tud_descriptor_device_cb>:
1000530c:	4800      	ldr	r0, [pc, #0]	; (10005310 <tud_descriptor_device_cb+0x4>)
1000530e:	4770      	bx	lr
10005310:	1000b8a8 	.word	0x1000b8a8

10005314 <tud_descriptor_configuration_cb>:
10005314:	4800      	ldr	r0, [pc, #0]	; (10005318 <tud_descriptor_configuration_cb+0x4>)
10005316:	4770      	bx	lr
10005318:	1000b854 	.word	0x1000b854

1000531c <tud_descriptor_string_cb>:
1000531c:	b570      	push	{r4, r5, r6, lr}
1000531e:	0004      	movs	r4, r0
10005320:	4817      	ldr	r0, [pc, #92]	; (10005380 <tud_descriptor_string_cb+0x64>)
10005322:	7803      	ldrb	r3, [r0, #0]
10005324:	2b00      	cmp	r3, #0
10005326:	d021      	beq.n	1000536c <tud_descriptor_string_cb+0x50>
10005328:	2c00      	cmp	r4, #0
1000532a:	d106      	bne.n	1000533a <tud_descriptor_string_cb+0x1e>
1000532c:	24c1      	movs	r4, #193	; 0xc1
1000532e:	4815      	ldr	r0, [pc, #84]	; (10005384 <tud_descriptor_string_cb+0x68>)
10005330:	4b15      	ldr	r3, [pc, #84]	; (10005388 <tud_descriptor_string_cb+0x6c>)
10005332:	00a4      	lsls	r4, r4, #2
10005334:	8043      	strh	r3, [r0, #2]
10005336:	8004      	strh	r4, [r0, #0]
10005338:	bd70      	pop	{r4, r5, r6, pc}
1000533a:	2c05      	cmp	r4, #5
1000533c:	d81d      	bhi.n	1000537a <tud_descriptor_string_cb+0x5e>
1000533e:	4b13      	ldr	r3, [pc, #76]	; (1000538c <tud_descriptor_string_cb+0x70>)
10005340:	4810      	ldr	r0, [pc, #64]	; (10005384 <tud_descriptor_string_cb+0x68>)
10005342:	00a4      	lsls	r4, r4, #2
10005344:	58e5      	ldr	r5, [r4, r3]
10005346:	1c81      	adds	r1, r0, #2
10005348:	2300      	movs	r3, #0
1000534a:	e004      	b.n	10005356 <tud_descriptor_string_cb+0x3a>
1000534c:	3301      	adds	r3, #1
1000534e:	800a      	strh	r2, [r1, #0]
10005350:	3102      	adds	r1, #2
10005352:	2b13      	cmp	r3, #19
10005354:	d00e      	beq.n	10005374 <tud_descriptor_string_cb+0x58>
10005356:	5cea      	ldrb	r2, [r5, r3]
10005358:	b2dc      	uxtb	r4, r3
1000535a:	2a00      	cmp	r2, #0
1000535c:	d1f6      	bne.n	1000534c <tud_descriptor_string_cb+0x30>
1000535e:	23c0      	movs	r3, #192	; 0xc0
10005360:	3401      	adds	r4, #1
10005362:	b2e4      	uxtb	r4, r4
10005364:	0064      	lsls	r4, r4, #1
10005366:	009b      	lsls	r3, r3, #2
10005368:	431c      	orrs	r4, r3
1000536a:	e7e4      	b.n	10005336 <tud_descriptor_string_cb+0x1a>
1000536c:	2111      	movs	r1, #17
1000536e:	f002 fa0f 	bl	10007790 <pico_get_unique_board_id_string>
10005372:	e7d9      	b.n	10005328 <tud_descriptor_string_cb+0xc>
10005374:	24ca      	movs	r4, #202	; 0xca
10005376:	00a4      	lsls	r4, r4, #2
10005378:	e7dd      	b.n	10005336 <tud_descriptor_string_cb+0x1a>
1000537a:	2000      	movs	r0, #0
1000537c:	e7dc      	b.n	10005338 <tud_descriptor_string_cb+0x1c>
1000537e:	46c0      	nop			; (mov r8, r8)
10005380:	20001c30 	.word	0x20001c30
10005384:	2000179c 	.word	0x2000179c
10005388:	00000409 	.word	0x00000409
1000538c:	1000b8bc 	.word	0x1000b8bc

10005390 <dcd_rp2040_irq>:
10005390:	b5f0      	push	{r4, r5, r6, r7, lr}
10005392:	2398      	movs	r3, #152	; 0x98
10005394:	4657      	mov	r7, sl
10005396:	4645      	mov	r5, r8
10005398:	46de      	mov	lr, fp
1000539a:	464e      	mov	r6, r9
1000539c:	4a6c      	ldr	r2, [pc, #432]	; (10005550 <dcd_rp2040_irq+0x1c0>)
1000539e:	b5e0      	push	{r5, r6, r7, lr}
100053a0:	58d7      	ldr	r7, [r2, r3]
100053a2:	2580      	movs	r5, #128	; 0x80
100053a4:	003c      	movs	r4, r7
100053a6:	026d      	lsls	r5, r5, #9
100053a8:	3b88      	subs	r3, #136	; 0x88
100053aa:	469a      	mov	sl, r3
100053ac:	b083      	sub	sp, #12
100053ae:	402c      	ands	r4, r5
100053b0:	422f      	tst	r7, r5
100053b2:	d00f      	beq.n	100053d4 <dcd_rp2040_irq+0x44>
100053b4:	2201      	movs	r2, #1
100053b6:	2123      	movs	r1, #35	; 0x23
100053b8:	4b66      	ldr	r3, [pc, #408]	; (10005554 <dcd_rp2040_irq+0x1c4>)
100053ba:	2000      	movs	r0, #0
100053bc:	545a      	strb	r2, [r3, r1]
100053be:	70da      	strb	r2, [r3, #3]
100053c0:	4965      	ldr	r1, [pc, #404]	; (10005558 <dcd_rp2040_irq+0x1c8>)
100053c2:	f001 fa73 	bl	100068ac <dcd_event_setup_received>
100053c6:	2280      	movs	r2, #128	; 0x80
100053c8:	4b64      	ldr	r3, [pc, #400]	; (1000555c <dcd_rp2040_irq+0x1cc>)
100053ca:	0292      	lsls	r2, r2, #10
100053cc:	651a      	str	r2, [r3, #80]	; 0x50
100053ce:	4b64      	ldr	r3, [pc, #400]	; (10005560 <dcd_rp2040_irq+0x1d0>)
100053d0:	002c      	movs	r4, r5
100053d2:	469a      	mov	sl, r3
100053d4:	06fb      	lsls	r3, r7, #27
100053d6:	d417      	bmi.n	10005408 <dcd_rp2040_irq+0x78>
100053d8:	2380      	movs	r3, #128	; 0x80
100053da:	015b      	lsls	r3, r3, #5
100053dc:	421f      	tst	r7, r3
100053de:	d145      	bne.n	1000546c <dcd_rp2040_irq+0xdc>
100053e0:	2380      	movs	r3, #128	; 0x80
100053e2:	01db      	lsls	r3, r3, #7
100053e4:	421f      	tst	r7, r3
100053e6:	d000      	beq.n	100053ea <dcd_rp2040_irq+0x5a>
100053e8:	e088      	b.n	100054fc <dcd_rp2040_irq+0x16c>
100053ea:	2380      	movs	r3, #128	; 0x80
100053ec:	021b      	lsls	r3, r3, #8
100053ee:	421f      	tst	r7, r3
100053f0:	d000      	beq.n	100053f4 <dcd_rp2040_irq+0x64>
100053f2:	e091      	b.n	10005518 <dcd_rp2040_irq+0x188>
100053f4:	42bc      	cmp	r4, r7
100053f6:	d000      	beq.n	100053fa <dcd_rp2040_irq+0x6a>
100053f8:	e0a5      	b.n	10005546 <dcd_rp2040_irq+0x1b6>
100053fa:	b003      	add	sp, #12
100053fc:	bcf0      	pop	{r4, r5, r6, r7}
100053fe:	46bb      	mov	fp, r7
10005400:	46b2      	mov	sl, r6
10005402:	46a9      	mov	r9, r5
10005404:	46a0      	mov	r8, r4
10005406:	bdf0      	pop	{r4, r5, r6, r7, pc}
10005408:	4b51      	ldr	r3, [pc, #324]	; (10005550 <dcd_rp2040_irq+0x1c0>)
1000540a:	6d9b      	ldr	r3, [r3, #88]	; 0x58
1000540c:	4698      	mov	r8, r3
1000540e:	2b00      	cmp	r3, #0
10005410:	d027      	beq.n	10005462 <dcd_rp2040_irq+0xd2>
10005412:	4b52      	ldr	r3, [pc, #328]	; (1000555c <dcd_rp2040_irq+0x1cc>)
10005414:	2400      	movs	r4, #0
10005416:	469b      	mov	fp, r3
10005418:	2301      	movs	r3, #1
1000541a:	4699      	mov	r9, r3
1000541c:	4643      	mov	r3, r8
1000541e:	2601      	movs	r6, #1
10005420:	46b8      	mov	r8, r7
10005422:	001f      	movs	r7, r3
10005424:	e004      	b.n	10005430 <dcd_rp2040_irq+0xa0>
10005426:	3401      	adds	r4, #1
10005428:	0076      	lsls	r6, r6, #1
1000542a:	b2e4      	uxtb	r4, r4
1000542c:	2c20      	cmp	r4, #32
1000542e:	d017      	beq.n	10005460 <dcd_rp2040_irq+0xd0>
10005430:	4237      	tst	r7, r6
10005432:	d0f8      	beq.n	10005426 <dcd_rp2040_irq+0x96>
10005434:	465b      	mov	r3, fp
10005436:	659e      	str	r6, [r3, #88]	; 0x58
10005438:	464b      	mov	r3, r9
1000543a:	0865      	lsrs	r5, r4, #1
1000543c:	43a3      	bics	r3, r4
1000543e:	006d      	lsls	r5, r5, #1
10005440:	18ed      	adds	r5, r5, r3
10005442:	4b44      	ldr	r3, [pc, #272]	; (10005554 <dcd_rp2040_irq+0x1c4>)
10005444:	016d      	lsls	r5, r5, #5
10005446:	469c      	mov	ip, r3
10005448:	4465      	add	r5, ip
1000544a:	0028      	movs	r0, r5
1000544c:	f000 fb8a 	bl	10005b64 <hw_endpoint_xfer_continue>
10005450:	2800      	cmp	r0, #0
10005452:	d16c      	bne.n	1000552e <dcd_rp2040_irq+0x19e>
10005454:	3401      	adds	r4, #1
10005456:	43b7      	bics	r7, r6
10005458:	b2e4      	uxtb	r4, r4
1000545a:	0076      	lsls	r6, r6, #1
1000545c:	2f00      	cmp	r7, #0
1000545e:	d1e5      	bne.n	1000542c <dcd_rp2040_irq+0x9c>
10005460:	4647      	mov	r7, r8
10005462:	2380      	movs	r3, #128	; 0x80
10005464:	015b      	lsls	r3, r3, #5
10005466:	4654      	mov	r4, sl
10005468:	421f      	tst	r7, r3
1000546a:	d0b9      	beq.n	100053e0 <dcd_rp2040_irq+0x50>
1000546c:	431c      	orrs	r4, r3
1000546e:	2300      	movs	r3, #0
10005470:	4a37      	ldr	r2, [pc, #220]	; (10005550 <dcd_rp2040_irq+0x1c0>)
10005472:	2100      	movs	r1, #0
10005474:	6013      	str	r3, [r2, #0]
10005476:	4a38      	ldr	r2, [pc, #224]	; (10005558 <dcd_rp2040_irq+0x1c8>)
10005478:	483a      	ldr	r0, [pc, #232]	; (10005564 <dcd_rp2040_irq+0x1d4>)
1000547a:	6093      	str	r3, [r2, #8]
1000547c:	60d3      	str	r3, [r2, #12]
1000547e:	4a3a      	ldr	r2, [pc, #232]	; (10005568 <dcd_rp2040_irq+0x1d8>)
10005480:	6093      	str	r3, [r2, #8]
10005482:	60d3      	str	r3, [r2, #12]
10005484:	4a39      	ldr	r2, [pc, #228]	; (1000556c <dcd_rp2040_irq+0x1dc>)
10005486:	6093      	str	r3, [r2, #8]
10005488:	60d3      	str	r3, [r2, #12]
1000548a:	4a39      	ldr	r2, [pc, #228]	; (10005570 <dcd_rp2040_irq+0x1e0>)
1000548c:	6093      	str	r3, [r2, #8]
1000548e:	60d3      	str	r3, [r2, #12]
10005490:	4a38      	ldr	r2, [pc, #224]	; (10005574 <dcd_rp2040_irq+0x1e4>)
10005492:	6093      	str	r3, [r2, #8]
10005494:	60d3      	str	r3, [r2, #12]
10005496:	4a38      	ldr	r2, [pc, #224]	; (10005578 <dcd_rp2040_irq+0x1e8>)
10005498:	6093      	str	r3, [r2, #8]
1000549a:	60d3      	str	r3, [r2, #12]
1000549c:	4a37      	ldr	r2, [pc, #220]	; (1000557c <dcd_rp2040_irq+0x1ec>)
1000549e:	6093      	str	r3, [r2, #8]
100054a0:	60d3      	str	r3, [r2, #12]
100054a2:	4a37      	ldr	r2, [pc, #220]	; (10005580 <dcd_rp2040_irq+0x1f0>)
100054a4:	6093      	str	r3, [r2, #8]
100054a6:	60d3      	str	r3, [r2, #12]
100054a8:	4a36      	ldr	r2, [pc, #216]	; (10005584 <dcd_rp2040_irq+0x1f4>)
100054aa:	6093      	str	r3, [r2, #8]
100054ac:	60d3      	str	r3, [r2, #12]
100054ae:	4a36      	ldr	r2, [pc, #216]	; (10005588 <dcd_rp2040_irq+0x1f8>)
100054b0:	6093      	str	r3, [r2, #8]
100054b2:	60d3      	str	r3, [r2, #12]
100054b4:	4a35      	ldr	r2, [pc, #212]	; (1000558c <dcd_rp2040_irq+0x1fc>)
100054b6:	6093      	str	r3, [r2, #8]
100054b8:	60d3      	str	r3, [r2, #12]
100054ba:	4a35      	ldr	r2, [pc, #212]	; (10005590 <dcd_rp2040_irq+0x200>)
100054bc:	6093      	str	r3, [r2, #8]
100054be:	60d3      	str	r3, [r2, #12]
100054c0:	4a34      	ldr	r2, [pc, #208]	; (10005594 <dcd_rp2040_irq+0x204>)
100054c2:	6093      	str	r3, [r2, #8]
100054c4:	60d3      	str	r3, [r2, #12]
100054c6:	4a34      	ldr	r2, [pc, #208]	; (10005598 <dcd_rp2040_irq+0x208>)
100054c8:	6093      	str	r3, [r2, #8]
100054ca:	60d3      	str	r3, [r2, #12]
100054cc:	4a33      	ldr	r2, [pc, #204]	; (1000559c <dcd_rp2040_irq+0x20c>)
100054ce:	6093      	str	r3, [r2, #8]
100054d0:	60d3      	str	r3, [r2, #12]
100054d2:	22f0      	movs	r2, #240	; 0xf0
100054d4:	0092      	lsls	r2, r2, #2
100054d6:	f7ff fb65 	bl	10004ba4 <__wrap_memset>
100054da:	4b31      	ldr	r3, [pc, #196]	; (100055a0 <dcd_rp2040_irq+0x210>)
100054dc:	4a31      	ldr	r2, [pc, #196]	; (100055a4 <dcd_rp2040_irq+0x214>)
100054de:	2100      	movs	r1, #0
100054e0:	601a      	str	r2, [r3, #0]
100054e2:	2000      	movs	r0, #0
100054e4:	2201      	movs	r2, #1
100054e6:	f001 f9b7 	bl	10006858 <dcd_event_bus_reset>
100054ea:	2280      	movs	r2, #128	; 0x80
100054ec:	4b1b      	ldr	r3, [pc, #108]	; (1000555c <dcd_rp2040_irq+0x1cc>)
100054ee:	0312      	lsls	r2, r2, #12
100054f0:	651a      	str	r2, [r3, #80]	; 0x50
100054f2:	2380      	movs	r3, #128	; 0x80
100054f4:	01db      	lsls	r3, r3, #7
100054f6:	421f      	tst	r7, r3
100054f8:	d100      	bne.n	100054fc <dcd_rp2040_irq+0x16c>
100054fa:	e776      	b.n	100053ea <dcd_rp2040_irq+0x5a>
100054fc:	2201      	movs	r2, #1
100054fe:	2104      	movs	r1, #4
10005500:	2000      	movs	r0, #0
10005502:	431c      	orrs	r4, r3
10005504:	f001 f918 	bl	10006738 <dcd_event_bus_signal>
10005508:	2210      	movs	r2, #16
1000550a:	4b14      	ldr	r3, [pc, #80]	; (1000555c <dcd_rp2040_irq+0x1cc>)
1000550c:	651a      	str	r2, [r3, #80]	; 0x50
1000550e:	2380      	movs	r3, #128	; 0x80
10005510:	021b      	lsls	r3, r3, #8
10005512:	421f      	tst	r7, r3
10005514:	d100      	bne.n	10005518 <dcd_rp2040_irq+0x188>
10005516:	e76d      	b.n	100053f4 <dcd_rp2040_irq+0x64>
10005518:	2201      	movs	r2, #1
1000551a:	2105      	movs	r1, #5
1000551c:	2000      	movs	r0, #0
1000551e:	431c      	orrs	r4, r3
10005520:	f001 f90a 	bl	10006738 <dcd_event_bus_signal>
10005524:	2280      	movs	r2, #128	; 0x80
10005526:	4b0d      	ldr	r3, [pc, #52]	; (1000555c <dcd_rp2040_irq+0x1cc>)
10005528:	0112      	lsls	r2, r2, #4
1000552a:	651a      	str	r2, [r3, #80]	; 0x50
1000552c:	e762      	b.n	100053f4 <dcd_rp2040_irq+0x64>
1000552e:	464b      	mov	r3, r9
10005530:	8aaa      	ldrh	r2, [r5, #20]
10005532:	78a9      	ldrb	r1, [r5, #2]
10005534:	2000      	movs	r0, #0
10005536:	9300      	str	r3, [sp, #0]
10005538:	2300      	movs	r3, #0
1000553a:	f001 f9df 	bl	100068fc <dcd_event_xfer_complete>
1000553e:	0028      	movs	r0, r5
10005540:	f000 fa4c 	bl	100059dc <hw_endpoint_reset_transfer>
10005544:	e786      	b.n	10005454 <dcd_rp2040_irq+0xc4>
10005546:	0021      	movs	r1, r4
10005548:	4817      	ldr	r0, [pc, #92]	; (100055a8 <dcd_rp2040_irq+0x218>)
1000554a:	4079      	eors	r1, r7
1000554c:	f7fc fe12 	bl	10002174 <panic>
10005550:	50110000 	.word	0x50110000
10005554:	200017dc 	.word	0x200017dc
10005558:	50100000 	.word	0x50100000
1000555c:	50113000 	.word	0x50113000
10005560:	00010010 	.word	0x00010010
10005564:	2000181c 	.word	0x2000181c
10005568:	50100008 	.word	0x50100008
1000556c:	50100010 	.word	0x50100010
10005570:	50100018 	.word	0x50100018
10005574:	50100020 	.word	0x50100020
10005578:	50100028 	.word	0x50100028
1000557c:	50100030 	.word	0x50100030
10005580:	50100038 	.word	0x50100038
10005584:	50100040 	.word	0x50100040
10005588:	50100048 	.word	0x50100048
1000558c:	50100050 	.word	0x50100050
10005590:	50100058 	.word	0x50100058
10005594:	50100060 	.word	0x50100060
10005598:	50100068 	.word	0x50100068
1000559c:	50100070 	.word	0x50100070
100055a0:	20001be4 	.word	0x20001be4
100055a4:	50100180 	.word	0x50100180
100055a8:	1000b8d4 	.word	0x1000b8d4

100055ac <dcd_int_enable>:
100055ac:	b510      	push	{r4, lr}
100055ae:	2101      	movs	r1, #1
100055b0:	2005      	movs	r0, #5
100055b2:	f7fb fbbf 	bl	10000d34 <irq_set_enabled>
100055b6:	bd10      	pop	{r4, pc}

100055b8 <dcd_set_address>:
100055b8:	b510      	push	{r4, lr}
100055ba:	2200      	movs	r2, #0
100055bc:	2100      	movs	r1, #0
100055be:	4802      	ldr	r0, [pc, #8]	; (100055c8 <dcd_set_address+0x10>)
100055c0:	f000 fa34 	bl	10005a2c <hw_endpoint_xfer_start>
100055c4:	bd10      	pop	{r4, pc}
100055c6:	46c0      	nop			; (mov r8, r8)
100055c8:	200017fc 	.word	0x200017fc

100055cc <dcd_connect>:
100055cc:	2280      	movs	r2, #128	; 0x80
100055ce:	4b02      	ldr	r3, [pc, #8]	; (100055d8 <dcd_connect+0xc>)
100055d0:	0252      	lsls	r2, r2, #9
100055d2:	64da      	str	r2, [r3, #76]	; 0x4c
100055d4:	4770      	bx	lr
100055d6:	46c0      	nop			; (mov r8, r8)
100055d8:	50112000 	.word	0x50112000

100055dc <dcd_init>:
100055dc:	b5f0      	push	{r4, r5, r6, r7, lr}
100055de:	46c6      	mov	lr, r8
100055e0:	b500      	push	{lr}
100055e2:	0006      	movs	r6, r0
100055e4:	f000 f9d4 	bl	10005990 <rp2040_usb_init>
100055e8:	230c      	movs	r3, #12
100055ea:	4d35      	ldr	r5, [pc, #212]	; (100056c0 <dcd_init+0xe4>)
100055ec:	2005      	movs	r0, #5
100055ee:	67ab      	str	r3, [r5, #120]	; 0x78
100055f0:	4934      	ldr	r1, [pc, #208]	; (100056c4 <dcd_init+0xe8>)
100055f2:	f7fb fbd7 	bl	10000da4 <irq_set_exclusive_handler>
100055f6:	2340      	movs	r3, #64	; 0x40
100055f8:	4698      	mov	r8, r3
100055fa:	4c33      	ldr	r4, [pc, #204]	; (100056c8 <dcd_init+0xec>)
100055fc:	2240      	movs	r2, #64	; 0x40
100055fe:	2100      	movs	r1, #0
10005600:	0020      	movs	r0, r4
10005602:	f7ff facf 	bl	10004ba4 <__wrap_memset>
10005606:	4643      	mov	r3, r8
10005608:	2701      	movs	r7, #1
1000560a:	83a3      	strh	r3, [r4, #28]
1000560c:	2121      	movs	r1, #33	; 0x21
1000560e:	2300      	movs	r3, #0
10005610:	4a2e      	ldr	r2, [pc, #184]	; (100056cc <dcd_init+0xf0>)
10005612:	7067      	strb	r7, [r4, #1]
10005614:	60a2      	str	r2, [r4, #8]
10005616:	6013      	str	r3, [r2, #0]
10005618:	5463      	strb	r3, [r4, r1]
1000561a:	315f      	adds	r1, #95	; 0x5f
1000561c:	8461      	strh	r1, [r4, #34]	; 0x22
1000561e:	4641      	mov	r1, r8
10005620:	87a1      	strh	r1, [r4, #60]	; 0x3c
10005622:	3902      	subs	r1, #2
10005624:	5463      	strb	r3, [r4, r1]
10005626:	4a2a      	ldr	r2, [pc, #168]	; (100056d0 <dcd_init+0xf4>)
10005628:	492a      	ldr	r1, [pc, #168]	; (100056d4 <dcd_init+0xf8>)
1000562a:	6063      	str	r3, [r4, #4]
1000562c:	60e2      	str	r2, [r4, #12]
1000562e:	62a1      	str	r1, [r4, #40]	; 0x28
10005630:	600b      	str	r3, [r1, #0]
10005632:	62e2      	str	r2, [r4, #44]	; 0x2c
10005634:	4a28      	ldr	r2, [pc, #160]	; (100056d8 <dcd_init+0xfc>)
10005636:	6263      	str	r3, [r4, #36]	; 0x24
10005638:	6093      	str	r3, [r2, #8]
1000563a:	60d3      	str	r3, [r2, #12]
1000563c:	4a27      	ldr	r2, [pc, #156]	; (100056dc <dcd_init+0x100>)
1000563e:	0020      	movs	r0, r4
10005640:	6093      	str	r3, [r2, #8]
10005642:	60d3      	str	r3, [r2, #12]
10005644:	4a26      	ldr	r2, [pc, #152]	; (100056e0 <dcd_init+0x104>)
10005646:	2100      	movs	r1, #0
10005648:	6093      	str	r3, [r2, #8]
1000564a:	60d3      	str	r3, [r2, #12]
1000564c:	4a25      	ldr	r2, [pc, #148]	; (100056e4 <dcd_init+0x108>)
1000564e:	3040      	adds	r0, #64	; 0x40
10005650:	6093      	str	r3, [r2, #8]
10005652:	60d3      	str	r3, [r2, #12]
10005654:	4a24      	ldr	r2, [pc, #144]	; (100056e8 <dcd_init+0x10c>)
10005656:	6093      	str	r3, [r2, #8]
10005658:	60d3      	str	r3, [r2, #12]
1000565a:	4a24      	ldr	r2, [pc, #144]	; (100056ec <dcd_init+0x110>)
1000565c:	6093      	str	r3, [r2, #8]
1000565e:	60d3      	str	r3, [r2, #12]
10005660:	4a23      	ldr	r2, [pc, #140]	; (100056f0 <dcd_init+0x114>)
10005662:	6093      	str	r3, [r2, #8]
10005664:	60d3      	str	r3, [r2, #12]
10005666:	4a23      	ldr	r2, [pc, #140]	; (100056f4 <dcd_init+0x118>)
10005668:	6093      	str	r3, [r2, #8]
1000566a:	60d3      	str	r3, [r2, #12]
1000566c:	4a22      	ldr	r2, [pc, #136]	; (100056f8 <dcd_init+0x11c>)
1000566e:	6093      	str	r3, [r2, #8]
10005670:	60d3      	str	r3, [r2, #12]
10005672:	4a22      	ldr	r2, [pc, #136]	; (100056fc <dcd_init+0x120>)
10005674:	6093      	str	r3, [r2, #8]
10005676:	60d3      	str	r3, [r2, #12]
10005678:	4a21      	ldr	r2, [pc, #132]	; (10005700 <dcd_init+0x124>)
1000567a:	6093      	str	r3, [r2, #8]
1000567c:	60d3      	str	r3, [r2, #12]
1000567e:	4a21      	ldr	r2, [pc, #132]	; (10005704 <dcd_init+0x128>)
10005680:	6093      	str	r3, [r2, #8]
10005682:	60d3      	str	r3, [r2, #12]
10005684:	4a20      	ldr	r2, [pc, #128]	; (10005708 <dcd_init+0x12c>)
10005686:	6093      	str	r3, [r2, #8]
10005688:	60d3      	str	r3, [r2, #12]
1000568a:	4a20      	ldr	r2, [pc, #128]	; (1000570c <dcd_init+0x130>)
1000568c:	6093      	str	r3, [r2, #8]
1000568e:	60d3      	str	r3, [r2, #12]
10005690:	4a1f      	ldr	r2, [pc, #124]	; (10005710 <dcd_init+0x134>)
10005692:	6093      	str	r3, [r2, #8]
10005694:	60d3      	str	r3, [r2, #12]
10005696:	22f0      	movs	r2, #240	; 0xf0
10005698:	0092      	lsls	r2, r2, #2
1000569a:	f7ff fa83 	bl	10004ba4 <__wrap_memset>
1000569e:	4b1d      	ldr	r3, [pc, #116]	; (10005714 <dcd_init+0x138>)
100056a0:	4a1d      	ldr	r2, [pc, #116]	; (10005718 <dcd_init+0x13c>)
100056a2:	0030      	movs	r0, r6
100056a4:	601a      	str	r2, [r3, #0]
100056a6:	2380      	movs	r3, #128	; 0x80
100056a8:	059b      	lsls	r3, r3, #22
100056aa:	642f      	str	r7, [r5, #64]	; 0x40
100056ac:	64eb      	str	r3, [r5, #76]	; 0x4c
100056ae:	2390      	movs	r3, #144	; 0x90
100056b0:	4a1a      	ldr	r2, [pc, #104]	; (1000571c <dcd_init+0x140>)
100056b2:	50ea      	str	r2, [r5, r3]
100056b4:	f7ff ff8a 	bl	100055cc <dcd_connect>
100056b8:	bc80      	pop	{r7}
100056ba:	46b8      	mov	r8, r7
100056bc:	bdf0      	pop	{r4, r5, r6, r7, pc}
100056be:	46c0      	nop			; (mov r8, r8)
100056c0:	50110000 	.word	0x50110000
100056c4:	10005391 	.word	0x10005391
100056c8:	200017dc 	.word	0x200017dc
100056cc:	50100084 	.word	0x50100084
100056d0:	50100100 	.word	0x50100100
100056d4:	50100080 	.word	0x50100080
100056d8:	50100000 	.word	0x50100000
100056dc:	50100008 	.word	0x50100008
100056e0:	50100010 	.word	0x50100010
100056e4:	50100018 	.word	0x50100018
100056e8:	50100020 	.word	0x50100020
100056ec:	50100028 	.word	0x50100028
100056f0:	50100030 	.word	0x50100030
100056f4:	50100038 	.word	0x50100038
100056f8:	50100040 	.word	0x50100040
100056fc:	50100048 	.word	0x50100048
10005700:	50100050 	.word	0x50100050
10005704:	50100058 	.word	0x50100058
10005708:	50100060 	.word	0x50100060
1000570c:	50100068 	.word	0x50100068
10005710:	50100070 	.word	0x50100070
10005714:	20001be4 	.word	0x20001be4
10005718:	50100180 	.word	0x50100180
1000571c:	0001d010 	.word	0x0001d010

10005720 <dcd_edpt0_status_complete>:
10005720:	780b      	ldrb	r3, [r1, #0]
10005722:	065b      	lsls	r3, r3, #25
10005724:	d102      	bne.n	1000572c <dcd_edpt0_status_complete+0xc>
10005726:	784b      	ldrb	r3, [r1, #1]
10005728:	2b05      	cmp	r3, #5
1000572a:	d000      	beq.n	1000572e <dcd_edpt0_status_complete+0xe>
1000572c:	4770      	bx	lr
1000572e:	788a      	ldrb	r2, [r1, #2]
10005730:	4b01      	ldr	r3, [pc, #4]	; (10005738 <dcd_edpt0_status_complete+0x18>)
10005732:	601a      	str	r2, [r3, #0]
10005734:	e7fa      	b.n	1000572c <dcd_edpt0_status_complete+0xc>
10005736:	46c0      	nop			; (mov r8, r8)
10005738:	50110000 	.word	0x50110000

1000573c <dcd_edpt_open>:
1000573c:	b5f0      	push	{r4, r5, r6, r7, lr}
1000573e:	46ce      	mov	lr, r9
10005740:	4647      	mov	r7, r8
10005742:	2307      	movs	r3, #7
10005744:	b580      	push	{r7, lr}
10005746:	7948      	ldrb	r0, [r1, #5]
10005748:	788e      	ldrb	r6, [r1, #2]
1000574a:	790a      	ldrb	r2, [r1, #4]
1000574c:	4003      	ands	r3, r0
1000574e:	78c8      	ldrb	r0, [r1, #3]
10005750:	217f      	movs	r1, #127	; 0x7f
10005752:	0780      	lsls	r0, r0, #30
10005754:	4031      	ands	r1, r6
10005756:	021b      	lsls	r3, r3, #8
10005758:	09f4      	lsrs	r4, r6, #7
1000575a:	4313      	orrs	r3, r2
1000575c:	004f      	lsls	r7, r1, #1
1000575e:	0f82      	lsrs	r2, r0, #30
10005760:	4694      	mov	ip, r2
10005762:	4691      	mov	r9, r2
10005764:	4d2a      	ldr	r5, [pc, #168]	; (10005810 <dcd_edpt_open+0xd4>)
10005766:	193a      	adds	r2, r7, r4
10005768:	0152      	lsls	r2, r2, #5
1000576a:	18aa      	adds	r2, r5, r2
1000576c:	7096      	strb	r6, [r2, #2]
1000576e:	2601      	movs	r6, #1
10005770:	4066      	eors	r6, r4
10005772:	7056      	strb	r6, [r2, #1]
10005774:	4660      	mov	r0, ip
10005776:	2600      	movs	r6, #0
10005778:	8393      	strh	r3, [r2, #28]
1000577a:	70d6      	strb	r6, [r2, #3]
1000577c:	7790      	strb	r0, [r2, #30]
1000577e:	00ca      	lsls	r2, r1, #3
10005780:	2c01      	cmp	r4, #1
10005782:	d029      	beq.n	100057d8 <dcd_edpt_open+0x9c>
10005784:	4823      	ldr	r0, [pc, #140]	; (10005814 <dcd_edpt_open+0xd8>)
10005786:	4684      	mov	ip, r0
10005788:	0188      	lsls	r0, r1, #6
1000578a:	4462      	add	r2, ip
1000578c:	4684      	mov	ip, r0
1000578e:	44ac      	add	ip, r5
10005790:	4660      	mov	r0, ip
10005792:	6082      	str	r2, [r0, #8]
10005794:	6016      	str	r6, [r2, #0]
10005796:	2900      	cmp	r1, #0
10005798:	d029      	beq.n	100057ee <dcd_edpt_open+0xb2>
1000579a:	4a1f      	ldr	r2, [pc, #124]	; (10005818 <dcd_edpt_open+0xdc>)
1000579c:	00c9      	lsls	r1, r1, #3
1000579e:	4690      	mov	r8, r2
100057a0:	4441      	add	r1, r8
100057a2:	6041      	str	r1, [r0, #4]
100057a4:	223f      	movs	r2, #63	; 0x3f
100057a6:	333f      	adds	r3, #63	; 0x3f
100057a8:	4393      	bics	r3, r2
100057aa:	464a      	mov	r2, r9
100057ac:	2a02      	cmp	r2, #2
100057ae:	d100      	bne.n	100057b2 <dcd_edpt_open+0x76>
100057b0:	005b      	lsls	r3, r3, #1
100057b2:	491a      	ldr	r1, [pc, #104]	; (1000581c <dcd_edpt_open+0xe0>)
100057b4:	193f      	adds	r7, r7, r4
100057b6:	680a      	ldr	r2, [r1, #0]
100057b8:	017f      	lsls	r7, r7, #5
100057ba:	18d3      	adds	r3, r2, r3
100057bc:	600b      	str	r3, [r1, #0]
100057be:	4b18      	ldr	r3, [pc, #96]	; (10005820 <dcd_edpt_open+0xe4>)
100057c0:	19ed      	adds	r5, r5, r7
100057c2:	4053      	eors	r3, r2
100057c4:	60ea      	str	r2, [r5, #12]
100057c6:	464a      	mov	r2, r9
100057c8:	0690      	lsls	r0, r2, #26
100057ca:	4318      	orrs	r0, r3
100057cc:	2380      	movs	r3, #128	; 0x80
100057ce:	061b      	lsls	r3, r3, #24
100057d0:	4318      	orrs	r0, r3
100057d2:	686b      	ldr	r3, [r5, #4]
100057d4:	6018      	str	r0, [r3, #0]
100057d6:	e010      	b.n	100057fa <dcd_edpt_open+0xbe>
100057d8:	4812      	ldr	r0, [pc, #72]	; (10005824 <dcd_edpt_open+0xe8>)
100057da:	4684      	mov	ip, r0
100057dc:	0188      	lsls	r0, r1, #6
100057de:	4462      	add	r2, ip
100057e0:	4684      	mov	ip, r0
100057e2:	44ac      	add	ip, r5
100057e4:	4660      	mov	r0, ip
100057e6:	6282      	str	r2, [r0, #40]	; 0x28
100057e8:	6016      	str	r6, [r2, #0]
100057ea:	2900      	cmp	r1, #0
100057ec:	d10a      	bne.n	10005804 <dcd_edpt_open+0xc8>
100057ee:	2300      	movs	r3, #0
100057f0:	0164      	lsls	r4, r4, #5
100057f2:	192d      	adds	r5, r5, r4
100057f4:	606b      	str	r3, [r5, #4]
100057f6:	4b0c      	ldr	r3, [pc, #48]	; (10005828 <dcd_edpt_open+0xec>)
100057f8:	60eb      	str	r3, [r5, #12]
100057fa:	2001      	movs	r0, #1
100057fc:	bcc0      	pop	{r6, r7}
100057fe:	46b9      	mov	r9, r7
10005800:	46b0      	mov	r8, r6
10005802:	bdf0      	pop	{r4, r5, r6, r7, pc}
10005804:	4a06      	ldr	r2, [pc, #24]	; (10005820 <dcd_edpt_open+0xe4>)
10005806:	00c9      	lsls	r1, r1, #3
10005808:	4690      	mov	r8, r2
1000580a:	4441      	add	r1, r8
1000580c:	6241      	str	r1, [r0, #36]	; 0x24
1000580e:	e7c9      	b.n	100057a4 <dcd_edpt_open+0x68>
10005810:	200017dc 	.word	0x200017dc
10005814:	50100084 	.word	0x50100084
10005818:	50100004 	.word	0x50100004
1000581c:	20001be4 	.word	0x20001be4
10005820:	50100000 	.word	0x50100000
10005824:	50100080 	.word	0x50100080
10005828:	50100100 	.word	0x50100100

1000582c <dcd_edpt_close_all>:
1000582c:	2300      	movs	r3, #0
1000582e:	4a1c      	ldr	r2, [pc, #112]	; (100058a0 <dcd_edpt_close_all+0x74>)
10005830:	b510      	push	{r4, lr}
10005832:	6093      	str	r3, [r2, #8]
10005834:	60d3      	str	r3, [r2, #12]
10005836:	4a1b      	ldr	r2, [pc, #108]	; (100058a4 <dcd_edpt_close_all+0x78>)
10005838:	2100      	movs	r1, #0
1000583a:	6093      	str	r3, [r2, #8]
1000583c:	60d3      	str	r3, [r2, #12]
1000583e:	4a1a      	ldr	r2, [pc, #104]	; (100058a8 <dcd_edpt_close_all+0x7c>)
10005840:	481a      	ldr	r0, [pc, #104]	; (100058ac <dcd_edpt_close_all+0x80>)
10005842:	6093      	str	r3, [r2, #8]
10005844:	60d3      	str	r3, [r2, #12]
10005846:	4a1a      	ldr	r2, [pc, #104]	; (100058b0 <dcd_edpt_close_all+0x84>)
10005848:	6093      	str	r3, [r2, #8]
1000584a:	60d3      	str	r3, [r2, #12]
1000584c:	4a19      	ldr	r2, [pc, #100]	; (100058b4 <dcd_edpt_close_all+0x88>)
1000584e:	6093      	str	r3, [r2, #8]
10005850:	60d3      	str	r3, [r2, #12]
10005852:	4a19      	ldr	r2, [pc, #100]	; (100058b8 <dcd_edpt_close_all+0x8c>)
10005854:	6093      	str	r3, [r2, #8]
10005856:	60d3      	str	r3, [r2, #12]
10005858:	4a18      	ldr	r2, [pc, #96]	; (100058bc <dcd_edpt_close_all+0x90>)
1000585a:	6093      	str	r3, [r2, #8]
1000585c:	60d3      	str	r3, [r2, #12]
1000585e:	4a18      	ldr	r2, [pc, #96]	; (100058c0 <dcd_edpt_close_all+0x94>)
10005860:	6093      	str	r3, [r2, #8]
10005862:	60d3      	str	r3, [r2, #12]
10005864:	4a17      	ldr	r2, [pc, #92]	; (100058c4 <dcd_edpt_close_all+0x98>)
10005866:	6093      	str	r3, [r2, #8]
10005868:	60d3      	str	r3, [r2, #12]
1000586a:	4a17      	ldr	r2, [pc, #92]	; (100058c8 <dcd_edpt_close_all+0x9c>)
1000586c:	6093      	str	r3, [r2, #8]
1000586e:	60d3      	str	r3, [r2, #12]
10005870:	4a16      	ldr	r2, [pc, #88]	; (100058cc <dcd_edpt_close_all+0xa0>)
10005872:	6093      	str	r3, [r2, #8]
10005874:	60d3      	str	r3, [r2, #12]
10005876:	4a16      	ldr	r2, [pc, #88]	; (100058d0 <dcd_edpt_close_all+0xa4>)
10005878:	6093      	str	r3, [r2, #8]
1000587a:	60d3      	str	r3, [r2, #12]
1000587c:	4a15      	ldr	r2, [pc, #84]	; (100058d4 <dcd_edpt_close_all+0xa8>)
1000587e:	6093      	str	r3, [r2, #8]
10005880:	60d3      	str	r3, [r2, #12]
10005882:	4a15      	ldr	r2, [pc, #84]	; (100058d8 <dcd_edpt_close_all+0xac>)
10005884:	6093      	str	r3, [r2, #8]
10005886:	60d3      	str	r3, [r2, #12]
10005888:	4a14      	ldr	r2, [pc, #80]	; (100058dc <dcd_edpt_close_all+0xb0>)
1000588a:	6093      	str	r3, [r2, #8]
1000588c:	60d3      	str	r3, [r2, #12]
1000588e:	22f0      	movs	r2, #240	; 0xf0
10005890:	0092      	lsls	r2, r2, #2
10005892:	f7ff f987 	bl	10004ba4 <__wrap_memset>
10005896:	4b12      	ldr	r3, [pc, #72]	; (100058e0 <dcd_edpt_close_all+0xb4>)
10005898:	4a12      	ldr	r2, [pc, #72]	; (100058e4 <dcd_edpt_close_all+0xb8>)
1000589a:	601a      	str	r2, [r3, #0]
1000589c:	bd10      	pop	{r4, pc}
1000589e:	46c0      	nop			; (mov r8, r8)
100058a0:	50100000 	.word	0x50100000
100058a4:	50100008 	.word	0x50100008
100058a8:	50100010 	.word	0x50100010
100058ac:	2000181c 	.word	0x2000181c
100058b0:	50100018 	.word	0x50100018
100058b4:	50100020 	.word	0x50100020
100058b8:	50100028 	.word	0x50100028
100058bc:	50100030 	.word	0x50100030
100058c0:	50100038 	.word	0x50100038
100058c4:	50100040 	.word	0x50100040
100058c8:	50100048 	.word	0x50100048
100058cc:	50100050 	.word	0x50100050
100058d0:	50100058 	.word	0x50100058
100058d4:	50100060 	.word	0x50100060
100058d8:	50100068 	.word	0x50100068
100058dc:	50100070 	.word	0x50100070
100058e0:	20001be4 	.word	0x20001be4
100058e4:	50100180 	.word	0x50100180

100058e8 <dcd_edpt_xfer>:
100058e8:	b510      	push	{r4, lr}
100058ea:	207f      	movs	r0, #127	; 0x7f
100058ec:	000c      	movs	r4, r1
100058ee:	4020      	ands	r0, r4
100058f0:	0040      	lsls	r0, r0, #1
100058f2:	09e4      	lsrs	r4, r4, #7
100058f4:	0011      	movs	r1, r2
100058f6:	1900      	adds	r0, r0, r4
100058f8:	001a      	movs	r2, r3
100058fa:	4b03      	ldr	r3, [pc, #12]	; (10005908 <dcd_edpt_xfer+0x20>)
100058fc:	0140      	lsls	r0, r0, #5
100058fe:	18c0      	adds	r0, r0, r3
10005900:	f000 f894 	bl	10005a2c <hw_endpoint_xfer_start>
10005904:	2001      	movs	r0, #1
10005906:	bd10      	pop	{r4, pc}
10005908:	200017dc 	.word	0x200017dc

1000590c <dcd_edpt_stall>:
1000590c:	227f      	movs	r2, #127	; 0x7f
1000590e:	0013      	movs	r3, r2
10005910:	b510      	push	{r4, lr}
10005912:	400b      	ands	r3, r1
10005914:	420a      	tst	r2, r1
10005916:	d00b      	beq.n	10005930 <dcd_edpt_stall+0x24>
10005918:	09c9      	lsrs	r1, r1, #7
1000591a:	2280      	movs	r2, #128	; 0x80
1000591c:	0058      	lsls	r0, r3, #1
1000591e:	1840      	adds	r0, r0, r1
10005920:	4906      	ldr	r1, [pc, #24]	; (1000593c <dcd_edpt_stall+0x30>)
10005922:	0140      	lsls	r0, r0, #5
10005924:	1840      	adds	r0, r0, r1
10005926:	0112      	lsls	r2, r2, #4
10005928:	2100      	movs	r1, #0
1000592a:	f000 f85d 	bl	100059e8 <_hw_endpoint_buffer_control_update32>
1000592e:	bd10      	pop	{r4, pc}
10005930:	2202      	movs	r2, #2
10005932:	4803      	ldr	r0, [pc, #12]	; (10005940 <dcd_edpt_stall+0x34>)
10005934:	09c9      	lsrs	r1, r1, #7
10005936:	1a52      	subs	r2, r2, r1
10005938:	6682      	str	r2, [r0, #104]	; 0x68
1000593a:	e7ee      	b.n	1000591a <dcd_edpt_stall+0xe>
1000593c:	200017dc 	.word	0x200017dc
10005940:	50112000 	.word	0x50112000

10005944 <dcd_edpt_clear_stall>:
10005944:	227f      	movs	r2, #127	; 0x7f
10005946:	0010      	movs	r0, r2
10005948:	b510      	push	{r4, lr}
1000594a:	4008      	ands	r0, r1
1000594c:	420a      	tst	r2, r1
1000594e:	d100      	bne.n	10005952 <dcd_edpt_clear_stall+0xe>
10005950:	bd10      	pop	{r4, pc}
10005952:	2300      	movs	r3, #0
10005954:	09c9      	lsrs	r1, r1, #7
10005956:	0040      	lsls	r0, r0, #1
10005958:	1840      	adds	r0, r0, r1
1000595a:	4904      	ldr	r1, [pc, #16]	; (1000596c <dcd_edpt_clear_stall+0x28>)
1000595c:	0140      	lsls	r0, r0, #5
1000595e:	1808      	adds	r0, r1, r0
10005960:	2200      	movs	r2, #0
10005962:	4903      	ldr	r1, [pc, #12]	; (10005970 <dcd_edpt_clear_stall+0x2c>)
10005964:	70c3      	strb	r3, [r0, #3]
10005966:	f000 f83f 	bl	100059e8 <_hw_endpoint_buffer_control_update32>
1000596a:	e7f1      	b.n	10005950 <dcd_edpt_clear_stall+0xc>
1000596c:	200017dc 	.word	0x200017dc
10005970:	fffff7ff 	.word	0xfffff7ff

10005974 <_hw_endpoint_buffer_control_update32.part.0.isra.0>:
10005974:	217f      	movs	r1, #127	; 0x7f
10005976:	09c3      	lsrs	r3, r0, #7
10005978:	4a03      	ldr	r2, [pc, #12]	; (10005988 <_hw_endpoint_buffer_control_update32.part.0.isra.0+0x14>)
1000597a:	009b      	lsls	r3, r3, #2
1000597c:	4001      	ands	r1, r0
1000597e:	b510      	push	{r4, lr}
10005980:	589a      	ldr	r2, [r3, r2]
10005982:	4802      	ldr	r0, [pc, #8]	; (1000598c <_hw_endpoint_buffer_control_update32.part.0.isra.0+0x18>)
10005984:	f7fc fbf6 	bl	10002174 <panic>
10005988:	20000444 	.word	0x20000444
1000598c:	1000b8e8 	.word	0x1000b8e8

10005990 <rp2040_usb_init>:
10005990:	2280      	movs	r2, #128	; 0x80
10005992:	4b0d      	ldr	r3, [pc, #52]	; (100059c8 <rp2040_usb_init+0x38>)
10005994:	0452      	lsls	r2, r2, #17
10005996:	b510      	push	{r4, lr}
10005998:	601a      	str	r2, [r3, #0]
1000599a:	4b0c      	ldr	r3, [pc, #48]	; (100059cc <rp2040_usb_init+0x3c>)
1000599c:	490c      	ldr	r1, [pc, #48]	; (100059d0 <rp2040_usb_init+0x40>)
1000599e:	601a      	str	r2, [r3, #0]
100059a0:	0010      	movs	r0, r2
100059a2:	688b      	ldr	r3, [r1, #8]
100059a4:	4398      	bics	r0, r3
100059a6:	d1fb      	bne.n	100059a0 <rp2040_usb_init+0x10>
100059a8:	4c0a      	ldr	r4, [pc, #40]	; (100059d4 <rp2040_usb_init+0x44>)
100059aa:	229c      	movs	r2, #156	; 0x9c
100059ac:	2100      	movs	r1, #0
100059ae:	0020      	movs	r0, r4
100059b0:	f7ff f8f8 	bl	10004ba4 <__wrap_memset>
100059b4:	2280      	movs	r2, #128	; 0x80
100059b6:	2100      	movs	r1, #0
100059b8:	0152      	lsls	r2, r2, #5
100059ba:	4807      	ldr	r0, [pc, #28]	; (100059d8 <rp2040_usb_init+0x48>)
100059bc:	f7ff f8f2 	bl	10004ba4 <__wrap_memset>
100059c0:	2309      	movs	r3, #9
100059c2:	6763      	str	r3, [r4, #116]	; 0x74
100059c4:	bd10      	pop	{r4, pc}
100059c6:	46c0      	nop			; (mov r8, r8)
100059c8:	4000e000 	.word	0x4000e000
100059cc:	4000f000 	.word	0x4000f000
100059d0:	4000c000 	.word	0x4000c000
100059d4:	50110000 	.word	0x50110000
100059d8:	50100000 	.word	0x50100000

100059dc <hw_endpoint_reset_transfer>:
100059dc:	2300      	movs	r3, #0
100059de:	7403      	strb	r3, [r0, #16]
100059e0:	8243      	strh	r3, [r0, #18]
100059e2:	8283      	strh	r3, [r0, #20]
100059e4:	6183      	str	r3, [r0, #24]
100059e6:	4770      	bx	lr

100059e8 <_hw_endpoint_buffer_control_update32>:
100059e8:	b510      	push	{r4, lr}
100059ea:	6883      	ldr	r3, [r0, #8]
100059ec:	2900      	cmp	r1, #0
100059ee:	d001      	beq.n	100059f4 <_hw_endpoint_buffer_control_update32+0xc>
100059f0:	681c      	ldr	r4, [r3, #0]
100059f2:	4021      	ands	r1, r4
100059f4:	2a00      	cmp	r2, #0
100059f6:	d011      	beq.n	10005a1c <_hw_endpoint_buffer_control_update32+0x34>
100059f8:	2480      	movs	r4, #128	; 0x80
100059fa:	00e4      	lsls	r4, r4, #3
100059fc:	4311      	orrs	r1, r2
100059fe:	4222      	tst	r2, r4
10005a00:	d00c      	beq.n	10005a1c <_hw_endpoint_buffer_control_update32+0x34>
10005a02:	681a      	ldr	r2, [r3, #0]
10005a04:	4222      	tst	r2, r4
10005a06:	d10b      	bne.n	10005a20 <_hw_endpoint_buffer_control_update32+0x38>
10005a08:	4a07      	ldr	r2, [pc, #28]	; (10005a28 <_hw_endpoint_buffer_control_update32+0x40>)
10005a0a:	400a      	ands	r2, r1
10005a0c:	601a      	str	r2, [r3, #0]
10005a0e:	e7ff      	b.n	10005a10 <_hw_endpoint_buffer_control_update32+0x28>
10005a10:	e7ff      	b.n	10005a12 <_hw_endpoint_buffer_control_update32+0x2a>
10005a12:	e7ff      	b.n	10005a14 <_hw_endpoint_buffer_control_update32+0x2c>
10005a14:	e7ff      	b.n	10005a16 <_hw_endpoint_buffer_control_update32+0x2e>
10005a16:	e7ff      	b.n	10005a18 <_hw_endpoint_buffer_control_update32+0x30>
10005a18:	e7ff      	b.n	10005a1a <_hw_endpoint_buffer_control_update32+0x32>
10005a1a:	6883      	ldr	r3, [r0, #8]
10005a1c:	6019      	str	r1, [r3, #0]
10005a1e:	bd10      	pop	{r4, pc}
10005a20:	7880      	ldrb	r0, [r0, #2]
10005a22:	f7ff ffa7 	bl	10005974 <_hw_endpoint_buffer_control_update32.part.0.isra.0>
10005a26:	46c0      	nop			; (mov r8, r8)
10005a28:	fffffbff 	.word	0xfffffbff

10005a2c <hw_endpoint_xfer_start>:
10005a2c:	b5f0      	push	{r4, r5, r6, r7, lr}
10005a2e:	46c6      	mov	lr, r8
10005a30:	2300      	movs	r3, #0
10005a32:	b500      	push	{lr}
10005a34:	8283      	strh	r3, [r0, #20]
10005a36:	3301      	adds	r3, #1
10005a38:	7403      	strb	r3, [r0, #16]
10005a3a:	6843      	ldr	r3, [r0, #4]
10005a3c:	0004      	movs	r4, r0
10005a3e:	681e      	ldr	r6, [r3, #0]
10005a40:	8b83      	ldrh	r3, [r0, #28]
10005a42:	6181      	str	r1, [r0, #24]
10005a44:	1c1f      	adds	r7, r3, #0
10005a46:	4293      	cmp	r3, r2
10005a48:	d900      	bls.n	10005a4c <hw_endpoint_xfer_start+0x20>
10005a4a:	1c17      	adds	r7, r2, #0
10005a4c:	2580      	movs	r5, #128	; 0x80
10005a4e:	b2bf      	uxth	r7, r7
10005a50:	1bd2      	subs	r2, r2, r7
10005a52:	b293      	uxth	r3, r2
10005a54:	78e2      	ldrb	r2, [r4, #3]
10005a56:	00ed      	lsls	r5, r5, #3
10005a58:	8263      	strh	r3, [r4, #18]
10005a5a:	433d      	orrs	r5, r7
10005a5c:	2a00      	cmp	r2, #0
10005a5e:	d002      	beq.n	10005a66 <hw_endpoint_xfer_start+0x3a>
10005a60:	2590      	movs	r5, #144	; 0x90
10005a62:	01ad      	lsls	r5, r5, #6
10005a64:	433d      	orrs	r5, r7
10005a66:	2001      	movs	r0, #1
10005a68:	4042      	eors	r2, r0
10005a6a:	70e2      	strb	r2, [r4, #3]
10005a6c:	7862      	ldrb	r2, [r4, #1]
10005a6e:	2a00      	cmp	r2, #0
10005a70:	d051      	beq.n	10005b16 <hw_endpoint_xfer_start+0xea>
10005a72:	2b00      	cmp	r3, #0
10005a74:	d11d      	bne.n	10005ab2 <hw_endpoint_xfer_start+0x86>
10005a76:	23a0      	movs	r3, #160	; 0xa0
10005a78:	01db      	lsls	r3, r3, #7
10005a7a:	431d      	orrs	r5, r3
10005a7c:	4b35      	ldr	r3, [pc, #212]	; (10005b54 <hw_endpoint_xfer_start+0x128>)
10005a7e:	6c1b      	ldr	r3, [r3, #64]	; 0x40
10005a80:	4b35      	ldr	r3, [pc, #212]	; (10005b58 <hw_endpoint_xfer_start+0x12c>)
10005a82:	4033      	ands	r3, r6
10005a84:	2680      	movs	r6, #128	; 0x80
10005a86:	05b6      	lsls	r6, r6, #22
10005a88:	431e      	orrs	r6, r3
10005a8a:	6863      	ldr	r3, [r4, #4]
10005a8c:	68a2      	ldr	r2, [r4, #8]
10005a8e:	601e      	str	r6, [r3, #0]
10005a90:	6813      	ldr	r3, [r2, #0]
10005a92:	055b      	lsls	r3, r3, #21
10005a94:	d45a      	bmi.n	10005b4c <hw_endpoint_xfer_start+0x120>
10005a96:	4b31      	ldr	r3, [pc, #196]	; (10005b5c <hw_endpoint_xfer_start+0x130>)
10005a98:	402b      	ands	r3, r5
10005a9a:	6013      	str	r3, [r2, #0]
10005a9c:	e7ff      	b.n	10005a9e <hw_endpoint_xfer_start+0x72>
10005a9e:	e7ff      	b.n	10005aa0 <hw_endpoint_xfer_start+0x74>
10005aa0:	e7ff      	b.n	10005aa2 <hw_endpoint_xfer_start+0x76>
10005aa2:	e7ff      	b.n	10005aa4 <hw_endpoint_xfer_start+0x78>
10005aa4:	e7ff      	b.n	10005aa6 <hw_endpoint_xfer_start+0x7a>
10005aa6:	e7ff      	b.n	10005aa8 <hw_endpoint_xfer_start+0x7c>
10005aa8:	68a3      	ldr	r3, [r4, #8]
10005aaa:	601d      	str	r5, [r3, #0]
10005aac:	bc80      	pop	{r7}
10005aae:	46b8      	mov	r8, r7
10005ab0:	bdf0      	pop	{r4, r5, r6, r7, pc}
10005ab2:	2280      	movs	r2, #128	; 0x80
10005ab4:	0152      	lsls	r2, r2, #5
10005ab6:	4315      	orrs	r5, r2
10005ab8:	4a26      	ldr	r2, [pc, #152]	; (10005b54 <hw_endpoint_xfer_start+0x128>)
10005aba:	6c12      	ldr	r2, [r2, #64]	; 0x40
10005abc:	0792      	lsls	r2, r2, #30
10005abe:	d403      	bmi.n	10005ac8 <hw_endpoint_xfer_start+0x9c>
10005ac0:	78a2      	ldrb	r2, [r4, #2]
10005ac2:	09d2      	lsrs	r2, r2, #7
10005ac4:	2a01      	cmp	r2, #1
10005ac6:	d1db      	bne.n	10005a80 <hw_endpoint_xfer_start+0x54>
10005ac8:	8ba2      	ldrh	r2, [r4, #28]
10005aca:	1c11      	adds	r1, r2, #0
10005acc:	429a      	cmp	r2, r3
10005ace:	d900      	bls.n	10005ad2 <hw_endpoint_xfer_start+0xa6>
10005ad0:	1c19      	adds	r1, r3, #0
10005ad2:	2780      	movs	r7, #128	; 0x80
10005ad4:	b28a      	uxth	r2, r1
10005ad6:	00ff      	lsls	r7, r7, #3
10005ad8:	1a9b      	subs	r3, r3, r2
10005ada:	4690      	mov	r8, r2
10005adc:	4317      	orrs	r7, r2
10005ade:	78e2      	ldrb	r2, [r4, #3]
10005ae0:	b29b      	uxth	r3, r3
10005ae2:	8263      	strh	r3, [r4, #18]
10005ae4:	2a00      	cmp	r2, #0
10005ae6:	d003      	beq.n	10005af0 <hw_endpoint_xfer_start+0xc4>
10005ae8:	2790      	movs	r7, #144	; 0x90
10005aea:	4641      	mov	r1, r8
10005aec:	01bf      	lsls	r7, r7, #6
10005aee:	430f      	orrs	r7, r1
10005af0:	2101      	movs	r1, #1
10005af2:	404a      	eors	r2, r1
10005af4:	70e2      	strb	r2, [r4, #3]
10005af6:	7862      	ldrb	r2, [r4, #1]
10005af8:	2a00      	cmp	r2, #0
10005afa:	d019      	beq.n	10005b30 <hw_endpoint_xfer_start+0x104>
10005afc:	2b00      	cmp	r3, #0
10005afe:	d102      	bne.n	10005b06 <hw_endpoint_xfer_start+0xda>
10005b00:	2380      	movs	r3, #128	; 0x80
10005b02:	01db      	lsls	r3, r3, #7
10005b04:	431f      	orrs	r7, r3
10005b06:	4b16      	ldr	r3, [pc, #88]	; (10005b60 <hw_endpoint_xfer_start+0x134>)
10005b08:	043f      	lsls	r7, r7, #16
10005b0a:	4033      	ands	r3, r6
10005b0c:	26a0      	movs	r6, #160	; 0xa0
10005b0e:	05f6      	lsls	r6, r6, #23
10005b10:	433d      	orrs	r5, r7
10005b12:	431e      	orrs	r6, r3
10005b14:	e7b9      	b.n	10005a8a <hw_endpoint_xfer_start+0x5e>
10005b16:	003a      	movs	r2, r7
10005b18:	68e0      	ldr	r0, [r4, #12]
10005b1a:	f7ff f849 	bl	10004bb0 <__wrap___aeabi_memcpy>
10005b1e:	69a3      	ldr	r3, [r4, #24]
10005b20:	469c      	mov	ip, r3
10005b22:	2380      	movs	r3, #128	; 0x80
10005b24:	4467      	add	r7, ip
10005b26:	021b      	lsls	r3, r3, #8
10005b28:	431d      	orrs	r5, r3
10005b2a:	61a7      	str	r7, [r4, #24]
10005b2c:	8a63      	ldrh	r3, [r4, #18]
10005b2e:	e7a0      	b.n	10005a72 <hw_endpoint_xfer_start+0x46>
10005b30:	68e0      	ldr	r0, [r4, #12]
10005b32:	4642      	mov	r2, r8
10005b34:	69a1      	ldr	r1, [r4, #24]
10005b36:	3040      	adds	r0, #64	; 0x40
10005b38:	f7ff f83a 	bl	10004bb0 <__wrap___aeabi_memcpy>
10005b3c:	69a3      	ldr	r3, [r4, #24]
10005b3e:	4443      	add	r3, r8
10005b40:	61a3      	str	r3, [r4, #24]
10005b42:	2380      	movs	r3, #128	; 0x80
10005b44:	021b      	lsls	r3, r3, #8
10005b46:	431f      	orrs	r7, r3
10005b48:	8a63      	ldrh	r3, [r4, #18]
10005b4a:	e7d7      	b.n	10005afc <hw_endpoint_xfer_start+0xd0>
10005b4c:	78a0      	ldrb	r0, [r4, #2]
10005b4e:	f7ff ff11 	bl	10005974 <_hw_endpoint_buffer_control_update32.part.0.isra.0>
10005b52:	46c0      	nop			; (mov r8, r8)
10005b54:	50110000 	.word	0x50110000
10005b58:	afffffff 	.word	0xafffffff
10005b5c:	fffffbff 	.word	0xfffffbff
10005b60:	dfffffff 	.word	0xdfffffff

10005b64 <hw_endpoint_xfer_continue>:
10005b64:	b5f0      	push	{r4, r5, r6, r7, lr}
10005b66:	46c6      	mov	lr, r8
10005b68:	b500      	push	{lr}
10005b6a:	7c06      	ldrb	r6, [r0, #16]
10005b6c:	0004      	movs	r4, r0
10005b6e:	2e00      	cmp	r6, #0
10005b70:	d100      	bne.n	10005b74 <hw_endpoint_xfer_continue+0x10>
10005b72:	e0d3      	b.n	10005d1c <hw_endpoint_xfer_continue+0x1b8>
10005b74:	6883      	ldr	r3, [r0, #8]
10005b76:	681a      	ldr	r2, [r3, #0]
10005b78:	681d      	ldr	r5, [r3, #0]
10005b7a:	7843      	ldrb	r3, [r0, #1]
10005b7c:	05ad      	lsls	r5, r5, #22
10005b7e:	0dad      	lsrs	r5, r5, #22
10005b80:	2b00      	cmp	r3, #0
10005b82:	d151      	bne.n	10005c28 <hw_endpoint_xfer_continue+0xc4>
10005b84:	8a83      	ldrh	r3, [r0, #20]
10005b86:	18eb      	adds	r3, r5, r3
10005b88:	b29b      	uxth	r3, r3
10005b8a:	8283      	strh	r3, [r0, #20]
10005b8c:	8ba1      	ldrh	r1, [r4, #28]
10005b8e:	428d      	cmp	r5, r1
10005b90:	d207      	bcs.n	10005ba2 <hw_endpoint_xfer_continue+0x3e>
10005b92:	2300      	movs	r3, #0
10005b94:	8263      	strh	r3, [r4, #18]
10005b96:	6863      	ldr	r3, [r4, #4]
10005b98:	681b      	ldr	r3, [r3, #0]
10005b9a:	0030      	movs	r0, r6
10005b9c:	bc80      	pop	{r7}
10005b9e:	46b8      	mov	r8, r7
10005ba0:	bdf0      	pop	{r4, r5, r6, r7, pc}
10005ba2:	6862      	ldr	r2, [r4, #4]
10005ba4:	6812      	ldr	r2, [r2, #0]
10005ba6:	0052      	lsls	r2, r2, #1
10005ba8:	d502      	bpl.n	10005bb0 <hw_endpoint_xfer_continue+0x4c>
10005baa:	428d      	cmp	r5, r1
10005bac:	d100      	bne.n	10005bb0 <hw_endpoint_xfer_continue+0x4c>
10005bae:	e075      	b.n	10005c9c <hw_endpoint_xfer_continue+0x138>
10005bb0:	8a63      	ldrh	r3, [r4, #18]
10005bb2:	2b00      	cmp	r3, #0
10005bb4:	d0f1      	beq.n	10005b9a <hw_endpoint_xfer_continue+0x36>
10005bb6:	6862      	ldr	r2, [r4, #4]
10005bb8:	1c1f      	adds	r7, r3, #0
10005bba:	6816      	ldr	r6, [r2, #0]
10005bbc:	428b      	cmp	r3, r1
10005bbe:	d900      	bls.n	10005bc2 <hw_endpoint_xfer_continue+0x5e>
10005bc0:	1c0f      	adds	r7, r1, #0
10005bc2:	2580      	movs	r5, #128	; 0x80
10005bc4:	b2bf      	uxth	r7, r7
10005bc6:	1bdb      	subs	r3, r3, r7
10005bc8:	78e2      	ldrb	r2, [r4, #3]
10005bca:	b29b      	uxth	r3, r3
10005bcc:	00ed      	lsls	r5, r5, #3
10005bce:	8263      	strh	r3, [r4, #18]
10005bd0:	433d      	orrs	r5, r7
10005bd2:	2a00      	cmp	r2, #0
10005bd4:	d002      	beq.n	10005bdc <hw_endpoint_xfer_continue+0x78>
10005bd6:	2590      	movs	r5, #144	; 0x90
10005bd8:	01ad      	lsls	r5, r5, #6
10005bda:	433d      	orrs	r5, r7
10005bdc:	2101      	movs	r1, #1
10005bde:	404a      	eors	r2, r1
10005be0:	70e2      	strb	r2, [r4, #3]
10005be2:	7862      	ldrb	r2, [r4, #1]
10005be4:	2a00      	cmp	r2, #0
10005be6:	d068      	beq.n	10005cba <hw_endpoint_xfer_continue+0x156>
10005be8:	2b00      	cmp	r3, #0
10005bea:	d12a      	bne.n	10005c42 <hw_endpoint_xfer_continue+0xde>
10005bec:	23a0      	movs	r3, #160	; 0xa0
10005bee:	01db      	lsls	r3, r3, #7
10005bf0:	431d      	orrs	r5, r3
10005bf2:	4b4f      	ldr	r3, [pc, #316]	; (10005d30 <hw_endpoint_xfer_continue+0x1cc>)
10005bf4:	6c1b      	ldr	r3, [r3, #64]	; 0x40
10005bf6:	4b4f      	ldr	r3, [pc, #316]	; (10005d34 <hw_endpoint_xfer_continue+0x1d0>)
10005bf8:	4033      	ands	r3, r6
10005bfa:	2680      	movs	r6, #128	; 0x80
10005bfc:	05b6      	lsls	r6, r6, #22
10005bfe:	431e      	orrs	r6, r3
10005c00:	6863      	ldr	r3, [r4, #4]
10005c02:	68a2      	ldr	r2, [r4, #8]
10005c04:	601e      	str	r6, [r3, #0]
10005c06:	6813      	ldr	r3, [r2, #0]
10005c08:	055b      	lsls	r3, r3, #21
10005c0a:	d500      	bpl.n	10005c0e <hw_endpoint_xfer_continue+0xaa>
10005c0c:	e08d      	b.n	10005d2a <hw_endpoint_xfer_continue+0x1c6>
10005c0e:	4b4a      	ldr	r3, [pc, #296]	; (10005d38 <hw_endpoint_xfer_continue+0x1d4>)
10005c10:	402b      	ands	r3, r5
10005c12:	6013      	str	r3, [r2, #0]
10005c14:	e7ff      	b.n	10005c16 <hw_endpoint_xfer_continue+0xb2>
10005c16:	e7ff      	b.n	10005c18 <hw_endpoint_xfer_continue+0xb4>
10005c18:	e7ff      	b.n	10005c1a <hw_endpoint_xfer_continue+0xb6>
10005c1a:	e7ff      	b.n	10005c1c <hw_endpoint_xfer_continue+0xb8>
10005c1c:	e7ff      	b.n	10005c1e <hw_endpoint_xfer_continue+0xba>
10005c1e:	e7ff      	b.n	10005c20 <hw_endpoint_xfer_continue+0xbc>
10005c20:	68a3      	ldr	r3, [r4, #8]
10005c22:	2600      	movs	r6, #0
10005c24:	601d      	str	r5, [r3, #0]
10005c26:	e7b8      	b.n	10005b9a <hw_endpoint_xfer_continue+0x36>
10005c28:	002a      	movs	r2, r5
10005c2a:	68c1      	ldr	r1, [r0, #12]
10005c2c:	6980      	ldr	r0, [r0, #24]
10005c2e:	f7fe ffbf 	bl	10004bb0 <__wrap___aeabi_memcpy>
10005c32:	8aa3      	ldrh	r3, [r4, #20]
10005c34:	69a2      	ldr	r2, [r4, #24]
10005c36:	18eb      	adds	r3, r5, r3
10005c38:	b29b      	uxth	r3, r3
10005c3a:	1952      	adds	r2, r2, r5
10005c3c:	82a3      	strh	r3, [r4, #20]
10005c3e:	61a2      	str	r2, [r4, #24]
10005c40:	e7a4      	b.n	10005b8c <hw_endpoint_xfer_continue+0x28>
10005c42:	2280      	movs	r2, #128	; 0x80
10005c44:	0152      	lsls	r2, r2, #5
10005c46:	4315      	orrs	r5, r2
10005c48:	4a39      	ldr	r2, [pc, #228]	; (10005d30 <hw_endpoint_xfer_continue+0x1cc>)
10005c4a:	6c12      	ldr	r2, [r2, #64]	; 0x40
10005c4c:	0792      	lsls	r2, r2, #30
10005c4e:	d403      	bmi.n	10005c58 <hw_endpoint_xfer_continue+0xf4>
10005c50:	78a2      	ldrb	r2, [r4, #2]
10005c52:	09d2      	lsrs	r2, r2, #7
10005c54:	2a01      	cmp	r2, #1
10005c56:	d1ce      	bne.n	10005bf6 <hw_endpoint_xfer_continue+0x92>
10005c58:	8ba2      	ldrh	r2, [r4, #28]
10005c5a:	1c11      	adds	r1, r2, #0
10005c5c:	429a      	cmp	r2, r3
10005c5e:	d83f      	bhi.n	10005ce0 <hw_endpoint_xfer_continue+0x17c>
10005c60:	2780      	movs	r7, #128	; 0x80
10005c62:	b28a      	uxth	r2, r1
10005c64:	00ff      	lsls	r7, r7, #3
10005c66:	1a9b      	subs	r3, r3, r2
10005c68:	4690      	mov	r8, r2
10005c6a:	4317      	orrs	r7, r2
10005c6c:	78e2      	ldrb	r2, [r4, #3]
10005c6e:	b29b      	uxth	r3, r3
10005c70:	8263      	strh	r3, [r4, #18]
10005c72:	2a00      	cmp	r2, #0
10005c74:	d12f      	bne.n	10005cd6 <hw_endpoint_xfer_continue+0x172>
10005c76:	2101      	movs	r1, #1
10005c78:	404a      	eors	r2, r1
10005c7a:	70e2      	strb	r2, [r4, #3]
10005c7c:	7862      	ldrb	r2, [r4, #1]
10005c7e:	2a00      	cmp	r2, #0
10005c80:	d03e      	beq.n	10005d00 <hw_endpoint_xfer_continue+0x19c>
10005c82:	2b00      	cmp	r3, #0
10005c84:	d102      	bne.n	10005c8c <hw_endpoint_xfer_continue+0x128>
10005c86:	2380      	movs	r3, #128	; 0x80
10005c88:	01db      	lsls	r3, r3, #7
10005c8a:	431f      	orrs	r7, r3
10005c8c:	4b2b      	ldr	r3, [pc, #172]	; (10005d3c <hw_endpoint_xfer_continue+0x1d8>)
10005c8e:	043f      	lsls	r7, r7, #16
10005c90:	4033      	ands	r3, r6
10005c92:	26a0      	movs	r6, #160	; 0xa0
10005c94:	05f6      	lsls	r6, r6, #23
10005c96:	433d      	orrs	r5, r7
10005c98:	431e      	orrs	r6, r3
10005c9a:	e7b1      	b.n	10005c00 <hw_endpoint_xfer_continue+0x9c>
10005c9c:	68a2      	ldr	r2, [r4, #8]
10005c9e:	6815      	ldr	r5, [r2, #0]
10005ca0:	7862      	ldrb	r2, [r4, #1]
10005ca2:	01ad      	lsls	r5, r5, #6
10005ca4:	0dad      	lsrs	r5, r5, #22
10005ca6:	2a00      	cmp	r2, #0
10005ca8:	d11c      	bne.n	10005ce4 <hw_endpoint_xfer_continue+0x180>
10005caa:	18eb      	adds	r3, r5, r3
10005cac:	82a3      	strh	r3, [r4, #20]
10005cae:	428d      	cmp	r5, r1
10005cb0:	d300      	bcc.n	10005cb4 <hw_endpoint_xfer_continue+0x150>
10005cb2:	e77d      	b.n	10005bb0 <hw_endpoint_xfer_continue+0x4c>
10005cb4:	2300      	movs	r3, #0
10005cb6:	8263      	strh	r3, [r4, #18]
10005cb8:	e76f      	b.n	10005b9a <hw_endpoint_xfer_continue+0x36>
10005cba:	003a      	movs	r2, r7
10005cbc:	69a1      	ldr	r1, [r4, #24]
10005cbe:	68e0      	ldr	r0, [r4, #12]
10005cc0:	f7fe ff76 	bl	10004bb0 <__wrap___aeabi_memcpy>
10005cc4:	69a3      	ldr	r3, [r4, #24]
10005cc6:	469c      	mov	ip, r3
10005cc8:	2380      	movs	r3, #128	; 0x80
10005cca:	4467      	add	r7, ip
10005ccc:	021b      	lsls	r3, r3, #8
10005cce:	431d      	orrs	r5, r3
10005cd0:	61a7      	str	r7, [r4, #24]
10005cd2:	8a63      	ldrh	r3, [r4, #18]
10005cd4:	e788      	b.n	10005be8 <hw_endpoint_xfer_continue+0x84>
10005cd6:	2790      	movs	r7, #144	; 0x90
10005cd8:	4641      	mov	r1, r8
10005cda:	01bf      	lsls	r7, r7, #6
10005cdc:	430f      	orrs	r7, r1
10005cde:	e7ca      	b.n	10005c76 <hw_endpoint_xfer_continue+0x112>
10005ce0:	1c19      	adds	r1, r3, #0
10005ce2:	e7bd      	b.n	10005c60 <hw_endpoint_xfer_continue+0xfc>
10005ce4:	68e1      	ldr	r1, [r4, #12]
10005ce6:	002a      	movs	r2, r5
10005ce8:	3140      	adds	r1, #64	; 0x40
10005cea:	69a0      	ldr	r0, [r4, #24]
10005cec:	f7fe ff60 	bl	10004bb0 <__wrap___aeabi_memcpy>
10005cf0:	8aa3      	ldrh	r3, [r4, #20]
10005cf2:	8ba1      	ldrh	r1, [r4, #28]
10005cf4:	18eb      	adds	r3, r5, r3
10005cf6:	82a3      	strh	r3, [r4, #20]
10005cf8:	69a3      	ldr	r3, [r4, #24]
10005cfa:	195b      	adds	r3, r3, r5
10005cfc:	61a3      	str	r3, [r4, #24]
10005cfe:	e7d6      	b.n	10005cae <hw_endpoint_xfer_continue+0x14a>
10005d00:	68e0      	ldr	r0, [r4, #12]
10005d02:	4642      	mov	r2, r8
10005d04:	69a1      	ldr	r1, [r4, #24]
10005d06:	3040      	adds	r0, #64	; 0x40
10005d08:	f7fe ff52 	bl	10004bb0 <__wrap___aeabi_memcpy>
10005d0c:	69a3      	ldr	r3, [r4, #24]
10005d0e:	4443      	add	r3, r8
10005d10:	61a3      	str	r3, [r4, #24]
10005d12:	2380      	movs	r3, #128	; 0x80
10005d14:	021b      	lsls	r3, r3, #8
10005d16:	431f      	orrs	r7, r3
10005d18:	8a63      	ldrh	r3, [r4, #18]
10005d1a:	e7b2      	b.n	10005c82 <hw_endpoint_xfer_continue+0x11e>
10005d1c:	237f      	movs	r3, #127	; 0x7f
10005d1e:	7881      	ldrb	r1, [r0, #2]
10005d20:	4a07      	ldr	r2, [pc, #28]	; (10005d40 <hw_endpoint_xfer_continue+0x1dc>)
10005d22:	4808      	ldr	r0, [pc, #32]	; (10005d44 <hw_endpoint_xfer_continue+0x1e0>)
10005d24:	4019      	ands	r1, r3
10005d26:	f7fc fa25 	bl	10002174 <panic>
10005d2a:	78a0      	ldrb	r0, [r4, #2]
10005d2c:	f7ff fe22 	bl	10005974 <_hw_endpoint_buffer_control_update32.part.0.isra.0>
10005d30:	50110000 	.word	0x50110000
10005d34:	afffffff 	.word	0xafffffff
10005d38:	fffffbff 	.word	0xfffffbff
10005d3c:	dfffffff 	.word	0xdfffffff
10005d40:	20000444 	.word	0x20000444
10005d44:	1000b908 	.word	0x1000b908

10005d48 <tud_mounted>:
10005d48:	4b02      	ldr	r3, [pc, #8]	; (10005d54 <tud_mounted+0xc>)
10005d4a:	7858      	ldrb	r0, [r3, #1]
10005d4c:	1e43      	subs	r3, r0, #1
10005d4e:	4198      	sbcs	r0, r3
10005d50:	b2c0      	uxtb	r0, r0
10005d52:	4770      	bx	lr
10005d54:	20001504 	.word	0x20001504

10005d58 <tud_suspended>:
10005d58:	4b02      	ldr	r3, [pc, #8]	; (10005d64 <tud_suspended+0xc>)
10005d5a:	7818      	ldrb	r0, [r3, #0]
10005d5c:	0740      	lsls	r0, r0, #29
10005d5e:	0fc0      	lsrs	r0, r0, #31
10005d60:	4770      	bx	lr
10005d62:	46c0      	nop			; (mov r8, r8)
10005d64:	20001504 	.word	0x20001504

10005d68 <tud_inited>:
10005d68:	4b01      	ldr	r3, [pc, #4]	; (10005d70 <tud_inited+0x8>)
10005d6a:	7818      	ldrb	r0, [r3, #0]
10005d6c:	4770      	bx	lr
10005d6e:	46c0      	nop			; (mov r8, r8)
10005d70:	20001c47 	.word	0x20001c47

10005d74 <tud_init>:
10005d74:	b5f8      	push	{r3, r4, r5, r6, r7, lr}
10005d76:	4647      	mov	r7, r8
10005d78:	46ce      	mov	lr, r9
10005d7a:	b580      	push	{r7, lr}
10005d7c:	4f29      	ldr	r7, [pc, #164]	; (10005e24 <tud_init+0xb0>)
10005d7e:	0005      	movs	r5, r0
10005d80:	783b      	ldrb	r3, [r7, #0]
10005d82:	2b00      	cmp	r3, #0
10005d84:	d004      	beq.n	10005d90 <tud_init+0x1c>
10005d86:	2001      	movs	r0, #1
10005d88:	bcc0      	pop	{r6, r7}
10005d8a:	46b9      	mov	r9, r7
10005d8c:	46b0      	mov	r8, r6
10005d8e:	bdf8      	pop	{r3, r4, r5, r6, r7, pc}
10005d90:	2253      	movs	r2, #83	; 0x53
10005d92:	2100      	movs	r1, #0
10005d94:	4824      	ldr	r0, [pc, #144]	; (10005e28 <tud_init+0xb4>)
10005d96:	f7fe ff05 	bl	10004ba4 <__wrap_memset>
10005d9a:	4c24      	ldr	r4, [pc, #144]	; (10005e2c <tud_init+0xb8>)
10005d9c:	0020      	movs	r0, r4
10005d9e:	f7fc f929 	bl	10001ff4 <mutex_init>
10005da2:	4b23      	ldr	r3, [pc, #140]	; (10005e30 <tud_init+0xbc>)
10005da4:	601c      	str	r4, [r3, #0]
10005da6:	4c23      	ldr	r4, [pc, #140]	; (10005e34 <tud_init+0xc0>)
10005da8:	0020      	movs	r0, r4
10005daa:	301c      	adds	r0, #28
10005dac:	f7fc f93e 	bl	1000202c <critical_section_init>
10005db0:	0020      	movs	r0, r4
10005db2:	f001 fca1 	bl	100076f8 <tu_fifo_clear>
10005db6:	4b20      	ldr	r3, [pc, #128]	; (10005e38 <tud_init+0xc4>)
10005db8:	4e20      	ldr	r6, [pc, #128]	; (10005e3c <tud_init+0xc8>)
10005dba:	601c      	str	r4, [r3, #0]
10005dbc:	4b20      	ldr	r3, [pc, #128]	; (10005e40 <tud_init+0xcc>)
10005dbe:	4698      	mov	r8, r3
10005dc0:	2b00      	cmp	r3, #0
10005dc2:	d004      	beq.n	10005dce <tud_init+0x5a>
10005dc4:	0030      	movs	r0, r6
10005dc6:	f7ff f95d 	bl	10005084 <usbd_app_driver_get_cb>
10005dca:	4b1e      	ldr	r3, [pc, #120]	; (10005e44 <tud_init+0xd0>)
10005dcc:	6018      	str	r0, [r3, #0]
10005dce:	4642      	mov	r2, r8
10005dd0:	2400      	movs	r4, #0
10005dd2:	7833      	ldrb	r3, [r6, #0]
10005dd4:	2a00      	cmp	r2, #0
10005dd6:	d01d      	beq.n	10005e14 <tud_init+0xa0>
10005dd8:	4a1b      	ldr	r2, [pc, #108]	; (10005e48 <tud_init+0xd4>)
10005dda:	4690      	mov	r8, r2
10005ddc:	4a19      	ldr	r2, [pc, #100]	; (10005e44 <tud_init+0xd0>)
10005dde:	4691      	mov	r9, r2
10005de0:	429c      	cmp	r4, r3
10005de2:	d310      	bcc.n	10005e06 <tud_init+0x92>
10005de4:	d11b      	bne.n	10005e1e <tud_init+0xaa>
10005de6:	4643      	mov	r3, r8
10005de8:	4798      	blx	r3
10005dea:	3401      	adds	r4, #1
10005dec:	7833      	ldrb	r3, [r6, #0]
10005dee:	b2e4      	uxtb	r4, r4
10005df0:	42a3      	cmp	r3, r4
10005df2:	d2f5      	bcs.n	10005de0 <tud_init+0x6c>
10005df4:	0028      	movs	r0, r5
10005df6:	f7ff fbf1 	bl	100055dc <dcd_init>
10005dfa:	0028      	movs	r0, r5
10005dfc:	f7ff fbd6 	bl	100055ac <dcd_int_enable>
10005e00:	2301      	movs	r3, #1
10005e02:	703b      	strb	r3, [r7, #0]
10005e04:	e7bf      	b.n	10005d86 <tud_init+0x12>
10005e06:	464a      	mov	r2, r9
10005e08:	0063      	lsls	r3, r4, #1
10005e0a:	6812      	ldr	r2, [r2, #0]
10005e0c:	191b      	adds	r3, r3, r4
10005e0e:	00db      	lsls	r3, r3, #3
10005e10:	589b      	ldr	r3, [r3, r2]
10005e12:	e7e9      	b.n	10005de8 <tud_init+0x74>
10005e14:	f001 f84a 	bl	10006eac <cdcd_init>
10005e18:	7833      	ldrb	r3, [r6, #0]
10005e1a:	2b00      	cmp	r3, #0
10005e1c:	d0ea      	beq.n	10005df4 <tud_init+0x80>
10005e1e:	2300      	movs	r3, #0
10005e20:	681b      	ldr	r3, [r3, #0]
10005e22:	deff      	udf	#255	; 0xff
10005e24:	20001c47 	.word	0x20001c47
10005e28:	20001504 	.word	0x20001504
10005e2c:	200014bc 	.word	0x200014bc
10005e30:	20001558 	.word	0x20001558
10005e34:	2000044c 	.word	0x2000044c
10005e38:	2000155c 	.word	0x2000155c
10005e3c:	20001c46 	.word	0x20001c46
10005e40:	10005085 	.word	0x10005085
10005e44:	200011cc 	.word	0x200011cc
10005e48:	10006ead 	.word	0x10006ead

10005e4c <tud_task>:
10005e4c:	b5f0      	push	{r4, r5, r6, r7, lr}
10005e4e:	46de      	mov	lr, fp
10005e50:	4657      	mov	r7, sl
10005e52:	464e      	mov	r6, r9
10005e54:	4645      	mov	r5, r8
10005e56:	b5e0      	push	{r5, r6, r7, lr}
10005e58:	b08b      	sub	sp, #44	; 0x2c
10005e5a:	f001 fa09 	bl	10007270 <tusb_inited>
10005e5e:	2800      	cmp	r0, #0
10005e60:	d100      	bne.n	10005e64 <tud_task+0x18>
10005e62:	e144      	b.n	100060ee <tud_task+0x2a2>
10005e64:	4bc2      	ldr	r3, [pc, #776]	; (10006170 <tud_task+0x324>)
10005e66:	4ec3      	ldr	r6, [pc, #780]	; (10006174 <tud_task+0x328>)
10005e68:	469b      	mov	fp, r3
10005e6a:	ac07      	add	r4, sp, #28
10005e6c:	6835      	ldr	r5, [r6, #0]
10005e6e:	69ea      	ldr	r2, [r5, #28]
10005e70:	f3ef 8110 	mrs	r1, PRIMASK
10005e74:	b672      	cpsid	i
10005e76:	6813      	ldr	r3, [r2, #0]
10005e78:	2b00      	cmp	r3, #0
10005e7a:	d0fc      	beq.n	10005e76 <tud_task+0x2a>
10005e7c:	f3bf 8f5f 	dmb	sy
10005e80:	6229      	str	r1, [r5, #32]
10005e82:	0028      	movs	r0, r5
10005e84:	0021      	movs	r1, r4
10005e86:	f001 faab 	bl	100073e0 <tu_fifo_read>
10005e8a:	69ea      	ldr	r2, [r5, #28]
10005e8c:	6a2b      	ldr	r3, [r5, #32]
10005e8e:	f3bf 8f5f 	dmb	sy
10005e92:	2100      	movs	r1, #0
10005e94:	6011      	str	r1, [r2, #0]
10005e96:	f383 8810 	msr	PRIMASK, r3
10005e9a:	2800      	cmp	r0, #0
10005e9c:	d100      	bne.n	10005ea0 <tud_task+0x54>
10005e9e:	e126      	b.n	100060ee <tud_task+0x2a2>
10005ea0:	7863      	ldrb	r3, [r4, #1]
10005ea2:	2b08      	cmp	r3, #8
10005ea4:	d8e2      	bhi.n	10005e6c <tud_task+0x20>
10005ea6:	465a      	mov	r2, fp
10005ea8:	009b      	lsls	r3, r3, #2
10005eaa:	58d3      	ldr	r3, [r2, r3]
10005eac:	469f      	mov	pc, r3
10005eae:	6863      	ldr	r3, [r4, #4]
10005eb0:	2b00      	cmp	r3, #0
10005eb2:	d0db      	beq.n	10005e6c <tud_task+0x20>
10005eb4:	68a0      	ldr	r0, [r4, #8]
10005eb6:	4798      	blx	r3
10005eb8:	e7d8      	b.n	10005e6c <tud_task+0x20>
10005eba:	227f      	movs	r2, #127	; 0x7f
10005ebc:	7921      	ldrb	r1, [r4, #4]
10005ebe:	4bae      	ldr	r3, [pc, #696]	; (10006178 <tud_task+0x32c>)
10005ec0:	400a      	ands	r2, r1
10005ec2:	0055      	lsls	r5, r2, #1
10005ec4:	09c8      	lsrs	r0, r1, #7
10005ec6:	195b      	adds	r3, r3, r5
10005ec8:	181b      	adds	r3, r3, r0
10005eca:	0018      	movs	r0, r3
10005ecc:	2701      	movs	r7, #1
10005ece:	3030      	adds	r0, #48	; 0x30
10005ed0:	78c5      	ldrb	r5, [r0, #3]
10005ed2:	43bd      	bics	r5, r7
10005ed4:	70c5      	strb	r5, [r0, #3]
10005ed6:	78c5      	ldrb	r5, [r0, #3]
10005ed8:	3703      	adds	r7, #3
10005eda:	43bd      	bics	r5, r7
10005edc:	70c5      	strb	r5, [r0, #3]
10005ede:	2a00      	cmp	r2, #0
10005ee0:	d100      	bne.n	10005ee4 <tud_task+0x98>
10005ee2:	e10b      	b.n	100060fc <tud_task+0x2b0>
10005ee4:	4aa5      	ldr	r2, [pc, #660]	; (1000617c <tud_task+0x330>)
10005ee6:	7cdb      	ldrb	r3, [r3, #19]
10005ee8:	2a00      	cmp	r2, #0
10005eea:	d006      	beq.n	10005efa <tud_task+0xae>
10005eec:	4aa4      	ldr	r2, [pc, #656]	; (10006180 <tud_task+0x334>)
10005eee:	7812      	ldrb	r2, [r2, #0]
10005ef0:	4293      	cmp	r3, r2
10005ef2:	d200      	bcs.n	10005ef6 <tud_task+0xaa>
10005ef4:	e191      	b.n	1000621a <tud_task+0x3ce>
10005ef6:	1a9b      	subs	r3, r3, r2
10005ef8:	b2db      	uxtb	r3, r3
10005efa:	2b00      	cmp	r3, #0
10005efc:	d000      	beq.n	10005f00 <tud_task+0xb4>
10005efe:	e0f6      	b.n	100060ee <tud_task+0x2a2>
10005f00:	4da0      	ldr	r5, [pc, #640]	; (10006184 <tud_task+0x338>)
10005f02:	7962      	ldrb	r2, [r4, #5]
10005f04:	7820      	ldrb	r0, [r4, #0]
10005f06:	68a3      	ldr	r3, [r4, #8]
10005f08:	47a8      	blx	r5
10005f0a:	e7af      	b.n	10005e6c <tud_task+0x20>
10005f0c:	2201      	movs	r2, #1
10005f0e:	4f9a      	ldr	r7, [pc, #616]	; (10006178 <tud_task+0x32c>)
10005f10:	2101      	movs	r1, #1
10005f12:	783b      	ldrb	r3, [r7, #0]
10005f14:	2004      	movs	r0, #4
10005f16:	4313      	orrs	r3, r2
10005f18:	703b      	strb	r3, [r7, #0]
10005f1a:	2333      	movs	r3, #51	; 0x33
10005f1c:	5cfa      	ldrb	r2, [r7, r3]
10005f1e:	438a      	bics	r2, r1
10005f20:	54fa      	strb	r2, [r7, r3]
10005f22:	5cfa      	ldrb	r2, [r7, r3]
10005f24:	4382      	bics	r2, r0
10005f26:	54fa      	strb	r2, [r7, r3]
10005f28:	3301      	adds	r3, #1
10005f2a:	5cfa      	ldrb	r2, [r7, r3]
10005f2c:	438a      	bics	r2, r1
10005f2e:	54fa      	strb	r2, [r7, r3]
10005f30:	5cfa      	ldrb	r2, [r7, r3]
10005f32:	4382      	bics	r2, r0
10005f34:	54fa      	strb	r2, [r7, r3]
10005f36:	7823      	ldrb	r3, [r4, #0]
10005f38:	2000      	movs	r0, #0
10005f3a:	469a      	mov	sl, r3
10005f3c:	f000 fe66 	bl	10006c0c <usbd_control_set_complete_callback>
10005f40:	2260      	movs	r2, #96	; 0x60
10005f42:	7923      	ldrb	r3, [r4, #4]
10005f44:	401a      	ands	r2, r3
10005f46:	2a60      	cmp	r2, #96	; 0x60
10005f48:	d00d      	beq.n	10005f66 <tud_task+0x11a>
10005f4a:	2a40      	cmp	r2, #64	; 0x40
10005f4c:	d100      	bne.n	10005f50 <tud_task+0x104>
10005f4e:	e0f2      	b.n	10006136 <tud_task+0x2ea>
10005f50:	06db      	lsls	r3, r3, #27
10005f52:	0edb      	lsrs	r3, r3, #27
10005f54:	2b01      	cmp	r3, #1
10005f56:	d100      	bne.n	10005f5a <tud_task+0x10e>
10005f58:	e16a      	b.n	10006230 <tud_task+0x3e4>
10005f5a:	2b02      	cmp	r3, #2
10005f5c:	d100      	bne.n	10005f60 <tud_task+0x114>
10005f5e:	e121      	b.n	100061a4 <tud_task+0x358>
10005f60:	2b00      	cmp	r3, #0
10005f62:	d100      	bne.n	10005f66 <tud_task+0x11a>
10005f64:	e0f6      	b.n	10006154 <tud_task+0x308>
10005f66:	7820      	ldrb	r0, [r4, #0]
10005f68:	2100      	movs	r1, #0
10005f6a:	f7ff fccf 	bl	1000590c <dcd_edpt_stall>
10005f6e:	2180      	movs	r1, #128	; 0x80
10005f70:	7820      	ldrb	r0, [r4, #0]
10005f72:	f7ff fccb 	bl	1000590c <dcd_edpt_stall>
10005f76:	e779      	b.n	10005e6c <tud_task+0x20>
10005f78:	4b7f      	ldr	r3, [pc, #508]	; (10006178 <tud_task+0x32c>)
10005f7a:	781b      	ldrb	r3, [r3, #0]
10005f7c:	07db      	lsls	r3, r3, #31
10005f7e:	d400      	bmi.n	10005f82 <tud_task+0x136>
10005f80:	e774      	b.n	10005e6c <tud_task+0x20>
10005f82:	4b81      	ldr	r3, [pc, #516]	; (10006188 <tud_task+0x33c>)
10005f84:	2b00      	cmp	r3, #0
10005f86:	d100      	bne.n	10005f8a <tud_task+0x13e>
10005f88:	e770      	b.n	10005e6c <tud_task+0x20>
10005f8a:	e000      	b.n	10005f8e <tud_task+0x142>
10005f8c:	bf00      	nop
10005f8e:	e76d      	b.n	10005e6c <tud_task+0x20>
10005f90:	4b79      	ldr	r3, [pc, #484]	; (10006178 <tud_task+0x32c>)
10005f92:	781a      	ldrb	r2, [r3, #0]
10005f94:	07d2      	lsls	r2, r2, #31
10005f96:	d400      	bmi.n	10005f9a <tud_task+0x14e>
10005f98:	e768      	b.n	10005e6c <tud_task+0x20>
10005f9a:	4a7c      	ldr	r2, [pc, #496]	; (1000618c <tud_task+0x340>)
10005f9c:	2a00      	cmp	r2, #0
10005f9e:	d100      	bne.n	10005fa2 <tud_task+0x156>
10005fa0:	e764      	b.n	10005e6c <tud_task+0x20>
10005fa2:	7818      	ldrb	r0, [r3, #0]
10005fa4:	0700      	lsls	r0, r0, #28
10005fa6:	0fc0      	lsrs	r0, r0, #31
10005fa8:	e000      	b.n	10005fac <tud_task+0x160>
10005faa:	bf00      	nop
10005fac:	e75e      	b.n	10005e6c <tud_task+0x20>
10005fae:	4d74      	ldr	r5, [pc, #464]	; (10006180 <tud_task+0x334>)
10005fb0:	4a72      	ldr	r2, [pc, #456]	; (1000617c <tud_task+0x330>)
10005fb2:	2700      	movs	r7, #0
10005fb4:	782b      	ldrb	r3, [r5, #0]
10005fb6:	2a00      	cmp	r2, #0
10005fb8:	d100      	bne.n	10005fbc <tud_task+0x170>
10005fba:	e0b6      	b.n	1000612a <tud_task+0x2de>
10005fbc:	4a74      	ldr	r2, [pc, #464]	; (10006190 <tud_task+0x344>)
10005fbe:	4690      	mov	r8, r2
10005fc0:	429f      	cmp	r7, r3
10005fc2:	d308      	bcc.n	10005fd6 <tud_task+0x18a>
10005fc4:	429f      	cmp	r7, r3
10005fc6:	d000      	beq.n	10005fca <tud_task+0x17e>
10005fc8:	e0b2      	b.n	10006130 <tud_task+0x2e4>
10005fca:	3701      	adds	r7, #1
10005fcc:	b2ff      	uxtb	r7, r7
10005fce:	429f      	cmp	r7, r3
10005fd0:	d900      	bls.n	10005fd4 <tud_task+0x188>
10005fd2:	e74b      	b.n	10005e6c <tud_task+0x20>
10005fd4:	d2f6      	bcs.n	10005fc4 <tud_task+0x178>
10005fd6:	4641      	mov	r1, r8
10005fd8:	6809      	ldr	r1, [r1, #0]
10005fda:	007a      	lsls	r2, r7, #1
10005fdc:	468c      	mov	ip, r1
10005fde:	19d2      	adds	r2, r2, r7
10005fe0:	00d2      	lsls	r2, r2, #3
10005fe2:	4462      	add	r2, ip
10005fe4:	6952      	ldr	r2, [r2, #20]
10005fe6:	2a00      	cmp	r2, #0
10005fe8:	d0ef      	beq.n	10005fca <tud_task+0x17e>
10005fea:	7820      	ldrb	r0, [r4, #0]
10005fec:	4790      	blx	r2
10005fee:	3701      	adds	r7, #1
10005ff0:	782b      	ldrb	r3, [r5, #0]
10005ff2:	b2ff      	uxtb	r7, r7
10005ff4:	429f      	cmp	r7, r3
10005ff6:	d9e3      	bls.n	10005fc0 <tud_task+0x174>
10005ff8:	e738      	b.n	10005e6c <tud_task+0x20>
10005ffa:	7823      	ldrb	r3, [r4, #0]
10005ffc:	4d60      	ldr	r5, [pc, #384]	; (10006180 <tud_task+0x334>)
10005ffe:	4a5f      	ldr	r2, [pc, #380]	; (1000617c <tud_task+0x330>)
10006000:	4698      	mov	r8, r3
10006002:	2700      	movs	r7, #0
10006004:	782b      	ldrb	r3, [r5, #0]
10006006:	2a00      	cmp	r2, #0
10006008:	d100      	bne.n	1000600c <tud_task+0x1c0>
1000600a:	e086      	b.n	1000611a <tud_task+0x2ce>
1000600c:	4a61      	ldr	r2, [pc, #388]	; (10006194 <tud_task+0x348>)
1000600e:	4691      	mov	r9, r2
10006010:	4a5f      	ldr	r2, [pc, #380]	; (10006190 <tud_task+0x344>)
10006012:	4692      	mov	sl, r2
10006014:	002a      	movs	r2, r5
10006016:	4645      	mov	r5, r8
10006018:	4690      	mov	r8, r2
1000601a:	42bb      	cmp	r3, r7
1000601c:	d85e      	bhi.n	100060dc <tud_task+0x290>
1000601e:	d000      	beq.n	10006022 <tud_task+0x1d6>
10006020:	e078      	b.n	10006114 <tud_task+0x2c8>
10006022:	464b      	mov	r3, r9
10006024:	0028      	movs	r0, r5
10006026:	4798      	blx	r3
10006028:	4643      	mov	r3, r8
1000602a:	3701      	adds	r7, #1
1000602c:	781b      	ldrb	r3, [r3, #0]
1000602e:	b2ff      	uxtb	r7, r7
10006030:	42bb      	cmp	r3, r7
10006032:	d2f2      	bcs.n	1000601a <tud_task+0x1ce>
10006034:	4d50      	ldr	r5, [pc, #320]	; (10006178 <tud_task+0x32c>)
10006036:	2253      	movs	r2, #83	; 0x53
10006038:	2100      	movs	r1, #0
1000603a:	0028      	movs	r0, r5
1000603c:	f7fe fdb2 	bl	10004ba4 <__wrap_memset>
10006040:	2210      	movs	r2, #16
10006042:	21ff      	movs	r1, #255	; 0xff
10006044:	1ce8      	adds	r0, r5, #3
10006046:	f7fe fdad 	bl	10004ba4 <__wrap_memset>
1000604a:	0028      	movs	r0, r5
1000604c:	2220      	movs	r2, #32
1000604e:	21ff      	movs	r1, #255	; 0xff
10006050:	3013      	adds	r0, #19
10006052:	f7fe fda7 	bl	10004ba4 <__wrap_memset>
10006056:	f000 fdcf 	bl	10006bf8 <usbd_control_reset>
1000605a:	4b4f      	ldr	r3, [pc, #316]	; (10006198 <tud_task+0x34c>)
1000605c:	2b00      	cmp	r3, #0
1000605e:	d100      	bne.n	10006062 <tud_task+0x216>
10006060:	e704      	b.n	10005e6c <tud_task+0x20>
10006062:	e000      	b.n	10006066 <tud_task+0x21a>
10006064:	bf00      	nop
10006066:	e701      	b.n	10005e6c <tud_task+0x20>
10006068:	7823      	ldrb	r3, [r4, #0]
1000606a:	4d45      	ldr	r5, [pc, #276]	; (10006180 <tud_task+0x334>)
1000606c:	4a43      	ldr	r2, [pc, #268]	; (1000617c <tud_task+0x330>)
1000606e:	4698      	mov	r8, r3
10006070:	2700      	movs	r7, #0
10006072:	782b      	ldrb	r3, [r5, #0]
10006074:	2a00      	cmp	r2, #0
10006076:	d047      	beq.n	10006108 <tud_task+0x2bc>
10006078:	4a46      	ldr	r2, [pc, #280]	; (10006194 <tud_task+0x348>)
1000607a:	4691      	mov	r9, r2
1000607c:	4a44      	ldr	r2, [pc, #272]	; (10006190 <tud_task+0x344>)
1000607e:	4692      	mov	sl, r2
10006080:	002a      	movs	r2, r5
10006082:	4645      	mov	r5, r8
10006084:	4690      	mov	r8, r2
10006086:	429f      	cmp	r7, r3
10006088:	d31f      	bcc.n	100060ca <tud_task+0x27e>
1000608a:	d143      	bne.n	10006114 <tud_task+0x2c8>
1000608c:	464b      	mov	r3, r9
1000608e:	0028      	movs	r0, r5
10006090:	4798      	blx	r3
10006092:	4643      	mov	r3, r8
10006094:	3701      	adds	r7, #1
10006096:	781b      	ldrb	r3, [r3, #0]
10006098:	b2ff      	uxtb	r7, r7
1000609a:	42bb      	cmp	r3, r7
1000609c:	d2f3      	bcs.n	10006086 <tud_task+0x23a>
1000609e:	4d36      	ldr	r5, [pc, #216]	; (10006178 <tud_task+0x32c>)
100060a0:	2253      	movs	r2, #83	; 0x53
100060a2:	2100      	movs	r1, #0
100060a4:	0028      	movs	r0, r5
100060a6:	f7fe fd7d 	bl	10004ba4 <__wrap_memset>
100060aa:	2210      	movs	r2, #16
100060ac:	21ff      	movs	r1, #255	; 0xff
100060ae:	1ce8      	adds	r0, r5, #3
100060b0:	f7fe fd78 	bl	10004ba4 <__wrap_memset>
100060b4:	0028      	movs	r0, r5
100060b6:	2220      	movs	r2, #32
100060b8:	21ff      	movs	r1, #255	; 0xff
100060ba:	3013      	adds	r0, #19
100060bc:	f7fe fd72 	bl	10004ba4 <__wrap_memset>
100060c0:	f000 fd9a 	bl	10006bf8 <usbd_control_reset>
100060c4:	7923      	ldrb	r3, [r4, #4]
100060c6:	70ab      	strb	r3, [r5, #2]
100060c8:	e6d0      	b.n	10005e6c <tud_task+0x20>
100060ca:	4652      	mov	r2, sl
100060cc:	6812      	ldr	r2, [r2, #0]
100060ce:	007b      	lsls	r3, r7, #1
100060d0:	4694      	mov	ip, r2
100060d2:	19db      	adds	r3, r3, r7
100060d4:	00db      	lsls	r3, r3, #3
100060d6:	4463      	add	r3, ip
100060d8:	685b      	ldr	r3, [r3, #4]
100060da:	e7d8      	b.n	1000608e <tud_task+0x242>
100060dc:	4652      	mov	r2, sl
100060de:	6812      	ldr	r2, [r2, #0]
100060e0:	007b      	lsls	r3, r7, #1
100060e2:	4694      	mov	ip, r2
100060e4:	19db      	adds	r3, r3, r7
100060e6:	00db      	lsls	r3, r3, #3
100060e8:	4463      	add	r3, ip
100060ea:	685b      	ldr	r3, [r3, #4]
100060ec:	e79a      	b.n	10006024 <tud_task+0x1d8>
100060ee:	b00b      	add	sp, #44	; 0x2c
100060f0:	bcf0      	pop	{r4, r5, r6, r7}
100060f2:	46bb      	mov	fp, r7
100060f4:	46b2      	mov	sl, r6
100060f6:	46a9      	mov	r9, r5
100060f8:	46a0      	mov	r8, r4
100060fa:	bdf0      	pop	{r4, r5, r6, r7, pc}
100060fc:	7962      	ldrb	r2, [r4, #5]
100060fe:	7820      	ldrb	r0, [r4, #0]
10006100:	68a3      	ldr	r3, [r4, #8]
10006102:	f000 fd97 	bl	10006c34 <usbd_control_xfer_cb>
10006106:	e6b1      	b.n	10005e6c <tud_task+0x20>
10006108:	4640      	mov	r0, r8
1000610a:	f000 ff0d 	bl	10006f28 <cdcd_reset>
1000610e:	782b      	ldrb	r3, [r5, #0]
10006110:	2b00      	cmp	r3, #0
10006112:	d0c4      	beq.n	1000609e <tud_task+0x252>
10006114:	2300      	movs	r3, #0
10006116:	685b      	ldr	r3, [r3, #4]
10006118:	deff      	udf	#255	; 0xff
1000611a:	4640      	mov	r0, r8
1000611c:	f000 ff04 	bl	10006f28 <cdcd_reset>
10006120:	782b      	ldrb	r3, [r5, #0]
10006122:	2b00      	cmp	r3, #0
10006124:	d100      	bne.n	10006128 <tud_task+0x2dc>
10006126:	e785      	b.n	10006034 <tud_task+0x1e8>
10006128:	e7f4      	b.n	10006114 <tud_task+0x2c8>
1000612a:	2b00      	cmp	r3, #0
1000612c:	d100      	bne.n	10006130 <tud_task+0x2e4>
1000612e:	e69d      	b.n	10005e6c <tud_task+0x20>
10006130:	2300      	movs	r3, #0
10006132:	695b      	ldr	r3, [r3, #20]
10006134:	deff      	udf	#255	; 0xff
10006136:	4819      	ldr	r0, [pc, #100]	; (1000619c <tud_task+0x350>)
10006138:	2800      	cmp	r0, #0
1000613a:	d100      	bne.n	1000613e <tud_task+0x2f2>
1000613c:	e713      	b.n	10005f66 <tud_task+0x11a>
1000613e:	f000 fd65 	bl	10006c0c <usbd_control_set_complete_callback>
10006142:	2100      	movs	r1, #0
10006144:	4650      	mov	r0, sl
10006146:	aa08      	add	r2, sp, #32
10006148:	e000      	b.n	1000614c <tud_task+0x300>
1000614a:	bf00      	nop
1000614c:	2800      	cmp	r0, #0
1000614e:	d000      	beq.n	10006152 <tud_task+0x306>
10006150:	e68c      	b.n	10005e6c <tud_task+0x20>
10006152:	e708      	b.n	10005f66 <tud_task+0x11a>
10006154:	2a20      	cmp	r2, #32
10006156:	d100      	bne.n	1000615a <tud_task+0x30e>
10006158:	e09f      	b.n	1000629a <tud_task+0x44e>
1000615a:	2a00      	cmp	r2, #0
1000615c:	d000      	beq.n	10006160 <tud_task+0x314>
1000615e:	e702      	b.n	10005f66 <tud_task+0x11a>
10006160:	7963      	ldrb	r3, [r4, #5]
10006162:	2b09      	cmp	r3, #9
10006164:	d900      	bls.n	10006168 <tud_task+0x31c>
10006166:	e6fe      	b.n	10005f66 <tud_task+0x11a>
10006168:	4a0d      	ldr	r2, [pc, #52]	; (100061a0 <tud_task+0x354>)
1000616a:	009b      	lsls	r3, r3, #2
1000616c:	58d3      	ldr	r3, [r2, r3]
1000616e:	469f      	mov	pc, r3
10006170:	1000b93c 	.word	0x1000b93c
10006174:	2000155c 	.word	0x2000155c
10006178:	20001504 	.word	0x20001504
1000617c:	10005085 	.word	0x10005085
10006180:	20001c46 	.word	0x20001c46
10006184:	1000711d 	.word	0x1000711d
	...
10006190:	200011cc 	.word	0x200011cc
10006194:	10006f29 	.word	0x10006f29
	...
100061a0:	1000b960 	.word	0x1000b960
100061a4:	2370      	movs	r3, #112	; 0x70
100061a6:	7a21      	ldrb	r1, [r4, #8]
100061a8:	420b      	tst	r3, r1
100061aa:	d000      	beq.n	100061ae <tud_task+0x362>
100061ac:	e6db      	b.n	10005f66 <tud_task+0x11a>
100061ae:	330f      	adds	r3, #15
100061b0:	400b      	ands	r3, r1
100061b2:	005b      	lsls	r3, r3, #1
100061b4:	18f8      	adds	r0, r7, r3
100061b6:	09cd      	lsrs	r5, r1, #7
100061b8:	9300      	str	r3, [sp, #0]
100061ba:	4bc1      	ldr	r3, [pc, #772]	; (100064c0 <tud_task+0x674>)
100061bc:	1940      	adds	r0, r0, r5
100061be:	7cc0      	ldrb	r0, [r0, #19]
100061c0:	2b00      	cmp	r3, #0
100061c2:	d006      	beq.n	100061d2 <tud_task+0x386>
100061c4:	4bbf      	ldr	r3, [pc, #764]	; (100064c4 <tud_task+0x678>)
100061c6:	781b      	ldrb	r3, [r3, #0]
100061c8:	4298      	cmp	r0, r3
100061ca:	d200      	bcs.n	100061ce <tud_task+0x382>
100061cc:	e088      	b.n	100062e0 <tud_task+0x494>
100061ce:	1ac0      	subs	r0, r0, r3
100061d0:	b2c0      	uxtb	r0, r0
100061d2:	2800      	cmp	r0, #0
100061d4:	d17e      	bne.n	100062d4 <tud_task+0x488>
100061d6:	2a00      	cmp	r2, #0
100061d8:	d000      	beq.n	100061dc <tud_task+0x390>
100061da:	e115      	b.n	10006408 <tud_task+0x5bc>
100061dc:	4bba      	ldr	r3, [pc, #744]	; (100064c8 <tud_task+0x67c>)
100061de:	9301      	str	r3, [sp, #4]
100061e0:	7963      	ldrb	r3, [r4, #5]
100061e2:	4698      	mov	r8, r3
100061e4:	2302      	movs	r3, #2
100061e6:	4642      	mov	r2, r8
100061e8:	4699      	mov	r9, r3
100061ea:	439a      	bics	r2, r3
100061ec:	2a01      	cmp	r2, #1
100061ee:	d100      	bne.n	100061f2 <tud_task+0x3a6>
100061f0:	e10e      	b.n	10006410 <tud_task+0x5c4>
100061f2:	4643      	mov	r3, r8
100061f4:	2b00      	cmp	r3, #0
100061f6:	d000      	beq.n	100061fa <tud_task+0x3ae>
100061f8:	e6b5      	b.n	10005f66 <tud_task+0x11a>
100061fa:	9b00      	ldr	r3, [sp, #0]
100061fc:	aa06      	add	r2, sp, #24
100061fe:	18fb      	adds	r3, r7, r3
10006200:	195d      	adds	r5, r3, r5
10006202:	3530      	adds	r5, #48	; 0x30
10006204:	78eb      	ldrb	r3, [r5, #3]
10006206:	3202      	adds	r2, #2
10006208:	079b      	lsls	r3, r3, #30
1000620a:	0fdb      	lsrs	r3, r3, #31
1000620c:	8013      	strh	r3, [r2, #0]
1000620e:	4650      	mov	r0, sl
10006210:	2302      	movs	r3, #2
10006212:	a908      	add	r1, sp, #32
10006214:	f000 fc92 	bl	10006b3c <tud_control_xfer>
10006218:	e628      	b.n	10005e6c <tud_task+0x20>
1000621a:	005a      	lsls	r2, r3, #1
1000621c:	18d3      	adds	r3, r2, r3
1000621e:	4aab      	ldr	r2, [pc, #684]	; (100064cc <tud_task+0x680>)
10006220:	00db      	lsls	r3, r3, #3
10006222:	6812      	ldr	r2, [r2, #0]
10006224:	18d3      	adds	r3, r2, r3
10006226:	2b00      	cmp	r3, #0
10006228:	d100      	bne.n	1000622c <tud_task+0x3e0>
1000622a:	e760      	b.n	100060ee <tud_task+0x2a2>
1000622c:	691d      	ldr	r5, [r3, #16]
1000622e:	e668      	b.n	10005f02 <tud_task+0xb6>
10006230:	7a23      	ldrb	r3, [r4, #8]
10006232:	2b0f      	cmp	r3, #15
10006234:	d900      	bls.n	10006238 <tud_task+0x3ec>
10006236:	e696      	b.n	10005f66 <tud_task+0x11a>
10006238:	4aa1      	ldr	r2, [pc, #644]	; (100064c0 <tud_task+0x674>)
1000623a:	18fb      	adds	r3, r7, r3
1000623c:	78db      	ldrb	r3, [r3, #3]
1000623e:	2a00      	cmp	r2, #0
10006240:	d005      	beq.n	1000624e <tud_task+0x402>
10006242:	4aa0      	ldr	r2, [pc, #640]	; (100064c4 <tud_task+0x678>)
10006244:	7812      	ldrb	r2, [r2, #0]
10006246:	4293      	cmp	r3, r2
10006248:	d364      	bcc.n	10006314 <tud_task+0x4c8>
1000624a:	1a9b      	subs	r3, r3, r2
1000624c:	b2db      	uxtb	r3, r3
1000624e:	2b00      	cmp	r3, #0
10006250:	d000      	beq.n	10006254 <tud_task+0x408>
10006252:	e688      	b.n	10005f66 <tud_task+0x11a>
10006254:	489e      	ldr	r0, [pc, #632]	; (100064d0 <tud_task+0x684>)
10006256:	4d9c      	ldr	r5, [pc, #624]	; (100064c8 <tud_task+0x67c>)
10006258:	f000 fcd8 	bl	10006c0c <usbd_control_set_complete_callback>
1000625c:	2100      	movs	r1, #0
1000625e:	4650      	mov	r0, sl
10006260:	68eb      	ldr	r3, [r5, #12]
10006262:	aa08      	add	r2, sp, #32
10006264:	4798      	blx	r3
10006266:	2800      	cmp	r0, #0
10006268:	d000      	beq.n	1000626c <tud_task+0x420>
1000626a:	e5ff      	b.n	10005e6c <tud_task+0x20>
1000626c:	2260      	movs	r2, #96	; 0x60
1000626e:	0015      	movs	r5, r2
10006270:	7923      	ldrb	r3, [r4, #4]
10006272:	401d      	ands	r5, r3
10006274:	421a      	tst	r2, r3
10006276:	d000      	beq.n	1000627a <tud_task+0x42e>
10006278:	e675      	b.n	10005f66 <tud_task+0x11a>
1000627a:	7963      	ldrb	r3, [r4, #5]
1000627c:	3b0a      	subs	r3, #10
1000627e:	2b01      	cmp	r3, #1
10006280:	d900      	bls.n	10006284 <tud_task+0x438>
10006282:	e670      	b.n	10005f66 <tud_task+0x11a>
10006284:	f000 fcc2 	bl	10006c0c <usbd_control_set_complete_callback>
10006288:	7963      	ldrb	r3, [r4, #5]
1000628a:	2b0a      	cmp	r3, #10
1000628c:	d100      	bne.n	10006290 <tud_task+0x444>
1000628e:	e0ee      	b.n	1000646e <tud_task+0x622>
10006290:	4650      	mov	r0, sl
10006292:	a908      	add	r1, sp, #32
10006294:	f000 fc3a 	bl	10006b0c <tud_control_status>
10006298:	e5e8      	b.n	10005e6c <tud_task+0x20>
1000629a:	7a23      	ldrb	r3, [r4, #8]
1000629c:	2b0f      	cmp	r3, #15
1000629e:	d900      	bls.n	100062a2 <tud_task+0x456>
100062a0:	e661      	b.n	10005f66 <tud_task+0x11a>
100062a2:	4a87      	ldr	r2, [pc, #540]	; (100064c0 <tud_task+0x674>)
100062a4:	18fb      	adds	r3, r7, r3
100062a6:	78db      	ldrb	r3, [r3, #3]
100062a8:	2a00      	cmp	r2, #0
100062aa:	d006      	beq.n	100062ba <tud_task+0x46e>
100062ac:	4a85      	ldr	r2, [pc, #532]	; (100064c4 <tud_task+0x678>)
100062ae:	7812      	ldrb	r2, [r2, #0]
100062b0:	4293      	cmp	r3, r2
100062b2:	d200      	bcs.n	100062b6 <tud_task+0x46a>
100062b4:	e0d0      	b.n	10006458 <tud_task+0x60c>
100062b6:	1a9b      	subs	r3, r3, r2
100062b8:	b2db      	uxtb	r3, r3
100062ba:	2b00      	cmp	r3, #0
100062bc:	d000      	beq.n	100062c0 <tud_task+0x474>
100062be:	e652      	b.n	10005f66 <tud_task+0x11a>
100062c0:	4883      	ldr	r0, [pc, #524]	; (100064d0 <tud_task+0x684>)
100062c2:	4d81      	ldr	r5, [pc, #516]	; (100064c8 <tud_task+0x67c>)
100062c4:	f000 fca2 	bl	10006c0c <usbd_control_set_complete_callback>
100062c8:	2100      	movs	r1, #0
100062ca:	4650      	mov	r0, sl
100062cc:	68eb      	ldr	r3, [r5, #12]
100062ce:	aa08      	add	r2, sp, #32
100062d0:	4798      	blx	r3
100062d2:	e73b      	b.n	1000614c <tud_task+0x300>
100062d4:	2a00      	cmp	r2, #0
100062d6:	d000      	beq.n	100062da <tud_task+0x48e>
100062d8:	e645      	b.n	10005f66 <tud_task+0x11a>
100062da:	2300      	movs	r3, #0
100062dc:	9301      	str	r3, [sp, #4]
100062de:	e77f      	b.n	100061e0 <tud_task+0x394>
100062e0:	0043      	lsls	r3, r0, #1
100062e2:	469c      	mov	ip, r3
100062e4:	4b79      	ldr	r3, [pc, #484]	; (100064cc <tud_task+0x680>)
100062e6:	4460      	add	r0, ip
100062e8:	681b      	ldr	r3, [r3, #0]
100062ea:	00c0      	lsls	r0, r0, #3
100062ec:	469c      	mov	ip, r3
100062ee:	0003      	movs	r3, r0
100062f0:	4463      	add	r3, ip
100062f2:	9301      	str	r3, [sp, #4]
100062f4:	2a00      	cmp	r2, #0
100062f6:	d100      	bne.n	100062fa <tud_task+0x4ae>
100062f8:	e772      	b.n	100061e0 <tud_task+0x394>
100062fa:	2b00      	cmp	r3, #0
100062fc:	d100      	bne.n	10006300 <tud_task+0x4b4>
100062fe:	e632      	b.n	10005f66 <tud_task+0x11a>
10006300:	68d8      	ldr	r0, [r3, #12]
10006302:	f000 fc83 	bl	10006c0c <usbd_control_set_complete_callback>
10006306:	9b01      	ldr	r3, [sp, #4]
10006308:	2100      	movs	r1, #0
1000630a:	4650      	mov	r0, sl
1000630c:	68db      	ldr	r3, [r3, #12]
1000630e:	aa08      	add	r2, sp, #32
10006310:	4798      	blx	r3
10006312:	e71b      	b.n	1000614c <tud_task+0x300>
10006314:	4a6d      	ldr	r2, [pc, #436]	; (100064cc <tud_task+0x680>)
10006316:	005d      	lsls	r5, r3, #1
10006318:	18eb      	adds	r3, r5, r3
1000631a:	6815      	ldr	r5, [r2, #0]
1000631c:	00db      	lsls	r3, r3, #3
1000631e:	18ed      	adds	r5, r5, r3
10006320:	2d00      	cmp	r5, #0
10006322:	d100      	bne.n	10006326 <tud_task+0x4da>
10006324:	e61f      	b.n	10005f66 <tud_task+0x11a>
10006326:	68e8      	ldr	r0, [r5, #12]
10006328:	e796      	b.n	10006258 <tud_task+0x40c>
1000632a:	88e3      	ldrh	r3, [r4, #6]
1000632c:	2b01      	cmp	r3, #1
1000632e:	d000      	beq.n	10006332 <tud_task+0x4e6>
10006330:	e619      	b.n	10005f66 <tud_task+0x11a>
10006332:	2208      	movs	r2, #8
10006334:	783b      	ldrb	r3, [r7, #0]
10006336:	4650      	mov	r0, sl
10006338:	4393      	bics	r3, r2
1000633a:	a908      	add	r1, sp, #32
1000633c:	703b      	strb	r3, [r7, #0]
1000633e:	f000 fbe5 	bl	10006b0c <tud_control_status>
10006342:	e593      	b.n	10005e6c <tud_task+0x20>
10006344:	2002      	movs	r0, #2
10006346:	7839      	ldrb	r1, [r7, #0]
10006348:	ab06      	add	r3, sp, #24
1000634a:	1c9a      	adds	r2, r3, #2
1000634c:	068b      	lsls	r3, r1, #26
1000634e:	0889      	lsrs	r1, r1, #2
10006350:	0fdb      	lsrs	r3, r3, #31
10006352:	4001      	ands	r1, r0
10006354:	430b      	orrs	r3, r1
10006356:	e759      	b.n	1000620c <tud_task+0x3c0>
10006358:	79a3      	ldrb	r3, [r4, #6]
1000635a:	9301      	str	r3, [sp, #4]
1000635c:	001a      	movs	r2, r3
1000635e:	787b      	ldrb	r3, [r7, #1]
10006360:	429a      	cmp	r2, r3
10006362:	d007      	beq.n	10006374 <tud_task+0x528>
10006364:	787b      	ldrb	r3, [r7, #1]
10006366:	2b00      	cmp	r3, #0
10006368:	d000      	beq.n	1000636c <tud_task+0x520>
1000636a:	e11e      	b.n	100065aa <tud_task+0x75e>
1000636c:	9b01      	ldr	r3, [sp, #4]
1000636e:	2b00      	cmp	r3, #0
10006370:	d000      	beq.n	10006374 <tud_task+0x528>
10006372:	e0b3      	b.n	100064dc <tud_task+0x690>
10006374:	9b01      	ldr	r3, [sp, #4]
10006376:	4650      	mov	r0, sl
10006378:	a908      	add	r1, sp, #32
1000637a:	707b      	strb	r3, [r7, #1]
1000637c:	f000 fbc6 	bl	10006b0c <tud_control_status>
10006380:	e574      	b.n	10005e6c <tud_task+0x20>
10006382:	787b      	ldrb	r3, [r7, #1]
10006384:	aa06      	add	r2, sp, #24
10006386:	3202      	adds	r2, #2
10006388:	7013      	strb	r3, [r2, #0]
1000638a:	4650      	mov	r0, sl
1000638c:	2301      	movs	r3, #1
1000638e:	a908      	add	r1, sp, #32
10006390:	f000 fbd4 	bl	10006b3c <tud_control_xfer>
10006394:	e56a      	b.n	10005e6c <tud_task+0x20>
10006396:	88e0      	ldrh	r0, [r4, #6]
10006398:	0a03      	lsrs	r3, r0, #8
1000639a:	b2c0      	uxtb	r0, r0
1000639c:	2b0f      	cmp	r3, #15
1000639e:	d900      	bls.n	100063a2 <tud_task+0x556>
100063a0:	e5e1      	b.n	10005f66 <tud_task+0x11a>
100063a2:	494c      	ldr	r1, [pc, #304]	; (100064d4 <tud_task+0x688>)
100063a4:	009a      	lsls	r2, r3, #2
100063a6:	588a      	ldr	r2, [r1, r2]
100063a8:	4697      	mov	pc, r2
100063aa:	a808      	add	r0, sp, #32
100063ac:	f000 fc34 	bl	10006c18 <usbd_control_set_request>
100063b0:	4650      	mov	r0, sl
100063b2:	79a1      	ldrb	r1, [r4, #6]
100063b4:	f7ff f900 	bl	100055b8 <dcd_set_address>
100063b8:	2202      	movs	r2, #2
100063ba:	783b      	ldrb	r3, [r7, #0]
100063bc:	4313      	orrs	r3, r2
100063be:	703b      	strb	r3, [r7, #0]
100063c0:	e554      	b.n	10005e6c <tud_task+0x20>
100063c2:	88e3      	ldrh	r3, [r4, #6]
100063c4:	2b01      	cmp	r3, #1
100063c6:	d000      	beq.n	100063ca <tud_task+0x57e>
100063c8:	e5cd      	b.n	10005f66 <tud_task+0x11a>
100063ca:	2208      	movs	r2, #8
100063cc:	783b      	ldrb	r3, [r7, #0]
100063ce:	4650      	mov	r0, sl
100063d0:	4313      	orrs	r3, r2
100063d2:	a908      	add	r1, sp, #32
100063d4:	703b      	strb	r3, [r7, #0]
100063d6:	f000 fb99 	bl	10006b0c <tud_control_status>
100063da:	e547      	b.n	10005e6c <tud_task+0x20>
100063dc:	2b02      	cmp	r3, #2
100063de:	d100      	bne.n	100063e2 <tud_task+0x596>
100063e0:	e194      	b.n	1000670c <tud_task+0x8c0>
100063e2:	4b3d      	ldr	r3, [pc, #244]	; (100064d8 <tud_task+0x68c>)
100063e4:	2b00      	cmp	r3, #0
100063e6:	d100      	bne.n	100063ea <tud_task+0x59e>
100063e8:	e5bd      	b.n	10005f66 <tud_task+0x11a>
100063ea:	e000      	b.n	100063ee <tud_task+0x5a2>
100063ec:	bf00      	nop
100063ee:	0002      	movs	r2, r0
100063f0:	2a00      	cmp	r2, #0
100063f2:	d100      	bne.n	100063f6 <tud_task+0x5aa>
100063f4:	e5b7      	b.n	10005f66 <tud_task+0x11a>
100063f6:	78d3      	ldrb	r3, [r2, #3]
100063f8:	7891      	ldrb	r1, [r2, #2]
100063fa:	021b      	lsls	r3, r3, #8
100063fc:	430b      	orrs	r3, r1
100063fe:	4650      	mov	r0, sl
10006400:	a908      	add	r1, sp, #32
10006402:	f000 fb9b 	bl	10006b3c <tud_control_xfer>
10006406:	e6a1      	b.n	1000614c <tud_task+0x300>
10006408:	4b2f      	ldr	r3, [pc, #188]	; (100064c8 <tud_task+0x67c>)
1000640a:	4831      	ldr	r0, [pc, #196]	; (100064d0 <tud_task+0x684>)
1000640c:	9301      	str	r3, [sp, #4]
1000640e:	e778      	b.n	10006302 <tud_task+0x4b6>
10006410:	88e2      	ldrh	r2, [r4, #6]
10006412:	2a00      	cmp	r2, #0
10006414:	d109      	bne.n	1000642a <tud_task+0x5de>
10006416:	4643      	mov	r3, r8
10006418:	2b01      	cmp	r3, #1
1000641a:	d03d      	beq.n	10006498 <tud_task+0x64c>
1000641c:	9b00      	ldr	r3, [sp, #0]
1000641e:	18fb      	adds	r3, r7, r3
10006420:	195d      	adds	r5, r3, r5
10006422:	3530      	adds	r5, #48	; 0x30
10006424:	78eb      	ldrb	r3, [r5, #3]
10006426:	079b      	lsls	r3, r3, #30
10006428:	d52a      	bpl.n	10006480 <tud_task+0x634>
1000642a:	9d01      	ldr	r5, [sp, #4]
1000642c:	2d00      	cmp	r5, #0
1000642e:	d100      	bne.n	10006432 <tud_task+0x5e6>
10006430:	e51c      	b.n	10005e6c <tud_task+0x20>
10006432:	68eb      	ldr	r3, [r5, #12]
10006434:	0018      	movs	r0, r3
10006436:	9300      	str	r3, [sp, #0]
10006438:	f000 fbe8 	bl	10006c0c <usbd_control_set_complete_callback>
1000643c:	68eb      	ldr	r3, [r5, #12]
1000643e:	2100      	movs	r1, #0
10006440:	aa08      	add	r2, sp, #32
10006442:	4650      	mov	r0, sl
10006444:	4798      	blx	r3
10006446:	2000      	movs	r0, #0
10006448:	f000 fbe0 	bl	10006c0c <usbd_control_set_complete_callback>
1000644c:	2334      	movs	r3, #52	; 0x34
1000644e:	5cfb      	ldrb	r3, [r7, r3]
10006450:	07db      	lsls	r3, r3, #31
10006452:	d500      	bpl.n	10006456 <tud_task+0x60a>
10006454:	e50a      	b.n	10005e6c <tud_task+0x20>
10006456:	e71b      	b.n	10006290 <tud_task+0x444>
10006458:	4a1c      	ldr	r2, [pc, #112]	; (100064cc <tud_task+0x680>)
1000645a:	005d      	lsls	r5, r3, #1
1000645c:	18eb      	adds	r3, r5, r3
1000645e:	6815      	ldr	r5, [r2, #0]
10006460:	00db      	lsls	r3, r3, #3
10006462:	18ed      	adds	r5, r5, r3
10006464:	2d00      	cmp	r5, #0
10006466:	d100      	bne.n	1000646a <tud_task+0x61e>
10006468:	e57d      	b.n	10005f66 <tud_task+0x11a>
1000646a:	68e8      	ldr	r0, [r5, #12]
1000646c:	e72a      	b.n	100062c4 <tud_task+0x478>
1000646e:	ab06      	add	r3, sp, #24
10006470:	1c9a      	adds	r2, r3, #2
10006472:	4650      	mov	r0, sl
10006474:	2301      	movs	r3, #1
10006476:	a908      	add	r1, sp, #32
10006478:	7015      	strb	r5, [r2, #0]
1000647a:	f000 fb5f 	bl	10006b3c <tud_control_xfer>
1000647e:	e4f5      	b.n	10005e6c <tud_task+0x20>
10006480:	4650      	mov	r0, sl
10006482:	f7ff fa43 	bl	1000590c <dcd_edpt_stall>
10006486:	2202      	movs	r2, #2
10006488:	78eb      	ldrb	r3, [r5, #3]
1000648a:	4313      	orrs	r3, r2
1000648c:	2201      	movs	r2, #1
1000648e:	70eb      	strb	r3, [r5, #3]
10006490:	78eb      	ldrb	r3, [r5, #3]
10006492:	4313      	orrs	r3, r2
10006494:	70eb      	strb	r3, [r5, #3]
10006496:	e7c8      	b.n	1000642a <tud_task+0x5de>
10006498:	9b00      	ldr	r3, [sp, #0]
1000649a:	18fb      	adds	r3, r7, r3
1000649c:	195d      	adds	r5, r3, r5
1000649e:	3530      	adds	r5, #48	; 0x30
100064a0:	78eb      	ldrb	r3, [r5, #3]
100064a2:	079b      	lsls	r3, r3, #30
100064a4:	d5c1      	bpl.n	1000642a <tud_task+0x5de>
100064a6:	4650      	mov	r0, sl
100064a8:	f7ff fa4c 	bl	10005944 <dcd_edpt_clear_stall>
100064ac:	464a      	mov	r2, r9
100064ae:	78eb      	ldrb	r3, [r5, #3]
100064b0:	4393      	bics	r3, r2
100064b2:	4642      	mov	r2, r8
100064b4:	70eb      	strb	r3, [r5, #3]
100064b6:	78eb      	ldrb	r3, [r5, #3]
100064b8:	4393      	bics	r3, r2
100064ba:	70eb      	strb	r3, [r5, #3]
100064bc:	e7b5      	b.n	1000642a <tud_task+0x5de>
100064be:	46c0      	nop			; (mov r8, r8)
100064c0:	10005085 	.word	0x10005085
100064c4:	20001c46 	.word	0x20001c46
100064c8:	1000b9c8 	.word	0x1000b9c8
100064cc:	200011cc 	.word	0x200011cc
100064d0:	10007039 	.word	0x10007039
100064d4:	1000b988 	.word	0x1000b988
100064d8:	00000000 	.word	0x00000000
100064dc:	1e58      	subs	r0, r3, #1
100064de:	b2c0      	uxtb	r0, r0
100064e0:	f7fe ff18 	bl	10005314 <tud_descriptor_configuration_cb>
100064e4:	2800      	cmp	r0, #0
100064e6:	d100      	bne.n	100064ea <tud_task+0x69e>
100064e8:	e53d      	b.n	10005f66 <tud_task+0x11a>
100064ea:	7843      	ldrb	r3, [r0, #1]
100064ec:	9304      	str	r3, [sp, #16]
100064ee:	2b02      	cmp	r3, #2
100064f0:	d000      	beq.n	100064f4 <tud_task+0x6a8>
100064f2:	e538      	b.n	10005f66 <tud_task+0x11a>
100064f4:	2101      	movs	r1, #1
100064f6:	79c3      	ldrb	r3, [r0, #7]
100064f8:	119a      	asrs	r2, r3, #6
100064fa:	115b      	asrs	r3, r3, #5
100064fc:	400a      	ands	r2, r1
100064fe:	400b      	ands	r3, r1
10006500:	0152      	lsls	r2, r2, #5
10006502:	011b      	lsls	r3, r3, #4
10006504:	4313      	orrs	r3, r2
10006506:	783a      	ldrb	r2, [r7, #0]
10006508:	312f      	adds	r1, #47	; 0x2f
1000650a:	438a      	bics	r2, r1
1000650c:	4313      	orrs	r3, r2
1000650e:	703b      	strb	r3, [r7, #0]
10006510:	2309      	movs	r3, #9
10006512:	4699      	mov	r9, r3
10006514:	78c3      	ldrb	r3, [r0, #3]
10006516:	7882      	ldrb	r2, [r0, #2]
10006518:	021b      	lsls	r3, r3, #8
1000651a:	4313      	orrs	r3, r2
1000651c:	18c3      	adds	r3, r0, r3
1000651e:	4481      	add	r9, r0
10006520:	9303      	str	r3, [sp, #12]
10006522:	9b03      	ldr	r3, [sp, #12]
10006524:	454b      	cmp	r3, r9
10006526:	d800      	bhi.n	1000652a <tud_task+0x6de>
10006528:	e0e9      	b.n	100066fe <tud_task+0x8b2>
1000652a:	464b      	mov	r3, r9
1000652c:	2201      	movs	r2, #1
1000652e:	785b      	ldrb	r3, [r3, #1]
10006530:	9200      	str	r2, [sp, #0]
10006532:	2b0b      	cmp	r3, #11
10006534:	d107      	bne.n	10006546 <tud_task+0x6fa>
10006536:	464b      	mov	r3, r9
10006538:	78db      	ldrb	r3, [r3, #3]
1000653a:	9300      	str	r3, [sp, #0]
1000653c:	464b      	mov	r3, r9
1000653e:	781b      	ldrb	r3, [r3, #0]
10006540:	4499      	add	r9, r3
10006542:	464b      	mov	r3, r9
10006544:	785b      	ldrb	r3, [r3, #1]
10006546:	2b04      	cmp	r3, #4
10006548:	d000      	beq.n	1000654c <tud_task+0x700>
1000654a:	e50c      	b.n	10005f66 <tud_task+0x11a>
1000654c:	464a      	mov	r2, r9
1000654e:	9b03      	ldr	r3, [sp, #12]
10006550:	2500      	movs	r5, #0
10006552:	1a9b      	subs	r3, r3, r2
10006554:	b29b      	uxth	r3, r3
10006556:	9302      	str	r3, [sp, #8]
10006558:	4a6e      	ldr	r2, [pc, #440]	; (10006714 <tud_task+0x8c8>)
1000655a:	4b6f      	ldr	r3, [pc, #444]	; (10006718 <tud_task+0x8cc>)
1000655c:	781b      	ldrb	r3, [r3, #0]
1000655e:	2a00      	cmp	r2, #0
10006560:	d116      	bne.n	10006590 <tud_task+0x744>
10006562:	e062      	b.n	1000662a <tud_task+0x7de>
10006564:	42ab      	cmp	r3, r5
10006566:	d171      	bne.n	1000664c <tud_task+0x800>
10006568:	4a6c      	ldr	r2, [pc, #432]	; (1000671c <tud_task+0x8d0>)
1000656a:	4b6d      	ldr	r3, [pc, #436]	; (10006720 <tud_task+0x8d4>)
1000656c:	4690      	mov	r8, r2
1000656e:	4649      	mov	r1, r9
10006570:	4650      	mov	r0, sl
10006572:	9a02      	ldr	r2, [sp, #8]
10006574:	4798      	blx	r3
10006576:	4684      	mov	ip, r0
10006578:	2808      	cmp	r0, #8
1000657a:	d902      	bls.n	10006582 <tud_task+0x736>
1000657c:	9a02      	ldr	r2, [sp, #8]
1000657e:	4282      	cmp	r2, r0
10006580:	d269      	bcs.n	10006656 <tud_task+0x80a>
10006582:	4b65      	ldr	r3, [pc, #404]	; (10006718 <tud_task+0x8cc>)
10006584:	3501      	adds	r5, #1
10006586:	781b      	ldrb	r3, [r3, #0]
10006588:	b2ed      	uxtb	r5, r5
1000658a:	42ab      	cmp	r3, r5
1000658c:	d200      	bcs.n	10006590 <tud_task+0x744>
1000658e:	e4ea      	b.n	10005f66 <tud_task+0x11a>
10006590:	42ab      	cmp	r3, r5
10006592:	d9e7      	bls.n	10006564 <tud_task+0x718>
10006594:	4a63      	ldr	r2, [pc, #396]	; (10006724 <tud_task+0x8d8>)
10006596:	006b      	lsls	r3, r5, #1
10006598:	6812      	ldr	r2, [r2, #0]
1000659a:	195b      	adds	r3, r3, r5
1000659c:	4690      	mov	r8, r2
1000659e:	00db      	lsls	r3, r3, #3
100065a0:	4498      	add	r8, r3
100065a2:	4643      	mov	r3, r8
100065a4:	9205      	str	r2, [sp, #20]
100065a6:	689b      	ldr	r3, [r3, #8]
100065a8:	e7e1      	b.n	1000656e <tud_task+0x722>
100065aa:	4650      	mov	r0, sl
100065ac:	f7ff f93e 	bl	1000582c <dcd_edpt_close_all>
100065b0:	78bb      	ldrb	r3, [r7, #2]
100065b2:	4d59      	ldr	r5, [pc, #356]	; (10006718 <tud_task+0x8cc>)
100065b4:	4a57      	ldr	r2, [pc, #348]	; (10006714 <tud_task+0x8c8>)
100065b6:	9300      	str	r3, [sp, #0]
100065b8:	2100      	movs	r1, #0
100065ba:	782b      	ldrb	r3, [r5, #0]
100065bc:	2a00      	cmp	r2, #0
100065be:	d02d      	beq.n	1000661c <tud_task+0x7d0>
100065c0:	4a58      	ldr	r2, [pc, #352]	; (10006724 <tud_task+0x8d8>)
100065c2:	4690      	mov	r8, r2
100065c4:	002a      	movs	r2, r5
100065c6:	000d      	movs	r5, r1
100065c8:	4691      	mov	r9, r2
100065ca:	429d      	cmp	r5, r3
100065cc:	d31d      	bcc.n	1000660a <tud_task+0x7be>
100065ce:	d000      	beq.n	100065d2 <tud_task+0x786>
100065d0:	e5a0      	b.n	10006114 <tud_task+0x2c8>
100065d2:	4b55      	ldr	r3, [pc, #340]	; (10006728 <tud_task+0x8dc>)
100065d4:	4650      	mov	r0, sl
100065d6:	4798      	blx	r3
100065d8:	464b      	mov	r3, r9
100065da:	3501      	adds	r5, #1
100065dc:	781b      	ldrb	r3, [r3, #0]
100065de:	b2ed      	uxtb	r5, r5
100065e0:	42ab      	cmp	r3, r5
100065e2:	d2f2      	bcs.n	100065ca <tud_task+0x77e>
100065e4:	2253      	movs	r2, #83	; 0x53
100065e6:	2100      	movs	r1, #0
100065e8:	0038      	movs	r0, r7
100065ea:	f7fe fadb 	bl	10004ba4 <__wrap_memset>
100065ee:	2210      	movs	r2, #16
100065f0:	21ff      	movs	r1, #255	; 0xff
100065f2:	1cf8      	adds	r0, r7, #3
100065f4:	f7fe fad6 	bl	10004ba4 <__wrap_memset>
100065f8:	0038      	movs	r0, r7
100065fa:	2220      	movs	r2, #32
100065fc:	21ff      	movs	r1, #255	; 0xff
100065fe:	3013      	adds	r0, #19
10006600:	f7fe fad0 	bl	10004ba4 <__wrap_memset>
10006604:	9b00      	ldr	r3, [sp, #0]
10006606:	70bb      	strb	r3, [r7, #2]
10006608:	e6b0      	b.n	1000636c <tud_task+0x520>
1000660a:	4642      	mov	r2, r8
1000660c:	6812      	ldr	r2, [r2, #0]
1000660e:	006b      	lsls	r3, r5, #1
10006610:	4694      	mov	ip, r2
10006612:	195b      	adds	r3, r3, r5
10006614:	00db      	lsls	r3, r3, #3
10006616:	4463      	add	r3, ip
10006618:	685b      	ldr	r3, [r3, #4]
1000661a:	e7db      	b.n	100065d4 <tud_task+0x788>
1000661c:	4650      	mov	r0, sl
1000661e:	f000 fc83 	bl	10006f28 <cdcd_reset>
10006622:	782b      	ldrb	r3, [r5, #0]
10006624:	2b00      	cmp	r3, #0
10006626:	d0dd      	beq.n	100065e4 <tud_task+0x798>
10006628:	e574      	b.n	10006114 <tud_task+0x2c8>
1000662a:	9b02      	ldr	r3, [sp, #8]
1000662c:	4649      	mov	r1, r9
1000662e:	001a      	movs	r2, r3
10006630:	4650      	mov	r0, sl
10006632:	4698      	mov	r8, r3
10006634:	f000 fc8e 	bl	10006f54 <cdcd_open>
10006638:	4684      	mov	ip, r0
1000663a:	2808      	cmp	r0, #8
1000663c:	d901      	bls.n	10006642 <tud_task+0x7f6>
1000663e:	4540      	cmp	r0, r8
10006640:	d907      	bls.n	10006652 <tud_task+0x806>
10006642:	4b35      	ldr	r3, [pc, #212]	; (10006718 <tud_task+0x8cc>)
10006644:	781b      	ldrb	r3, [r3, #0]
10006646:	2b00      	cmp	r3, #0
10006648:	d100      	bne.n	1000664c <tud_task+0x800>
1000664a:	e48c      	b.n	10005f66 <tud_task+0x11a>
1000664c:	2300      	movs	r3, #0
1000664e:	689b      	ldr	r3, [r3, #8]
10006650:	deff      	udf	#255	; 0xff
10006652:	4b32      	ldr	r3, [pc, #200]	; (1000671c <tud_task+0x8d0>)
10006654:	4698      	mov	r8, r3
10006656:	9b00      	ldr	r3, [sp, #0]
10006658:	2b01      	cmp	r3, #1
1000665a:	d048      	beq.n	100066ee <tud_task+0x8a2>
1000665c:	9b00      	ldr	r3, [sp, #0]
1000665e:	2b00      	cmp	r3, #0
10006660:	d010      	beq.n	10006684 <tud_task+0x838>
10006662:	464b      	mov	r3, r9
10006664:	7899      	ldrb	r1, [r3, #2]
10006666:	2300      	movs	r3, #0
10006668:	e005      	b.n	10006676 <tud_task+0x82a>
1000666a:	70d5      	strb	r5, [r2, #3]
1000666c:	3301      	adds	r3, #1
1000666e:	9a00      	ldr	r2, [sp, #0]
10006670:	b2db      	uxtb	r3, r3
10006672:	4293      	cmp	r3, r2
10006674:	d206      	bcs.n	10006684 <tud_task+0x838>
10006676:	18ca      	adds	r2, r1, r3
10006678:	b2d2      	uxtb	r2, r2
1000667a:	18ba      	adds	r2, r7, r2
1000667c:	78d0      	ldrb	r0, [r2, #3]
1000667e:	28ff      	cmp	r0, #255	; 0xff
10006680:	d0f3      	beq.n	1000666a <tud_task+0x81e>
10006682:	e470      	b.n	10005f66 <tud_task+0x11a>
10006684:	0038      	movs	r0, r7
10006686:	46e0      	mov	r8, ip
10006688:	002b      	movs	r3, r5
1000668a:	4649      	mov	r1, r9
1000668c:	4662      	mov	r2, ip
1000668e:	3013      	adds	r0, #19
10006690:	f000 fe2e 	bl	100072f0 <tu_edpt_bind_driver>
10006694:	4b20      	ldr	r3, [pc, #128]	; (10006718 <tud_task+0x8cc>)
10006696:	44c1      	add	r9, r8
10006698:	781b      	ldrb	r3, [r3, #0]
1000669a:	42ab      	cmp	r3, r5
1000669c:	d300      	bcc.n	100066a0 <tud_task+0x854>
1000669e:	e740      	b.n	10006522 <tud_task+0x6d6>
100066a0:	e461      	b.n	10005f66 <tud_task+0x11a>
100066a2:	4b22      	ldr	r3, [pc, #136]	; (1000672c <tud_task+0x8e0>)
100066a4:	2b00      	cmp	r3, #0
100066a6:	d100      	bne.n	100066aa <tud_task+0x85e>
100066a8:	e45d      	b.n	10005f66 <tud_task+0x11a>
100066aa:	e000      	b.n	100066ae <tud_task+0x862>
100066ac:	bf00      	nop
100066ae:	0002      	movs	r2, r0
100066b0:	e6a1      	b.n	100063f6 <tud_task+0x5aa>
100066b2:	f7fe fe2b 	bl	1000530c <tud_descriptor_device_cb>
100066b6:	2312      	movs	r3, #18
100066b8:	0002      	movs	r2, r0
100066ba:	a908      	add	r1, sp, #32
100066bc:	4650      	mov	r0, sl
100066be:	f000 fa3d 	bl	10006b3c <tud_control_xfer>
100066c2:	e543      	b.n	1000614c <tud_task+0x300>
100066c4:	4b1a      	ldr	r3, [pc, #104]	; (10006730 <tud_task+0x8e4>)
100066c6:	2b00      	cmp	r3, #0
100066c8:	d100      	bne.n	100066cc <tud_task+0x880>
100066ca:	e44c      	b.n	10005f66 <tud_task+0x11a>
100066cc:	e000      	b.n	100066d0 <tud_task+0x884>
100066ce:	bf00      	nop
100066d0:	1e02      	subs	r2, r0, #0
100066d2:	d100      	bne.n	100066d6 <tud_task+0x88a>
100066d4:	e447      	b.n	10005f66 <tud_task+0x11a>
100066d6:	4650      	mov	r0, sl
100066d8:	7813      	ldrb	r3, [r2, #0]
100066da:	a908      	add	r1, sp, #32
100066dc:	f000 fa2e 	bl	10006b3c <tud_control_xfer>
100066e0:	e534      	b.n	1000614c <tud_task+0x300>
100066e2:	8921      	ldrh	r1, [r4, #8]
100066e4:	f7fe fe1a 	bl	1000531c <tud_descriptor_string_cb>
100066e8:	1e02      	subs	r2, r0, #0
100066ea:	d1f4      	bne.n	100066d6 <tud_task+0x88a>
100066ec:	e43b      	b.n	10005f66 <tud_task+0x11a>
100066ee:	4642      	mov	r2, r8
100066f0:	4b0b      	ldr	r3, [pc, #44]	; (10006720 <tud_task+0x8d4>)
100066f2:	6892      	ldr	r2, [r2, #8]
100066f4:	429a      	cmp	r2, r3
100066f6:	d1b4      	bne.n	10006662 <tud_task+0x816>
100066f8:	9b04      	ldr	r3, [sp, #16]
100066fa:	9300      	str	r3, [sp, #0]
100066fc:	e7b1      	b.n	10006662 <tud_task+0x816>
100066fe:	4b0d      	ldr	r3, [pc, #52]	; (10006734 <tud_task+0x8e8>)
10006700:	2b00      	cmp	r3, #0
10006702:	d100      	bne.n	10006706 <tud_task+0x8ba>
10006704:	e636      	b.n	10006374 <tud_task+0x528>
10006706:	e000      	b.n	1000670a <tud_task+0x8be>
10006708:	bf00      	nop
1000670a:	e633      	b.n	10006374 <tud_task+0x528>
1000670c:	f7fe fe02 	bl	10005314 <tud_descriptor_configuration_cb>
10006710:	0002      	movs	r2, r0
10006712:	e66d      	b.n	100063f0 <tud_task+0x5a4>
10006714:	10005085 	.word	0x10005085
10006718:	20001c46 	.word	0x20001c46
1000671c:	1000b9c8 	.word	0x1000b9c8
10006720:	10006f55 	.word	0x10006f55
10006724:	200011cc 	.word	0x200011cc
10006728:	10006f29 	.word	0x10006f29
	...

10006738 <dcd_event_bus_signal>:
10006738:	b530      	push	{r4, r5, lr}
1000673a:	b087      	sub	sp, #28
1000673c:	0005      	movs	r5, r0
1000673e:	000c      	movs	r4, r1
10006740:	220c      	movs	r2, #12
10006742:	2100      	movs	r1, #0
10006744:	4668      	mov	r0, sp
10006746:	f7fe fa2d 	bl	10004ba4 <__wrap_memset>
1000674a:	466b      	mov	r3, sp
1000674c:	701d      	strb	r5, [r3, #0]
1000674e:	705c      	strb	r4, [r3, #1]
10006750:	2c04      	cmp	r4, #4
10006752:	d04f      	beq.n	100067f4 <dcd_event_bus_signal+0xbc>
10006754:	d809      	bhi.n	1000676a <dcd_event_bus_signal+0x32>
10006756:	2c02      	cmp	r4, #2
10006758:	d034      	beq.n	100067c4 <dcd_event_bus_signal+0x8c>
1000675a:	2c03      	cmp	r4, #3
1000675c:	d119      	bne.n	10006792 <dcd_event_bus_signal+0x5a>
1000675e:	4b3c      	ldr	r3, [pc, #240]	; (10006850 <dcd_event_bus_signal+0x118>)
10006760:	781a      	ldrb	r2, [r3, #0]
10006762:	0752      	lsls	r2, r2, #29
10006764:	d458      	bmi.n	10006818 <dcd_event_bus_signal+0xe0>
10006766:	b007      	add	sp, #28
10006768:	bd30      	pop	{r4, r5, pc}
1000676a:	2c05      	cmp	r4, #5
1000676c:	d111      	bne.n	10006792 <dcd_event_bus_signal+0x5a>
1000676e:	4b38      	ldr	r3, [pc, #224]	; (10006850 <dcd_event_bus_signal+0x118>)
10006770:	781a      	ldrb	r2, [r3, #0]
10006772:	07d2      	lsls	r2, r2, #31
10006774:	d5f7      	bpl.n	10006766 <dcd_event_bus_signal+0x2e>
10006776:	2104      	movs	r1, #4
10006778:	781a      	ldrb	r2, [r3, #0]
1000677a:	438a      	bics	r2, r1
1000677c:	701a      	strb	r2, [r3, #0]
1000677e:	4b35      	ldr	r3, [pc, #212]	; (10006854 <dcd_event_bus_signal+0x11c>)
10006780:	681c      	ldr	r4, [r3, #0]
10006782:	69e2      	ldr	r2, [r4, #28]
10006784:	f3ef 8110 	mrs	r1, PRIMASK
10006788:	b672      	cpsid	i
1000678a:	6813      	ldr	r3, [r2, #0]
1000678c:	2b00      	cmp	r3, #0
1000678e:	d109      	bne.n	100067a4 <dcd_event_bus_signal+0x6c>
10006790:	e7fb      	b.n	1000678a <dcd_event_bus_signal+0x52>
10006792:	4b30      	ldr	r3, [pc, #192]	; (10006854 <dcd_event_bus_signal+0x11c>)
10006794:	681c      	ldr	r4, [r3, #0]
10006796:	69e2      	ldr	r2, [r4, #28]
10006798:	f3ef 8110 	mrs	r1, PRIMASK
1000679c:	b672      	cpsid	i
1000679e:	6813      	ldr	r3, [r2, #0]
100067a0:	2b00      	cmp	r3, #0
100067a2:	d0fc      	beq.n	1000679e <dcd_event_bus_signal+0x66>
100067a4:	f3bf 8f5f 	dmb	sy
100067a8:	6221      	str	r1, [r4, #32]
100067aa:	4669      	mov	r1, sp
100067ac:	0020      	movs	r0, r4
100067ae:	f000 fee5 	bl	1000757c <tu_fifo_write>
100067b2:	69e2      	ldr	r2, [r4, #28]
100067b4:	6a23      	ldr	r3, [r4, #32]
100067b6:	f3bf 8f5f 	dmb	sy
100067ba:	2100      	movs	r1, #0
100067bc:	6011      	str	r1, [r2, #0]
100067be:	f383 8810 	msr	PRIMASK, r3
100067c2:	e7d0      	b.n	10006766 <dcd_event_bus_signal+0x2e>
100067c4:	2101      	movs	r1, #1
100067c6:	4b22      	ldr	r3, [pc, #136]	; (10006850 <dcd_event_bus_signal+0x118>)
100067c8:	781a      	ldrb	r2, [r3, #0]
100067ca:	438a      	bics	r2, r1
100067cc:	701a      	strb	r2, [r3, #0]
100067ce:	781a      	ldrb	r2, [r3, #0]
100067d0:	3103      	adds	r1, #3
100067d2:	43a2      	bics	r2, r4
100067d4:	701a      	strb	r2, [r3, #0]
100067d6:	2200      	movs	r2, #0
100067d8:	705a      	strb	r2, [r3, #1]
100067da:	781a      	ldrb	r2, [r3, #0]
100067dc:	438a      	bics	r2, r1
100067de:	701a      	strb	r2, [r3, #0]
100067e0:	4b1c      	ldr	r3, [pc, #112]	; (10006854 <dcd_event_bus_signal+0x11c>)
100067e2:	681c      	ldr	r4, [r3, #0]
100067e4:	69e2      	ldr	r2, [r4, #28]
100067e6:	f3ef 8110 	mrs	r1, PRIMASK
100067ea:	b672      	cpsid	i
100067ec:	6813      	ldr	r3, [r2, #0]
100067ee:	2b00      	cmp	r3, #0
100067f0:	d1d8      	bne.n	100067a4 <dcd_event_bus_signal+0x6c>
100067f2:	e7fb      	b.n	100067ec <dcd_event_bus_signal+0xb4>
100067f4:	4b16      	ldr	r3, [pc, #88]	; (10006850 <dcd_event_bus_signal+0x118>)
100067f6:	781a      	ldrb	r2, [r3, #0]
100067f8:	07d2      	lsls	r2, r2, #31
100067fa:	d5b4      	bpl.n	10006766 <dcd_event_bus_signal+0x2e>
100067fc:	2104      	movs	r1, #4
100067fe:	781a      	ldrb	r2, [r3, #0]
10006800:	430a      	orrs	r2, r1
10006802:	701a      	strb	r2, [r3, #0]
10006804:	4b13      	ldr	r3, [pc, #76]	; (10006854 <dcd_event_bus_signal+0x11c>)
10006806:	681c      	ldr	r4, [r3, #0]
10006808:	69e2      	ldr	r2, [r4, #28]
1000680a:	f3ef 8110 	mrs	r1, PRIMASK
1000680e:	b672      	cpsid	i
10006810:	6813      	ldr	r3, [r2, #0]
10006812:	2b00      	cmp	r3, #0
10006814:	d1c6      	bne.n	100067a4 <dcd_event_bus_signal+0x6c>
10006816:	e7fb      	b.n	10006810 <dcd_event_bus_signal+0xd8>
10006818:	2104      	movs	r1, #4
1000681a:	781a      	ldrb	r2, [r3, #0]
1000681c:	a803      	add	r0, sp, #12
1000681e:	438a      	bics	r2, r1
10006820:	701a      	strb	r2, [r3, #0]
10006822:	2100      	movs	r1, #0
10006824:	220c      	movs	r2, #12
10006826:	f7fe f9bd 	bl	10004ba4 <__wrap_memset>
1000682a:	466b      	mov	r3, sp
1000682c:	466a      	mov	r2, sp
1000682e:	731d      	strb	r5, [r3, #12]
10006830:	2305      	movs	r3, #5
10006832:	7353      	strb	r3, [r2, #13]
10006834:	4b07      	ldr	r3, [pc, #28]	; (10006854 <dcd_event_bus_signal+0x11c>)
10006836:	681c      	ldr	r4, [r3, #0]
10006838:	69e2      	ldr	r2, [r4, #28]
1000683a:	f3ef 8110 	mrs	r1, PRIMASK
1000683e:	b672      	cpsid	i
10006840:	6813      	ldr	r3, [r2, #0]
10006842:	2b00      	cmp	r3, #0
10006844:	d0fc      	beq.n	10006840 <dcd_event_bus_signal+0x108>
10006846:	f3bf 8f5f 	dmb	sy
1000684a:	6221      	str	r1, [r4, #32]
1000684c:	a903      	add	r1, sp, #12
1000684e:	e7ad      	b.n	100067ac <dcd_event_bus_signal+0x74>
10006850:	20001504 	.word	0x20001504
10006854:	2000155c 	.word	0x2000155c

10006858 <dcd_event_bus_reset>:
10006858:	b570      	push	{r4, r5, r6, lr}
1000685a:	b084      	sub	sp, #16
1000685c:	ac01      	add	r4, sp, #4
1000685e:	0006      	movs	r6, r0
10006860:	000d      	movs	r5, r1
10006862:	220c      	movs	r2, #12
10006864:	2100      	movs	r1, #0
10006866:	0020      	movs	r0, r4
10006868:	f7fe f99c 	bl	10004ba4 <__wrap_memset>
1000686c:	2301      	movs	r3, #1
1000686e:	7063      	strb	r3, [r4, #1]
10006870:	4b0d      	ldr	r3, [pc, #52]	; (100068a8 <dcd_event_bus_reset+0x50>)
10006872:	7125      	strb	r5, [r4, #4]
10006874:	681d      	ldr	r5, [r3, #0]
10006876:	7026      	strb	r6, [r4, #0]
10006878:	69ea      	ldr	r2, [r5, #28]
1000687a:	f3ef 8310 	mrs	r3, PRIMASK
1000687e:	b672      	cpsid	i
10006880:	6811      	ldr	r1, [r2, #0]
10006882:	2900      	cmp	r1, #0
10006884:	d0fc      	beq.n	10006880 <dcd_event_bus_reset+0x28>
10006886:	f3bf 8f5f 	dmb	sy
1000688a:	622b      	str	r3, [r5, #32]
1000688c:	0021      	movs	r1, r4
1000688e:	0028      	movs	r0, r5
10006890:	f000 fe74 	bl	1000757c <tu_fifo_write>
10006894:	69ea      	ldr	r2, [r5, #28]
10006896:	6a2b      	ldr	r3, [r5, #32]
10006898:	f3bf 8f5f 	dmb	sy
1000689c:	2100      	movs	r1, #0
1000689e:	6011      	str	r1, [r2, #0]
100068a0:	f383 8810 	msr	PRIMASK, r3
100068a4:	b004      	add	sp, #16
100068a6:	bd70      	pop	{r4, r5, r6, pc}
100068a8:	2000155c 	.word	0x2000155c

100068ac <dcd_event_setup_received>:
100068ac:	2300      	movs	r3, #0
100068ae:	b530      	push	{r4, r5, lr}
100068b0:	b085      	sub	sp, #20
100068b2:	ad01      	add	r5, sp, #4
100068b4:	806b      	strh	r3, [r5, #2]
100068b6:	7028      	strb	r0, [r5, #0]
100068b8:	3306      	adds	r3, #6
100068ba:	2208      	movs	r2, #8
100068bc:	a802      	add	r0, sp, #8
100068be:	706b      	strb	r3, [r5, #1]
100068c0:	f7fe f976 	bl	10004bb0 <__wrap___aeabi_memcpy>
100068c4:	4b0c      	ldr	r3, [pc, #48]	; (100068f8 <dcd_event_setup_received+0x4c>)
100068c6:	681c      	ldr	r4, [r3, #0]
100068c8:	69e2      	ldr	r2, [r4, #28]
100068ca:	f3ef 8310 	mrs	r3, PRIMASK
100068ce:	b672      	cpsid	i
100068d0:	6811      	ldr	r1, [r2, #0]
100068d2:	2900      	cmp	r1, #0
100068d4:	d0fc      	beq.n	100068d0 <dcd_event_setup_received+0x24>
100068d6:	f3bf 8f5f 	dmb	sy
100068da:	6223      	str	r3, [r4, #32]
100068dc:	0029      	movs	r1, r5
100068de:	0020      	movs	r0, r4
100068e0:	f000 fe4c 	bl	1000757c <tu_fifo_write>
100068e4:	69e2      	ldr	r2, [r4, #28]
100068e6:	6a23      	ldr	r3, [r4, #32]
100068e8:	f3bf 8f5f 	dmb	sy
100068ec:	2100      	movs	r1, #0
100068ee:	6011      	str	r1, [r2, #0]
100068f0:	f383 8810 	msr	PRIMASK, r3
100068f4:	b005      	add	sp, #20
100068f6:	bd30      	pop	{r4, r5, pc}
100068f8:	2000155c 	.word	0x2000155c

100068fc <dcd_event_xfer_complete>:
100068fc:	b5f0      	push	{r4, r5, r6, r7, lr}
100068fe:	46c6      	mov	lr, r8
10006900:	4680      	mov	r8, r0
10006902:	b500      	push	{lr}
10006904:	b084      	sub	sp, #16
10006906:	ac01      	add	r4, sp, #4
10006908:	000f      	movs	r7, r1
1000690a:	0016      	movs	r6, r2
1000690c:	2100      	movs	r1, #0
1000690e:	2208      	movs	r2, #8
10006910:	0020      	movs	r0, r4
10006912:	001d      	movs	r5, r3
10006914:	f7fe f946 	bl	10004ba4 <__wrap_memset>
10006918:	4643      	mov	r3, r8
1000691a:	7023      	strb	r3, [r4, #0]
1000691c:	2307      	movs	r3, #7
1000691e:	7063      	strb	r3, [r4, #1]
10006920:	4b0f      	ldr	r3, [pc, #60]	; (10006960 <dcd_event_xfer_complete+0x64>)
10006922:	7165      	strb	r5, [r4, #5]
10006924:	681d      	ldr	r5, [r3, #0]
10006926:	7127      	strb	r7, [r4, #4]
10006928:	60a6      	str	r6, [r4, #8]
1000692a:	69ea      	ldr	r2, [r5, #28]
1000692c:	f3ef 8310 	mrs	r3, PRIMASK
10006930:	b672      	cpsid	i
10006932:	6811      	ldr	r1, [r2, #0]
10006934:	2900      	cmp	r1, #0
10006936:	d0fc      	beq.n	10006932 <dcd_event_xfer_complete+0x36>
10006938:	f3bf 8f5f 	dmb	sy
1000693c:	622b      	str	r3, [r5, #32]
1000693e:	0021      	movs	r1, r4
10006940:	0028      	movs	r0, r5
10006942:	f000 fe1b 	bl	1000757c <tu_fifo_write>
10006946:	69ea      	ldr	r2, [r5, #28]
10006948:	6a2b      	ldr	r3, [r5, #32]
1000694a:	f3bf 8f5f 	dmb	sy
1000694e:	2100      	movs	r1, #0
10006950:	6011      	str	r1, [r2, #0]
10006952:	f383 8810 	msr	PRIMASK, r3
10006956:	b004      	add	sp, #16
10006958:	bc80      	pop	{r7}
1000695a:	46b8      	mov	r8, r7
1000695c:	bdf0      	pop	{r4, r5, r6, r7, pc}
1000695e:	46c0      	nop			; (mov r8, r8)
10006960:	2000155c 	.word	0x2000155c

10006964 <usbd_open_edpt_pair>:
10006964:	b5f0      	push	{r4, r5, r6, r7, lr}
10006966:	4646      	mov	r6, r8
10006968:	46d6      	mov	lr, sl
1000696a:	464f      	mov	r7, r9
1000696c:	4680      	mov	r8, r0
1000696e:	b5c0      	push	{r6, r7, lr}
10006970:	000c      	movs	r4, r1
10006972:	0015      	movs	r5, r2
10006974:	001e      	movs	r6, r3
10006976:	2a00      	cmp	r2, #0
10006978:	d02e      	beq.n	100069d8 <usbd_open_edpt_pair+0x74>
1000697a:	2370      	movs	r3, #112	; 0x70
1000697c:	4699      	mov	r9, r3
1000697e:	4b18      	ldr	r3, [pc, #96]	; (100069e0 <usbd_open_edpt_pair+0x7c>)
10006980:	2700      	movs	r7, #0
10006982:	469a      	mov	sl, r3
10006984:	7863      	ldrb	r3, [r4, #1]
10006986:	2b05      	cmp	r3, #5
10006988:	d10f      	bne.n	100069aa <usbd_open_edpt_pair+0x46>
1000698a:	78e1      	ldrb	r1, [r4, #3]
1000698c:	0789      	lsls	r1, r1, #30
1000698e:	0f89      	lsrs	r1, r1, #30
10006990:	42b1      	cmp	r1, r6
10006992:	d10a      	bne.n	100069aa <usbd_open_edpt_pair+0x46>
10006994:	464a      	mov	r2, r9
10006996:	78a3      	ldrb	r3, [r4, #2]
10006998:	421a      	tst	r2, r3
1000699a:	d106      	bne.n	100069aa <usbd_open_edpt_pair+0x46>
1000699c:	4653      	mov	r3, sl
1000699e:	0020      	movs	r0, r4
100069a0:	7899      	ldrb	r1, [r3, #2]
100069a2:	f000 fc69 	bl	10007278 <tu_edpt_validate>
100069a6:	2800      	cmp	r0, #0
100069a8:	d105      	bne.n	100069b6 <usbd_open_edpt_pair+0x52>
100069aa:	2000      	movs	r0, #0
100069ac:	bce0      	pop	{r5, r6, r7}
100069ae:	46ba      	mov	sl, r7
100069b0:	46b1      	mov	r9, r6
100069b2:	46a8      	mov	r8, r5
100069b4:	bdf0      	pop	{r4, r5, r6, r7, pc}
100069b6:	0021      	movs	r1, r4
100069b8:	4640      	mov	r0, r8
100069ba:	f7fe febf 	bl	1000573c <dcd_edpt_open>
100069be:	2800      	cmp	r0, #0
100069c0:	d0f3      	beq.n	100069aa <usbd_open_edpt_pair+0x46>
100069c2:	78a3      	ldrb	r3, [r4, #2]
100069c4:	09da      	lsrs	r2, r3, #7
100069c6:	2a01      	cmp	r2, #1
100069c8:	d008      	beq.n	100069dc <usbd_open_edpt_pair+0x78>
100069ca:	9a08      	ldr	r2, [sp, #32]
100069cc:	7013      	strb	r3, [r2, #0]
100069ce:	7823      	ldrb	r3, [r4, #0]
100069d0:	3701      	adds	r7, #1
100069d2:	18e4      	adds	r4, r4, r3
100069d4:	42af      	cmp	r7, r5
100069d6:	dbd5      	blt.n	10006984 <usbd_open_edpt_pair+0x20>
100069d8:	2001      	movs	r0, #1
100069da:	e7e7      	b.n	100069ac <usbd_open_edpt_pair+0x48>
100069dc:	9a09      	ldr	r2, [sp, #36]	; 0x24
100069de:	e7f5      	b.n	100069cc <usbd_open_edpt_pair+0x68>
100069e0:	20001504 	.word	0x20001504

100069e4 <usbd_edpt_open>:
100069e4:	2270      	movs	r2, #112	; 0x70
100069e6:	b570      	push	{r4, r5, r6, lr}
100069e8:	788b      	ldrb	r3, [r1, #2]
100069ea:	0005      	movs	r5, r0
100069ec:	000c      	movs	r4, r1
100069ee:	421a      	tst	r2, r3
100069f0:	d001      	beq.n	100069f6 <usbd_edpt_open+0x12>
100069f2:	2000      	movs	r0, #0
100069f4:	bd70      	pop	{r4, r5, r6, pc}
100069f6:	4b06      	ldr	r3, [pc, #24]	; (10006a10 <usbd_edpt_open+0x2c>)
100069f8:	0020      	movs	r0, r4
100069fa:	7899      	ldrb	r1, [r3, #2]
100069fc:	f000 fc3c 	bl	10007278 <tu_edpt_validate>
10006a00:	2800      	cmp	r0, #0
10006a02:	d0f6      	beq.n	100069f2 <usbd_edpt_open+0xe>
10006a04:	0021      	movs	r1, r4
10006a06:	0028      	movs	r0, r5
10006a08:	f7fe fe98 	bl	1000573c <dcd_edpt_open>
10006a0c:	e7f2      	b.n	100069f4 <usbd_edpt_open+0x10>
10006a0e:	46c0      	nop			; (mov r8, r8)
10006a10:	20001504 	.word	0x20001504

10006a14 <usbd_edpt_claim>:
10006a14:	b570      	push	{r4, r5, r6, lr}
10006a16:	247f      	movs	r4, #127	; 0x7f
10006a18:	400c      	ands	r4, r1
10006a1a:	0063      	lsls	r3, r4, #1
10006a1c:	4c14      	ldr	r4, [pc, #80]	; (10006a70 <usbd_edpt_claim+0x5c>)
10006a1e:	09c9      	lsrs	r1, r1, #7
10006a20:	18e4      	adds	r4, r4, r3
10006a22:	1864      	adds	r4, r4, r1
10006a24:	3430      	adds	r4, #48	; 0x30
10006a26:	78e3      	ldrb	r3, [r4, #3]
10006a28:	07db      	lsls	r3, r3, #31
10006a2a:	0fdd      	lsrs	r5, r3, #31
10006a2c:	2b00      	cmp	r3, #0
10006a2e:	d118      	bne.n	10006a62 <usbd_edpt_claim+0x4e>
10006a30:	78e3      	ldrb	r3, [r4, #3]
10006a32:	075b      	lsls	r3, r3, #29
10006a34:	d501      	bpl.n	10006a3a <usbd_edpt_claim+0x26>
10006a36:	0028      	movs	r0, r5
10006a38:	bd70      	pop	{r4, r5, r6, pc}
10006a3a:	2101      	movs	r1, #1
10006a3c:	4e0d      	ldr	r6, [pc, #52]	; (10006a74 <usbd_edpt_claim+0x60>)
10006a3e:	4249      	negs	r1, r1
10006a40:	6830      	ldr	r0, [r6, #0]
10006a42:	f004 fca9 	bl	1000b398 <__mutex_enter_timeout_ms_veneer>
10006a46:	78e3      	ldrb	r3, [r4, #3]
10006a48:	07db      	lsls	r3, r3, #31
10006a4a:	0fdd      	lsrs	r5, r3, #31
10006a4c:	2b00      	cmp	r3, #0
10006a4e:	d10a      	bne.n	10006a66 <usbd_edpt_claim+0x52>
10006a50:	78e3      	ldrb	r3, [r4, #3]
10006a52:	075b      	lsls	r3, r3, #29
10006a54:	d408      	bmi.n	10006a68 <usbd_edpt_claim+0x54>
10006a56:	2204      	movs	r2, #4
10006a58:	78e3      	ldrb	r3, [r4, #3]
10006a5a:	2501      	movs	r5, #1
10006a5c:	4313      	orrs	r3, r2
10006a5e:	70e3      	strb	r3, [r4, #3]
10006a60:	e002      	b.n	10006a68 <usbd_edpt_claim+0x54>
10006a62:	2500      	movs	r5, #0
10006a64:	e7e7      	b.n	10006a36 <usbd_edpt_claim+0x22>
10006a66:	2500      	movs	r5, #0
10006a68:	6830      	ldr	r0, [r6, #0]
10006a6a:	f004 fc75 	bl	1000b358 <__mutex_exit_veneer>
10006a6e:	e7e2      	b.n	10006a36 <usbd_edpt_claim+0x22>
10006a70:	20001504 	.word	0x20001504
10006a74:	20001558 	.word	0x20001558

10006a78 <usbd_edpt_release>:
10006a78:	b570      	push	{r4, r5, r6, lr}
10006a7a:	000c      	movs	r4, r1
10006a7c:	2101      	movs	r1, #1
10006a7e:	4d0f      	ldr	r5, [pc, #60]	; (10006abc <usbd_edpt_release+0x44>)
10006a80:	4249      	negs	r1, r1
10006a82:	6828      	ldr	r0, [r5, #0]
10006a84:	f004 fc88 	bl	1000b398 <__mutex_enter_timeout_ms_veneer>
10006a88:	217f      	movs	r1, #127	; 0x7f
10006a8a:	4021      	ands	r1, r4
10006a8c:	004b      	lsls	r3, r1, #1
10006a8e:	490c      	ldr	r1, [pc, #48]	; (10006ac0 <usbd_edpt_release+0x48>)
10006a90:	09e4      	lsrs	r4, r4, #7
10006a92:	18c9      	adds	r1, r1, r3
10006a94:	1909      	adds	r1, r1, r4
10006a96:	3130      	adds	r1, #48	; 0x30
10006a98:	78cb      	ldrb	r3, [r1, #3]
10006a9a:	2400      	movs	r4, #0
10006a9c:	07db      	lsls	r3, r3, #31
10006a9e:	d408      	bmi.n	10006ab2 <usbd_edpt_release+0x3a>
10006aa0:	78cb      	ldrb	r3, [r1, #3]
10006aa2:	075b      	lsls	r3, r3, #29
10006aa4:	0fdc      	lsrs	r4, r3, #31
10006aa6:	2b00      	cmp	r3, #0
10006aa8:	da03      	bge.n	10006ab2 <usbd_edpt_release+0x3a>
10006aaa:	2204      	movs	r2, #4
10006aac:	78cb      	ldrb	r3, [r1, #3]
10006aae:	4393      	bics	r3, r2
10006ab0:	70cb      	strb	r3, [r1, #3]
10006ab2:	6828      	ldr	r0, [r5, #0]
10006ab4:	f004 fc50 	bl	1000b358 <__mutex_exit_veneer>
10006ab8:	0020      	movs	r0, r4
10006aba:	bd70      	pop	{r4, r5, r6, pc}
10006abc:	20001558 	.word	0x20001558
10006ac0:	20001504 	.word	0x20001504

10006ac4 <usbd_edpt_xfer>:
10006ac4:	b570      	push	{r4, r5, r6, lr}
10006ac6:	257f      	movs	r5, #127	; 0x7f
10006ac8:	4c0f      	ldr	r4, [pc, #60]	; (10006b08 <usbd_edpt_xfer+0x44>)
10006aca:	400d      	ands	r5, r1
10006acc:	006d      	lsls	r5, r5, #1
10006ace:	1964      	adds	r4, r4, r5
10006ad0:	0006      	movs	r6, r0
10006ad2:	09c8      	lsrs	r0, r1, #7
10006ad4:	1824      	adds	r4, r4, r0
10006ad6:	3430      	adds	r4, #48	; 0x30
10006ad8:	78e5      	ldrb	r5, [r4, #3]
10006ada:	2000      	movs	r0, #0
10006adc:	07ed      	lsls	r5, r5, #31
10006ade:	d500      	bpl.n	10006ae2 <usbd_edpt_xfer+0x1e>
10006ae0:	bd70      	pop	{r4, r5, r6, pc}
10006ae2:	2501      	movs	r5, #1
10006ae4:	78e0      	ldrb	r0, [r4, #3]
10006ae6:	4328      	orrs	r0, r5
10006ae8:	70e0      	strb	r0, [r4, #3]
10006aea:	0030      	movs	r0, r6
10006aec:	f7fe fefc 	bl	100058e8 <dcd_edpt_xfer>
10006af0:	2800      	cmp	r0, #0
10006af2:	d1f5      	bne.n	10006ae0 <usbd_edpt_xfer+0x1c>
10006af4:	2201      	movs	r2, #1
10006af6:	78e3      	ldrb	r3, [r4, #3]
10006af8:	4393      	bics	r3, r2
10006afa:	70e3      	strb	r3, [r4, #3]
10006afc:	78e3      	ldrb	r3, [r4, #3]
10006afe:	3203      	adds	r2, #3
10006b00:	4393      	bics	r3, r2
10006b02:	70e3      	strb	r3, [r4, #3]
10006b04:	e7ec      	b.n	10006ae0 <usbd_edpt_xfer+0x1c>
10006b06:	46c0      	nop			; (mov r8, r8)
10006b08:	20001504 	.word	0x20001504

10006b0c <tud_control_status>:
10006b0c:	b570      	push	{r4, r5, r6, lr}
10006b0e:	4e0a      	ldr	r6, [pc, #40]	; (10006b38 <tud_control_status+0x2c>)
10006b10:	0005      	movs	r5, r0
10006b12:	0030      	movs	r0, r6
10006b14:	2208      	movs	r2, #8
10006b16:	000c      	movs	r4, r1
10006b18:	f7fe f84a 	bl	10004bb0 <__wrap___aeabi_memcpy>
10006b1c:	2300      	movs	r3, #0
10006b1e:	217f      	movs	r1, #127	; 0x7f
10006b20:	60f3      	str	r3, [r6, #12]
10006b22:	7822      	ldrb	r2, [r4, #0]
10006b24:	60b3      	str	r3, [r6, #8]
10006b26:	4291      	cmp	r1, r2
10006b28:	415b      	adcs	r3, r3
10006b2a:	0028      	movs	r0, r5
10006b2c:	01d9      	lsls	r1, r3, #7
10006b2e:	2200      	movs	r2, #0
10006b30:	2300      	movs	r3, #0
10006b32:	f7ff ffc7 	bl	10006ac4 <usbd_edpt_xfer>
10006b36:	bd70      	pop	{r4, r5, r6, pc}
10006b38:	200014a8 	.word	0x200014a8

10006b3c <tud_control_xfer>:
10006b3c:	b5f8      	push	{r3, r4, r5, r6, r7, lr}
10006b3e:	46ce      	mov	lr, r9
10006b40:	4647      	mov	r7, r8
10006b42:	4691      	mov	r9, r2
10006b44:	4e2a      	ldr	r6, [pc, #168]	; (10006bf0 <tud_control_xfer+0xb4>)
10006b46:	b580      	push	{r7, lr}
10006b48:	2208      	movs	r2, #8
10006b4a:	0007      	movs	r7, r0
10006b4c:	0030      	movs	r0, r6
10006b4e:	000d      	movs	r5, r1
10006b50:	4698      	mov	r8, r3
10006b52:	f7fe f82d 	bl	10004bb0 <__wrap___aeabi_memcpy>
10006b56:	464b      	mov	r3, r9
10006b58:	60b3      	str	r3, [r6, #8]
10006b5a:	2300      	movs	r3, #0
10006b5c:	81f3      	strh	r3, [r6, #14]
10006b5e:	79ec      	ldrb	r4, [r5, #7]
10006b60:	79a9      	ldrb	r1, [r5, #6]
10006b62:	0224      	lsls	r4, r4, #8
10006b64:	430c      	orrs	r4, r1
10006b66:	1c23      	adds	r3, r4, #0
10006b68:	4544      	cmp	r4, r8
10006b6a:	d900      	bls.n	10006b6e <tud_control_xfer+0x32>
10006b6c:	4643      	mov	r3, r8
10006b6e:	b29a      	uxth	r2, r3
10006b70:	4690      	mov	r8, r2
10006b72:	81b3      	strh	r3, [r6, #12]
10006b74:	2c00      	cmp	r4, #0
10006b76:	d013      	beq.n	10006ba0 <tud_control_xfer+0x64>
10006b78:	2a00      	cmp	r2, #0
10006b7a:	d01f      	beq.n	10006bbc <tud_control_xfer+0x80>
10006b7c:	464b      	mov	r3, r9
10006b7e:	2b00      	cmp	r3, #0
10006b80:	d034      	beq.n	10006bec <tud_control_xfer+0xb0>
10006b82:	1c13      	adds	r3, r2, #0
10006b84:	2a40      	cmp	r2, #64	; 0x40
10006b86:	d81f      	bhi.n	10006bc8 <tud_control_xfer+0x8c>
10006b88:	b29b      	uxth	r3, r3
10006b8a:	4698      	mov	r8, r3
10006b8c:	7833      	ldrb	r3, [r6, #0]
10006b8e:	2b7f      	cmp	r3, #127	; 0x7f
10006b90:	d820      	bhi.n	10006bd4 <tud_control_xfer+0x98>
10006b92:	2100      	movs	r1, #0
10006b94:	4a17      	ldr	r2, [pc, #92]	; (10006bf4 <tud_control_xfer+0xb8>)
10006b96:	4643      	mov	r3, r8
10006b98:	0038      	movs	r0, r7
10006b9a:	f7ff ff93 	bl	10006ac4 <usbd_edpt_xfer>
10006b9e:	e009      	b.n	10006bb4 <tud_control_xfer+0x78>
10006ba0:	227f      	movs	r2, #127	; 0x7f
10006ba2:	782b      	ldrb	r3, [r5, #0]
10006ba4:	0038      	movs	r0, r7
10006ba6:	429a      	cmp	r2, r3
10006ba8:	4164      	adcs	r4, r4
10006baa:	2300      	movs	r3, #0
10006bac:	2200      	movs	r2, #0
10006bae:	01e1      	lsls	r1, r4, #7
10006bb0:	f7ff ff88 	bl	10006ac4 <usbd_edpt_xfer>
10006bb4:	bcc0      	pop	{r6, r7}
10006bb6:	46b9      	mov	r9, r7
10006bb8:	46b0      	mov	r8, r6
10006bba:	bdf8      	pop	{r3, r4, r5, r6, r7, pc}
10006bbc:	7833      	ldrb	r3, [r6, #0]
10006bbe:	2b7f      	cmp	r3, #127	; 0x7f
10006bc0:	d911      	bls.n	10006be6 <tud_control_xfer+0xaa>
10006bc2:	2180      	movs	r1, #128	; 0x80
10006bc4:	2200      	movs	r2, #0
10006bc6:	e7e6      	b.n	10006b96 <tud_control_xfer+0x5a>
10006bc8:	2340      	movs	r3, #64	; 0x40
10006bca:	b29b      	uxth	r3, r3
10006bcc:	4698      	mov	r8, r3
10006bce:	7833      	ldrb	r3, [r6, #0]
10006bd0:	2b7f      	cmp	r3, #127	; 0x7f
10006bd2:	d9de      	bls.n	10006b92 <tud_control_xfer+0x56>
10006bd4:	4c07      	ldr	r4, [pc, #28]	; (10006bf4 <tud_control_xfer+0xb8>)
10006bd6:	4642      	mov	r2, r8
10006bd8:	4649      	mov	r1, r9
10006bda:	0020      	movs	r0, r4
10006bdc:	f7fd ffe8 	bl	10004bb0 <__wrap___aeabi_memcpy>
10006be0:	2180      	movs	r1, #128	; 0x80
10006be2:	0022      	movs	r2, r4
10006be4:	e7d7      	b.n	10006b96 <tud_control_xfer+0x5a>
10006be6:	2100      	movs	r1, #0
10006be8:	2200      	movs	r2, #0
10006bea:	e7d4      	b.n	10006b96 <tud_control_xfer+0x5a>
10006bec:	2000      	movs	r0, #0
10006bee:	e7e1      	b.n	10006bb4 <tud_control_xfer+0x78>
10006bf0:	200014a8 	.word	0x200014a8
10006bf4:	200014c4 	.word	0x200014c4

10006bf8 <usbd_control_reset>:
10006bf8:	b510      	push	{r4, lr}
10006bfa:	2214      	movs	r2, #20
10006bfc:	2100      	movs	r1, #0
10006bfe:	4802      	ldr	r0, [pc, #8]	; (10006c08 <usbd_control_reset+0x10>)
10006c00:	f7fd ffd0 	bl	10004ba4 <__wrap_memset>
10006c04:	bd10      	pop	{r4, pc}
10006c06:	46c0      	nop			; (mov r8, r8)
10006c08:	200014a8 	.word	0x200014a8

10006c0c <usbd_control_set_complete_callback>:
10006c0c:	4b01      	ldr	r3, [pc, #4]	; (10006c14 <usbd_control_set_complete_callback+0x8>)
10006c0e:	6118      	str	r0, [r3, #16]
10006c10:	4770      	bx	lr
10006c12:	46c0      	nop			; (mov r8, r8)
10006c14:	200014a8 	.word	0x200014a8

10006c18 <usbd_control_set_request>:
10006c18:	b510      	push	{r4, lr}
10006c1a:	4c05      	ldr	r4, [pc, #20]	; (10006c30 <usbd_control_set_request+0x18>)
10006c1c:	0001      	movs	r1, r0
10006c1e:	2208      	movs	r2, #8
10006c20:	0020      	movs	r0, r4
10006c22:	f7fd ffc5 	bl	10004bb0 <__wrap___aeabi_memcpy>
10006c26:	2300      	movs	r3, #0
10006c28:	60a3      	str	r3, [r4, #8]
10006c2a:	60e3      	str	r3, [r4, #12]
10006c2c:	bd10      	pop	{r4, pc}
10006c2e:	46c0      	nop			; (mov r8, r8)
10006c30:	200014a8 	.word	0x200014a8

10006c34 <usbd_control_xfer_cb>:
10006c34:	b5f8      	push	{r3, r4, r5, r6, r7, lr}
10006c36:	4c3b      	ldr	r4, [pc, #236]	; (10006d24 <usbd_control_xfer_cb+0xf0>)
10006c38:	001d      	movs	r5, r3
10006c3a:	7823      	ldrb	r3, [r4, #0]
10006c3c:	0006      	movs	r6, r0
10006c3e:	09da      	lsrs	r2, r3, #7
10006c40:	09c9      	lsrs	r1, r1, #7
10006c42:	428a      	cmp	r2, r1
10006c44:	d013      	beq.n	10006c6e <usbd_control_xfer_cb+0x3a>
10006c46:	2000      	movs	r0, #0
10006c48:	2d00      	cmp	r5, #0
10006c4a:	d000      	beq.n	10006c4e <usbd_control_xfer_cb+0x1a>
10006c4c:	bdf8      	pop	{r3, r4, r5, r6, r7, pc}
10006c4e:	4b36      	ldr	r3, [pc, #216]	; (10006d28 <usbd_control_xfer_cb+0xf4>)
10006c50:	2b00      	cmp	r3, #0
10006c52:	d003      	beq.n	10006c5c <usbd_control_xfer_cb+0x28>
10006c54:	0021      	movs	r1, r4
10006c56:	0030      	movs	r0, r6
10006c58:	f7fe fd62 	bl	10005720 <dcd_edpt0_status_complete>
10006c5c:	6923      	ldr	r3, [r4, #16]
10006c5e:	2b00      	cmp	r3, #0
10006c60:	d044      	beq.n	10006cec <usbd_control_xfer_cb+0xb8>
10006c62:	0022      	movs	r2, r4
10006c64:	2102      	movs	r1, #2
10006c66:	0030      	movs	r0, r6
10006c68:	4798      	blx	r3
10006c6a:	2001      	movs	r0, #1
10006c6c:	e7ee      	b.n	10006c4c <usbd_control_xfer_cb+0x18>
10006c6e:	2b7f      	cmp	r3, #127	; 0x7f
10006c70:	d806      	bhi.n	10006c80 <usbd_control_xfer_cb+0x4c>
10006c72:	68a0      	ldr	r0, [r4, #8]
10006c74:	2800      	cmp	r0, #0
10006c76:	d037      	beq.n	10006ce8 <usbd_control_xfer_cb+0xb4>
10006c78:	002a      	movs	r2, r5
10006c7a:	492c      	ldr	r1, [pc, #176]	; (10006d2c <usbd_control_xfer_cb+0xf8>)
10006c7c:	f7fd ff98 	bl	10004bb0 <__wrap___aeabi_memcpy>
10006c80:	68a3      	ldr	r3, [r4, #8]
10006c82:	89e2      	ldrh	r2, [r4, #14]
10006c84:	1959      	adds	r1, r3, r5
10006c86:	1952      	adds	r2, r2, r5
10006c88:	88e3      	ldrh	r3, [r4, #6]
10006c8a:	b292      	uxth	r2, r2
10006c8c:	81e2      	strh	r2, [r4, #14]
10006c8e:	60a1      	str	r1, [r4, #8]
10006c90:	4293      	cmp	r3, r2
10006c92:	d014      	beq.n	10006cbe <usbd_control_xfer_cb+0x8a>
10006c94:	2d3f      	cmp	r5, #63	; 0x3f
10006c96:	d912      	bls.n	10006cbe <usbd_control_xfer_cb+0x8a>
10006c98:	89a5      	ldrh	r5, [r4, #12]
10006c9a:	1aa8      	subs	r0, r5, r2
10006c9c:	1c07      	adds	r7, r0, #0
10006c9e:	b280      	uxth	r0, r0
10006ca0:	2840      	cmp	r0, #64	; 0x40
10006ca2:	d82f      	bhi.n	10006d04 <usbd_control_xfer_cb+0xd0>
10006ca4:	7823      	ldrb	r3, [r4, #0]
10006ca6:	b2bf      	uxth	r7, r7
10006ca8:	2b7f      	cmp	r3, #127	; 0x7f
10006caa:	d82d      	bhi.n	10006d08 <usbd_control_xfer_cb+0xd4>
10006cac:	2100      	movs	r1, #0
10006cae:	42aa      	cmp	r2, r5
10006cb0:	d035      	beq.n	10006d1e <usbd_control_xfer_cb+0xea>
10006cb2:	4a1e      	ldr	r2, [pc, #120]	; (10006d2c <usbd_control_xfer_cb+0xf8>)
10006cb4:	003b      	movs	r3, r7
10006cb6:	0030      	movs	r0, r6
10006cb8:	f7ff ff04 	bl	10006ac4 <usbd_edpt_xfer>
10006cbc:	e7c6      	b.n	10006c4c <usbd_control_xfer_cb+0x18>
10006cbe:	6923      	ldr	r3, [r4, #16]
10006cc0:	2b00      	cmp	r3, #0
10006cc2:	d005      	beq.n	10006cd0 <usbd_control_xfer_cb+0x9c>
10006cc4:	0022      	movs	r2, r4
10006cc6:	2101      	movs	r1, #1
10006cc8:	0030      	movs	r0, r6
10006cca:	4798      	blx	r3
10006ccc:	2800      	cmp	r0, #0
10006cce:	d00f      	beq.n	10006cf0 <usbd_control_xfer_cb+0xbc>
10006cd0:	227f      	movs	r2, #127	; 0x7f
10006cd2:	2100      	movs	r1, #0
10006cd4:	7823      	ldrb	r3, [r4, #0]
10006cd6:	0030      	movs	r0, r6
10006cd8:	429a      	cmp	r2, r3
10006cda:	4149      	adcs	r1, r1
10006cdc:	2300      	movs	r3, #0
10006cde:	2200      	movs	r2, #0
10006ce0:	01c9      	lsls	r1, r1, #7
10006ce2:	f7ff feef 	bl	10006ac4 <usbd_edpt_xfer>
10006ce6:	e7b1      	b.n	10006c4c <usbd_control_xfer_cb+0x18>
10006ce8:	2000      	movs	r0, #0
10006cea:	e7af      	b.n	10006c4c <usbd_control_xfer_cb+0x18>
10006cec:	2001      	movs	r0, #1
10006cee:	e7ad      	b.n	10006c4c <usbd_control_xfer_cb+0x18>
10006cf0:	2100      	movs	r1, #0
10006cf2:	0030      	movs	r0, r6
10006cf4:	f7fe fe0a 	bl	1000590c <dcd_edpt_stall>
10006cf8:	0030      	movs	r0, r6
10006cfa:	2180      	movs	r1, #128	; 0x80
10006cfc:	f7fe fe06 	bl	1000590c <dcd_edpt_stall>
10006d00:	2001      	movs	r0, #1
10006d02:	e7a3      	b.n	10006c4c <usbd_control_xfer_cb+0x18>
10006d04:	2740      	movs	r7, #64	; 0x40
10006d06:	e7cd      	b.n	10006ca4 <usbd_control_xfer_cb+0x70>
10006d08:	42aa      	cmp	r2, r5
10006d0a:	d007      	beq.n	10006d1c <usbd_control_xfer_cb+0xe8>
10006d0c:	4c07      	ldr	r4, [pc, #28]	; (10006d2c <usbd_control_xfer_cb+0xf8>)
10006d0e:	003a      	movs	r2, r7
10006d10:	0020      	movs	r0, r4
10006d12:	f7fd ff4d 	bl	10004bb0 <__wrap___aeabi_memcpy>
10006d16:	2180      	movs	r1, #128	; 0x80
10006d18:	0022      	movs	r2, r4
10006d1a:	e7cb      	b.n	10006cb4 <usbd_control_xfer_cb+0x80>
10006d1c:	2180      	movs	r1, #128	; 0x80
10006d1e:	2200      	movs	r2, #0
10006d20:	e7c8      	b.n	10006cb4 <usbd_control_xfer_cb+0x80>
10006d22:	46c0      	nop			; (mov r8, r8)
10006d24:	200014a8 	.word	0x200014a8
10006d28:	10005721 	.word	0x10005721
10006d2c:	200014c4 	.word	0x200014c4

10006d30 <tud_cdc_n_connected>:
10006d30:	b510      	push	{r4, lr}
10006d32:	0004      	movs	r4, r0
10006d34:	f7ff f808 	bl	10005d48 <tud_mounted>
10006d38:	2800      	cmp	r0, #0
10006d3a:	d101      	bne.n	10006d40 <tud_cdc_n_connected+0x10>
10006d3c:	2000      	movs	r0, #0
10006d3e:	bd10      	pop	{r4, pc}
10006d40:	f7ff f80a 	bl	10005d58 <tud_suspended>
10006d44:	2800      	cmp	r0, #0
10006d46:	d1f9      	bne.n	10006d3c <tud_cdc_n_connected+0xc>
10006d48:	20b6      	movs	r0, #182	; 0xb6
10006d4a:	0080      	lsls	r0, r0, #2
10006d4c:	4344      	muls	r4, r0
10006d4e:	4803      	ldr	r0, [pc, #12]	; (10006d5c <tud_cdc_n_connected+0x2c>)
10006d50:	1900      	adds	r0, r0, r4
10006d52:	7903      	ldrb	r3, [r0, #4]
10006d54:	2001      	movs	r0, #1
10006d56:	4018      	ands	r0, r3
10006d58:	e7f1      	b.n	10006d3e <tud_cdc_n_connected+0xe>
10006d5a:	46c0      	nop			; (mov r8, r8)
10006d5c:	200011d0 	.word	0x200011d0

10006d60 <tud_cdc_n_available>:
10006d60:	23b6      	movs	r3, #182	; 0xb6
10006d62:	009b      	lsls	r3, r3, #2
10006d64:	4358      	muls	r0, r3
10006d66:	b510      	push	{r4, lr}
10006d68:	4b02      	ldr	r3, [pc, #8]	; (10006d74 <tud_cdc_n_available+0x14>)
10006d6a:	3010      	adds	r0, #16
10006d6c:	18c0      	adds	r0, r0, r3
10006d6e:	f000 fb11 	bl	10007394 <tu_fifo_count>
10006d72:	bd10      	pop	{r4, pc}
10006d74:	200011d0 	.word	0x200011d0

10006d78 <tud_cdc_n_read>:
10006d78:	b5f0      	push	{r4, r5, r6, r7, lr}
10006d7a:	25b6      	movs	r5, #182	; 0xb6
10006d7c:	00ad      	lsls	r5, r5, #2
10006d7e:	4345      	muls	r5, r0
10006d80:	002c      	movs	r4, r5
10006d82:	46c6      	mov	lr, r8
10006d84:	4f17      	ldr	r7, [pc, #92]	; (10006de4 <tud_cdc_n_read+0x6c>)
10006d86:	3410      	adds	r4, #16
10006d88:	19e4      	adds	r4, r4, r7
10006d8a:	b500      	push	{lr}
10006d8c:	0020      	movs	r0, r4
10006d8e:	b292      	uxth	r2, r2
10006d90:	f000 fb74 	bl	1000747c <tu_fifo_read_n>
10006d94:	0006      	movs	r6, r0
10006d96:	0020      	movs	r0, r4
10006d98:	f000 fb14 	bl	100073c4 <tu_fifo_remaining>
10006d9c:	283f      	cmp	r0, #63	; 0x3f
10006d9e:	d803      	bhi.n	10006da8 <tud_cdc_n_read+0x30>
10006da0:	0030      	movs	r0, r6
10006da2:	bc80      	pop	{r7}
10006da4:	46b8      	mov	r8, r7
10006da6:	bdf0      	pop	{r4, r5, r6, r7, pc}
10006da8:	197b      	adds	r3, r7, r5
10006daa:	2000      	movs	r0, #0
10006dac:	78d9      	ldrb	r1, [r3, #3]
10006dae:	4698      	mov	r8, r3
10006db0:	f7ff fe30 	bl	10006a14 <usbd_edpt_claim>
10006db4:	2800      	cmp	r0, #0
10006db6:	d0f3      	beq.n	10006da0 <tud_cdc_n_read+0x28>
10006db8:	0020      	movs	r0, r4
10006dba:	f000 fb03 	bl	100073c4 <tu_fifo_remaining>
10006dbe:	283f      	cmp	r0, #63	; 0x3f
10006dc0:	d90a      	bls.n	10006dd8 <tud_cdc_n_read+0x60>
10006dc2:	2396      	movs	r3, #150	; 0x96
10006dc4:	009b      	lsls	r3, r3, #2
10006dc6:	18ea      	adds	r2, r5, r3
10006dc8:	4643      	mov	r3, r8
10006dca:	19d2      	adds	r2, r2, r7
10006dcc:	78d9      	ldrb	r1, [r3, #3]
10006dce:	2000      	movs	r0, #0
10006dd0:	2340      	movs	r3, #64	; 0x40
10006dd2:	f7ff fe77 	bl	10006ac4 <usbd_edpt_xfer>
10006dd6:	e7e3      	b.n	10006da0 <tud_cdc_n_read+0x28>
10006dd8:	4643      	mov	r3, r8
10006dda:	2000      	movs	r0, #0
10006ddc:	78d9      	ldrb	r1, [r3, #3]
10006dde:	f7ff fe4b 	bl	10006a78 <usbd_edpt_release>
10006de2:	e7dd      	b.n	10006da0 <tud_cdc_n_read+0x28>
10006de4:	200011d0 	.word	0x200011d0

10006de8 <tud_cdc_n_write_flush>:
10006de8:	b5f8      	push	{r3, r4, r5, r6, r7, lr}
10006dea:	0004      	movs	r4, r0
10006dec:	f7fe ffac 	bl	10005d48 <tud_mounted>
10006df0:	2800      	cmp	r0, #0
10006df2:	d101      	bne.n	10006df8 <tud_cdc_n_write_flush+0x10>
10006df4:	2000      	movs	r0, #0
10006df6:	bdf8      	pop	{r3, r4, r5, r6, r7, pc}
10006df8:	f7fe ffae 	bl	10005d58 <tud_suspended>
10006dfc:	2800      	cmp	r0, #0
10006dfe:	d1f9      	bne.n	10006df4 <tud_cdc_n_write_flush+0xc>
10006e00:	20b6      	movs	r0, #182	; 0xb6
10006e02:	0080      	lsls	r0, r0, #2
10006e04:	4344      	muls	r4, r0
10006e06:	0025      	movs	r5, r4
10006e08:	4e14      	ldr	r6, [pc, #80]	; (10006e5c <tud_cdc_n_write_flush+0x74>)
10006e0a:	352c      	adds	r5, #44	; 0x2c
10006e0c:	19ad      	adds	r5, r5, r6
10006e0e:	0028      	movs	r0, r5
10006e10:	f000 fac0 	bl	10007394 <tu_fifo_count>
10006e14:	2800      	cmp	r0, #0
10006e16:	d0ed      	beq.n	10006df4 <tud_cdc_n_write_flush+0xc>
10006e18:	1937      	adds	r7, r6, r4
10006e1a:	2000      	movs	r0, #0
10006e1c:	78b9      	ldrb	r1, [r7, #2]
10006e1e:	f7ff fdf9 	bl	10006a14 <usbd_edpt_claim>
10006e22:	2800      	cmp	r0, #0
10006e24:	d0e6      	beq.n	10006df4 <tud_cdc_n_write_flush+0xc>
10006e26:	23a6      	movs	r3, #166	; 0xa6
10006e28:	009b      	lsls	r3, r3, #2
10006e2a:	469c      	mov	ip, r3
10006e2c:	4464      	add	r4, ip
10006e2e:	19a4      	adds	r4, r4, r6
10006e30:	0021      	movs	r1, r4
10006e32:	0028      	movs	r0, r5
10006e34:	2240      	movs	r2, #64	; 0x40
10006e36:	f000 fb21 	bl	1000747c <tu_fifo_read_n>
10006e3a:	78b9      	ldrb	r1, [r7, #2]
10006e3c:	1e05      	subs	r5, r0, #0
10006e3e:	d008      	beq.n	10006e52 <tud_cdc_n_write_flush+0x6a>
10006e40:	0003      	movs	r3, r0
10006e42:	0022      	movs	r2, r4
10006e44:	2000      	movs	r0, #0
10006e46:	f7ff fe3d 	bl	10006ac4 <usbd_edpt_xfer>
10006e4a:	2800      	cmp	r0, #0
10006e4c:	d0d2      	beq.n	10006df4 <tud_cdc_n_write_flush+0xc>
10006e4e:	0028      	movs	r0, r5
10006e50:	e7d1      	b.n	10006df6 <tud_cdc_n_write_flush+0xe>
10006e52:	2000      	movs	r0, #0
10006e54:	f7ff fe10 	bl	10006a78 <usbd_edpt_release>
10006e58:	e7cc      	b.n	10006df4 <tud_cdc_n_write_flush+0xc>
10006e5a:	46c0      	nop			; (mov r8, r8)
10006e5c:	200011d0 	.word	0x200011d0

10006e60 <tud_cdc_n_write>:
10006e60:	b570      	push	{r4, r5, r6, lr}
10006e62:	24b6      	movs	r4, #182	; 0xb6
10006e64:	00a4      	lsls	r4, r4, #2
10006e66:	4344      	muls	r4, r0
10006e68:	4b09      	ldr	r3, [pc, #36]	; (10006e90 <tud_cdc_n_write+0x30>)
10006e6a:	342c      	adds	r4, #44	; 0x2c
10006e6c:	18e4      	adds	r4, r4, r3
10006e6e:	0005      	movs	r5, r0
10006e70:	b292      	uxth	r2, r2
10006e72:	0020      	movs	r0, r4
10006e74:	f000 fbc0 	bl	100075f8 <tu_fifo_write_n>
10006e78:	0006      	movs	r6, r0
10006e7a:	0020      	movs	r0, r4
10006e7c:	f000 fa8a 	bl	10007394 <tu_fifo_count>
10006e80:	283f      	cmp	r0, #63	; 0x3f
10006e82:	d801      	bhi.n	10006e88 <tud_cdc_n_write+0x28>
10006e84:	0030      	movs	r0, r6
10006e86:	bd70      	pop	{r4, r5, r6, pc}
10006e88:	0028      	movs	r0, r5
10006e8a:	f7ff ffad 	bl	10006de8 <tud_cdc_n_write_flush>
10006e8e:	e7f9      	b.n	10006e84 <tud_cdc_n_write+0x24>
10006e90:	200011d0 	.word	0x200011d0

10006e94 <tud_cdc_n_write_available>:
10006e94:	23b6      	movs	r3, #182	; 0xb6
10006e96:	009b      	lsls	r3, r3, #2
10006e98:	4358      	muls	r0, r3
10006e9a:	b510      	push	{r4, lr}
10006e9c:	4b02      	ldr	r3, [pc, #8]	; (10006ea8 <tud_cdc_n_write_available+0x14>)
10006e9e:	302c      	adds	r0, #44	; 0x2c
10006ea0:	18c0      	adds	r0, r0, r3
10006ea2:	f000 fa8f 	bl	100073c4 <tu_fifo_remaining>
10006ea6:	bd10      	pop	{r4, pc}
10006ea8:	200011d0 	.word	0x200011d0

10006eac <cdcd_init>:
10006eac:	22b6      	movs	r2, #182	; 0xb6
10006eae:	b5f0      	push	{r4, r5, r6, r7, lr}
10006eb0:	4c1b      	ldr	r4, [pc, #108]	; (10006f20 <cdcd_init+0x74>)
10006eb2:	b083      	sub	sp, #12
10006eb4:	2100      	movs	r1, #0
10006eb6:	0020      	movs	r0, r4
10006eb8:	0092      	lsls	r2, r2, #2
10006eba:	f7fd fe73 	bl	10004ba4 <__wrap_memset>
10006ebe:	23ff      	movs	r3, #255	; 0xff
10006ec0:	7163      	strb	r3, [r4, #5]
10006ec2:	4b18      	ldr	r3, [pc, #96]	; (10006f24 <cdcd_init+0x78>)
10006ec4:	2680      	movs	r6, #128	; 0x80
10006ec6:	2500      	movs	r5, #0
10006ec8:	80e3      	strh	r3, [r4, #6]
10006eca:	2701      	movs	r7, #1
10006ecc:	2308      	movs	r3, #8
10006ece:	0021      	movs	r1, r4
10006ed0:	0020      	movs	r0, r4
10006ed2:	0076      	lsls	r6, r6, #1
10006ed4:	7323      	strb	r3, [r4, #12]
10006ed6:	0032      	movs	r2, r6
10006ed8:	8127      	strh	r7, [r4, #8]
10006eda:	3148      	adds	r1, #72	; 0x48
10006edc:	9500      	str	r5, [sp, #0]
10006ede:	3b07      	subs	r3, #7
10006ee0:	3010      	adds	r0, #16
10006ee2:	f000 fa1b 	bl	1000731c <tu_fifo_config>
10006ee6:	0021      	movs	r1, r4
10006ee8:	0020      	movs	r0, r4
10006eea:	3149      	adds	r1, #73	; 0x49
10006eec:	0032      	movs	r2, r6
10006eee:	31ff      	adds	r1, #255	; 0xff
10006ef0:	2301      	movs	r3, #1
10006ef2:	9700      	str	r7, [sp, #0]
10006ef4:	302c      	adds	r0, #44	; 0x2c
10006ef6:	f000 fa11 	bl	1000731c <tu_fifo_config>
10006efa:	2392      	movs	r3, #146	; 0x92
10006efc:	009b      	lsls	r3, r3, #2
10006efe:	18e6      	adds	r6, r4, r3
10006f00:	0030      	movs	r0, r6
10006f02:	f7fb f877 	bl	10001ff4 <mutex_init>
10006f06:	2394      	movs	r3, #148	; 0x94
10006f08:	009b      	lsls	r3, r3, #2
10006f0a:	62a6      	str	r6, [r4, #40]	; 0x28
10006f0c:	18e6      	adds	r6, r4, r3
10006f0e:	0030      	movs	r0, r6
10006f10:	6265      	str	r5, [r4, #36]	; 0x24
10006f12:	f7fb f86f 	bl	10001ff4 <mutex_init>
10006f16:	6426      	str	r6, [r4, #64]	; 0x40
10006f18:	6465      	str	r5, [r4, #68]	; 0x44
10006f1a:	b003      	add	sp, #12
10006f1c:	bdf0      	pop	{r4, r5, r6, r7, pc}
10006f1e:	46c0      	nop			; (mov r8, r8)
10006f20:	200011d0 	.word	0x200011d0
10006f24:	ffffc200 	.word	0xffffc200

10006f28 <cdcd_reset>:
10006f28:	b510      	push	{r4, lr}
10006f2a:	4c09      	ldr	r4, [pc, #36]	; (10006f50 <cdcd_reset+0x28>)
10006f2c:	2205      	movs	r2, #5
10006f2e:	2100      	movs	r1, #0
10006f30:	0020      	movs	r0, r4
10006f32:	f7fd fe37 	bl	10004ba4 <__wrap_memset>
10006f36:	0020      	movs	r0, r4
10006f38:	342c      	adds	r4, #44	; 0x2c
10006f3a:	3010      	adds	r0, #16
10006f3c:	f000 fbdc 	bl	100076f8 <tu_fifo_clear>
10006f40:	0020      	movs	r0, r4
10006f42:	f000 fbd9 	bl	100076f8 <tu_fifo_clear>
10006f46:	2101      	movs	r1, #1
10006f48:	0020      	movs	r0, r4
10006f4a:	f000 fbfb 	bl	10007744 <tu_fifo_set_overwritable>
10006f4e:	bd10      	pop	{r4, pc}
10006f50:	200011d0 	.word	0x200011d0

10006f54 <cdcd_open>:
10006f54:	b5f0      	push	{r4, r5, r6, r7, lr}
10006f56:	794b      	ldrb	r3, [r1, #5]
10006f58:	0006      	movs	r6, r0
10006f5a:	b083      	sub	sp, #12
10006f5c:	2b02      	cmp	r3, #2
10006f5e:	d102      	bne.n	10006f66 <cdcd_open+0x12>
10006f60:	798b      	ldrb	r3, [r1, #6]
10006f62:	2b02      	cmp	r3, #2
10006f64:	d003      	beq.n	10006f6e <cdcd_open+0x1a>
10006f66:	2500      	movs	r5, #0
10006f68:	0028      	movs	r0, r5
10006f6a:	b003      	add	sp, #12
10006f6c:	bdf0      	pop	{r4, r5, r6, r7, pc}
10006f6e:	4f2f      	ldr	r7, [pc, #188]	; (1000702c <cdcd_open+0xd8>)
10006f70:	78bb      	ldrb	r3, [r7, #2]
10006f72:	2b00      	cmp	r3, #0
10006f74:	d1f7      	bne.n	10006f66 <cdcd_open+0x12>
10006f76:	788b      	ldrb	r3, [r1, #2]
10006f78:	2509      	movs	r5, #9
10006f7a:	703b      	strb	r3, [r7, #0]
10006f7c:	780c      	ldrb	r4, [r1, #0]
10006f7e:	190c      	adds	r4, r1, r4
10006f80:	7863      	ldrb	r3, [r4, #1]
10006f82:	2b24      	cmp	r3, #36	; 0x24
10006f84:	d10b      	bne.n	10006f9e <cdcd_open+0x4a>
10006f86:	2a08      	cmp	r2, #8
10006f88:	d802      	bhi.n	10006f90 <cdcd_open+0x3c>
10006f8a:	e00f      	b.n	10006fac <cdcd_open+0x58>
10006f8c:	42aa      	cmp	r2, r5
10006f8e:	d30d      	bcc.n	10006fac <cdcd_open+0x58>
10006f90:	7823      	ldrb	r3, [r4, #0]
10006f92:	18e4      	adds	r4, r4, r3
10006f94:	18ed      	adds	r5, r5, r3
10006f96:	7863      	ldrb	r3, [r4, #1]
10006f98:	b2ad      	uxth	r5, r5
10006f9a:	2b24      	cmp	r3, #36	; 0x24
10006f9c:	d0f6      	beq.n	10006f8c <cdcd_open+0x38>
10006f9e:	2b05      	cmp	r3, #5
10006fa0:	d020      	beq.n	10006fe4 <cdcd_open+0x90>
10006fa2:	2b04      	cmp	r3, #4
10006fa4:	d102      	bne.n	10006fac <cdcd_open+0x58>
10006fa6:	7963      	ldrb	r3, [r4, #5]
10006fa8:	2b0a      	cmp	r3, #10
10006faa:	d02e      	beq.n	1000700a <cdcd_open+0xb6>
10006fac:	4c20      	ldr	r4, [pc, #128]	; (10007030 <cdcd_open+0xdc>)
10006fae:	0020      	movs	r0, r4
10006fb0:	f000 fa08 	bl	100073c4 <tu_fifo_remaining>
10006fb4:	283f      	cmp	r0, #63	; 0x3f
10006fb6:	d9d7      	bls.n	10006f68 <cdcd_open+0x14>
10006fb8:	0026      	movs	r6, r4
10006fba:	3e10      	subs	r6, #16
10006fbc:	2000      	movs	r0, #0
10006fbe:	78f1      	ldrb	r1, [r6, #3]
10006fc0:	f7ff fd28 	bl	10006a14 <usbd_edpt_claim>
10006fc4:	2800      	cmp	r0, #0
10006fc6:	d0cf      	beq.n	10006f68 <cdcd_open+0x14>
10006fc8:	0020      	movs	r0, r4
10006fca:	f000 f9fb 	bl	100073c4 <tu_fifo_remaining>
10006fce:	283f      	cmp	r0, #63	; 0x3f
10006fd0:	d916      	bls.n	10007000 <cdcd_open+0xac>
10006fd2:	2392      	movs	r3, #146	; 0x92
10006fd4:	009b      	lsls	r3, r3, #2
10006fd6:	18e2      	adds	r2, r4, r3
10006fd8:	78f1      	ldrb	r1, [r6, #3]
10006fda:	2340      	movs	r3, #64	; 0x40
10006fdc:	2000      	movs	r0, #0
10006fde:	f7ff fd71 	bl	10006ac4 <usbd_edpt_xfer>
10006fe2:	e7c1      	b.n	10006f68 <cdcd_open+0x14>
10006fe4:	0021      	movs	r1, r4
10006fe6:	0030      	movs	r0, r6
10006fe8:	f7ff fcfc 	bl	100069e4 <usbd_edpt_open>
10006fec:	2800      	cmp	r0, #0
10006fee:	d0ba      	beq.n	10006f66 <cdcd_open+0x12>
10006ff0:	78a3      	ldrb	r3, [r4, #2]
10006ff2:	707b      	strb	r3, [r7, #1]
10006ff4:	7823      	ldrb	r3, [r4, #0]
10006ff6:	18ed      	adds	r5, r5, r3
10006ff8:	18e4      	adds	r4, r4, r3
10006ffa:	7863      	ldrb	r3, [r4, #1]
10006ffc:	b2ad      	uxth	r5, r5
10006ffe:	e7d0      	b.n	10006fa2 <cdcd_open+0x4e>
10007000:	78f1      	ldrb	r1, [r6, #3]
10007002:	2000      	movs	r0, #0
10007004:	f7ff fd38 	bl	10006a78 <usbd_edpt_release>
10007008:	e7ae      	b.n	10006f68 <cdcd_open+0x14>
1000700a:	4b0a      	ldr	r3, [pc, #40]	; (10007034 <cdcd_open+0xe0>)
1000700c:	7827      	ldrb	r7, [r4, #0]
1000700e:	9301      	str	r3, [sp, #4]
10007010:	3301      	adds	r3, #1
10007012:	9300      	str	r3, [sp, #0]
10007014:	2202      	movs	r2, #2
10007016:	2302      	movs	r3, #2
10007018:	0030      	movs	r0, r6
1000701a:	19e1      	adds	r1, r4, r7
1000701c:	f7ff fca2 	bl	10006964 <usbd_open_edpt_pair>
10007020:	2800      	cmp	r0, #0
10007022:	d0a0      	beq.n	10006f66 <cdcd_open+0x12>
10007024:	350e      	adds	r5, #14
10007026:	19ed      	adds	r5, r5, r7
10007028:	b2ad      	uxth	r5, r5
1000702a:	e7bf      	b.n	10006fac <cdcd_open+0x58>
1000702c:	200011d0 	.word	0x200011d0
10007030:	200011e0 	.word	0x200011e0
10007034:	200011d2 	.word	0x200011d2

10007038 <cdcd_control_xfer_cb>:
10007038:	b5f8      	push	{r3, r4, r5, r6, r7, lr}
1000703a:	2360      	movs	r3, #96	; 0x60
1000703c:	0014      	movs	r4, r2
1000703e:	7812      	ldrb	r2, [r2, #0]
10007040:	0005      	movs	r5, r0
10007042:	4013      	ands	r3, r2
10007044:	2000      	movs	r0, #0
10007046:	2b20      	cmp	r3, #32
10007048:	d112      	bne.n	10007070 <cdcd_control_xfer_cb+0x38>
1000704a:	4a2f      	ldr	r2, [pc, #188]	; (10007108 <cdcd_control_xfer_cb+0xd0>)
1000704c:	7963      	ldrb	r3, [r4, #5]
1000704e:	7927      	ldrb	r7, [r4, #4]
10007050:	7816      	ldrb	r6, [r2, #0]
10007052:	021b      	lsls	r3, r3, #8
10007054:	433b      	orrs	r3, r7
10007056:	429e      	cmp	r6, r3
10007058:	d10a      	bne.n	10007070 <cdcd_control_xfer_cb+0x38>
1000705a:	7863      	ldrb	r3, [r4, #1]
1000705c:	2b22      	cmp	r3, #34	; 0x22
1000705e:	d027      	beq.n	100070b0 <cdcd_control_xfer_cb+0x78>
10007060:	d807      	bhi.n	10007072 <cdcd_control_xfer_cb+0x3a>
10007062:	2b20      	cmp	r3, #32
10007064:	d017      	beq.n	10007096 <cdcd_control_xfer_cb+0x5e>
10007066:	2b21      	cmp	r3, #33	; 0x21
10007068:	d102      	bne.n	10007070 <cdcd_control_xfer_cb+0x38>
1000706a:	2900      	cmp	r1, #0
1000706c:	d03d      	beq.n	100070ea <cdcd_control_xfer_cb+0xb2>
1000706e:	2001      	movs	r0, #1
10007070:	bdf8      	pop	{r3, r4, r5, r6, r7, pc}
10007072:	2b23      	cmp	r3, #35	; 0x23
10007074:	d1fc      	bne.n	10007070 <cdcd_control_xfer_cb+0x38>
10007076:	2900      	cmp	r1, #0
10007078:	d03f      	beq.n	100070fa <cdcd_control_xfer_cb+0xc2>
1000707a:	2902      	cmp	r1, #2
1000707c:	d1f7      	bne.n	1000706e <cdcd_control_xfer_cb+0x36>
1000707e:	4b23      	ldr	r3, [pc, #140]	; (1000710c <cdcd_control_xfer_cb+0xd4>)
10007080:	2b00      	cmp	r3, #0
10007082:	d0f4      	beq.n	1000706e <cdcd_control_xfer_cb+0x36>
10007084:	78e1      	ldrb	r1, [r4, #3]
10007086:	78a3      	ldrb	r3, [r4, #2]
10007088:	0209      	lsls	r1, r1, #8
1000708a:	2000      	movs	r0, #0
1000708c:	4319      	orrs	r1, r3
1000708e:	e000      	b.n	10007092 <cdcd_control_xfer_cb+0x5a>
10007090:	bf00      	nop
10007092:	2001      	movs	r0, #1
10007094:	e7ec      	b.n	10007070 <cdcd_control_xfer_cb+0x38>
10007096:	2900      	cmp	r1, #0
10007098:	d027      	beq.n	100070ea <cdcd_control_xfer_cb+0xb2>
1000709a:	2902      	cmp	r1, #2
1000709c:	d1e7      	bne.n	1000706e <cdcd_control_xfer_cb+0x36>
1000709e:	4b1c      	ldr	r3, [pc, #112]	; (10007110 <cdcd_control_xfer_cb+0xd8>)
100070a0:	2b00      	cmp	r3, #0
100070a2:	d0e4      	beq.n	1000706e <cdcd_control_xfer_cb+0x36>
100070a4:	2000      	movs	r0, #0
100070a6:	1d91      	adds	r1, r2, #6
100070a8:	f7fd fff2 	bl	10005090 <tud_cdc_line_coding_cb>
100070ac:	2001      	movs	r0, #1
100070ae:	e7df      	b.n	10007070 <cdcd_control_xfer_cb+0x38>
100070b0:	2900      	cmp	r1, #0
100070b2:	d022      	beq.n	100070fa <cdcd_control_xfer_cb+0xc2>
100070b4:	2902      	cmp	r1, #2
100070b6:	d1da      	bne.n	1000706e <cdcd_control_xfer_cb+0x36>
100070b8:	2501      	movs	r5, #1
100070ba:	002e      	movs	r6, r5
100070bc:	78a3      	ldrb	r3, [r4, #2]
100070be:	78e4      	ldrb	r4, [r4, #3]
100070c0:	3901      	subs	r1, #1
100070c2:	0224      	lsls	r4, r4, #8
100070c4:	431c      	orrs	r4, r3
100070c6:	7114      	strb	r4, [r2, #4]
100070c8:	4026      	ands	r6, r4
100070ca:	322c      	adds	r2, #44	; 0x2c
100070cc:	0010      	movs	r0, r2
100070ce:	4071      	eors	r1, r6
100070d0:	f000 fb38 	bl	10007744 <tu_fifo_set_overwritable>
100070d4:	4b0f      	ldr	r3, [pc, #60]	; (10007114 <cdcd_control_xfer_cb+0xdc>)
100070d6:	2b00      	cmp	r3, #0
100070d8:	d0c9      	beq.n	1000706e <cdcd_control_xfer_cb+0x36>
100070da:	0862      	lsrs	r2, r4, #1
100070dc:	2000      	movs	r0, #0
100070de:	0031      	movs	r1, r6
100070e0:	402a      	ands	r2, r5
100070e2:	e000      	b.n	100070e6 <cdcd_control_xfer_cb+0xae>
100070e4:	bf00      	nop
100070e6:	2001      	movs	r0, #1
100070e8:	e7c2      	b.n	10007070 <cdcd_control_xfer_cb+0x38>
100070ea:	2307      	movs	r3, #7
100070ec:	0021      	movs	r1, r4
100070ee:	0028      	movs	r0, r5
100070f0:	4a09      	ldr	r2, [pc, #36]	; (10007118 <cdcd_control_xfer_cb+0xe0>)
100070f2:	f7ff fd23 	bl	10006b3c <tud_control_xfer>
100070f6:	2001      	movs	r0, #1
100070f8:	e7ba      	b.n	10007070 <cdcd_control_xfer_cb+0x38>
100070fa:	0021      	movs	r1, r4
100070fc:	0028      	movs	r0, r5
100070fe:	f7ff fd05 	bl	10006b0c <tud_control_status>
10007102:	2001      	movs	r0, #1
10007104:	e7b4      	b.n	10007070 <cdcd_control_xfer_cb+0x38>
10007106:	46c0      	nop			; (mov r8, r8)
10007108:	200011d0 	.word	0x200011d0
1000710c:	00000000 	.word	0x00000000
10007110:	10005091 	.word	0x10005091
10007114:	00000000 	.word	0x00000000
10007118:	200011d6 	.word	0x200011d6

1000711c <cdcd_xfer_cb>:
1000711c:	b5f8      	push	{r3, r4, r5, r6, r7, lr}
1000711e:	4657      	mov	r7, sl
10007120:	464e      	mov	r6, r9
10007122:	4645      	mov	r5, r8
10007124:	46de      	mov	lr, fp
10007126:	b5e0      	push	{r5, r6, r7, lr}
10007128:	4f49      	ldr	r7, [pc, #292]	; (10007250 <cdcd_xfer_cb+0x134>)
1000712a:	4680      	mov	r8, r0
1000712c:	78fa      	ldrb	r2, [r7, #3]
1000712e:	000c      	movs	r4, r1
10007130:	001e      	movs	r6, r3
10007132:	428a      	cmp	r2, r1
10007134:	d164      	bne.n	10007200 <cdcd_xfer_cb+0xe4>
10007136:	b29a      	uxth	r2, r3
10007138:	2396      	movs	r3, #150	; 0x96
1000713a:	009b      	lsls	r3, r3, #2
1000713c:	18fd      	adds	r5, r7, r3
1000713e:	2310      	movs	r3, #16
10007140:	469b      	mov	fp, r3
10007142:	44bb      	add	fp, r7
10007144:	0029      	movs	r1, r5
10007146:	4658      	mov	r0, fp
10007148:	f000 fa56 	bl	100075f8 <tu_fifo_write_n>
1000714c:	4b41      	ldr	r3, [pc, #260]	; (10007254 <cdcd_xfer_cb+0x138>)
1000714e:	46d9      	mov	r9, fp
10007150:	2b00      	cmp	r3, #0
10007152:	d018      	beq.n	10007186 <cdcd_xfer_cb+0x6a>
10007154:	797b      	ldrb	r3, [r7, #5]
10007156:	46d9      	mov	r9, fp
10007158:	2bff      	cmp	r3, #255	; 0xff
1000715a:	d014      	beq.n	10007186 <cdcd_xfer_cb+0x6a>
1000715c:	2e00      	cmp	r6, #0
1000715e:	d012      	beq.n	10007186 <cdcd_xfer_cb+0x6a>
10007160:	19aa      	adds	r2, r5, r6
10007162:	4692      	mov	sl, r2
10007164:	e003      	b.n	1000716e <cdcd_xfer_cb+0x52>
10007166:	3501      	adds	r5, #1
10007168:	4555      	cmp	r5, sl
1000716a:	d00c      	beq.n	10007186 <cdcd_xfer_cb+0x6a>
1000716c:	797b      	ldrb	r3, [r7, #5]
1000716e:	782a      	ldrb	r2, [r5, #0]
10007170:	429a      	cmp	r2, r3
10007172:	d1f8      	bne.n	10007166 <cdcd_xfer_cb+0x4a>
10007174:	4648      	mov	r0, r9
10007176:	f000 f91d 	bl	100073b4 <tu_fifo_empty>
1000717a:	2800      	cmp	r0, #0
1000717c:	d1f3      	bne.n	10007166 <cdcd_xfer_cb+0x4a>
1000717e:	7979      	ldrb	r1, [r7, #5]
10007180:	e000      	b.n	10007184 <cdcd_xfer_cb+0x68>
10007182:	bf00      	nop
10007184:	e7ef      	b.n	10007166 <cdcd_xfer_cb+0x4a>
10007186:	4b34      	ldr	r3, [pc, #208]	; (10007258 <cdcd_xfer_cb+0x13c>)
10007188:	2b00      	cmp	r3, #0
1000718a:	d004      	beq.n	10007196 <cdcd_xfer_cb+0x7a>
1000718c:	4648      	mov	r0, r9
1000718e:	f000 f911 	bl	100073b4 <tu_fifo_empty>
10007192:	2800      	cmp	r0, #0
10007194:	d052      	beq.n	1000723c <cdcd_xfer_cb+0x120>
10007196:	4648      	mov	r0, r9
10007198:	f000 f914 	bl	100073c4 <tu_fifo_remaining>
1000719c:	283f      	cmp	r0, #63	; 0x3f
1000719e:	d834      	bhi.n	1000720a <cdcd_xfer_cb+0xee>
100071a0:	464a      	mov	r2, r9
100071a2:	3a10      	subs	r2, #16
100071a4:	7893      	ldrb	r3, [r2, #2]
100071a6:	42a3      	cmp	r3, r4
100071a8:	d007      	beq.n	100071ba <cdcd_xfer_cb+0x9e>
100071aa:	2401      	movs	r4, #1
100071ac:	0020      	movs	r0, r4
100071ae:	bcf0      	pop	{r4, r5, r6, r7}
100071b0:	46bb      	mov	fp, r7
100071b2:	46b2      	mov	sl, r6
100071b4:	46a9      	mov	r9, r5
100071b6:	46a0      	mov	r8, r4
100071b8:	bdf8      	pop	{r3, r4, r5, r6, r7, pc}
100071ba:	4b28      	ldr	r3, [pc, #160]	; (1000725c <cdcd_xfer_cb+0x140>)
100071bc:	2b00      	cmp	r3, #0
100071be:	d002      	beq.n	100071c6 <cdcd_xfer_cb+0xaa>
100071c0:	2000      	movs	r0, #0
100071c2:	e000      	b.n	100071c6 <cdcd_xfer_cb+0xaa>
100071c4:	bf00      	nop
100071c6:	2000      	movs	r0, #0
100071c8:	f7ff fe0e 	bl	10006de8 <tud_cdc_n_write_flush>
100071cc:	2800      	cmp	r0, #0
100071ce:	d1ec      	bne.n	100071aa <cdcd_xfer_cb+0x8e>
100071d0:	4d23      	ldr	r5, [pc, #140]	; (10007260 <cdcd_xfer_cb+0x144>)
100071d2:	0028      	movs	r0, r5
100071d4:	f000 f8de 	bl	10007394 <tu_fifo_count>
100071d8:	2800      	cmp	r0, #0
100071da:	d1e6      	bne.n	100071aa <cdcd_xfer_cb+0x8e>
100071dc:	2e00      	cmp	r6, #0
100071de:	d0e4      	beq.n	100071aa <cdcd_xfer_cb+0x8e>
100071e0:	06b3      	lsls	r3, r6, #26
100071e2:	d1e2      	bne.n	100071aa <cdcd_xfer_cb+0x8e>
100071e4:	3d2c      	subs	r5, #44	; 0x2c
100071e6:	4640      	mov	r0, r8
100071e8:	78a9      	ldrb	r1, [r5, #2]
100071ea:	f7ff fc13 	bl	10006a14 <usbd_edpt_claim>
100071ee:	1e04      	subs	r4, r0, #0
100071f0:	d0db      	beq.n	100071aa <cdcd_xfer_cb+0x8e>
100071f2:	2300      	movs	r3, #0
100071f4:	2200      	movs	r2, #0
100071f6:	4640      	mov	r0, r8
100071f8:	78a9      	ldrb	r1, [r5, #2]
100071fa:	f7ff fc63 	bl	10006ac4 <usbd_edpt_xfer>
100071fe:	e7d5      	b.n	100071ac <cdcd_xfer_cb+0x90>
10007200:	78bb      	ldrb	r3, [r7, #2]
10007202:	428b      	cmp	r3, r1
10007204:	d0d9      	beq.n	100071ba <cdcd_xfer_cb+0x9e>
10007206:	2400      	movs	r4, #0
10007208:	e7d0      	b.n	100071ac <cdcd_xfer_cb+0x90>
1000720a:	464d      	mov	r5, r9
1000720c:	3d10      	subs	r5, #16
1000720e:	2000      	movs	r0, #0
10007210:	78e9      	ldrb	r1, [r5, #3]
10007212:	f7ff fbff 	bl	10006a14 <usbd_edpt_claim>
10007216:	2800      	cmp	r0, #0
10007218:	d101      	bne.n	1000721e <cdcd_xfer_cb+0x102>
1000721a:	78ab      	ldrb	r3, [r5, #2]
1000721c:	e7c3      	b.n	100071a6 <cdcd_xfer_cb+0x8a>
1000721e:	4648      	mov	r0, r9
10007220:	f000 f8d0 	bl	100073c4 <tu_fifo_remaining>
10007224:	283f      	cmp	r0, #63	; 0x3f
10007226:	d90c      	bls.n	10007242 <cdcd_xfer_cb+0x126>
10007228:	2292      	movs	r2, #146	; 0x92
1000722a:	0092      	lsls	r2, r2, #2
1000722c:	2340      	movs	r3, #64	; 0x40
1000722e:	2000      	movs	r0, #0
10007230:	78e9      	ldrb	r1, [r5, #3]
10007232:	444a      	add	r2, r9
10007234:	f7ff fc46 	bl	10006ac4 <usbd_edpt_xfer>
10007238:	78ab      	ldrb	r3, [r5, #2]
1000723a:	e7b4      	b.n	100071a6 <cdcd_xfer_cb+0x8a>
1000723c:	e000      	b.n	10007240 <cdcd_xfer_cb+0x124>
1000723e:	bf00      	nop
10007240:	e7a9      	b.n	10007196 <cdcd_xfer_cb+0x7a>
10007242:	2000      	movs	r0, #0
10007244:	78e9      	ldrb	r1, [r5, #3]
10007246:	f7ff fc17 	bl	10006a78 <usbd_edpt_release>
1000724a:	78ab      	ldrb	r3, [r5, #2]
1000724c:	e7ab      	b.n	100071a6 <cdcd_xfer_cb+0x8a>
1000724e:	46c0      	nop			; (mov r8, r8)
10007250:	200011d0 	.word	0x200011d0
	...
10007260:	200011fc 	.word	0x200011fc

10007264 <tusb_init>:
10007264:	b510      	push	{r4, lr}
10007266:	2000      	movs	r0, #0
10007268:	f7fe fd84 	bl	10005d74 <tud_init>
1000726c:	bd10      	pop	{r4, pc}
1000726e:	46c0      	nop			; (mov r8, r8)

10007270 <tusb_inited>:
10007270:	b510      	push	{r4, lr}
10007272:	f7fe fd79 	bl	10005d68 <tud_inited>
10007276:	bd10      	pop	{r4, pc}

10007278 <tu_edpt_validate>:
10007278:	2207      	movs	r2, #7
1000727a:	b510      	push	{r4, lr}
1000727c:	7944      	ldrb	r4, [r0, #5]
1000727e:	7903      	ldrb	r3, [r0, #4]
10007280:	4022      	ands	r2, r4
10007282:	0212      	lsls	r2, r2, #8
10007284:	431a      	orrs	r2, r3
10007286:	78c3      	ldrb	r3, [r0, #3]
10007288:	079b      	lsls	r3, r3, #30
1000728a:	0f9b      	lsrs	r3, r3, #30
1000728c:	2b02      	cmp	r3, #2
1000728e:	d005      	beq.n	1000729c <tu_edpt_validate+0x24>
10007290:	2b03      	cmp	r3, #3
10007292:	d015      	beq.n	100072c0 <tu_edpt_validate+0x48>
10007294:	2000      	movs	r0, #0
10007296:	2b01      	cmp	r3, #1
10007298:	d008      	beq.n	100072ac <tu_edpt_validate+0x34>
1000729a:	bd10      	pop	{r4, pc}
1000729c:	2902      	cmp	r1, #2
1000729e:	d01c      	beq.n	100072da <tu_edpt_validate+0x62>
100072a0:	2000      	movs	r0, #0
100072a2:	2340      	movs	r3, #64	; 0x40
100072a4:	4293      	cmp	r3, r2
100072a6:	4140      	adcs	r0, r0
100072a8:	b2c0      	uxtb	r0, r0
100072aa:	e7f6      	b.n	1000729a <tu_edpt_validate+0x22>
100072ac:	3902      	subs	r1, #2
100072ae:	424b      	negs	r3, r1
100072b0:	4159      	adcs	r1, r3
100072b2:	4b0d      	ldr	r3, [pc, #52]	; (100072e8 <tu_edpt_validate+0x70>)
100072b4:	469c      	mov	ip, r3
100072b6:	4461      	add	r1, ip
100072b8:	4291      	cmp	r1, r2
100072ba:	4140      	adcs	r0, r0
100072bc:	b2c0      	uxtb	r0, r0
100072be:	e7ec      	b.n	1000729a <tu_edpt_validate+0x22>
100072c0:	3902      	subs	r1, #2
100072c2:	424b      	negs	r3, r1
100072c4:	4159      	adcs	r1, r3
100072c6:	23f0      	movs	r3, #240	; 0xf0
100072c8:	2000      	movs	r0, #0
100072ca:	4249      	negs	r1, r1
100072cc:	009b      	lsls	r3, r3, #2
100072ce:	4019      	ands	r1, r3
100072d0:	3140      	adds	r1, #64	; 0x40
100072d2:	4291      	cmp	r1, r2
100072d4:	4140      	adcs	r0, r0
100072d6:	b2c0      	uxtb	r0, r0
100072d8:	e7df      	b.n	1000729a <tu_edpt_validate+0x22>
100072da:	4b04      	ldr	r3, [pc, #16]	; (100072ec <tu_edpt_validate+0x74>)
100072dc:	469c      	mov	ip, r3
100072de:	4462      	add	r2, ip
100072e0:	4253      	negs	r3, r2
100072e2:	415a      	adcs	r2, r3
100072e4:	b2d0      	uxtb	r0, r2
100072e6:	e7d8      	b.n	1000729a <tu_edpt_validate+0x22>
100072e8:	000003ff 	.word	0x000003ff
100072ec:	fffffe00 	.word	0xfffffe00

100072f0 <tu_edpt_bind_driver>:
100072f0:	b5f0      	push	{r4, r5, r6, r7, lr}
100072f2:	2a00      	cmp	r2, #0
100072f4:	d011      	beq.n	1000731a <tu_edpt_bind_driver+0x2a>
100072f6:	2400      	movs	r4, #0
100072f8:	277f      	movs	r7, #127	; 0x7f
100072fa:	784d      	ldrb	r5, [r1, #1]
100072fc:	2d05      	cmp	r5, #5
100072fe:	d106      	bne.n	1000730e <tu_edpt_bind_driver+0x1e>
10007300:	003d      	movs	r5, r7
10007302:	788e      	ldrb	r6, [r1, #2]
10007304:	4035      	ands	r5, r6
10007306:	006d      	lsls	r5, r5, #1
10007308:	09f6      	lsrs	r6, r6, #7
1000730a:	1945      	adds	r5, r0, r5
1000730c:	55ab      	strb	r3, [r5, r6]
1000730e:	780d      	ldrb	r5, [r1, #0]
10007310:	1964      	adds	r4, r4, r5
10007312:	b2a4      	uxth	r4, r4
10007314:	1949      	adds	r1, r1, r5
10007316:	42a2      	cmp	r2, r4
10007318:	d8ef      	bhi.n	100072fa <tu_edpt_bind_driver+0xa>
1000731a:	bdf0      	pop	{r4, r5, r6, r7, pc}

1000731c <tu_fifo_config>:
1000731c:	b5f0      	push	{r4, r5, r6, r7, lr}
1000731e:	46c6      	mov	lr, r8
10007320:	b500      	push	{lr}
10007322:	0015      	movs	r5, r2
10007324:	aa06      	add	r2, sp, #24
10007326:	001e      	movs	r6, r3
10007328:	7813      	ldrb	r3, [r2, #0]
1000732a:	2280      	movs	r2, #128	; 0x80
1000732c:	0004      	movs	r4, r0
1000732e:	000f      	movs	r7, r1
10007330:	4698      	mov	r8, r3
10007332:	0212      	lsls	r2, r2, #8
10007334:	4295      	cmp	r5, r2
10007336:	d82a      	bhi.n	1000738e <tu_fifo_config+0x72>
10007338:	6940      	ldr	r0, [r0, #20]
1000733a:	2800      	cmp	r0, #0
1000733c:	d003      	beq.n	10007346 <tu_fifo_config+0x2a>
1000733e:	2101      	movs	r1, #1
10007340:	4249      	negs	r1, r1
10007342:	f004 f829 	bl	1000b398 <__mutex_enter_timeout_ms_veneer>
10007346:	69a0      	ldr	r0, [r4, #24]
10007348:	2800      	cmp	r0, #0
1000734a:	d003      	beq.n	10007354 <tu_fifo_config+0x38>
1000734c:	2101      	movs	r1, #1
1000734e:	4249      	negs	r1, r1
10007350:	f004 f822 	bl	1000b398 <__mutex_enter_timeout_ms_veneer>
10007354:	4643      	mov	r3, r8
10007356:	80a5      	strh	r5, [r4, #4]
10007358:	006d      	lsls	r5, r5, #1
1000735a:	b2ad      	uxth	r5, r5
1000735c:	7223      	strb	r3, [r4, #8]
1000735e:	1e6b      	subs	r3, r5, #1
10007360:	81a3      	strh	r3, [r4, #12]
10007362:	2300      	movs	r3, #0
10007364:	6960      	ldr	r0, [r4, #20]
10007366:	426d      	negs	r5, r5
10007368:	81e3      	strh	r3, [r4, #14]
1000736a:	6027      	str	r7, [r4, #0]
1000736c:	80e6      	strh	r6, [r4, #6]
1000736e:	8165      	strh	r5, [r4, #10]
10007370:	8223      	strh	r3, [r4, #16]
10007372:	2800      	cmp	r0, #0
10007374:	d001      	beq.n	1000737a <tu_fifo_config+0x5e>
10007376:	f003 ffef 	bl	1000b358 <__mutex_exit_veneer>
1000737a:	69a0      	ldr	r0, [r4, #24]
1000737c:	2401      	movs	r4, #1
1000737e:	2800      	cmp	r0, #0
10007380:	d001      	beq.n	10007386 <tu_fifo_config+0x6a>
10007382:	f003 ffe9 	bl	1000b358 <__mutex_exit_veneer>
10007386:	0020      	movs	r0, r4
10007388:	bc80      	pop	{r7}
1000738a:	46b8      	mov	r8, r7
1000738c:	bdf0      	pop	{r4, r5, r6, r7, pc}
1000738e:	2400      	movs	r4, #0
10007390:	e7f9      	b.n	10007386 <tu_fifo_config+0x6a>
10007392:	46c0      	nop			; (mov r8, r8)

10007394 <tu_fifo_count>:
10007394:	89c1      	ldrh	r1, [r0, #14]
10007396:	8a02      	ldrh	r2, [r0, #16]
10007398:	1a8b      	subs	r3, r1, r2
1000739a:	b29b      	uxth	r3, r3
1000739c:	4291      	cmp	r1, r2
1000739e:	d202      	bcs.n	100073a6 <tu_fifo_count+0x12>
100073a0:	8942      	ldrh	r2, [r0, #10]
100073a2:	1a9b      	subs	r3, r3, r2
100073a4:	b29b      	uxth	r3, r3
100073a6:	8882      	ldrh	r2, [r0, #4]
100073a8:	1c10      	adds	r0, r2, #0
100073aa:	429a      	cmp	r2, r3
100073ac:	d900      	bls.n	100073b0 <tu_fifo_count+0x1c>
100073ae:	1c18      	adds	r0, r3, #0
100073b0:	b280      	uxth	r0, r0
100073b2:	4770      	bx	lr

100073b4 <tu_fifo_empty>:
100073b4:	0003      	movs	r3, r0
100073b6:	89c0      	ldrh	r0, [r0, #14]
100073b8:	8a1b      	ldrh	r3, [r3, #16]
100073ba:	1ac0      	subs	r0, r0, r3
100073bc:	4243      	negs	r3, r0
100073be:	4158      	adcs	r0, r3
100073c0:	b2c0      	uxtb	r0, r0
100073c2:	4770      	bx	lr

100073c4 <tu_fifo_remaining>:
100073c4:	b510      	push	{r4, lr}
100073c6:	89c4      	ldrh	r4, [r0, #14]
100073c8:	8a01      	ldrh	r1, [r0, #16]
100073ca:	8883      	ldrh	r3, [r0, #4]
100073cc:	1a62      	subs	r2, r4, r1
100073ce:	b292      	uxth	r2, r2
100073d0:	428c      	cmp	r4, r1
100073d2:	d202      	bcs.n	100073da <tu_fifo_remaining+0x16>
100073d4:	8940      	ldrh	r0, [r0, #10]
100073d6:	1a12      	subs	r2, r2, r0
100073d8:	b292      	uxth	r2, r2
100073da:	1a98      	subs	r0, r3, r2
100073dc:	b280      	uxth	r0, r0
100073de:	bd10      	pop	{r4, pc}

100073e0 <tu_fifo_read>:
100073e0:	b570      	push	{r4, r5, r6, lr}
100073e2:	0004      	movs	r4, r0
100073e4:	6980      	ldr	r0, [r0, #24]
100073e6:	000e      	movs	r6, r1
100073e8:	2800      	cmp	r0, #0
100073ea:	d003      	beq.n	100073f4 <tu_fifo_read+0x14>
100073ec:	2101      	movs	r1, #1
100073ee:	4249      	negs	r1, r1
100073f0:	f003 ffd2 	bl	1000b398 <__mutex_enter_timeout_ms_veneer>
100073f4:	89e1      	ldrh	r1, [r4, #14]
100073f6:	8a22      	ldrh	r2, [r4, #16]
100073f8:	b288      	uxth	r0, r1
100073fa:	1a8d      	subs	r5, r1, r2
100073fc:	b293      	uxth	r3, r2
100073fe:	b2ad      	uxth	r5, r5
10007400:	4291      	cmp	r1, r2
10007402:	d202      	bcs.n	1000740a <tu_fifo_read+0x2a>
10007404:	8962      	ldrh	r2, [r4, #10]
10007406:	1aad      	subs	r5, r5, r2
10007408:	b2ad      	uxth	r5, r5
1000740a:	88a2      	ldrh	r2, [r4, #4]
1000740c:	42aa      	cmp	r2, r5
1000740e:	d207      	bcs.n	10007420 <tu_fifo_read+0x40>
10007410:	4290      	cmp	r0, r2
10007412:	d225      	bcs.n	10007460 <tu_fifo_read+0x80>
10007414:	8961      	ldrh	r1, [r4, #10]
10007416:	1851      	adds	r1, r2, r1
10007418:	1a41      	subs	r1, r0, r1
1000741a:	b289      	uxth	r1, r1
1000741c:	0015      	movs	r5, r2
1000741e:	8221      	strh	r1, [r4, #16]
10007420:	2d00      	cmp	r5, #0
10007422:	d102      	bne.n	1000742a <tu_fifo_read+0x4a>
10007424:	e022      	b.n	1000746c <tu_fifo_read+0x8c>
10007426:	1a9b      	subs	r3, r3, r2
10007428:	b29b      	uxth	r3, r3
1000742a:	429a      	cmp	r2, r3
1000742c:	d9fb      	bls.n	10007426 <tu_fifo_read+0x46>
1000742e:	88e2      	ldrh	r2, [r4, #6]
10007430:	6821      	ldr	r1, [r4, #0]
10007432:	4353      	muls	r3, r2
10007434:	0030      	movs	r0, r6
10007436:	18c9      	adds	r1, r1, r3
10007438:	f7fd fbba 	bl	10004bb0 <__wrap___aeabi_memcpy>
1000743c:	8a22      	ldrh	r2, [r4, #16]
1000743e:	2501      	movs	r5, #1
10007440:	1c53      	adds	r3, r2, #1
10007442:	b29b      	uxth	r3, r3
10007444:	429a      	cmp	r2, r3
10007446:	d914      	bls.n	10007472 <tu_fifo_read+0x92>
10007448:	2300      	movs	r3, #0
1000744a:	8962      	ldrh	r2, [r4, #10]
1000744c:	189b      	adds	r3, r3, r2
1000744e:	b29b      	uxth	r3, r3
10007450:	69a0      	ldr	r0, [r4, #24]
10007452:	8223      	strh	r3, [r4, #16]
10007454:	2800      	cmp	r0, #0
10007456:	d001      	beq.n	1000745c <tu_fifo_read+0x7c>
10007458:	f003 ff7e 	bl	1000b358 <__mutex_exit_veneer>
1000745c:	0028      	movs	r0, r5
1000745e:	bd70      	pop	{r4, r5, r6, pc}
10007460:	1a81      	subs	r1, r0, r2
10007462:	89a5      	ldrh	r5, [r4, #12]
10007464:	b289      	uxth	r1, r1
10007466:	428d      	cmp	r5, r1
10007468:	d2d8      	bcs.n	1000741c <tu_fifo_read+0x3c>
1000746a:	e7d3      	b.n	10007414 <tu_fifo_read+0x34>
1000746c:	2500      	movs	r5, #0
1000746e:	8a23      	ldrh	r3, [r4, #16]
10007470:	b29b      	uxth	r3, r3
10007472:	89a2      	ldrh	r2, [r4, #12]
10007474:	429a      	cmp	r2, r3
10007476:	d2eb      	bcs.n	10007450 <tu_fifo_read+0x70>
10007478:	e7e7      	b.n	1000744a <tu_fifo_read+0x6a>
1000747a:	46c0      	nop			; (mov r8, r8)

1000747c <tu_fifo_read_n>:
1000747c:	b5f0      	push	{r4, r5, r6, r7, lr}
1000747e:	464f      	mov	r7, r9
10007480:	4646      	mov	r6, r8
10007482:	46d6      	mov	lr, sl
10007484:	0005      	movs	r5, r0
10007486:	6980      	ldr	r0, [r0, #24]
10007488:	4688      	mov	r8, r1
1000748a:	4691      	mov	r9, r2
1000748c:	b5c0      	push	{r6, r7, lr}
1000748e:	2800      	cmp	r0, #0
10007490:	d003      	beq.n	1000749a <tu_fifo_read_n+0x1e>
10007492:	2101      	movs	r1, #1
10007494:	4249      	negs	r1, r1
10007496:	f003 ff7f 	bl	1000b398 <__mutex_enter_timeout_ms_veneer>
1000749a:	89ea      	ldrh	r2, [r5, #14]
1000749c:	8a2b      	ldrh	r3, [r5, #16]
1000749e:	b291      	uxth	r1, r2
100074a0:	1ad6      	subs	r6, r2, r3
100074a2:	b29c      	uxth	r4, r3
100074a4:	b2b6      	uxth	r6, r6
100074a6:	429a      	cmp	r2, r3
100074a8:	d202      	bcs.n	100074b0 <tu_fifo_read_n+0x34>
100074aa:	896b      	ldrh	r3, [r5, #10]
100074ac:	1af6      	subs	r6, r6, r3
100074ae:	b2b6      	uxth	r6, r6
100074b0:	88af      	ldrh	r7, [r5, #4]
100074b2:	42b7      	cmp	r7, r6
100074b4:	d209      	bcs.n	100074ca <tu_fifo_read_n+0x4e>
100074b6:	42b9      	cmp	r1, r7
100074b8:	d254      	bcs.n	10007564 <tu_fifo_read_n+0xe8>
100074ba:	896b      	ldrh	r3, [r5, #10]
100074bc:	18fb      	adds	r3, r7, r3
100074be:	1acb      	subs	r3, r1, r3
100074c0:	b29b      	uxth	r3, r3
100074c2:	003e      	movs	r6, r7
100074c4:	822b      	strh	r3, [r5, #16]
100074c6:	8a2c      	ldrh	r4, [r5, #16]
100074c8:	b2a4      	uxth	r4, r4
100074ca:	2e00      	cmp	r6, #0
100074cc:	d050      	beq.n	10007570 <tu_fifo_read_n+0xf4>
100074ce:	464b      	mov	r3, r9
100074d0:	45b1      	cmp	r9, r6
100074d2:	d845      	bhi.n	10007560 <tu_fifo_read_n+0xe4>
100074d4:	b29e      	uxth	r6, r3
100074d6:	42a7      	cmp	r7, r4
100074d8:	d803      	bhi.n	100074e2 <tu_fifo_read_n+0x66>
100074da:	1be4      	subs	r4, r4, r7
100074dc:	b2a4      	uxth	r4, r4
100074de:	42a7      	cmp	r7, r4
100074e0:	d9fb      	bls.n	100074da <tu_fifo_read_n+0x5e>
100074e2:	88eb      	ldrh	r3, [r5, #6]
100074e4:	1b38      	subs	r0, r7, r4
100074e6:	0019      	movs	r1, r3
100074e8:	4699      	mov	r9, r3
100074ea:	682b      	ldr	r3, [r5, #0]
100074ec:	4361      	muls	r1, r4
100074ee:	469c      	mov	ip, r3
100074f0:	b280      	uxth	r0, r0
100074f2:	4461      	add	r1, ip
100074f4:	4286      	cmp	r6, r0
100074f6:	d925      	bls.n	10007544 <tu_fifo_read_n+0xc8>
100074f8:	464b      	mov	r3, r9
100074fa:	4358      	muls	r0, r3
100074fc:	b283      	uxth	r3, r0
100074fe:	001a      	movs	r2, r3
10007500:	4640      	mov	r0, r8
10007502:	469a      	mov	sl, r3
10007504:	f7fd fb54 	bl	10004bb0 <__wrap___aeabi_memcpy>
10007508:	464b      	mov	r3, r9
1000750a:	4640      	mov	r0, r8
1000750c:	1bf7      	subs	r7, r6, r7
1000750e:	19e4      	adds	r4, r4, r7
10007510:	435c      	muls	r4, r3
10007512:	6829      	ldr	r1, [r5, #0]
10007514:	b2a2      	uxth	r2, r4
10007516:	4450      	add	r0, sl
10007518:	f7fd fb4a 	bl	10004bb0 <__wrap___aeabi_memcpy>
1000751c:	8a2a      	ldrh	r2, [r5, #16]
1000751e:	1993      	adds	r3, r2, r6
10007520:	b29b      	uxth	r3, r3
10007522:	429a      	cmp	r2, r3
10007524:	d918      	bls.n	10007558 <tu_fifo_read_n+0xdc>
10007526:	896a      	ldrh	r2, [r5, #10]
10007528:	189b      	adds	r3, r3, r2
1000752a:	b29b      	uxth	r3, r3
1000752c:	69a8      	ldr	r0, [r5, #24]
1000752e:	822b      	strh	r3, [r5, #16]
10007530:	2800      	cmp	r0, #0
10007532:	d001      	beq.n	10007538 <tu_fifo_read_n+0xbc>
10007534:	f003 ff10 	bl	1000b358 <__mutex_exit_veneer>
10007538:	0030      	movs	r0, r6
1000753a:	bce0      	pop	{r5, r6, r7}
1000753c:	46ba      	mov	sl, r7
1000753e:	46b1      	mov	r9, r6
10007540:	46a8      	mov	r8, r5
10007542:	bdf0      	pop	{r4, r5, r6, r7, pc}
10007544:	464a      	mov	r2, r9
10007546:	4640      	mov	r0, r8
10007548:	4372      	muls	r2, r6
1000754a:	f7fd fb31 	bl	10004bb0 <__wrap___aeabi_memcpy>
1000754e:	8a2a      	ldrh	r2, [r5, #16]
10007550:	1993      	adds	r3, r2, r6
10007552:	b29b      	uxth	r3, r3
10007554:	429a      	cmp	r2, r3
10007556:	d8e6      	bhi.n	10007526 <tu_fifo_read_n+0xaa>
10007558:	89aa      	ldrh	r2, [r5, #12]
1000755a:	429a      	cmp	r2, r3
1000755c:	d2e6      	bcs.n	1000752c <tu_fifo_read_n+0xb0>
1000755e:	e7e2      	b.n	10007526 <tu_fifo_read_n+0xaa>
10007560:	1c33      	adds	r3, r6, #0
10007562:	e7b7      	b.n	100074d4 <tu_fifo_read_n+0x58>
10007564:	1bcb      	subs	r3, r1, r7
10007566:	89aa      	ldrh	r2, [r5, #12]
10007568:	b29b      	uxth	r3, r3
1000756a:	429a      	cmp	r2, r3
1000756c:	d2a9      	bcs.n	100074c2 <tu_fifo_read_n+0x46>
1000756e:	e7a4      	b.n	100074ba <tu_fifo_read_n+0x3e>
10007570:	8a2b      	ldrh	r3, [r5, #16]
10007572:	89aa      	ldrh	r2, [r5, #12]
10007574:	b29b      	uxth	r3, r3
10007576:	429a      	cmp	r2, r3
10007578:	d2d8      	bcs.n	1000752c <tu_fifo_read_n+0xb0>
1000757a:	e7d4      	b.n	10007526 <tu_fifo_read_n+0xaa>

1000757c <tu_fifo_write>:
1000757c:	b5f8      	push	{r3, r4, r5, r6, r7, lr}
1000757e:	0004      	movs	r4, r0
10007580:	6940      	ldr	r0, [r0, #20]
10007582:	000e      	movs	r6, r1
10007584:	2800      	cmp	r0, #0
10007586:	d003      	beq.n	10007590 <tu_fifo_write+0x14>
10007588:	2101      	movs	r1, #1
1000758a:	4249      	negs	r1, r1
1000758c:	f003 ff04 	bl	1000b398 <__mutex_enter_timeout_ms_veneer>
10007590:	89e2      	ldrh	r2, [r4, #14]
10007592:	8a21      	ldrh	r1, [r4, #16]
10007594:	b295      	uxth	r5, r2
10007596:	1a53      	subs	r3, r2, r1
10007598:	b29b      	uxth	r3, r3
1000759a:	4291      	cmp	r1, r2
1000759c:	d902      	bls.n	100075a4 <tu_fifo_write+0x28>
1000759e:	8962      	ldrh	r2, [r4, #10]
100075a0:	1a9b      	subs	r3, r3, r2
100075a2:	b29b      	uxth	r3, r3
100075a4:	88a2      	ldrh	r2, [r4, #4]
100075a6:	429a      	cmp	r2, r3
100075a8:	d021      	beq.n	100075ee <tu_fifo_write+0x72>
100075aa:	002b      	movs	r3, r5
100075ac:	4295      	cmp	r5, r2
100075ae:	d303      	bcc.n	100075b8 <tu_fifo_write+0x3c>
100075b0:	1a9b      	subs	r3, r3, r2
100075b2:	b29b      	uxth	r3, r3
100075b4:	429a      	cmp	r2, r3
100075b6:	d9fb      	bls.n	100075b0 <tu_fifo_write+0x34>
100075b8:	88e2      	ldrh	r2, [r4, #6]
100075ba:	6821      	ldr	r1, [r4, #0]
100075bc:	4353      	muls	r3, r2
100075be:	18c8      	adds	r0, r1, r3
100075c0:	0031      	movs	r1, r6
100075c2:	f7fd faf5 	bl	10004bb0 <__wrap___aeabi_memcpy>
100075c6:	1c6b      	adds	r3, r5, #1
100075c8:	b29b      	uxth	r3, r3
100075ca:	429d      	cmp	r5, r3
100075cc:	d90b      	bls.n	100075e6 <tu_fifo_write+0x6a>
100075ce:	8962      	ldrh	r2, [r4, #10]
100075d0:	189b      	adds	r3, r3, r2
100075d2:	b29b      	uxth	r3, r3
100075d4:	6960      	ldr	r0, [r4, #20]
100075d6:	2701      	movs	r7, #1
100075d8:	81e3      	strh	r3, [r4, #14]
100075da:	2800      	cmp	r0, #0
100075dc:	d001      	beq.n	100075e2 <tu_fifo_write+0x66>
100075de:	f003 febb 	bl	1000b358 <__mutex_exit_veneer>
100075e2:	0038      	movs	r0, r7
100075e4:	bdf8      	pop	{r3, r4, r5, r6, r7, pc}
100075e6:	89a2      	ldrh	r2, [r4, #12]
100075e8:	429a      	cmp	r2, r3
100075ea:	d2f3      	bcs.n	100075d4 <tu_fifo_write+0x58>
100075ec:	e7ef      	b.n	100075ce <tu_fifo_write+0x52>
100075ee:	7a27      	ldrb	r7, [r4, #8]
100075f0:	2f00      	cmp	r7, #0
100075f2:	d1da      	bne.n	100075aa <tu_fifo_write+0x2e>
100075f4:	e7f5      	b.n	100075e2 <tu_fifo_write+0x66>
100075f6:	46c0      	nop			; (mov r8, r8)

100075f8 <tu_fifo_write_n>:
100075f8:	b5f8      	push	{r3, r4, r5, r6, r7, lr}
100075fa:	4645      	mov	r5, r8
100075fc:	464e      	mov	r6, r9
100075fe:	46de      	mov	lr, fp
10007600:	4657      	mov	r7, sl
10007602:	4688      	mov	r8, r1
10007604:	b5e0      	push	{r5, r6, r7, lr}
10007606:	0005      	movs	r5, r0
10007608:	1e16      	subs	r6, r2, #0
1000760a:	d05a      	beq.n	100076c2 <tu_fifo_write_n+0xca>
1000760c:	6940      	ldr	r0, [r0, #20]
1000760e:	2800      	cmp	r0, #0
10007610:	d003      	beq.n	1000761a <tu_fifo_write_n+0x22>
10007612:	2101      	movs	r1, #1
10007614:	4249      	negs	r1, r1
10007616:	f003 febf 	bl	1000b398 <__mutex_enter_timeout_ms_veneer>
1000761a:	89ef      	ldrh	r7, [r5, #14]
1000761c:	7a2b      	ldrb	r3, [r5, #8]
1000761e:	8a29      	ldrh	r1, [r5, #16]
10007620:	b2bf      	uxth	r7, r7
10007622:	b289      	uxth	r1, r1
10007624:	2b00      	cmp	r3, #0
10007626:	d13b      	bne.n	100076a0 <tu_fifo_write_n+0xa8>
10007628:	1a7a      	subs	r2, r7, r1
1000762a:	88ab      	ldrh	r3, [r5, #4]
1000762c:	b292      	uxth	r2, r2
1000762e:	428f      	cmp	r7, r1
10007630:	d202      	bcs.n	10007638 <tu_fifo_write_n+0x40>
10007632:	8969      	ldrh	r1, [r5, #10]
10007634:	1a52      	subs	r2, r2, r1
10007636:	b292      	uxth	r2, r2
10007638:	1a9a      	subs	r2, r3, r2
1000763a:	1c11      	adds	r1, r2, #0
1000763c:	b292      	uxth	r2, r2
1000763e:	42b2      	cmp	r2, r6
10007640:	d853      	bhi.n	100076ea <tu_fifo_write_n+0xf2>
10007642:	88ea      	ldrh	r2, [r5, #6]
10007644:	b28e      	uxth	r6, r1
10007646:	4692      	mov	sl, r2
10007648:	1af2      	subs	r2, r6, r3
1000764a:	b292      	uxth	r2, r2
1000764c:	4691      	mov	r9, r2
1000764e:	003c      	movs	r4, r7
10007650:	429f      	cmp	r7, r3
10007652:	d303      	bcc.n	1000765c <tu_fifo_write_n+0x64>
10007654:	1ae4      	subs	r4, r4, r3
10007656:	b2a4      	uxth	r4, r4
10007658:	429c      	cmp	r4, r3
1000765a:	d2fb      	bcs.n	10007654 <tu_fifo_write_n+0x5c>
1000765c:	4650      	mov	r0, sl
1000765e:	682a      	ldr	r2, [r5, #0]
10007660:	4360      	muls	r0, r4
10007662:	4694      	mov	ip, r2
10007664:	1b1b      	subs	r3, r3, r4
10007666:	b29b      	uxth	r3, r3
10007668:	4652      	mov	r2, sl
1000766a:	4460      	add	r0, ip
1000766c:	429e      	cmp	r6, r3
1000766e:	d82a      	bhi.n	100076c6 <tu_fifo_write_n+0xce>
10007670:	4641      	mov	r1, r8
10007672:	4372      	muls	r2, r6
10007674:	f7fd fa9c 	bl	10004bb0 <__wrap___aeabi_memcpy>
10007678:	19f3      	adds	r3, r6, r7
1000767a:	b29b      	uxth	r3, r3
1000767c:	429f      	cmp	r7, r3
1000767e:	d81c      	bhi.n	100076ba <tu_fifo_write_n+0xc2>
10007680:	89aa      	ldrh	r2, [r5, #12]
10007682:	429a      	cmp	r2, r3
10007684:	d319      	bcc.n	100076ba <tu_fifo_write_n+0xc2>
10007686:	6968      	ldr	r0, [r5, #20]
10007688:	81eb      	strh	r3, [r5, #14]
1000768a:	2800      	cmp	r0, #0
1000768c:	d001      	beq.n	10007692 <tu_fifo_write_n+0x9a>
1000768e:	f003 fe63 	bl	1000b358 <__mutex_exit_veneer>
10007692:	0030      	movs	r0, r6
10007694:	bcf0      	pop	{r4, r5, r6, r7}
10007696:	46bb      	mov	fp, r7
10007698:	46b2      	mov	sl, r6
1000769a:	46a9      	mov	r9, r5
1000769c:	46a0      	mov	r8, r4
1000769e:	bdf8      	pop	{r3, r4, r5, r6, r7, pc}
100076a0:	88ea      	ldrh	r2, [r5, #6]
100076a2:	88ab      	ldrh	r3, [r5, #4]
100076a4:	4692      	mov	sl, r2
100076a6:	429e      	cmp	r6, r3
100076a8:	d321      	bcc.n	100076ee <tu_fifo_write_n+0xf6>
100076aa:	1af6      	subs	r6, r6, r3
100076ac:	4356      	muls	r6, r2
100076ae:	2200      	movs	r2, #0
100076b0:	44b0      	add	r8, r6
100076b2:	000f      	movs	r7, r1
100076b4:	001e      	movs	r6, r3
100076b6:	4691      	mov	r9, r2
100076b8:	e7c9      	b.n	1000764e <tu_fifo_write_n+0x56>
100076ba:	896a      	ldrh	r2, [r5, #10]
100076bc:	189b      	adds	r3, r3, r2
100076be:	b29b      	uxth	r3, r3
100076c0:	e7e1      	b.n	10007686 <tu_fifo_write_n+0x8e>
100076c2:	2600      	movs	r6, #0
100076c4:	e7e5      	b.n	10007692 <tu_fifo_write_n+0x9a>
100076c6:	4353      	muls	r3, r2
100076c8:	b29b      	uxth	r3, r3
100076ca:	001a      	movs	r2, r3
100076cc:	4641      	mov	r1, r8
100076ce:	469b      	mov	fp, r3
100076d0:	f7fd fa6e 	bl	10004bb0 <__wrap___aeabi_memcpy>
100076d4:	0022      	movs	r2, r4
100076d6:	4653      	mov	r3, sl
100076d8:	4641      	mov	r1, r8
100076da:	444a      	add	r2, r9
100076dc:	435a      	muls	r2, r3
100076de:	6828      	ldr	r0, [r5, #0]
100076e0:	b292      	uxth	r2, r2
100076e2:	4459      	add	r1, fp
100076e4:	f7fd fa64 	bl	10004bb0 <__wrap___aeabi_memcpy>
100076e8:	e7c6      	b.n	10007678 <tu_fifo_write_n+0x80>
100076ea:	1c31      	adds	r1, r6, #0
100076ec:	e7a9      	b.n	10007642 <tu_fifo_write_n+0x4a>
100076ee:	1af2      	subs	r2, r6, r3
100076f0:	b292      	uxth	r2, r2
100076f2:	4691      	mov	r9, r2
100076f4:	e7ab      	b.n	1000764e <tu_fifo_write_n+0x56>
100076f6:	46c0      	nop			; (mov r8, r8)

100076f8 <tu_fifo_clear>:
100076f8:	b510      	push	{r4, lr}
100076fa:	0004      	movs	r4, r0
100076fc:	6940      	ldr	r0, [r0, #20]
100076fe:	2800      	cmp	r0, #0
10007700:	d003      	beq.n	1000770a <tu_fifo_clear+0x12>
10007702:	2101      	movs	r1, #1
10007704:	4249      	negs	r1, r1
10007706:	f003 fe47 	bl	1000b398 <__mutex_enter_timeout_ms_veneer>
1000770a:	69a0      	ldr	r0, [r4, #24]
1000770c:	2800      	cmp	r0, #0
1000770e:	d003      	beq.n	10007718 <tu_fifo_clear+0x20>
10007710:	2101      	movs	r1, #1
10007712:	4249      	negs	r1, r1
10007714:	f003 fe40 	bl	1000b398 <__mutex_enter_timeout_ms_veneer>
10007718:	2300      	movs	r3, #0
1000771a:	81e3      	strh	r3, [r4, #14]
1000771c:	8223      	strh	r3, [r4, #16]
1000771e:	88a3      	ldrh	r3, [r4, #4]
10007720:	6960      	ldr	r0, [r4, #20]
10007722:	005b      	lsls	r3, r3, #1
10007724:	b29b      	uxth	r3, r3
10007726:	1e5a      	subs	r2, r3, #1
10007728:	425b      	negs	r3, r3
1000772a:	81a2      	strh	r2, [r4, #12]
1000772c:	8163      	strh	r3, [r4, #10]
1000772e:	2800      	cmp	r0, #0
10007730:	d001      	beq.n	10007736 <tu_fifo_clear+0x3e>
10007732:	f003 fe11 	bl	1000b358 <__mutex_exit_veneer>
10007736:	69a0      	ldr	r0, [r4, #24]
10007738:	2800      	cmp	r0, #0
1000773a:	d001      	beq.n	10007740 <tu_fifo_clear+0x48>
1000773c:	f003 fe0c 	bl	1000b358 <__mutex_exit_veneer>
10007740:	2001      	movs	r0, #1
10007742:	bd10      	pop	{r4, pc}

10007744 <tu_fifo_set_overwritable>:
10007744:	b570      	push	{r4, r5, r6, lr}
10007746:	0004      	movs	r4, r0
10007748:	6940      	ldr	r0, [r0, #20]
1000774a:	000d      	movs	r5, r1
1000774c:	2800      	cmp	r0, #0
1000774e:	d003      	beq.n	10007758 <tu_fifo_set_overwritable+0x14>
10007750:	2101      	movs	r1, #1
10007752:	4249      	negs	r1, r1
10007754:	f003 fe20 	bl	1000b398 <__mutex_enter_timeout_ms_veneer>
10007758:	69a0      	ldr	r0, [r4, #24]
1000775a:	2800      	cmp	r0, #0
1000775c:	d003      	beq.n	10007766 <tu_fifo_set_overwritable+0x22>
1000775e:	2101      	movs	r1, #1
10007760:	4249      	negs	r1, r1
10007762:	f003 fe19 	bl	1000b398 <__mutex_enter_timeout_ms_veneer>
10007766:	6960      	ldr	r0, [r4, #20]
10007768:	7225      	strb	r5, [r4, #8]
1000776a:	2800      	cmp	r0, #0
1000776c:	d001      	beq.n	10007772 <tu_fifo_set_overwritable+0x2e>
1000776e:	f003 fdf3 	bl	1000b358 <__mutex_exit_veneer>
10007772:	69a0      	ldr	r0, [r4, #24]
10007774:	2800      	cmp	r0, #0
10007776:	d001      	beq.n	1000777c <tu_fifo_set_overwritable+0x38>
10007778:	f003 fdee 	bl	1000b358 <__mutex_exit_veneer>
1000777c:	2001      	movs	r0, #1
1000777e:	bd70      	pop	{r4, r5, r6, pc}

10007780 <_retrieve_unique_id_on_boot>:
10007780:	b510      	push	{r4, lr}
10007782:	4802      	ldr	r0, [pc, #8]	; (1000778c <_retrieve_unique_id_on_boot+0xc>)
10007784:	f000 f8d8 	bl	10007938 <flash_get_unique_id>
10007788:	bd10      	pop	{r4, pc}
1000778a:	46c0      	nop			; (mov r8, r8)
1000778c:	20001bfc 	.word	0x20001bfc

10007790 <pico_get_unique_board_id_string>:
10007790:	b530      	push	{r4, r5, lr}
10007792:	1e4b      	subs	r3, r1, #1
10007794:	2901      	cmp	r1, #1
10007796:	d100      	bne.n	1000779a <pico_get_unique_board_id_string+0xa>
10007798:	e0a7      	b.n	100078ea <pico_get_unique_board_id_string+0x15a>
1000779a:	4a66      	ldr	r2, [pc, #408]	; (10007934 <pico_get_unique_board_id_string+0x1a4>)
1000779c:	7811      	ldrb	r1, [r2, #0]
1000779e:	110d      	asrs	r5, r1, #4
100077a0:	002c      	movs	r4, r5
100077a2:	3430      	adds	r4, #48	; 0x30
100077a4:	299f      	cmp	r1, #159	; 0x9f
100077a6:	d900      	bls.n	100077aa <pico_get_unique_board_id_string+0x1a>
100077a8:	e0a2      	b.n	100078f0 <pico_get_unique_board_id_string+0x160>
100077aa:	7004      	strb	r4, [r0, #0]
100077ac:	2b01      	cmp	r3, #1
100077ae:	d100      	bne.n	100077b2 <pico_get_unique_board_id_string+0x22>
100077b0:	e0be      	b.n	10007930 <pico_get_unique_board_id_string+0x1a0>
100077b2:	210f      	movs	r1, #15
100077b4:	7814      	ldrb	r4, [r2, #0]
100077b6:	4021      	ands	r1, r4
100077b8:	000c      	movs	r4, r1
100077ba:	3430      	adds	r4, #48	; 0x30
100077bc:	2909      	cmp	r1, #9
100077be:	dd00      	ble.n	100077c2 <pico_get_unique_board_id_string+0x32>
100077c0:	e098      	b.n	100078f4 <pico_get_unique_board_id_string+0x164>
100077c2:	7044      	strb	r4, [r0, #1]
100077c4:	2b02      	cmp	r3, #2
100077c6:	d100      	bne.n	100077ca <pico_get_unique_board_id_string+0x3a>
100077c8:	e0b2      	b.n	10007930 <pico_get_unique_board_id_string+0x1a0>
100077ca:	7854      	ldrb	r4, [r2, #1]
100077cc:	1125      	asrs	r5, r4, #4
100077ce:	0029      	movs	r1, r5
100077d0:	3130      	adds	r1, #48	; 0x30
100077d2:	2c9f      	cmp	r4, #159	; 0x9f
100077d4:	d900      	bls.n	100077d8 <pico_get_unique_board_id_string+0x48>
100077d6:	e090      	b.n	100078fa <pico_get_unique_board_id_string+0x16a>
100077d8:	7081      	strb	r1, [r0, #2]
100077da:	2b03      	cmp	r3, #3
100077dc:	d100      	bne.n	100077e0 <pico_get_unique_board_id_string+0x50>
100077de:	e0a7      	b.n	10007930 <pico_get_unique_board_id_string+0x1a0>
100077e0:	210f      	movs	r1, #15
100077e2:	4021      	ands	r1, r4
100077e4:	000c      	movs	r4, r1
100077e6:	3430      	adds	r4, #48	; 0x30
100077e8:	2909      	cmp	r1, #9
100077ea:	dd00      	ble.n	100077ee <pico_get_unique_board_id_string+0x5e>
100077ec:	e087      	b.n	100078fe <pico_get_unique_board_id_string+0x16e>
100077ee:	70c4      	strb	r4, [r0, #3]
100077f0:	2b04      	cmp	r3, #4
100077f2:	d100      	bne.n	100077f6 <pico_get_unique_board_id_string+0x66>
100077f4:	e09c      	b.n	10007930 <pico_get_unique_board_id_string+0x1a0>
100077f6:	7894      	ldrb	r4, [r2, #2]
100077f8:	1125      	asrs	r5, r4, #4
100077fa:	0029      	movs	r1, r5
100077fc:	3130      	adds	r1, #48	; 0x30
100077fe:	2c9f      	cmp	r4, #159	; 0x9f
10007800:	d900      	bls.n	10007804 <pico_get_unique_board_id_string+0x74>
10007802:	e07f      	b.n	10007904 <pico_get_unique_board_id_string+0x174>
10007804:	7101      	strb	r1, [r0, #4]
10007806:	2b05      	cmp	r3, #5
10007808:	d100      	bne.n	1000780c <pico_get_unique_board_id_string+0x7c>
1000780a:	e091      	b.n	10007930 <pico_get_unique_board_id_string+0x1a0>
1000780c:	210f      	movs	r1, #15
1000780e:	4021      	ands	r1, r4
10007810:	000c      	movs	r4, r1
10007812:	3430      	adds	r4, #48	; 0x30
10007814:	2909      	cmp	r1, #9
10007816:	dd00      	ble.n	1000781a <pico_get_unique_board_id_string+0x8a>
10007818:	e076      	b.n	10007908 <pico_get_unique_board_id_string+0x178>
1000781a:	7144      	strb	r4, [r0, #5]
1000781c:	2b06      	cmp	r3, #6
1000781e:	d100      	bne.n	10007822 <pico_get_unique_board_id_string+0x92>
10007820:	e086      	b.n	10007930 <pico_get_unique_board_id_string+0x1a0>
10007822:	78d4      	ldrb	r4, [r2, #3]
10007824:	1125      	asrs	r5, r4, #4
10007826:	0029      	movs	r1, r5
10007828:	3130      	adds	r1, #48	; 0x30
1000782a:	2c9f      	cmp	r4, #159	; 0x9f
1000782c:	d900      	bls.n	10007830 <pico_get_unique_board_id_string+0xa0>
1000782e:	e06e      	b.n	1000790e <pico_get_unique_board_id_string+0x17e>
10007830:	7181      	strb	r1, [r0, #6]
10007832:	2b07      	cmp	r3, #7
10007834:	d100      	bne.n	10007838 <pico_get_unique_board_id_string+0xa8>
10007836:	e07b      	b.n	10007930 <pico_get_unique_board_id_string+0x1a0>
10007838:	210f      	movs	r1, #15
1000783a:	4021      	ands	r1, r4
1000783c:	000c      	movs	r4, r1
1000783e:	3430      	adds	r4, #48	; 0x30
10007840:	2909      	cmp	r1, #9
10007842:	dc66      	bgt.n	10007912 <pico_get_unique_board_id_string+0x182>
10007844:	71c4      	strb	r4, [r0, #7]
10007846:	2b08      	cmp	r3, #8
10007848:	d100      	bne.n	1000784c <pico_get_unique_board_id_string+0xbc>
1000784a:	e071      	b.n	10007930 <pico_get_unique_board_id_string+0x1a0>
1000784c:	7914      	ldrb	r4, [r2, #4]
1000784e:	1125      	asrs	r5, r4, #4
10007850:	0029      	movs	r1, r5
10007852:	3130      	adds	r1, #48	; 0x30
10007854:	2c9f      	cmp	r4, #159	; 0x9f
10007856:	d85f      	bhi.n	10007918 <pico_get_unique_board_id_string+0x188>
10007858:	7201      	strb	r1, [r0, #8]
1000785a:	2b09      	cmp	r3, #9
1000785c:	d068      	beq.n	10007930 <pico_get_unique_board_id_string+0x1a0>
1000785e:	210f      	movs	r1, #15
10007860:	4021      	ands	r1, r4
10007862:	000c      	movs	r4, r1
10007864:	3430      	adds	r4, #48	; 0x30
10007866:	2909      	cmp	r1, #9
10007868:	dc58      	bgt.n	1000791c <pico_get_unique_board_id_string+0x18c>
1000786a:	7244      	strb	r4, [r0, #9]
1000786c:	2b0a      	cmp	r3, #10
1000786e:	d05f      	beq.n	10007930 <pico_get_unique_board_id_string+0x1a0>
10007870:	7954      	ldrb	r4, [r2, #5]
10007872:	1125      	asrs	r5, r4, #4
10007874:	0029      	movs	r1, r5
10007876:	3130      	adds	r1, #48	; 0x30
10007878:	2c9f      	cmp	r4, #159	; 0x9f
1000787a:	d852      	bhi.n	10007922 <pico_get_unique_board_id_string+0x192>
1000787c:	7281      	strb	r1, [r0, #10]
1000787e:	2b0b      	cmp	r3, #11
10007880:	d056      	beq.n	10007930 <pico_get_unique_board_id_string+0x1a0>
10007882:	210f      	movs	r1, #15
10007884:	4021      	ands	r1, r4
10007886:	000c      	movs	r4, r1
10007888:	3430      	adds	r4, #48	; 0x30
1000788a:	2909      	cmp	r1, #9
1000788c:	dc4b      	bgt.n	10007926 <pico_get_unique_board_id_string+0x196>
1000788e:	72c4      	strb	r4, [r0, #11]
10007890:	2b0c      	cmp	r3, #12
10007892:	d04d      	beq.n	10007930 <pico_get_unique_board_id_string+0x1a0>
10007894:	7994      	ldrb	r4, [r2, #6]
10007896:	1125      	asrs	r5, r4, #4
10007898:	0029      	movs	r1, r5
1000789a:	3130      	adds	r1, #48	; 0x30
1000789c:	2c9f      	cmp	r4, #159	; 0x9f
1000789e:	d900      	bls.n	100078a2 <pico_get_unique_board_id_string+0x112>
100078a0:	3107      	adds	r1, #7
100078a2:	7301      	strb	r1, [r0, #12]
100078a4:	2b0d      	cmp	r3, #13
100078a6:	d043      	beq.n	10007930 <pico_get_unique_board_id_string+0x1a0>
100078a8:	210f      	movs	r1, #15
100078aa:	4021      	ands	r1, r4
100078ac:	000c      	movs	r4, r1
100078ae:	3430      	adds	r4, #48	; 0x30
100078b0:	2909      	cmp	r1, #9
100078b2:	dd01      	ble.n	100078b8 <pico_get_unique_board_id_string+0x128>
100078b4:	3137      	adds	r1, #55	; 0x37
100078b6:	000c      	movs	r4, r1
100078b8:	7344      	strb	r4, [r0, #13]
100078ba:	2b0e      	cmp	r3, #14
100078bc:	d038      	beq.n	10007930 <pico_get_unique_board_id_string+0x1a0>
100078be:	79d1      	ldrb	r1, [r2, #7]
100078c0:	110c      	asrs	r4, r1, #4
100078c2:	0022      	movs	r2, r4
100078c4:	3230      	adds	r2, #48	; 0x30
100078c6:	299f      	cmp	r1, #159	; 0x9f
100078c8:	d900      	bls.n	100078cc <pico_get_unique_board_id_string+0x13c>
100078ca:	3207      	adds	r2, #7
100078cc:	7382      	strb	r2, [r0, #14]
100078ce:	2b0f      	cmp	r3, #15
100078d0:	d02e      	beq.n	10007930 <pico_get_unique_board_id_string+0x1a0>
100078d2:	220f      	movs	r2, #15
100078d4:	400a      	ands	r2, r1
100078d6:	0011      	movs	r1, r2
100078d8:	3137      	adds	r1, #55	; 0x37
100078da:	2a09      	cmp	r2, #9
100078dc:	dc01      	bgt.n	100078e2 <pico_get_unique_board_id_string+0x152>
100078de:	3230      	adds	r2, #48	; 0x30
100078e0:	0011      	movs	r1, r2
100078e2:	73c1      	strb	r1, [r0, #15]
100078e4:	2b10      	cmp	r3, #16
100078e6:	d023      	beq.n	10007930 <pico_get_unique_board_id_string+0x1a0>
100078e8:	3010      	adds	r0, #16
100078ea:	2300      	movs	r3, #0
100078ec:	7003      	strb	r3, [r0, #0]
100078ee:	bd30      	pop	{r4, r5, pc}
100078f0:	3407      	adds	r4, #7
100078f2:	e75a      	b.n	100077aa <pico_get_unique_board_id_string+0x1a>
100078f4:	3137      	adds	r1, #55	; 0x37
100078f6:	000c      	movs	r4, r1
100078f8:	e763      	b.n	100077c2 <pico_get_unique_board_id_string+0x32>
100078fa:	3107      	adds	r1, #7
100078fc:	e76c      	b.n	100077d8 <pico_get_unique_board_id_string+0x48>
100078fe:	3137      	adds	r1, #55	; 0x37
10007900:	000c      	movs	r4, r1
10007902:	e774      	b.n	100077ee <pico_get_unique_board_id_string+0x5e>
10007904:	3107      	adds	r1, #7
10007906:	e77d      	b.n	10007804 <pico_get_unique_board_id_string+0x74>
10007908:	3137      	adds	r1, #55	; 0x37
1000790a:	000c      	movs	r4, r1
1000790c:	e785      	b.n	1000781a <pico_get_unique_board_id_string+0x8a>
1000790e:	3107      	adds	r1, #7
10007910:	e78e      	b.n	10007830 <pico_get_unique_board_id_string+0xa0>
10007912:	3137      	adds	r1, #55	; 0x37
10007914:	000c      	movs	r4, r1
10007916:	e795      	b.n	10007844 <pico_get_unique_board_id_string+0xb4>
10007918:	3107      	adds	r1, #7
1000791a:	e79d      	b.n	10007858 <pico_get_unique_board_id_string+0xc8>
1000791c:	3137      	adds	r1, #55	; 0x37
1000791e:	000c      	movs	r4, r1
10007920:	e7a3      	b.n	1000786a <pico_get_unique_board_id_string+0xda>
10007922:	3107      	adds	r1, #7
10007924:	e7aa      	b.n	1000787c <pico_get_unique_board_id_string+0xec>
10007926:	3137      	adds	r1, #55	; 0x37
10007928:	000c      	movs	r4, r1
1000792a:	72c4      	strb	r4, [r0, #11]
1000792c:	2b0c      	cmp	r3, #12
1000792e:	d1b1      	bne.n	10007894 <pico_get_unique_board_id_string+0x104>
10007930:	18c0      	adds	r0, r0, r3
10007932:	e7da      	b.n	100078ea <pico_get_unique_board_id_string+0x15a>
10007934:	20001bfc 	.word	0x20001bfc

10007938 <flash_get_unique_id>:
10007938:	b530      	push	{r4, r5, lr}
1000793a:	2500      	movs	r5, #0
1000793c:	b089      	sub	sp, #36	; 0x24
1000793e:	0004      	movs	r4, r0
10007940:	2209      	movs	r2, #9
10007942:	2100      	movs	r1, #0
10007944:	a801      	add	r0, sp, #4
10007946:	9500      	str	r5, [sp, #0]
10007948:	f7fd f92c 	bl	10004ba4 <__wrap_memset>
1000794c:	2209      	movs	r2, #9
1000794e:	2100      	movs	r1, #0
10007950:	a805      	add	r0, sp, #20
10007952:	9504      	str	r5, [sp, #16]
10007954:	f7fd f926 	bl	10004ba4 <__wrap_memset>
10007958:	234b      	movs	r3, #75	; 0x4b
1000795a:	466a      	mov	r2, sp
1000795c:	4668      	mov	r0, sp
1000795e:	7013      	strb	r3, [r2, #0]
10007960:	a904      	add	r1, sp, #16
10007962:	220d      	movs	r2, #13
10007964:	f003 fcf0 	bl	1000b348 <__flash_do_cmd_veneer>
10007968:	2115      	movs	r1, #21
1000796a:	2208      	movs	r2, #8
1000796c:	0020      	movs	r0, r4
1000796e:	4469      	add	r1, sp
10007970:	f7fd f91e 	bl	10004bb0 <__wrap___aeabi_memcpy>
10007974:	b009      	add	sp, #36	; 0x24
10007976:	bd30      	pop	{r4, r5, pc}

10007978 <i2c_set_baudrate>:
10007978:	b5f8      	push	{r3, r4, r5, r6, r7, lr}
1000797a:	46de      	mov	lr, fp
1000797c:	4657      	mov	r7, sl
1000797e:	464e      	mov	r6, r9
10007980:	4645      	mov	r5, r8
10007982:	4683      	mov	fp, r0
10007984:	b5e0      	push	{r5, r6, r7, lr}
10007986:	2005      	movs	r0, #5
10007988:	000c      	movs	r4, r1
1000798a:	f7fa fd6f 	bl	1000246c <clock_get_hz>
1000798e:	0006      	movs	r6, r0
10007990:	0860      	lsrs	r0, r4, #1
10007992:	0021      	movs	r1, r4
10007994:	1980      	adds	r0, r0, r6
10007996:	f7fc f973 	bl	10003c80 <__wrap___aeabi_uidiv>
1000799a:	0043      	lsls	r3, r0, #1
1000799c:	4698      	mov	r8, r3
1000799e:	4480      	add	r8, r0
100079a0:	0007      	movs	r7, r0
100079a2:	2105      	movs	r1, #5
100079a4:	4640      	mov	r0, r8
100079a6:	f7fc f96b 	bl	10003c80 <__wrap___aeabi_uidiv>
100079aa:	1a3b      	subs	r3, r7, r0
100079ac:	469a      	mov	sl, r3
100079ae:	4b20      	ldr	r3, [pc, #128]	; (10007a30 <i2c_set_baudrate+0xb8>)
100079b0:	4681      	mov	r9, r0
100079b2:	0070      	lsls	r0, r6, #1
100079b4:	1980      	adds	r0, r0, r6
100079b6:	429c      	cmp	r4, r3
100079b8:	d834      	bhi.n	10007a24 <i2c_set_baudrate+0xac>
100079ba:	491e      	ldr	r1, [pc, #120]	; (10007a34 <i2c_set_baudrate+0xbc>)
100079bc:	f7fc f960 	bl	10003c80 <__wrap___aeabi_uidiv>
100079c0:	1c45      	adds	r5, r0, #1
100079c2:	465b      	mov	r3, fp
100079c4:	681c      	ldr	r4, [r3, #0]
100079c6:	2300      	movs	r3, #0
100079c8:	66e3      	str	r3, [r4, #108]	; 0x6c
100079ca:	6822      	ldr	r2, [r4, #0]
100079cc:	3304      	adds	r3, #4
100079ce:	4053      	eors	r3, r2
100079d0:	2206      	movs	r2, #6
100079d2:	401a      	ands	r2, r3
100079d4:	2380      	movs	r3, #128	; 0x80
100079d6:	015b      	lsls	r3, r3, #5
100079d8:	4323      	orrs	r3, r4
100079da:	601a      	str	r2, [r3, #0]
100079dc:	4653      	mov	r3, sl
100079de:	61e3      	str	r3, [r4, #28]
100079e0:	464b      	mov	r3, r9
100079e2:	6223      	str	r3, [r4, #32]
100079e4:	4643      	mov	r3, r8
100079e6:	2001      	movs	r0, #1
100079e8:	2b4f      	cmp	r3, #79	; 0x4f
100079ea:	d903      	bls.n	100079f4 <i2c_set_baudrate+0x7c>
100079ec:	2150      	movs	r1, #80	; 0x50
100079ee:	4640      	mov	r0, r8
100079f0:	f7fc f946 	bl	10003c80 <__wrap___aeabi_uidiv>
100079f4:	23a0      	movs	r3, #160	; 0xa0
100079f6:	0022      	movs	r2, r4
100079f8:	50e0      	str	r0, [r4, r3]
100079fa:	2380      	movs	r3, #128	; 0x80
100079fc:	6fe0      	ldr	r0, [r4, #124]	; 0x7c
100079fe:	327c      	adds	r2, #124	; 0x7c
10007a00:	4045      	eors	r5, r0
10007a02:	042d      	lsls	r5, r5, #16
10007a04:	015b      	lsls	r3, r3, #5
10007a06:	4313      	orrs	r3, r2
10007a08:	0c2d      	lsrs	r5, r5, #16
10007a0a:	601d      	str	r5, [r3, #0]
10007a0c:	2301      	movs	r3, #1
10007a0e:	0039      	movs	r1, r7
10007a10:	0030      	movs	r0, r6
10007a12:	66e3      	str	r3, [r4, #108]	; 0x6c
10007a14:	f7fc f934 	bl	10003c80 <__wrap___aeabi_uidiv>
10007a18:	bcf0      	pop	{r4, r5, r6, r7}
10007a1a:	46bb      	mov	fp, r7
10007a1c:	46b2      	mov	sl, r6
10007a1e:	46a9      	mov	r9, r5
10007a20:	46a0      	mov	r8, r4
10007a22:	bdf8      	pop	{r3, r4, r5, r6, r7, pc}
10007a24:	4904      	ldr	r1, [pc, #16]	; (10007a38 <i2c_set_baudrate+0xc0>)
10007a26:	f7fc f92b 	bl	10003c80 <__wrap___aeabi_uidiv>
10007a2a:	1c45      	adds	r5, r0, #1
10007a2c:	e7c9      	b.n	100079c2 <i2c_set_baudrate+0x4a>
10007a2e:	46c0      	nop			; (mov r8, r8)
10007a30:	000f423f 	.word	0x000f423f
10007a34:	00989680 	.word	0x00989680
10007a38:	017d7840 	.word	0x017d7840

10007a3c <i2c_init>:
10007a3c:	4a10      	ldr	r2, [pc, #64]	; (10007a80 <i2c_init+0x44>)
10007a3e:	b570      	push	{r4, r5, r6, lr}
10007a40:	1a82      	subs	r2, r0, r2
10007a42:	4253      	negs	r3, r2
10007a44:	415a      	adcs	r2, r3
10007a46:	2307      	movs	r3, #7
10007a48:	4252      	negs	r2, r2
10007a4a:	439a      	bics	r2, r3
10007a4c:	4b0d      	ldr	r3, [pc, #52]	; (10007a84 <i2c_init+0x48>)
10007a4e:	3210      	adds	r2, #16
10007a50:	601a      	str	r2, [r3, #0]
10007a52:	4b0d      	ldr	r3, [pc, #52]	; (10007a88 <i2c_init+0x4c>)
10007a54:	4c0d      	ldr	r4, [pc, #52]	; (10007a8c <i2c_init+0x50>)
10007a56:	601a      	str	r2, [r3, #0]
10007a58:	0015      	movs	r5, r2
10007a5a:	68a3      	ldr	r3, [r4, #8]
10007a5c:	439d      	bics	r5, r3
10007a5e:	1e2b      	subs	r3, r5, #0
10007a60:	d1fa      	bne.n	10007a58 <i2c_init+0x1c>
10007a62:	2466      	movs	r4, #102	; 0x66
10007a64:	6802      	ldr	r2, [r0, #0]
10007a66:	34ff      	adds	r4, #255	; 0xff
10007a68:	7105      	strb	r5, [r0, #4]
10007a6a:	66d5      	str	r5, [r2, #108]	; 0x6c
10007a6c:	6014      	str	r4, [r2, #0]
10007a6e:	3c63      	subs	r4, #99	; 0x63
10007a70:	3388      	adds	r3, #136	; 0x88
10007a72:	3cff      	subs	r4, #255	; 0xff
10007a74:	63d5      	str	r5, [r2, #60]	; 0x3c
10007a76:	6395      	str	r5, [r2, #56]	; 0x38
10007a78:	50d4      	str	r4, [r2, r3]
10007a7a:	f7ff ff7d 	bl	10007978 <i2c_set_baudrate>
10007a7e:	bd70      	pop	{r4, r5, r6, pc}
10007a80:	20000470 	.word	0x20000470
10007a84:	4000e000 	.word	0x4000e000
10007a88:	4000f000 	.word	0x4000f000
10007a8c:	4000c000 	.word	0x4000c000

10007a90 <i2c_write_blocking>:
10007a90:	b5f0      	push	{r4, r5, r6, r7, lr}
10007a92:	4657      	mov	r7, sl
10007a94:	464e      	mov	r6, r9
10007a96:	4645      	mov	r5, r8
10007a98:	46de      	mov	lr, fp
10007a9a:	4690      	mov	r8, r2
10007a9c:	2200      	movs	r2, #0
10007a9e:	b5e0      	push	{r5, r6, r7, lr}
10007aa0:	b083      	sub	sp, #12
10007aa2:	001e      	movs	r6, r3
10007aa4:	ab0c      	add	r3, sp, #48	; 0x30
10007aa6:	781b      	ldrb	r3, [r3, #0]
10007aa8:	4684      	mov	ip, r0
10007aaa:	469a      	mov	sl, r3
10007aac:	6803      	ldr	r3, [r0, #0]
10007aae:	66da      	str	r2, [r3, #108]	; 0x6c
10007ab0:	3201      	adds	r2, #1
10007ab2:	6059      	str	r1, [r3, #4]
10007ab4:	66da      	str	r2, [r3, #108]	; 0x6c
10007ab6:	2e00      	cmp	r6, #0
10007ab8:	dd4f      	ble.n	10007b5a <i2c_write_blocking+0xca>
10007aba:	4651      	mov	r1, sl
10007abc:	404a      	eors	r2, r1
10007abe:	0252      	lsls	r2, r2, #9
10007ac0:	9201      	str	r2, [sp, #4]
10007ac2:	2280      	movs	r2, #128	; 0x80
10007ac4:	4691      	mov	r9, r2
10007ac6:	0032      	movs	r2, r6
10007ac8:	2580      	movs	r5, #128	; 0x80
10007aca:	1e77      	subs	r7, r6, #1
10007acc:	2000      	movs	r0, #0
10007ace:	4646      	mov	r6, r8
10007ad0:	2110      	movs	r1, #16
10007ad2:	4690      	mov	r8, r2
10007ad4:	00ad      	lsls	r5, r5, #2
10007ad6:	2400      	movs	r4, #0
10007ad8:	2800      	cmp	r0, #0
10007ada:	d104      	bne.n	10007ae6 <i2c_write_blocking+0x56>
10007adc:	4662      	mov	r2, ip
10007ade:	7914      	ldrb	r4, [r2, #4]
10007ae0:	1e62      	subs	r2, r4, #1
10007ae2:	4194      	sbcs	r4, r2
10007ae4:	02a4      	lsls	r4, r4, #10
10007ae6:	2200      	movs	r2, #0
10007ae8:	4693      	mov	fp, r2
10007aea:	42b8      	cmp	r0, r7
10007aec:	d01a      	beq.n	10007b24 <i2c_write_blocking+0x94>
10007aee:	5c32      	ldrb	r2, [r6, r0]
10007af0:	4322      	orrs	r2, r4
10007af2:	465c      	mov	r4, fp
10007af4:	4322      	orrs	r2, r4
10007af6:	611a      	str	r2, [r3, #16]
10007af8:	6b5a      	ldr	r2, [r3, #52]	; 0x34
10007afa:	4211      	tst	r1, r2
10007afc:	d0fc      	beq.n	10007af8 <i2c_write_blocking+0x68>
10007afe:	464a      	mov	r2, r9
10007b00:	589c      	ldr	r4, [r3, r2]
10007b02:	2c00      	cmp	r4, #0
10007b04:	d111      	bne.n	10007b2a <i2c_write_blocking+0x9a>
10007b06:	42b8      	cmp	r0, r7
10007b08:	d022      	beq.n	10007b50 <i2c_write_blocking+0xc0>
10007b0a:	3001      	adds	r0, #1
10007b0c:	4580      	cmp	r8, r0
10007b0e:	d1e2      	bne.n	10007ad6 <i2c_write_blocking+0x46>
10007b10:	4663      	mov	r3, ip
10007b12:	4652      	mov	r2, sl
10007b14:	711a      	strb	r2, [r3, #4]
10007b16:	b003      	add	sp, #12
10007b18:	bcf0      	pop	{r4, r5, r6, r7}
10007b1a:	46bb      	mov	fp, r7
10007b1c:	46b2      	mov	sl, r6
10007b1e:	46a9      	mov	r9, r5
10007b20:	46a0      	mov	r8, r4
10007b22:	bdf0      	pop	{r4, r5, r6, r7, pc}
10007b24:	9a01      	ldr	r2, [sp, #4]
10007b26:	4693      	mov	fp, r2
10007b28:	e7e1      	b.n	10007aee <i2c_write_blocking+0x5e>
10007b2a:	6d5a      	ldr	r2, [r3, #84]	; 0x54
10007b2c:	2201      	movs	r2, #1
10007b2e:	4693      	mov	fp, r2
10007b30:	6b5a      	ldr	r2, [r3, #52]	; 0x34
10007b32:	422a      	tst	r2, r5
10007b34:	d0fc      	beq.n	10007b30 <i2c_write_blocking+0xa0>
10007b36:	6e1a      	ldr	r2, [r3, #96]	; 0x60
10007b38:	465a      	mov	r2, fp
10007b3a:	2a00      	cmp	r2, #0
10007b3c:	d0e5      	beq.n	10007b0a <i2c_write_blocking+0x7a>
10007b3e:	2c00      	cmp	r4, #0
10007b40:	d003      	beq.n	10007b4a <i2c_write_blocking+0xba>
10007b42:	07e3      	lsls	r3, r4, #31
10007b44:	d401      	bmi.n	10007b4a <i2c_write_blocking+0xba>
10007b46:	0723      	lsls	r3, r4, #28
10007b48:	d4e2      	bmi.n	10007b10 <i2c_write_blocking+0x80>
10007b4a:	2002      	movs	r0, #2
10007b4c:	4240      	negs	r0, r0
10007b4e:	e7df      	b.n	10007b10 <i2c_write_blocking+0x80>
10007b50:	4652      	mov	r2, sl
10007b52:	2a00      	cmp	r2, #0
10007b54:	d1d9      	bne.n	10007b0a <i2c_write_blocking+0x7a>
10007b56:	46d3      	mov	fp, sl
10007b58:	e7ea      	b.n	10007b30 <i2c_write_blocking+0xa0>
10007b5a:	2000      	movs	r0, #0
10007b5c:	e7d8      	b.n	10007b10 <i2c_write_blocking+0x80>
10007b5e:	46c0      	nop			; (mov r8, r8)

10007b60 <i2c_read_blocking>:
10007b60:	b5f0      	push	{r4, r5, r6, r7, lr}
10007b62:	4645      	mov	r5, r8
10007b64:	46de      	mov	lr, fp
10007b66:	4657      	mov	r7, sl
10007b68:	464e      	mov	r6, r9
10007b6a:	4693      	mov	fp, r2
10007b6c:	2200      	movs	r2, #0
10007b6e:	b5e0      	push	{r5, r6, r7, lr}
10007b70:	001d      	movs	r5, r3
10007b72:	ab09      	add	r3, sp, #36	; 0x24
10007b74:	781b      	ldrb	r3, [r3, #0]
10007b76:	0004      	movs	r4, r0
10007b78:	4698      	mov	r8, r3
10007b7a:	6803      	ldr	r3, [r0, #0]
10007b7c:	66da      	str	r2, [r3, #108]	; 0x6c
10007b7e:	3201      	adds	r2, #1
10007b80:	6059      	str	r1, [r3, #4]
10007b82:	66da      	str	r2, [r3, #108]	; 0x6c
10007b84:	2d00      	cmp	r5, #0
10007b86:	dd3e      	ble.n	10007c06 <i2c_read_blocking+0xa6>
10007b88:	4641      	mov	r1, r8
10007b8a:	404a      	eors	r2, r1
10007b8c:	0252      	lsls	r2, r2, #9
10007b8e:	4694      	mov	ip, r2
10007b90:	2280      	movs	r2, #128	; 0x80
10007b92:	2000      	movs	r0, #0
10007b94:	0052      	lsls	r2, r2, #1
10007b96:	4691      	mov	r9, r2
10007b98:	1e6f      	subs	r7, r5, #1
10007b9a:	3a80      	subs	r2, #128	; 0x80
10007b9c:	6f59      	ldr	r1, [r3, #116]	; 0x74
10007b9e:	2910      	cmp	r1, #16
10007ba0:	d0fc      	beq.n	10007b9c <i2c_read_blocking+0x3c>
10007ba2:	2800      	cmp	r0, #0
10007ba4:	d026      	beq.n	10007bf4 <i2c_read_blocking+0x94>
10007ba6:	2600      	movs	r6, #0
10007ba8:	2180      	movs	r1, #128	; 0x80
10007baa:	46b2      	mov	sl, r6
10007bac:	0049      	lsls	r1, r1, #1
10007bae:	42b8      	cmp	r0, r7
10007bb0:	d012      	beq.n	10007bd8 <i2c_read_blocking+0x78>
10007bb2:	6119      	str	r1, [r3, #16]
10007bb4:	e002      	b.n	10007bbc <i2c_read_blocking+0x5c>
10007bb6:	6f99      	ldr	r1, [r3, #120]	; 0x78
10007bb8:	2900      	cmp	r1, #0
10007bba:	d113      	bne.n	10007be4 <i2c_read_blocking+0x84>
10007bbc:	5899      	ldr	r1, [r3, r2]
10007bbe:	6d59      	ldr	r1, [r3, #84]	; 0x54
10007bc0:	2900      	cmp	r1, #0
10007bc2:	d0f8      	beq.n	10007bb6 <i2c_read_blocking+0x56>
10007bc4:	2002      	movs	r0, #2
10007bc6:	4240      	negs	r0, r0
10007bc8:	4643      	mov	r3, r8
10007bca:	7123      	strb	r3, [r4, #4]
10007bcc:	bcf0      	pop	{r4, r5, r6, r7}
10007bce:	46bb      	mov	fp, r7
10007bd0:	46b2      	mov	sl, r6
10007bd2:	46a9      	mov	r9, r5
10007bd4:	46a0      	mov	r8, r4
10007bd6:	bdf0      	pop	{r4, r5, r6, r7, pc}
10007bd8:	4666      	mov	r6, ip
10007bda:	4651      	mov	r1, sl
10007bdc:	4331      	orrs	r1, r6
10007bde:	464e      	mov	r6, r9
10007be0:	4331      	orrs	r1, r6
10007be2:	e7e6      	b.n	10007bb2 <i2c_read_blocking+0x52>
10007be4:	4659      	mov	r1, fp
10007be6:	691b      	ldr	r3, [r3, #16]
10007be8:	540b      	strb	r3, [r1, r0]
10007bea:	3001      	adds	r0, #1
10007bec:	4285      	cmp	r5, r0
10007bee:	d0eb      	beq.n	10007bc8 <i2c_read_blocking+0x68>
10007bf0:	6823      	ldr	r3, [r4, #0]
10007bf2:	e7d3      	b.n	10007b9c <i2c_read_blocking+0x3c>
10007bf4:	7921      	ldrb	r1, [r4, #4]
10007bf6:	2900      	cmp	r1, #0
10007bf8:	d0d5      	beq.n	10007ba6 <i2c_read_blocking+0x46>
10007bfa:	2680      	movs	r6, #128	; 0x80
10007bfc:	21a0      	movs	r1, #160	; 0xa0
10007bfe:	00f6      	lsls	r6, r6, #3
10007c00:	46b2      	mov	sl, r6
10007c02:	00c9      	lsls	r1, r1, #3
10007c04:	e7d3      	b.n	10007bae <i2c_read_blocking+0x4e>
10007c06:	2000      	movs	r0, #0
10007c08:	e7de      	b.n	10007bc8 <i2c_read_blocking+0x68>
10007c0a:	46c0      	nop			; (mov r8, r8)

10007c0c <prvIdleTask>:
10007c0c:	b570      	push	{r4, r5, r6, lr}
10007c0e:	4c10      	ldr	r4, [pc, #64]	; (10007c50 <prvIdleTask+0x44>)
10007c10:	e014      	b.n	10007c3c <prvIdleTask+0x30>
10007c12:	f001 fd87 	bl	10009724 <vPortEnterCritical>
10007c16:	6923      	ldr	r3, [r4, #16]
10007c18:	68dd      	ldr	r5, [r3, #12]
10007c1a:	1d28      	adds	r0, r5, #4
10007c1c:	f001 fe3e 	bl	1000989c <uxListRemove>
10007c20:	69a3      	ldr	r3, [r4, #24]
10007c22:	3b01      	subs	r3, #1
10007c24:	61a3      	str	r3, [r4, #24]
10007c26:	6823      	ldr	r3, [r4, #0]
10007c28:	3b01      	subs	r3, #1
10007c2a:	6023      	str	r3, [r4, #0]
10007c2c:	f001 fd86 	bl	1000973c <vPortExitCritical>
10007c30:	6b28      	ldr	r0, [r5, #48]	; 0x30
10007c32:	f001 fd29 	bl	10009688 <vPortFree>
10007c36:	0028      	movs	r0, r5
10007c38:	f001 fd26 	bl	10009688 <vPortFree>
10007c3c:	6823      	ldr	r3, [r4, #0]
10007c3e:	2b00      	cmp	r3, #0
10007c40:	d1e7      	bne.n	10007c12 <prvIdleTask+0x6>
10007c42:	69e3      	ldr	r3, [r4, #28]
10007c44:	2b01      	cmp	r3, #1
10007c46:	d9f9      	bls.n	10007c3c <prvIdleTask+0x30>
10007c48:	f001 fd60 	bl	1000970c <vPortYield>
10007c4c:	e7f6      	b.n	10007c3c <prvIdleTask+0x30>
10007c4e:	46c0      	nop			; (mov r8, r8)
10007c50:	20001054 	.word	0x20001054

10007c54 <prvAddCurrentTaskToDelayedList>:
10007c54:	b5f8      	push	{r3, r4, r5, r6, r7, lr}
10007c56:	0004      	movs	r4, r0
10007c58:	4d1a      	ldr	r5, [pc, #104]	; (10007cc4 <prvAddCurrentTaskToDelayedList+0x70>)
10007c5a:	000e      	movs	r6, r1
10007c5c:	682f      	ldr	r7, [r5, #0]
10007c5e:	6868      	ldr	r0, [r5, #4]
10007c60:	3004      	adds	r0, #4
10007c62:	f001 fe1b 	bl	1000989c <uxListRemove>
10007c66:	1c63      	adds	r3, r4, #1
10007c68:	d014      	beq.n	10007c94 <prvAddCurrentTaskToDelayedList+0x40>
10007c6a:	686b      	ldr	r3, [r5, #4]
10007c6c:	193c      	adds	r4, r7, r4
10007c6e:	605c      	str	r4, [r3, #4]
10007c70:	42a7      	cmp	r7, r4
10007c72:	d809      	bhi.n	10007c88 <prvAddCurrentTaskToDelayedList+0x34>
10007c74:	6a28      	ldr	r0, [r5, #32]
10007c76:	6869      	ldr	r1, [r5, #4]
10007c78:	3104      	adds	r1, #4
10007c7a:	f001 fdf7 	bl	1000986c <vListInsert>
10007c7e:	6a6b      	ldr	r3, [r5, #36]	; 0x24
10007c80:	42a3      	cmp	r3, r4
10007c82:	d900      	bls.n	10007c86 <prvAddCurrentTaskToDelayedList+0x32>
10007c84:	626c      	str	r4, [r5, #36]	; 0x24
10007c86:	bdf8      	pop	{r3, r4, r5, r6, r7, pc}
10007c88:	69e8      	ldr	r0, [r5, #28]
10007c8a:	6869      	ldr	r1, [r5, #4]
10007c8c:	3104      	adds	r1, #4
10007c8e:	f001 fded 	bl	1000986c <vListInsert>
10007c92:	e7f8      	b.n	10007c86 <prvAddCurrentTaskToDelayedList+0x32>
10007c94:	2e00      	cmp	r6, #0
10007c96:	d0e8      	beq.n	10007c6a <prvAddCurrentTaskToDelayedList+0x16>
10007c98:	686a      	ldr	r2, [r5, #4]
10007c9a:	68eb      	ldr	r3, [r5, #12]
10007c9c:	6899      	ldr	r1, [r3, #8]
10007c9e:	6093      	str	r3, [r2, #8]
10007ca0:	686a      	ldr	r2, [r5, #4]
10007ca2:	60d1      	str	r1, [r2, #12]
10007ca4:	686a      	ldr	r2, [r5, #4]
10007ca6:	6899      	ldr	r1, [r3, #8]
10007ca8:	3204      	adds	r2, #4
10007caa:	604a      	str	r2, [r1, #4]
10007cac:	686a      	ldr	r2, [r5, #4]
10007cae:	3204      	adds	r2, #4
10007cb0:	609a      	str	r2, [r3, #8]
10007cb2:	002a      	movs	r2, r5
10007cb4:	686b      	ldr	r3, [r5, #4]
10007cb6:	3208      	adds	r2, #8
10007cb8:	615a      	str	r2, [r3, #20]
10007cba:	68ab      	ldr	r3, [r5, #8]
10007cbc:	3301      	adds	r3, #1
10007cbe:	60ab      	str	r3, [r5, #8]
10007cc0:	e7e1      	b.n	10007c86 <prvAddCurrentTaskToDelayedList+0x32>
10007cc2:	46c0      	nop			; (mov r8, r8)
10007cc4:	200010d4 	.word	0x200010d4

10007cc8 <xTaskIncrementTick.part.0>:
10007cc8:	b5f0      	push	{r4, r5, r6, r7, lr}
10007cca:	46de      	mov	lr, fp
10007ccc:	4645      	mov	r5, r8
10007cce:	4657      	mov	r7, sl
10007cd0:	464e      	mov	r6, r9
10007cd2:	4943      	ldr	r1, [pc, #268]	; (10007de0 <xTaskIncrementTick.part.0+0x118>)
10007cd4:	b5e0      	push	{r5, r6, r7, lr}
10007cd6:	680d      	ldr	r5, [r1, #0]
10007cd8:	1c6b      	adds	r3, r5, #1
10007cda:	469b      	mov	fp, r3
10007cdc:	600b      	str	r3, [r1, #0]
10007cde:	2b00      	cmp	r3, #0
10007ce0:	d10c      	bne.n	10007cfc <xTaskIncrementTick.part.0+0x34>
10007ce2:	6a0b      	ldr	r3, [r1, #32]
10007ce4:	69ca      	ldr	r2, [r1, #28]
10007ce6:	620a      	str	r2, [r1, #32]
10007ce8:	61cb      	str	r3, [r1, #28]
10007cea:	6a8b      	ldr	r3, [r1, #40]	; 0x28
10007cec:	3301      	adds	r3, #1
10007cee:	628b      	str	r3, [r1, #40]	; 0x28
10007cf0:	6a0b      	ldr	r3, [r1, #32]
10007cf2:	681b      	ldr	r3, [r3, #0]
10007cf4:	2b00      	cmp	r3, #0
10007cf6:	d169      	bne.n	10007dcc <xTaskIncrementTick.part.0+0x104>
10007cf8:	3b01      	subs	r3, #1
10007cfa:	624b      	str	r3, [r1, #36]	; 0x24
10007cfc:	2200      	movs	r2, #0
10007cfe:	6a4b      	ldr	r3, [r1, #36]	; 0x24
10007d00:	4694      	mov	ip, r2
10007d02:	459b      	cmp	fp, r3
10007d04:	d356      	bcc.n	10007db4 <xTaskIncrementTick.part.0+0xec>
10007d06:	6a0b      	ldr	r3, [r1, #32]
10007d08:	681b      	ldr	r3, [r3, #0]
10007d0a:	2b00      	cmp	r3, #0
10007d0c:	d04f      	beq.n	10007dae <xTaskIncrementTick.part.0+0xe6>
10007d0e:	2300      	movs	r3, #0
10007d10:	469a      	mov	sl, r3
10007d12:	4b34      	ldr	r3, [pc, #208]	; (10007de4 <xTaskIncrementTick.part.0+0x11c>)
10007d14:	4699      	mov	r9, r3
10007d16:	231c      	movs	r3, #28
10007d18:	444b      	add	r3, r9
10007d1a:	4698      	mov	r8, r3
10007d1c:	e036      	b.n	10007d8c <xTaskIncrementTick.part.0+0xc4>
10007d1e:	4650      	mov	r0, sl
10007d20:	6814      	ldr	r4, [r2, #0]
10007d22:	6158      	str	r0, [r3, #20]
10007d24:	3c01      	subs	r4, #1
10007d26:	6014      	str	r4, [r2, #0]
10007d28:	6a9a      	ldr	r2, [r3, #40]	; 0x28
10007d2a:	2a00      	cmp	r2, #0
10007d2c:	d00e      	beq.n	10007d4c <xTaskIncrementTick.part.0+0x84>
10007d2e:	69dc      	ldr	r4, [r3, #28]
10007d30:	6a18      	ldr	r0, [r3, #32]
10007d32:	6855      	ldr	r5, [r2, #4]
10007d34:	60a0      	str	r0, [r4, #8]
10007d36:	6a18      	ldr	r0, [r3, #32]
10007d38:	6044      	str	r4, [r0, #4]
10007d3a:	001c      	movs	r4, r3
10007d3c:	3418      	adds	r4, #24
10007d3e:	42a5      	cmp	r5, r4
10007d40:	d049      	beq.n	10007dd6 <xTaskIncrementTick.part.0+0x10e>
10007d42:	4650      	mov	r0, sl
10007d44:	6814      	ldr	r4, [r2, #0]
10007d46:	6298      	str	r0, [r3, #40]	; 0x28
10007d48:	3c01      	subs	r4, #1
10007d4a:	6014      	str	r4, [r2, #0]
10007d4c:	6adc      	ldr	r4, [r3, #44]	; 0x2c
10007d4e:	6aca      	ldr	r2, [r1, #44]	; 0x2c
10007d50:	4294      	cmp	r4, r2
10007d52:	d900      	bls.n	10007d56 <xTaskIncrementTick.part.0+0x8e>
10007d54:	62cc      	str	r4, [r1, #44]	; 0x2c
10007d56:	4648      	mov	r0, r9
10007d58:	00a2      	lsls	r2, r4, #2
10007d5a:	1912      	adds	r2, r2, r4
10007d5c:	0092      	lsls	r2, r2, #2
10007d5e:	1880      	adds	r0, r0, r2
10007d60:	6a07      	ldr	r7, [r0, #32]
10007d62:	4442      	add	r2, r8
10007d64:	68bd      	ldr	r5, [r7, #8]
10007d66:	609f      	str	r7, [r3, #8]
10007d68:	60dd      	str	r5, [r3, #12]
10007d6a:	68bd      	ldr	r5, [r7, #8]
10007d6c:	606e      	str	r6, [r5, #4]
10007d6e:	60be      	str	r6, [r7, #8]
10007d70:	615a      	str	r2, [r3, #20]
10007d72:	69c3      	ldr	r3, [r0, #28]
10007d74:	3301      	adds	r3, #1
10007d76:	61c3      	str	r3, [r0, #28]
10007d78:	684b      	ldr	r3, [r1, #4]
10007d7a:	6adb      	ldr	r3, [r3, #44]	; 0x2c
10007d7c:	429c      	cmp	r4, r3
10007d7e:	d301      	bcc.n	10007d84 <xTaskIncrementTick.part.0+0xbc>
10007d80:	2301      	movs	r3, #1
10007d82:	469c      	mov	ip, r3
10007d84:	6a0b      	ldr	r3, [r1, #32]
10007d86:	681b      	ldr	r3, [r3, #0]
10007d88:	2b00      	cmp	r3, #0
10007d8a:	d010      	beq.n	10007dae <xTaskIncrementTick.part.0+0xe6>
10007d8c:	6a0b      	ldr	r3, [r1, #32]
10007d8e:	68db      	ldr	r3, [r3, #12]
10007d90:	68db      	ldr	r3, [r3, #12]
10007d92:	685a      	ldr	r2, [r3, #4]
10007d94:	4593      	cmp	fp, r2
10007d96:	d320      	bcc.n	10007dda <xTaskIncrementTick.part.0+0x112>
10007d98:	695a      	ldr	r2, [r3, #20]
10007d9a:	6898      	ldr	r0, [r3, #8]
10007d9c:	68dc      	ldr	r4, [r3, #12]
10007d9e:	1d1e      	adds	r6, r3, #4
10007da0:	6084      	str	r4, [r0, #8]
10007da2:	6060      	str	r0, [r4, #4]
10007da4:	6850      	ldr	r0, [r2, #4]
10007da6:	42b0      	cmp	r0, r6
10007da8:	d1b9      	bne.n	10007d1e <xTaskIncrementTick.part.0+0x56>
10007daa:	6054      	str	r4, [r2, #4]
10007dac:	e7b7      	b.n	10007d1e <xTaskIncrementTick.part.0+0x56>
10007dae:	2301      	movs	r3, #1
10007db0:	425b      	negs	r3, r3
10007db2:	624b      	str	r3, [r1, #36]	; 0x24
10007db4:	6b0b      	ldr	r3, [r1, #48]	; 0x30
10007db6:	2b00      	cmp	r3, #0
10007db8:	d001      	beq.n	10007dbe <xTaskIncrementTick.part.0+0xf6>
10007dba:	2301      	movs	r3, #1
10007dbc:	469c      	mov	ip, r3
10007dbe:	4660      	mov	r0, ip
10007dc0:	bcf0      	pop	{r4, r5, r6, r7}
10007dc2:	46bb      	mov	fp, r7
10007dc4:	46b2      	mov	sl, r6
10007dc6:	46a9      	mov	r9, r5
10007dc8:	46a0      	mov	r8, r4
10007dca:	bdf0      	pop	{r4, r5, r6, r7, pc}
10007dcc:	6a0b      	ldr	r3, [r1, #32]
10007dce:	68db      	ldr	r3, [r3, #12]
10007dd0:	681b      	ldr	r3, [r3, #0]
10007dd2:	624b      	str	r3, [r1, #36]	; 0x24
10007dd4:	e792      	b.n	10007cfc <xTaskIncrementTick.part.0+0x34>
10007dd6:	6050      	str	r0, [r2, #4]
10007dd8:	e7b3      	b.n	10007d42 <xTaskIncrementTick.part.0+0x7a>
10007dda:	624a      	str	r2, [r1, #36]	; 0x24
10007ddc:	e7ea      	b.n	10007db4 <xTaskIncrementTick.part.0+0xec>
10007dde:	46c0      	nop			; (mov r8, r8)
10007de0:	200010d4 	.word	0x200010d4
10007de4:	20001054 	.word	0x20001054

10007de8 <xTaskCreate>:
10007de8:	b5f8      	push	{r3, r4, r5, r6, r7, lr}
10007dea:	46ce      	mov	lr, r9
10007dec:	4647      	mov	r7, r8
10007dee:	4698      	mov	r8, r3
10007df0:	0093      	lsls	r3, r2, #2
10007df2:	b580      	push	{r7, lr}
10007df4:	0007      	movs	r7, r0
10007df6:	0018      	movs	r0, r3
10007df8:	000d      	movs	r5, r1
10007dfa:	4699      	mov	r9, r3
10007dfc:	f001 fc38 	bl	10009670 <pvPortMalloc>
10007e00:	1e06      	subs	r6, r0, #0
10007e02:	d100      	bne.n	10007e06 <xTaskCreate+0x1e>
10007e04:	e0c2      	b.n	10007f8c <xTaskCreate+0x1a4>
10007e06:	2068      	movs	r0, #104	; 0x68
10007e08:	f001 fc32 	bl	10009670 <pvPortMalloc>
10007e0c:	1e04      	subs	r4, r0, #0
10007e0e:	d100      	bne.n	10007e12 <xTaskCreate+0x2a>
10007e10:	e0c3      	b.n	10007f9a <xTaskCreate+0x1b2>
10007e12:	2268      	movs	r2, #104	; 0x68
10007e14:	2100      	movs	r1, #0
10007e16:	f7fc fec5 	bl	10004ba4 <__wrap_memset>
10007e1a:	4648      	mov	r0, r9
10007e1c:	2307      	movs	r3, #7
10007e1e:	3804      	subs	r0, #4
10007e20:	6326      	str	r6, [r4, #48]	; 0x30
10007e22:	1836      	adds	r6, r6, r0
10007e24:	439e      	bics	r6, r3
10007e26:	2d00      	cmp	r5, #0
10007e28:	d05f      	beq.n	10007eea <xTaskCreate+0x102>
10007e2a:	2334      	movs	r3, #52	; 0x34
10007e2c:	782a      	ldrb	r2, [r5, #0]
10007e2e:	54e2      	strb	r2, [r4, r3]
10007e30:	782b      	ldrb	r3, [r5, #0]
10007e32:	2b00      	cmp	r3, #0
10007e34:	d056      	beq.n	10007ee4 <xTaskCreate+0xfc>
10007e36:	2335      	movs	r3, #53	; 0x35
10007e38:	786a      	ldrb	r2, [r5, #1]
10007e3a:	54e2      	strb	r2, [r4, r3]
10007e3c:	786b      	ldrb	r3, [r5, #1]
10007e3e:	2b00      	cmp	r3, #0
10007e40:	d050      	beq.n	10007ee4 <xTaskCreate+0xfc>
10007e42:	2336      	movs	r3, #54	; 0x36
10007e44:	78aa      	ldrb	r2, [r5, #2]
10007e46:	54e2      	strb	r2, [r4, r3]
10007e48:	78ab      	ldrb	r3, [r5, #2]
10007e4a:	2b00      	cmp	r3, #0
10007e4c:	d04a      	beq.n	10007ee4 <xTaskCreate+0xfc>
10007e4e:	2337      	movs	r3, #55	; 0x37
10007e50:	78ea      	ldrb	r2, [r5, #3]
10007e52:	54e2      	strb	r2, [r4, r3]
10007e54:	78eb      	ldrb	r3, [r5, #3]
10007e56:	2b00      	cmp	r3, #0
10007e58:	d044      	beq.n	10007ee4 <xTaskCreate+0xfc>
10007e5a:	2338      	movs	r3, #56	; 0x38
10007e5c:	792a      	ldrb	r2, [r5, #4]
10007e5e:	54e2      	strb	r2, [r4, r3]
10007e60:	792b      	ldrb	r3, [r5, #4]
10007e62:	2b00      	cmp	r3, #0
10007e64:	d03e      	beq.n	10007ee4 <xTaskCreate+0xfc>
10007e66:	2339      	movs	r3, #57	; 0x39
10007e68:	796a      	ldrb	r2, [r5, #5]
10007e6a:	54e2      	strb	r2, [r4, r3]
10007e6c:	796b      	ldrb	r3, [r5, #5]
10007e6e:	2b00      	cmp	r3, #0
10007e70:	d038      	beq.n	10007ee4 <xTaskCreate+0xfc>
10007e72:	233a      	movs	r3, #58	; 0x3a
10007e74:	79aa      	ldrb	r2, [r5, #6]
10007e76:	54e2      	strb	r2, [r4, r3]
10007e78:	79ab      	ldrb	r3, [r5, #6]
10007e7a:	2b00      	cmp	r3, #0
10007e7c:	d032      	beq.n	10007ee4 <xTaskCreate+0xfc>
10007e7e:	233b      	movs	r3, #59	; 0x3b
10007e80:	79ea      	ldrb	r2, [r5, #7]
10007e82:	54e2      	strb	r2, [r4, r3]
10007e84:	79eb      	ldrb	r3, [r5, #7]
10007e86:	2b00      	cmp	r3, #0
10007e88:	d02c      	beq.n	10007ee4 <xTaskCreate+0xfc>
10007e8a:	233c      	movs	r3, #60	; 0x3c
10007e8c:	7a2a      	ldrb	r2, [r5, #8]
10007e8e:	54e2      	strb	r2, [r4, r3]
10007e90:	7a2b      	ldrb	r3, [r5, #8]
10007e92:	2b00      	cmp	r3, #0
10007e94:	d026      	beq.n	10007ee4 <xTaskCreate+0xfc>
10007e96:	233d      	movs	r3, #61	; 0x3d
10007e98:	7a6a      	ldrb	r2, [r5, #9]
10007e9a:	54e2      	strb	r2, [r4, r3]
10007e9c:	7a6b      	ldrb	r3, [r5, #9]
10007e9e:	2b00      	cmp	r3, #0
10007ea0:	d020      	beq.n	10007ee4 <xTaskCreate+0xfc>
10007ea2:	233e      	movs	r3, #62	; 0x3e
10007ea4:	7aaa      	ldrb	r2, [r5, #10]
10007ea6:	54e2      	strb	r2, [r4, r3]
10007ea8:	7aab      	ldrb	r3, [r5, #10]
10007eaa:	2b00      	cmp	r3, #0
10007eac:	d01a      	beq.n	10007ee4 <xTaskCreate+0xfc>
10007eae:	233f      	movs	r3, #63	; 0x3f
10007eb0:	7aea      	ldrb	r2, [r5, #11]
10007eb2:	54e2      	strb	r2, [r4, r3]
10007eb4:	7aeb      	ldrb	r3, [r5, #11]
10007eb6:	2b00      	cmp	r3, #0
10007eb8:	d014      	beq.n	10007ee4 <xTaskCreate+0xfc>
10007eba:	2340      	movs	r3, #64	; 0x40
10007ebc:	7b2a      	ldrb	r2, [r5, #12]
10007ebe:	54e2      	strb	r2, [r4, r3]
10007ec0:	7b2b      	ldrb	r3, [r5, #12]
10007ec2:	2b00      	cmp	r3, #0
10007ec4:	d00e      	beq.n	10007ee4 <xTaskCreate+0xfc>
10007ec6:	2341      	movs	r3, #65	; 0x41
10007ec8:	7b6a      	ldrb	r2, [r5, #13]
10007eca:	54e2      	strb	r2, [r4, r3]
10007ecc:	7b6b      	ldrb	r3, [r5, #13]
10007ece:	2b00      	cmp	r3, #0
10007ed0:	d008      	beq.n	10007ee4 <xTaskCreate+0xfc>
10007ed2:	2342      	movs	r3, #66	; 0x42
10007ed4:	7baa      	ldrb	r2, [r5, #14]
10007ed6:	54e2      	strb	r2, [r4, r3]
10007ed8:	7bab      	ldrb	r3, [r5, #14]
10007eda:	2b00      	cmp	r3, #0
10007edc:	d002      	beq.n	10007ee4 <xTaskCreate+0xfc>
10007ede:	2343      	movs	r3, #67	; 0x43
10007ee0:	7bea      	ldrb	r2, [r5, #15]
10007ee2:	54e2      	strb	r2, [r4, r3]
10007ee4:	2343      	movs	r3, #67	; 0x43
10007ee6:	2200      	movs	r2, #0
10007ee8:	54e2      	strb	r2, [r4, r3]
10007eea:	9d08      	ldr	r5, [sp, #32]
10007eec:	2d04      	cmp	r5, #4
10007eee:	d85a      	bhi.n	10007fa6 <xTaskCreate+0x1be>
10007ef0:	1d23      	adds	r3, r4, #4
10007ef2:	0018      	movs	r0, r3
10007ef4:	62e5      	str	r5, [r4, #44]	; 0x2c
10007ef6:	4699      	mov	r9, r3
10007ef8:	f001 fca8 	bl	1000984c <vListInitialiseItem>
10007efc:	0020      	movs	r0, r4
10007efe:	3018      	adds	r0, #24
10007f00:	f001 fca4 	bl	1000984c <vListInitialiseItem>
10007f04:	2305      	movs	r3, #5
10007f06:	1b5d      	subs	r5, r3, r5
10007f08:	4642      	mov	r2, r8
10007f0a:	0039      	movs	r1, r7
10007f0c:	0030      	movs	r0, r6
10007f0e:	6124      	str	r4, [r4, #16]
10007f10:	61a5      	str	r5, [r4, #24]
10007f12:	6264      	str	r4, [r4, #36]	; 0x24
10007f14:	f001 fbe6 	bl	100096e4 <pxPortInitialiseStack>
10007f18:	9b09      	ldr	r3, [sp, #36]	; 0x24
10007f1a:	6020      	str	r0, [r4, #0]
10007f1c:	2b00      	cmp	r3, #0
10007f1e:	d000      	beq.n	10007f22 <xTaskCreate+0x13a>
10007f20:	601c      	str	r4, [r3, #0]
10007f22:	f001 fbff 	bl	10009724 <vPortEnterCritical>
10007f26:	4d39      	ldr	r5, [pc, #228]	; (1000800c <xTaskCreate+0x224>)
10007f28:	4e39      	ldr	r6, [pc, #228]	; (10008010 <xTaskCreate+0x228>)
10007f2a:	69ab      	ldr	r3, [r5, #24]
10007f2c:	3301      	adds	r3, #1
10007f2e:	61ab      	str	r3, [r5, #24]
10007f30:	6873      	ldr	r3, [r6, #4]
10007f32:	2b00      	cmp	r3, #0
10007f34:	d040      	beq.n	10007fb8 <xTaskCreate+0x1d0>
10007f36:	6f33      	ldr	r3, [r6, #112]	; 0x70
10007f38:	2b00      	cmp	r3, #0
10007f3a:	d036      	beq.n	10007faa <xTaskCreate+0x1c2>
10007f3c:	6ae2      	ldr	r2, [r4, #44]	; 0x2c
10007f3e:	6f73      	ldr	r3, [r6, #116]	; 0x74
10007f40:	3301      	adds	r3, #1
10007f42:	6773      	str	r3, [r6, #116]	; 0x74
10007f44:	6af3      	ldr	r3, [r6, #44]	; 0x2c
10007f46:	4293      	cmp	r3, r2
10007f48:	d200      	bcs.n	10007f4c <xTaskCreate+0x164>
10007f4a:	62f2      	str	r2, [r6, #44]	; 0x2c
10007f4c:	464f      	mov	r7, r9
10007f4e:	0093      	lsls	r3, r2, #2
10007f50:	189b      	adds	r3, r3, r2
10007f52:	009b      	lsls	r3, r3, #2
10007f54:	18e9      	adds	r1, r5, r3
10007f56:	6a0a      	ldr	r2, [r1, #32]
10007f58:	351c      	adds	r5, #28
10007f5a:	6890      	ldr	r0, [r2, #8]
10007f5c:	18ed      	adds	r5, r5, r3
10007f5e:	60e0      	str	r0, [r4, #12]
10007f60:	69cb      	ldr	r3, [r1, #28]
10007f62:	6890      	ldr	r0, [r2, #8]
10007f64:	3301      	adds	r3, #1
10007f66:	60a2      	str	r2, [r4, #8]
10007f68:	6047      	str	r7, [r0, #4]
10007f6a:	6097      	str	r7, [r2, #8]
10007f6c:	6165      	str	r5, [r4, #20]
10007f6e:	61cb      	str	r3, [r1, #28]
10007f70:	f001 fbe4 	bl	1000973c <vPortExitCritical>
10007f74:	6f33      	ldr	r3, [r6, #112]	; 0x70
10007f76:	2501      	movs	r5, #1
10007f78:	2b00      	cmp	r3, #0
10007f7a:	d009      	beq.n	10007f90 <xTaskCreate+0x1a8>
10007f7c:	6873      	ldr	r3, [r6, #4]
10007f7e:	6ada      	ldr	r2, [r3, #44]	; 0x2c
10007f80:	6ae3      	ldr	r3, [r4, #44]	; 0x2c
10007f82:	429a      	cmp	r2, r3
10007f84:	d204      	bcs.n	10007f90 <xTaskCreate+0x1a8>
10007f86:	f001 fbc1 	bl	1000970c <vPortYield>
10007f8a:	e001      	b.n	10007f90 <xTaskCreate+0x1a8>
10007f8c:	2501      	movs	r5, #1
10007f8e:	426d      	negs	r5, r5
10007f90:	0028      	movs	r0, r5
10007f92:	bcc0      	pop	{r6, r7}
10007f94:	46b9      	mov	r9, r7
10007f96:	46b0      	mov	r8, r6
10007f98:	bdf8      	pop	{r3, r4, r5, r6, r7, pc}
10007f9a:	2501      	movs	r5, #1
10007f9c:	0030      	movs	r0, r6
10007f9e:	f001 fb73 	bl	10009688 <vPortFree>
10007fa2:	426d      	negs	r5, r5
10007fa4:	e7f4      	b.n	10007f90 <xTaskCreate+0x1a8>
10007fa6:	2504      	movs	r5, #4
10007fa8:	e7a2      	b.n	10007ef0 <xTaskCreate+0x108>
10007faa:	6873      	ldr	r3, [r6, #4]
10007fac:	6ae2      	ldr	r2, [r4, #44]	; 0x2c
10007fae:	6adb      	ldr	r3, [r3, #44]	; 0x2c
10007fb0:	4293      	cmp	r3, r2
10007fb2:	d8c4      	bhi.n	10007f3e <xTaskCreate+0x156>
10007fb4:	6074      	str	r4, [r6, #4]
10007fb6:	e7c2      	b.n	10007f3e <xTaskCreate+0x156>
10007fb8:	6074      	str	r4, [r6, #4]
10007fba:	69ab      	ldr	r3, [r5, #24]
10007fbc:	2b01      	cmp	r3, #1
10007fbe:	d1bd      	bne.n	10007f3c <xTaskCreate+0x154>
10007fc0:	2380      	movs	r3, #128	; 0x80
10007fc2:	002f      	movs	r7, r5
10007fc4:	4698      	mov	r8, r3
10007fc6:	371c      	adds	r7, #28
10007fc8:	44a8      	add	r8, r5
10007fca:	0038      	movs	r0, r7
10007fcc:	3714      	adds	r7, #20
10007fce:	f001 fc31 	bl	10009834 <vListInitialise>
10007fd2:	45b8      	cmp	r8, r7
10007fd4:	d1f9      	bne.n	10007fca <xTaskCreate+0x1e2>
10007fd6:	2334      	movs	r3, #52	; 0x34
10007fd8:	4698      	mov	r8, r3
10007fda:	0037      	movs	r7, r6
10007fdc:	44b0      	add	r8, r6
10007fde:	4640      	mov	r0, r8
10007fe0:	3748      	adds	r7, #72	; 0x48
10007fe2:	f001 fc27 	bl	10009834 <vListInitialise>
10007fe6:	0038      	movs	r0, r7
10007fe8:	f001 fc24 	bl	10009834 <vListInitialise>
10007fec:	0030      	movs	r0, r6
10007fee:	305c      	adds	r0, #92	; 0x5c
10007ff0:	f001 fc20 	bl	10009834 <vListInitialise>
10007ff4:	1d28      	adds	r0, r5, #4
10007ff6:	f001 fc1d 	bl	10009834 <vListInitialise>
10007ffa:	0030      	movs	r0, r6
10007ffc:	3008      	adds	r0, #8
10007ffe:	f001 fc19 	bl	10009834 <vListInitialise>
10008002:	4643      	mov	r3, r8
10008004:	6233      	str	r3, [r6, #32]
10008006:	61f7      	str	r7, [r6, #28]
10008008:	e798      	b.n	10007f3c <xTaskCreate+0x154>
1000800a:	46c0      	nop			; (mov r8, r8)
1000800c:	20001054 	.word	0x20001054
10008010:	200010d4 	.word	0x200010d4

10008014 <vTaskDelete>:
10008014:	b5f8      	push	{r3, r4, r5, r6, r7, lr}
10008016:	0004      	movs	r4, r0
10008018:	f001 fb84 	bl	10009724 <vPortEnterCritical>
1000801c:	4d21      	ldr	r5, [pc, #132]	; (100080a4 <vTaskDelete+0x90>)
1000801e:	2c00      	cmp	r4, #0
10008020:	d031      	beq.n	10008086 <vTaskDelete+0x72>
10008022:	1d26      	adds	r6, r4, #4
10008024:	0030      	movs	r0, r6
10008026:	f001 fc39 	bl	1000989c <uxListRemove>
1000802a:	6aa3      	ldr	r3, [r4, #40]	; 0x28
1000802c:	2b00      	cmp	r3, #0
1000802e:	d003      	beq.n	10008038 <vTaskDelete+0x24>
10008030:	0020      	movs	r0, r4
10008032:	3018      	adds	r0, #24
10008034:	f001 fc32 	bl	1000989c <uxListRemove>
10008038:	6f6b      	ldr	r3, [r5, #116]	; 0x74
1000803a:	3301      	adds	r3, #1
1000803c:	676b      	str	r3, [r5, #116]	; 0x74
1000803e:	686b      	ldr	r3, [r5, #4]
10008040:	42a3      	cmp	r3, r4
10008042:	d022      	beq.n	1000808a <vTaskDelete+0x76>
10008044:	4a18      	ldr	r2, [pc, #96]	; (100080a8 <vTaskDelete+0x94>)
10008046:	6993      	ldr	r3, [r2, #24]
10008048:	3b01      	subs	r3, #1
1000804a:	6193      	str	r3, [r2, #24]
1000804c:	6a2b      	ldr	r3, [r5, #32]
1000804e:	681b      	ldr	r3, [r3, #0]
10008050:	2b00      	cmp	r3, #0
10008052:	d015      	beq.n	10008080 <vTaskDelete+0x6c>
10008054:	6a2b      	ldr	r3, [r5, #32]
10008056:	68db      	ldr	r3, [r3, #12]
10008058:	681b      	ldr	r3, [r3, #0]
1000805a:	626b      	str	r3, [r5, #36]	; 0x24
1000805c:	f001 fb6e 	bl	1000973c <vPortExitCritical>
10008060:	686b      	ldr	r3, [r5, #4]
10008062:	42a3      	cmp	r3, r4
10008064:	d005      	beq.n	10008072 <vTaskDelete+0x5e>
10008066:	6b20      	ldr	r0, [r4, #48]	; 0x30
10008068:	f001 fb0e 	bl	10009688 <vPortFree>
1000806c:	0020      	movs	r0, r4
1000806e:	f001 fb0b 	bl	10009688 <vPortFree>
10008072:	6f2b      	ldr	r3, [r5, #112]	; 0x70
10008074:	2b00      	cmp	r3, #0
10008076:	d002      	beq.n	1000807e <vTaskDelete+0x6a>
10008078:	686b      	ldr	r3, [r5, #4]
1000807a:	42a3      	cmp	r3, r4
1000807c:	d00e      	beq.n	1000809c <vTaskDelete+0x88>
1000807e:	bdf8      	pop	{r3, r4, r5, r6, r7, pc}
10008080:	3b01      	subs	r3, #1
10008082:	626b      	str	r3, [r5, #36]	; 0x24
10008084:	e7ea      	b.n	1000805c <vTaskDelete+0x48>
10008086:	686c      	ldr	r4, [r5, #4]
10008088:	e7cb      	b.n	10008022 <vTaskDelete+0xe>
1000808a:	4f07      	ldr	r7, [pc, #28]	; (100080a8 <vTaskDelete+0x94>)
1000808c:	0031      	movs	r1, r6
1000808e:	1d38      	adds	r0, r7, #4
10008090:	f001 fbe0 	bl	10009854 <vListInsertEnd>
10008094:	683b      	ldr	r3, [r7, #0]
10008096:	3301      	adds	r3, #1
10008098:	603b      	str	r3, [r7, #0]
1000809a:	e7df      	b.n	1000805c <vTaskDelete+0x48>
1000809c:	f001 fb36 	bl	1000970c <vPortYield>
100080a0:	e7ed      	b.n	1000807e <vTaskDelete+0x6a>
100080a2:	46c0      	nop			; (mov r8, r8)
100080a4:	200010d4 	.word	0x200010d4
100080a8:	20001054 	.word	0x20001054

100080ac <uxTaskPriorityGet>:
100080ac:	b510      	push	{r4, lr}
100080ae:	0004      	movs	r4, r0
100080b0:	f001 fb38 	bl	10009724 <vPortEnterCritical>
100080b4:	2c00      	cmp	r4, #0
100080b6:	d004      	beq.n	100080c2 <uxTaskPriorityGet+0x16>
100080b8:	6ae4      	ldr	r4, [r4, #44]	; 0x2c
100080ba:	f001 fb3f 	bl	1000973c <vPortExitCritical>
100080be:	0020      	movs	r0, r4
100080c0:	bd10      	pop	{r4, pc}
100080c2:	4b01      	ldr	r3, [pc, #4]	; (100080c8 <uxTaskPriorityGet+0x1c>)
100080c4:	685c      	ldr	r4, [r3, #4]
100080c6:	e7f7      	b.n	100080b8 <uxTaskPriorityGet+0xc>
100080c8:	200010d4 	.word	0x200010d4

100080cc <uxTaskPriorityGetFromISR>:
100080cc:	b510      	push	{r4, lr}
100080ce:	0004      	movs	r4, r0
100080d0:	f001 fb3e 	bl	10009750 <ulSetInterruptMaskFromISR>
100080d4:	2c00      	cmp	r4, #0
100080d6:	d004      	beq.n	100080e2 <uxTaskPriorityGetFromISR+0x16>
100080d8:	6ae4      	ldr	r4, [r4, #44]	; 0x2c
100080da:	f001 fb3d 	bl	10009758 <vClearInterruptMaskFromISR>
100080de:	0020      	movs	r0, r4
100080e0:	bd10      	pop	{r4, pc}
100080e2:	4b01      	ldr	r3, [pc, #4]	; (100080e8 <uxTaskPriorityGetFromISR+0x1c>)
100080e4:	685c      	ldr	r4, [r3, #4]
100080e6:	e7f7      	b.n	100080d8 <uxTaskPriorityGetFromISR+0xc>
100080e8:	200010d4 	.word	0x200010d4

100080ec <vTaskPrioritySet>:
100080ec:	b5f0      	push	{r4, r5, r6, r7, lr}
100080ee:	46c6      	mov	lr, r8
100080f0:	0004      	movs	r4, r0
100080f2:	000d      	movs	r5, r1
100080f4:	b500      	push	{lr}
100080f6:	2904      	cmp	r1, #4
100080f8:	d900      	bls.n	100080fc <vTaskPrioritySet+0x10>
100080fa:	2504      	movs	r5, #4
100080fc:	f001 fb12 	bl	10009724 <vPortEnterCritical>
10008100:	2c00      	cmp	r4, #0
10008102:	d02b      	beq.n	1000815c <vTaskPrioritySet+0x70>
10008104:	6ae3      	ldr	r3, [r4, #44]	; 0x2c
10008106:	429d      	cmp	r5, r3
10008108:	d01a      	beq.n	10008140 <vTaskPrioritySet+0x54>
1000810a:	4f25      	ldr	r7, [pc, #148]	; (100081a0 <vTaskPrioritySet+0xb4>)
1000810c:	d81d      	bhi.n	1000814a <vTaskPrioritySet+0x5e>
1000810e:	687e      	ldr	r6, [r7, #4]
10008110:	1b36      	subs	r6, r6, r4
10008112:	4272      	negs	r2, r6
10008114:	4156      	adcs	r6, r2
10008116:	69a2      	ldr	r2, [r4, #24]
10008118:	62e5      	str	r5, [r4, #44]	; 0x2c
1000811a:	2a00      	cmp	r2, #0
1000811c:	db02      	blt.n	10008124 <vTaskPrioritySet+0x38>
1000811e:	2105      	movs	r1, #5
10008120:	1b4d      	subs	r5, r1, r5
10008122:	61a5      	str	r5, [r4, #24]
10008124:	4d1f      	ldr	r5, [pc, #124]	; (100081a4 <vTaskPrioritySet+0xb8>)
10008126:	009a      	lsls	r2, r3, #2
10008128:	0029      	movs	r1, r5
1000812a:	18d3      	adds	r3, r2, r3
1000812c:	311c      	adds	r1, #28
1000812e:	009b      	lsls	r3, r3, #2
10008130:	6962      	ldr	r2, [r4, #20]
10008132:	18cb      	adds	r3, r1, r3
10008134:	429a      	cmp	r2, r3
10008136:	d014      	beq.n	10008162 <vTaskPrioritySet+0x76>
10008138:	2e00      	cmp	r6, #0
1000813a:	d001      	beq.n	10008140 <vTaskPrioritySet+0x54>
1000813c:	f001 fae6 	bl	1000970c <vPortYield>
10008140:	f001 fafc 	bl	1000973c <vPortExitCritical>
10008144:	bc80      	pop	{r7}
10008146:	46b8      	mov	r8, r7
10008148:	bdf0      	pop	{r4, r5, r6, r7, pc}
1000814a:	687a      	ldr	r2, [r7, #4]
1000814c:	42a2      	cmp	r2, r4
1000814e:	d025      	beq.n	1000819c <vTaskPrioritySet+0xb0>
10008150:	2600      	movs	r6, #0
10008152:	687a      	ldr	r2, [r7, #4]
10008154:	6ad2      	ldr	r2, [r2, #44]	; 0x2c
10008156:	4295      	cmp	r5, r2
10008158:	4176      	adcs	r6, r6
1000815a:	e7dc      	b.n	10008116 <vTaskPrioritySet+0x2a>
1000815c:	4b10      	ldr	r3, [pc, #64]	; (100081a0 <vTaskPrioritySet+0xb4>)
1000815e:	685c      	ldr	r4, [r3, #4]
10008160:	e7d0      	b.n	10008104 <vTaskPrioritySet+0x18>
10008162:	1d23      	adds	r3, r4, #4
10008164:	0018      	movs	r0, r3
10008166:	4698      	mov	r8, r3
10008168:	f001 fb98 	bl	1000989c <uxListRemove>
1000816c:	6ae2      	ldr	r2, [r4, #44]	; 0x2c
1000816e:	6afb      	ldr	r3, [r7, #44]	; 0x2c
10008170:	429a      	cmp	r2, r3
10008172:	d900      	bls.n	10008176 <vTaskPrioritySet+0x8a>
10008174:	62fa      	str	r2, [r7, #44]	; 0x2c
10008176:	4647      	mov	r7, r8
10008178:	0093      	lsls	r3, r2, #2
1000817a:	189b      	adds	r3, r3, r2
1000817c:	009b      	lsls	r3, r3, #2
1000817e:	18e9      	adds	r1, r5, r3
10008180:	6a0a      	ldr	r2, [r1, #32]
10008182:	351c      	adds	r5, #28
10008184:	6890      	ldr	r0, [r2, #8]
10008186:	18ed      	adds	r5, r5, r3
10008188:	60e0      	str	r0, [r4, #12]
1000818a:	69cb      	ldr	r3, [r1, #28]
1000818c:	6890      	ldr	r0, [r2, #8]
1000818e:	3301      	adds	r3, #1
10008190:	60a2      	str	r2, [r4, #8]
10008192:	6047      	str	r7, [r0, #4]
10008194:	6097      	str	r7, [r2, #8]
10008196:	6165      	str	r5, [r4, #20]
10008198:	61cb      	str	r3, [r1, #28]
1000819a:	e7cd      	b.n	10008138 <vTaskPrioritySet+0x4c>
1000819c:	2600      	movs	r6, #0
1000819e:	e7ba      	b.n	10008116 <vTaskPrioritySet+0x2a>
100081a0:	200010d4 	.word	0x200010d4
100081a4:	20001054 	.word	0x20001054

100081a8 <vTaskSuspend>:
100081a8:	b570      	push	{r4, r5, r6, lr}
100081aa:	0004      	movs	r4, r0
100081ac:	f001 faba 	bl	10009724 <vPortEnterCritical>
100081b0:	4d4b      	ldr	r5, [pc, #300]	; (100082e0 <vTaskSuspend+0x138>)
100081b2:	2c00      	cmp	r4, #0
100081b4:	d047      	beq.n	10008246 <vTaskSuspend+0x9e>
100081b6:	1d26      	adds	r6, r4, #4
100081b8:	0030      	movs	r0, r6
100081ba:	f001 fb6f 	bl	1000989c <uxListRemove>
100081be:	6aa3      	ldr	r3, [r4, #40]	; 0x28
100081c0:	2b00      	cmp	r3, #0
100081c2:	d003      	beq.n	100081cc <vTaskSuspend+0x24>
100081c4:	0020      	movs	r0, r4
100081c6:	3018      	adds	r0, #24
100081c8:	f001 fb68 	bl	1000989c <uxListRemove>
100081cc:	0028      	movs	r0, r5
100081ce:	0031      	movs	r1, r6
100081d0:	3008      	adds	r0, #8
100081d2:	f001 fb3f 	bl	10009854 <vListInsertEnd>
100081d6:	2364      	movs	r3, #100	; 0x64
100081d8:	5ce2      	ldrb	r2, [r4, r3]
100081da:	2a01      	cmp	r2, #1
100081dc:	d101      	bne.n	100081e2 <vTaskSuspend+0x3a>
100081de:	2200      	movs	r2, #0
100081e0:	54e2      	strb	r2, [r4, r3]
100081e2:	2365      	movs	r3, #101	; 0x65
100081e4:	5ce2      	ldrb	r2, [r4, r3]
100081e6:	2a01      	cmp	r2, #1
100081e8:	d101      	bne.n	100081ee <vTaskSuspend+0x46>
100081ea:	2200      	movs	r2, #0
100081ec:	54e2      	strb	r2, [r4, r3]
100081ee:	2366      	movs	r3, #102	; 0x66
100081f0:	5ce2      	ldrb	r2, [r4, r3]
100081f2:	2a01      	cmp	r2, #1
100081f4:	d101      	bne.n	100081fa <vTaskSuspend+0x52>
100081f6:	2200      	movs	r2, #0
100081f8:	54e2      	strb	r2, [r4, r3]
100081fa:	f001 fa9f 	bl	1000973c <vPortExitCritical>
100081fe:	6f2b      	ldr	r3, [r5, #112]	; 0x70
10008200:	2b00      	cmp	r3, #0
10008202:	d103      	bne.n	1000820c <vTaskSuspend+0x64>
10008204:	686b      	ldr	r3, [r5, #4]
10008206:	42a3      	cmp	r3, r4
10008208:	d00f      	beq.n	1000822a <vTaskSuspend+0x82>
1000820a:	bd70      	pop	{r4, r5, r6, pc}
1000820c:	f001 fa8a 	bl	10009724 <vPortEnterCritical>
10008210:	6a2b      	ldr	r3, [r5, #32]
10008212:	681b      	ldr	r3, [r3, #0]
10008214:	2b00      	cmp	r3, #0
10008216:	d018      	beq.n	1000824a <vTaskSuspend+0xa2>
10008218:	6a2b      	ldr	r3, [r5, #32]
1000821a:	68db      	ldr	r3, [r3, #12]
1000821c:	681b      	ldr	r3, [r3, #0]
1000821e:	626b      	str	r3, [r5, #36]	; 0x24
10008220:	f001 fa8c 	bl	1000973c <vPortExitCritical>
10008224:	686b      	ldr	r3, [r5, #4]
10008226:	42a3      	cmp	r3, r4
10008228:	d1ef      	bne.n	1000820a <vTaskSuspend+0x62>
1000822a:	6f2a      	ldr	r2, [r5, #112]	; 0x70
1000822c:	2a00      	cmp	r2, #0
1000822e:	d111      	bne.n	10008254 <vTaskSuspend+0xac>
10008230:	4b2c      	ldr	r3, [pc, #176]	; (100082e4 <vTaskSuspend+0x13c>)
10008232:	68a8      	ldr	r0, [r5, #8]
10008234:	6999      	ldr	r1, [r3, #24]
10008236:	4288      	cmp	r0, r1
10008238:	d00a      	beq.n	10008250 <vTaskSuspend+0xa8>
1000823a:	6faa      	ldr	r2, [r5, #120]	; 0x78
1000823c:	2a00      	cmp	r2, #0
1000823e:	d00c      	beq.n	1000825a <vTaskSuspend+0xb2>
10008240:	2301      	movs	r3, #1
10008242:	632b      	str	r3, [r5, #48]	; 0x30
10008244:	e7e1      	b.n	1000820a <vTaskSuspend+0x62>
10008246:	686c      	ldr	r4, [r5, #4]
10008248:	e7b5      	b.n	100081b6 <vTaskSuspend+0xe>
1000824a:	3b01      	subs	r3, #1
1000824c:	626b      	str	r3, [r5, #36]	; 0x24
1000824e:	e7e7      	b.n	10008220 <vTaskSuspend+0x78>
10008250:	606a      	str	r2, [r5, #4]
10008252:	e7da      	b.n	1000820a <vTaskSuspend+0x62>
10008254:	f001 fa5a 	bl	1000970c <vPortYield>
10008258:	e7d7      	b.n	1000820a <vTaskSuspend+0x62>
1000825a:	632a      	str	r2, [r5, #48]	; 0x30
1000825c:	6ae9      	ldr	r1, [r5, #44]	; 0x2c
1000825e:	008a      	lsls	r2, r1, #2
10008260:	1850      	adds	r0, r2, r1
10008262:	0080      	lsls	r0, r0, #2
10008264:	1818      	adds	r0, r3, r0
10008266:	69c0      	ldr	r0, [r0, #28]
10008268:	2800      	cmp	r0, #0
1000826a:	d125      	bne.n	100082b8 <vTaskSuspend+0x110>
1000826c:	1e4c      	subs	r4, r1, #1
1000826e:	00a2      	lsls	r2, r4, #2
10008270:	1910      	adds	r0, r2, r4
10008272:	0080      	lsls	r0, r0, #2
10008274:	1818      	adds	r0, r3, r0
10008276:	69c0      	ldr	r0, [r0, #28]
10008278:	2800      	cmp	r0, #0
1000827a:	d12e      	bne.n	100082da <vTaskSuspend+0x132>
1000827c:	1e8c      	subs	r4, r1, #2
1000827e:	00a2      	lsls	r2, r4, #2
10008280:	1910      	adds	r0, r2, r4
10008282:	0080      	lsls	r0, r0, #2
10008284:	1818      	adds	r0, r3, r0
10008286:	69c0      	ldr	r0, [r0, #28]
10008288:	2800      	cmp	r0, #0
1000828a:	d126      	bne.n	100082da <vTaskSuspend+0x132>
1000828c:	1ecc      	subs	r4, r1, #3
1000828e:	00a2      	lsls	r2, r4, #2
10008290:	1910      	adds	r0, r2, r4
10008292:	0080      	lsls	r0, r0, #2
10008294:	1818      	adds	r0, r3, r0
10008296:	69c0      	ldr	r0, [r0, #28]
10008298:	2800      	cmp	r0, #0
1000829a:	d11e      	bne.n	100082da <vTaskSuspend+0x132>
1000829c:	1f0c      	subs	r4, r1, #4
1000829e:	00a2      	lsls	r2, r4, #2
100082a0:	1910      	adds	r0, r2, r4
100082a2:	0080      	lsls	r0, r0, #2
100082a4:	1818      	adds	r0, r3, r0
100082a6:	69c0      	ldr	r0, [r0, #28]
100082a8:	2800      	cmp	r0, #0
100082aa:	d116      	bne.n	100082da <vTaskSuspend+0x132>
100082ac:	3905      	subs	r1, #5
100082ae:	008a      	lsls	r2, r1, #2
100082b0:	1850      	adds	r0, r2, r1
100082b2:	0080      	lsls	r0, r0, #2
100082b4:	1818      	adds	r0, r3, r0
100082b6:	69c0      	ldr	r0, [r0, #28]
100082b8:	1852      	adds	r2, r2, r1
100082ba:	0092      	lsls	r2, r2, #2
100082bc:	189c      	adds	r4, r3, r2
100082be:	0023      	movs	r3, r4
100082c0:	6a20      	ldr	r0, [r4, #32]
100082c2:	3324      	adds	r3, #36	; 0x24
100082c4:	6840      	ldr	r0, [r0, #4]
100082c6:	6220      	str	r0, [r4, #32]
100082c8:	4298      	cmp	r0, r3
100082ca:	d003      	beq.n	100082d4 <vTaskSuspend+0x12c>
100082cc:	68c3      	ldr	r3, [r0, #12]
100082ce:	606b      	str	r3, [r5, #4]
100082d0:	62e9      	str	r1, [r5, #44]	; 0x2c
100082d2:	e79a      	b.n	1000820a <vTaskSuspend+0x62>
100082d4:	6840      	ldr	r0, [r0, #4]
100082d6:	6220      	str	r0, [r4, #32]
100082d8:	e7f8      	b.n	100082cc <vTaskSuspend+0x124>
100082da:	0021      	movs	r1, r4
100082dc:	e7ec      	b.n	100082b8 <vTaskSuspend+0x110>
100082de:	46c0      	nop			; (mov r8, r8)
100082e0:	200010d4 	.word	0x200010d4
100082e4:	20001054 	.word	0x20001054

100082e8 <vTaskResume>:
100082e8:	b5f8      	push	{r3, r4, r5, r6, r7, lr}
100082ea:	4d1e      	ldr	r5, [pc, #120]	; (10008364 <vTaskResume+0x7c>)
100082ec:	0004      	movs	r4, r0
100082ee:	686b      	ldr	r3, [r5, #4]
100082f0:	4283      	cmp	r3, r0
100082f2:	d00a      	beq.n	1000830a <vTaskResume+0x22>
100082f4:	2800      	cmp	r0, #0
100082f6:	d008      	beq.n	1000830a <vTaskResume+0x22>
100082f8:	f001 fa14 	bl	10009724 <vPortEnterCritical>
100082fc:	002b      	movs	r3, r5
100082fe:	6962      	ldr	r2, [r4, #20]
10008300:	3308      	adds	r3, #8
10008302:	429a      	cmp	r2, r3
10008304:	d002      	beq.n	1000830c <vTaskResume+0x24>
10008306:	f001 fa19 	bl	1000973c <vPortExitCritical>
1000830a:	bdf8      	pop	{r3, r4, r5, r6, r7, pc}
1000830c:	002a      	movs	r2, r5
1000830e:	6aa3      	ldr	r3, [r4, #40]	; 0x28
10008310:	325c      	adds	r2, #92	; 0x5c
10008312:	4293      	cmp	r3, r2
10008314:	d0f7      	beq.n	10008306 <vTaskResume+0x1e>
10008316:	2b00      	cmp	r3, #0
10008318:	d1f5      	bne.n	10008306 <vTaskResume+0x1e>
1000831a:	1d26      	adds	r6, r4, #4
1000831c:	0030      	movs	r0, r6
1000831e:	f001 fabd 	bl	1000989c <uxListRemove>
10008322:	6ae1      	ldr	r1, [r4, #44]	; 0x2c
10008324:	6aeb      	ldr	r3, [r5, #44]	; 0x2c
10008326:	4299      	cmp	r1, r3
10008328:	d900      	bls.n	1000832c <vTaskResume+0x44>
1000832a:	62e9      	str	r1, [r5, #44]	; 0x2c
1000832c:	4b0e      	ldr	r3, [pc, #56]	; (10008368 <vTaskResume+0x80>)
1000832e:	008a      	lsls	r2, r1, #2
10008330:	469c      	mov	ip, r3
10008332:	1852      	adds	r2, r2, r1
10008334:	0092      	lsls	r2, r2, #2
10008336:	189f      	adds	r7, r3, r2
10008338:	6a38      	ldr	r0, [r7, #32]
1000833a:	6883      	ldr	r3, [r0, #8]
1000833c:	60a0      	str	r0, [r4, #8]
1000833e:	60e3      	str	r3, [r4, #12]
10008340:	6883      	ldr	r3, [r0, #8]
10008342:	605e      	str	r6, [r3, #4]
10008344:	4663      	mov	r3, ip
10008346:	331c      	adds	r3, #28
10008348:	189b      	adds	r3, r3, r2
1000834a:	6086      	str	r6, [r0, #8]
1000834c:	6163      	str	r3, [r4, #20]
1000834e:	69fb      	ldr	r3, [r7, #28]
10008350:	3301      	adds	r3, #1
10008352:	61fb      	str	r3, [r7, #28]
10008354:	686b      	ldr	r3, [r5, #4]
10008356:	6adb      	ldr	r3, [r3, #44]	; 0x2c
10008358:	4299      	cmp	r1, r3
1000835a:	d3d4      	bcc.n	10008306 <vTaskResume+0x1e>
1000835c:	f001 f9d6 	bl	1000970c <vPortYield>
10008360:	e7d1      	b.n	10008306 <vTaskResume+0x1e>
10008362:	46c0      	nop			; (mov r8, r8)
10008364:	200010d4 	.word	0x200010d4
10008368:	20001054 	.word	0x20001054

1000836c <xTaskResumeFromISR>:
1000836c:	b5f0      	push	{r4, r5, r6, r7, lr}
1000836e:	46c6      	mov	lr, r8
10008370:	b500      	push	{lr}
10008372:	0004      	movs	r4, r0
10008374:	f001 f9ec 	bl	10009750 <ulSetInterruptMaskFromISR>
10008378:	4e22      	ldr	r6, [pc, #136]	; (10008404 <xTaskResumeFromISR+0x98>)
1000837a:	6962      	ldr	r2, [r4, #20]
1000837c:	0033      	movs	r3, r6
1000837e:	3308      	adds	r3, #8
10008380:	0005      	movs	r5, r0
10008382:	2700      	movs	r7, #0
10008384:	429a      	cmp	r2, r3
10008386:	d006      	beq.n	10008396 <xTaskResumeFromISR+0x2a>
10008388:	0028      	movs	r0, r5
1000838a:	f001 f9e5 	bl	10009758 <vClearInterruptMaskFromISR>
1000838e:	0038      	movs	r0, r7
10008390:	bc80      	pop	{r7}
10008392:	46b8      	mov	r8, r7
10008394:	bdf0      	pop	{r4, r5, r6, r7, pc}
10008396:	0030      	movs	r0, r6
10008398:	6aa3      	ldr	r3, [r4, #40]	; 0x28
1000839a:	305c      	adds	r0, #92	; 0x5c
1000839c:	4283      	cmp	r3, r0
1000839e:	d0f3      	beq.n	10008388 <xTaskResumeFromISR+0x1c>
100083a0:	2b00      	cmp	r3, #0
100083a2:	d1f1      	bne.n	10008388 <xTaskResumeFromISR+0x1c>
100083a4:	6fb3      	ldr	r3, [r6, #120]	; 0x78
100083a6:	2b00      	cmp	r3, #0
100083a8:	d127      	bne.n	100083fa <xTaskResumeFromISR+0x8e>
100083aa:	6873      	ldr	r3, [r6, #4]
100083ac:	6ae2      	ldr	r2, [r4, #44]	; 0x2c
100083ae:	6adb      	ldr	r3, [r3, #44]	; 0x2c
100083b0:	429a      	cmp	r2, r3
100083b2:	d302      	bcc.n	100083ba <xTaskResumeFromISR+0x4e>
100083b4:	2301      	movs	r3, #1
100083b6:	3701      	adds	r7, #1
100083b8:	6333      	str	r3, [r6, #48]	; 0x30
100083ba:	1d23      	adds	r3, r4, #4
100083bc:	0018      	movs	r0, r3
100083be:	4698      	mov	r8, r3
100083c0:	f001 fa6c 	bl	1000989c <uxListRemove>
100083c4:	6ae1      	ldr	r1, [r4, #44]	; 0x2c
100083c6:	6af3      	ldr	r3, [r6, #44]	; 0x2c
100083c8:	4299      	cmp	r1, r3
100083ca:	d900      	bls.n	100083ce <xTaskResumeFromISR+0x62>
100083cc:	62f1      	str	r1, [r6, #44]	; 0x2c
100083ce:	008a      	lsls	r2, r1, #2
100083d0:	4b0d      	ldr	r3, [pc, #52]	; (10008408 <xTaskResumeFromISR+0x9c>)
100083d2:	1852      	adds	r2, r2, r1
100083d4:	0092      	lsls	r2, r2, #2
100083d6:	189e      	adds	r6, r3, r2
100083d8:	469c      	mov	ip, r3
100083da:	4643      	mov	r3, r8
100083dc:	6a31      	ldr	r1, [r6, #32]
100083de:	6888      	ldr	r0, [r1, #8]
100083e0:	60a1      	str	r1, [r4, #8]
100083e2:	60e0      	str	r0, [r4, #12]
100083e4:	6888      	ldr	r0, [r1, #8]
100083e6:	6043      	str	r3, [r0, #4]
100083e8:	608b      	str	r3, [r1, #8]
100083ea:	4663      	mov	r3, ip
100083ec:	331c      	adds	r3, #28
100083ee:	189b      	adds	r3, r3, r2
100083f0:	6163      	str	r3, [r4, #20]
100083f2:	69f3      	ldr	r3, [r6, #28]
100083f4:	3301      	adds	r3, #1
100083f6:	61f3      	str	r3, [r6, #28]
100083f8:	e7c6      	b.n	10008388 <xTaskResumeFromISR+0x1c>
100083fa:	0021      	movs	r1, r4
100083fc:	3118      	adds	r1, #24
100083fe:	f001 fa29 	bl	10009854 <vListInsertEnd>
10008402:	e7c1      	b.n	10008388 <xTaskResumeFromISR+0x1c>
10008404:	200010d4 	.word	0x200010d4
10008408:	20001054 	.word	0x20001054

1000840c <vTaskStartScheduler>:
1000840c:	b5f8      	push	{r3, r4, r5, r6, r7, lr}
1000840e:	2080      	movs	r0, #128	; 0x80
10008410:	46ce      	mov	lr, r9
10008412:	4647      	mov	r7, r8
10008414:	0080      	lsls	r0, r0, #2
10008416:	b580      	push	{r7, lr}
10008418:	f001 f92a 	bl	10009670 <pvPortMalloc>
1000841c:	1e05      	subs	r5, r0, #0
1000841e:	d05f      	beq.n	100084e0 <vTaskStartScheduler+0xd4>
10008420:	2068      	movs	r0, #104	; 0x68
10008422:	f001 f925 	bl	10009670 <pvPortMalloc>
10008426:	1e04      	subs	r4, r0, #0
10008428:	d060      	beq.n	100084ec <vTaskStartScheduler+0xe0>
1000842a:	2268      	movs	r2, #104	; 0x68
1000842c:	2100      	movs	r1, #0
1000842e:	f7fc fbb9 	bl	10004ba4 <__wrap_memset>
10008432:	2307      	movs	r3, #7
10008434:	6325      	str	r5, [r4, #48]	; 0x30
10008436:	35fd      	adds	r5, #253	; 0xfd
10008438:	35ff      	adds	r5, #255	; 0xff
1000843a:	439d      	bics	r5, r3
1000843c:	4b49      	ldr	r3, [pc, #292]	; (10008564 <vTaskStartScheduler+0x158>)
1000843e:	1d27      	adds	r7, r4, #4
10008440:	6363      	str	r3, [r4, #52]	; 0x34
10008442:	0038      	movs	r0, r7
10008444:	f001 fa02 	bl	1000984c <vListInitialiseItem>
10008448:	0020      	movs	r0, r4
1000844a:	3018      	adds	r0, #24
1000844c:	f001 f9fe 	bl	1000984c <vListInitialiseItem>
10008450:	2305      	movs	r3, #5
10008452:	2200      	movs	r2, #0
10008454:	61a3      	str	r3, [r4, #24]
10008456:	0028      	movs	r0, r5
10008458:	4943      	ldr	r1, [pc, #268]	; (10008568 <vTaskStartScheduler+0x15c>)
1000845a:	6124      	str	r4, [r4, #16]
1000845c:	6264      	str	r4, [r4, #36]	; 0x24
1000845e:	f001 f941 	bl	100096e4 <pxPortInitialiseStack>
10008462:	4d42      	ldr	r5, [pc, #264]	; (1000856c <vTaskStartScheduler+0x160>)
10008464:	6020      	str	r0, [r4, #0]
10008466:	67ec      	str	r4, [r5, #124]	; 0x7c
10008468:	f001 f95c 	bl	10009724 <vPortEnterCritical>
1000846c:	4e40      	ldr	r6, [pc, #256]	; (10008570 <vTaskStartScheduler+0x164>)
1000846e:	69b3      	ldr	r3, [r6, #24]
10008470:	3301      	adds	r3, #1
10008472:	61b3      	str	r3, [r6, #24]
10008474:	686b      	ldr	r3, [r5, #4]
10008476:	2b00      	cmp	r3, #0
10008478:	d043      	beq.n	10008502 <vTaskStartScheduler+0xf6>
1000847a:	6f2b      	ldr	r3, [r5, #112]	; 0x70
1000847c:	2b00      	cmp	r3, #0
1000847e:	d039      	beq.n	100084f4 <vTaskStartScheduler+0xe8>
10008480:	6ae2      	ldr	r2, [r4, #44]	; 0x2c
10008482:	6f6b      	ldr	r3, [r5, #116]	; 0x74
10008484:	3301      	adds	r3, #1
10008486:	676b      	str	r3, [r5, #116]	; 0x74
10008488:	6aeb      	ldr	r3, [r5, #44]	; 0x2c
1000848a:	4293      	cmp	r3, r2
1000848c:	d200      	bcs.n	10008490 <vTaskStartScheduler+0x84>
1000848e:	62ea      	str	r2, [r5, #44]	; 0x2c
10008490:	0093      	lsls	r3, r2, #2
10008492:	189b      	adds	r3, r3, r2
10008494:	009b      	lsls	r3, r3, #2
10008496:	18f1      	adds	r1, r6, r3
10008498:	6a0a      	ldr	r2, [r1, #32]
1000849a:	361c      	adds	r6, #28
1000849c:	6890      	ldr	r0, [r2, #8]
1000849e:	18f6      	adds	r6, r6, r3
100084a0:	60e0      	str	r0, [r4, #12]
100084a2:	69cb      	ldr	r3, [r1, #28]
100084a4:	6890      	ldr	r0, [r2, #8]
100084a6:	3301      	adds	r3, #1
100084a8:	60a2      	str	r2, [r4, #8]
100084aa:	6047      	str	r7, [r0, #4]
100084ac:	6097      	str	r7, [r2, #8]
100084ae:	6166      	str	r6, [r4, #20]
100084b0:	61cb      	str	r3, [r1, #28]
100084b2:	f001 f943 	bl	1000973c <vPortExitCritical>
100084b6:	6f2b      	ldr	r3, [r5, #112]	; 0x70
100084b8:	2b00      	cmp	r3, #0
100084ba:	d004      	beq.n	100084c6 <vTaskStartScheduler+0xba>
100084bc:	686b      	ldr	r3, [r5, #4]
100084be:	6ada      	ldr	r2, [r3, #44]	; 0x2c
100084c0:	6ae3      	ldr	r3, [r4, #44]	; 0x2c
100084c2:	429a      	cmp	r2, r3
100084c4:	d34b      	bcc.n	1000855e <vTaskStartScheduler+0x152>
100084c6:	f000 ffc5 	bl	10009454 <xTimerCreateTimerTask>
100084ca:	2801      	cmp	r0, #1
100084cc:	d108      	bne.n	100084e0 <vTaskStartScheduler+0xd4>
100084ce:	b672      	cpsid	i
100084d0:	2301      	movs	r3, #1
100084d2:	425b      	negs	r3, r3
100084d4:	626b      	str	r3, [r5, #36]	; 0x24
100084d6:	2300      	movs	r3, #0
100084d8:	6728      	str	r0, [r5, #112]	; 0x70
100084da:	602b      	str	r3, [r5, #0]
100084dc:	f001 f988 	bl	100097f0 <xPortStartScheduler>
100084e0:	4b24      	ldr	r3, [pc, #144]	; (10008574 <vTaskStartScheduler+0x168>)
100084e2:	681b      	ldr	r3, [r3, #0]
100084e4:	bcc0      	pop	{r6, r7}
100084e6:	46b9      	mov	r9, r7
100084e8:	46b0      	mov	r8, r6
100084ea:	bdf8      	pop	{r3, r4, r5, r6, r7, pc}
100084ec:	0028      	movs	r0, r5
100084ee:	f001 f8cb 	bl	10009688 <vPortFree>
100084f2:	e7f5      	b.n	100084e0 <vTaskStartScheduler+0xd4>
100084f4:	686b      	ldr	r3, [r5, #4]
100084f6:	6ae2      	ldr	r2, [r4, #44]	; 0x2c
100084f8:	6adb      	ldr	r3, [r3, #44]	; 0x2c
100084fa:	4293      	cmp	r3, r2
100084fc:	d8c1      	bhi.n	10008482 <vTaskStartScheduler+0x76>
100084fe:	606c      	str	r4, [r5, #4]
10008500:	e7bf      	b.n	10008482 <vTaskStartScheduler+0x76>
10008502:	606c      	str	r4, [r5, #4]
10008504:	69b3      	ldr	r3, [r6, #24]
10008506:	2b01      	cmp	r3, #1
10008508:	d1ba      	bne.n	10008480 <vTaskStartScheduler+0x74>
1000850a:	231c      	movs	r3, #28
1000850c:	4698      	mov	r8, r3
1000850e:	3364      	adds	r3, #100	; 0x64
10008510:	4699      	mov	r9, r3
10008512:	44b0      	add	r8, r6
10008514:	44b1      	add	r9, r6
10008516:	4640      	mov	r0, r8
10008518:	f001 f98c 	bl	10009834 <vListInitialise>
1000851c:	2314      	movs	r3, #20
1000851e:	469c      	mov	ip, r3
10008520:	44e0      	add	r8, ip
10008522:	45c8      	cmp	r8, r9
10008524:	d1f7      	bne.n	10008516 <vTaskStartScheduler+0x10a>
10008526:	3320      	adds	r3, #32
10008528:	4699      	mov	r9, r3
1000852a:	44a9      	add	r9, r5
1000852c:	4648      	mov	r0, r9
1000852e:	f001 f981 	bl	10009834 <vListInitialise>
10008532:	2348      	movs	r3, #72	; 0x48
10008534:	4698      	mov	r8, r3
10008536:	44a8      	add	r8, r5
10008538:	4640      	mov	r0, r8
1000853a:	f001 f97b 	bl	10009834 <vListInitialise>
1000853e:	0028      	movs	r0, r5
10008540:	305c      	adds	r0, #92	; 0x5c
10008542:	f001 f977 	bl	10009834 <vListInitialise>
10008546:	1d30      	adds	r0, r6, #4
10008548:	f001 f974 	bl	10009834 <vListInitialise>
1000854c:	0028      	movs	r0, r5
1000854e:	3008      	adds	r0, #8
10008550:	f001 f970 	bl	10009834 <vListInitialise>
10008554:	464b      	mov	r3, r9
10008556:	622b      	str	r3, [r5, #32]
10008558:	4643      	mov	r3, r8
1000855a:	61eb      	str	r3, [r5, #28]
1000855c:	e790      	b.n	10008480 <vTaskStartScheduler+0x74>
1000855e:	f001 f8d5 	bl	1000970c <vPortYield>
10008562:	e7b0      	b.n	100084c6 <vTaskStartScheduler+0xba>
10008564:	454c4449 	.word	0x454c4449
10008568:	10007c0d 	.word	0x10007c0d
1000856c:	200010d4 	.word	0x200010d4
10008570:	20001054 	.word	0x20001054
10008574:	20000478 	.word	0x20000478

10008578 <vTaskEndScheduler>:
10008578:	b510      	push	{r4, lr}
1000857a:	b672      	cpsid	i
1000857c:	2200      	movs	r2, #0
1000857e:	4b02      	ldr	r3, [pc, #8]	; (10008588 <vTaskEndScheduler+0x10>)
10008580:	671a      	str	r2, [r3, #112]	; 0x70
10008582:	f001 f8c1 	bl	10009708 <vPortEndScheduler>
10008586:	bd10      	pop	{r4, pc}
10008588:	200010d4 	.word	0x200010d4

1000858c <vTaskSuspendAll>:
1000858c:	4a02      	ldr	r2, [pc, #8]	; (10008598 <vTaskSuspendAll+0xc>)
1000858e:	6f93      	ldr	r3, [r2, #120]	; 0x78
10008590:	3301      	adds	r3, #1
10008592:	6793      	str	r3, [r2, #120]	; 0x78
10008594:	4770      	bx	lr
10008596:	46c0      	nop			; (mov r8, r8)
10008598:	200010d4 	.word	0x200010d4

1000859c <xTaskResumeAll>:
1000859c:	b5f0      	push	{r4, r5, r6, r7, lr}
1000859e:	46d6      	mov	lr, sl
100085a0:	464f      	mov	r7, r9
100085a2:	4646      	mov	r6, r8
100085a4:	b5c0      	push	{r6, r7, lr}
100085a6:	f001 f8bd 	bl	10009724 <vPortEnterCritical>
100085aa:	4c46      	ldr	r4, [pc, #280]	; (100086c4 <xTaskResumeAll+0x128>)
100085ac:	6fa3      	ldr	r3, [r4, #120]	; 0x78
100085ae:	3b01      	subs	r3, #1
100085b0:	67a3      	str	r3, [r4, #120]	; 0x78
100085b2:	6fa3      	ldr	r3, [r4, #120]	; 0x78
100085b4:	2b00      	cmp	r3, #0
100085b6:	d16b      	bne.n	10008690 <xTaskResumeAll+0xf4>
100085b8:	4b43      	ldr	r3, [pc, #268]	; (100086c8 <xTaskResumeAll+0x12c>)
100085ba:	469a      	mov	sl, r3
100085bc:	699b      	ldr	r3, [r3, #24]
100085be:	2b00      	cmp	r3, #0
100085c0:	d066      	beq.n	10008690 <xTaskResumeAll+0xf4>
100085c2:	6de3      	ldr	r3, [r4, #92]	; 0x5c
100085c4:	2b00      	cmp	r3, #0
100085c6:	d048      	beq.n	1000865a <xTaskResumeAll+0xbe>
100085c8:	2300      	movs	r3, #0
100085ca:	4699      	mov	r9, r3
100085cc:	331c      	adds	r3, #28
100085ce:	4698      	mov	r8, r3
100085d0:	3b1b      	subs	r3, #27
100085d2:	469c      	mov	ip, r3
100085d4:	44d0      	add	r8, sl
100085d6:	6ea3      	ldr	r3, [r4, #104]	; 0x68
100085d8:	68db      	ldr	r3, [r3, #12]
100085da:	69d8      	ldr	r0, [r3, #28]
100085dc:	6a19      	ldr	r1, [r3, #32]
100085de:	6a9a      	ldr	r2, [r3, #40]	; 0x28
100085e0:	6081      	str	r1, [r0, #8]
100085e2:	6048      	str	r0, [r1, #4]
100085e4:	0018      	movs	r0, r3
100085e6:	6856      	ldr	r6, [r2, #4]
100085e8:	3018      	adds	r0, #24
100085ea:	4286      	cmp	r6, r0
100085ec:	d05f      	beq.n	100086ae <xTaskResumeAll+0x112>
100085ee:	4649      	mov	r1, r9
100085f0:	6299      	str	r1, [r3, #40]	; 0x28
100085f2:	6811      	ldr	r1, [r2, #0]
100085f4:	3901      	subs	r1, #1
100085f6:	6011      	str	r1, [r2, #0]
100085f8:	695a      	ldr	r2, [r3, #20]
100085fa:	6898      	ldr	r0, [r3, #8]
100085fc:	68d9      	ldr	r1, [r3, #12]
100085fe:	1d1f      	adds	r7, r3, #4
10008600:	6081      	str	r1, [r0, #8]
10008602:	6048      	str	r0, [r1, #4]
10008604:	6850      	ldr	r0, [r2, #4]
10008606:	42b8      	cmp	r0, r7
10008608:	d04f      	beq.n	100086aa <xTaskResumeAll+0x10e>
1000860a:	6811      	ldr	r1, [r2, #0]
1000860c:	3901      	subs	r1, #1
1000860e:	6011      	str	r1, [r2, #0]
10008610:	6ae2      	ldr	r2, [r4, #44]	; 0x2c
10008612:	6ad9      	ldr	r1, [r3, #44]	; 0x2c
10008614:	4291      	cmp	r1, r2
10008616:	d900      	bls.n	1000861a <xTaskResumeAll+0x7e>
10008618:	62e1      	str	r1, [r4, #44]	; 0x2c
1000861a:	4650      	mov	r0, sl
1000861c:	008a      	lsls	r2, r1, #2
1000861e:	1852      	adds	r2, r2, r1
10008620:	0092      	lsls	r2, r2, #2
10008622:	1886      	adds	r6, r0, r2
10008624:	6a30      	ldr	r0, [r6, #32]
10008626:	4442      	add	r2, r8
10008628:	6885      	ldr	r5, [r0, #8]
1000862a:	6098      	str	r0, [r3, #8]
1000862c:	60dd      	str	r5, [r3, #12]
1000862e:	6885      	ldr	r5, [r0, #8]
10008630:	606f      	str	r7, [r5, #4]
10008632:	6087      	str	r7, [r0, #8]
10008634:	615a      	str	r2, [r3, #20]
10008636:	69f3      	ldr	r3, [r6, #28]
10008638:	3301      	adds	r3, #1
1000863a:	61f3      	str	r3, [r6, #28]
1000863c:	6863      	ldr	r3, [r4, #4]
1000863e:	6adb      	ldr	r3, [r3, #44]	; 0x2c
10008640:	4299      	cmp	r1, r3
10008642:	d32e      	bcc.n	100086a2 <xTaskResumeAll+0x106>
10008644:	4663      	mov	r3, ip
10008646:	6323      	str	r3, [r4, #48]	; 0x30
10008648:	6de3      	ldr	r3, [r4, #92]	; 0x5c
1000864a:	2b00      	cmp	r3, #0
1000864c:	d1c3      	bne.n	100085d6 <xTaskResumeAll+0x3a>
1000864e:	6a23      	ldr	r3, [r4, #32]
10008650:	681b      	ldr	r3, [r3, #0]
10008652:	2b00      	cmp	r3, #0
10008654:	d12d      	bne.n	100086b2 <xTaskResumeAll+0x116>
10008656:	3b01      	subs	r3, #1
10008658:	6263      	str	r3, [r4, #36]	; 0x24
1000865a:	4e1c      	ldr	r6, [pc, #112]	; (100086cc <xTaskResumeAll+0x130>)
1000865c:	6835      	ldr	r5, [r6, #0]
1000865e:	2d00      	cmp	r5, #0
10008660:	d013      	beq.n	1000868a <xTaskResumeAll+0xee>
10008662:	2701      	movs	r7, #1
10008664:	e007      	b.n	10008676 <xTaskResumeAll+0xda>
10008666:	f7ff fb2f 	bl	10007cc8 <xTaskIncrementTick.part.0>
1000866a:	2800      	cmp	r0, #0
1000866c:	d000      	beq.n	10008670 <xTaskResumeAll+0xd4>
1000866e:	6327      	str	r7, [r4, #48]	; 0x30
10008670:	3d01      	subs	r5, #1
10008672:	2d00      	cmp	r5, #0
10008674:	d008      	beq.n	10008688 <xTaskResumeAll+0xec>
10008676:	6fa3      	ldr	r3, [r4, #120]	; 0x78
10008678:	2b00      	cmp	r3, #0
1000867a:	d0f4      	beq.n	10008666 <xTaskResumeAll+0xca>
1000867c:	6833      	ldr	r3, [r6, #0]
1000867e:	3d01      	subs	r5, #1
10008680:	3301      	adds	r3, #1
10008682:	6033      	str	r3, [r6, #0]
10008684:	2d00      	cmp	r5, #0
10008686:	d1f6      	bne.n	10008676 <xTaskResumeAll+0xda>
10008688:	6035      	str	r5, [r6, #0]
1000868a:	6b23      	ldr	r3, [r4, #48]	; 0x30
1000868c:	2b00      	cmp	r3, #0
1000868e:	d115      	bne.n	100086bc <xTaskResumeAll+0x120>
10008690:	2400      	movs	r4, #0
10008692:	f001 f853 	bl	1000973c <vPortExitCritical>
10008696:	0020      	movs	r0, r4
10008698:	bce0      	pop	{r5, r6, r7}
1000869a:	46ba      	mov	sl, r7
1000869c:	46b1      	mov	r9, r6
1000869e:	46a8      	mov	r8, r5
100086a0:	bdf0      	pop	{r4, r5, r6, r7, pc}
100086a2:	6de3      	ldr	r3, [r4, #92]	; 0x5c
100086a4:	2b00      	cmp	r3, #0
100086a6:	d196      	bne.n	100085d6 <xTaskResumeAll+0x3a>
100086a8:	e7d1      	b.n	1000864e <xTaskResumeAll+0xb2>
100086aa:	6051      	str	r1, [r2, #4]
100086ac:	e7ad      	b.n	1000860a <xTaskResumeAll+0x6e>
100086ae:	6051      	str	r1, [r2, #4]
100086b0:	e79d      	b.n	100085ee <xTaskResumeAll+0x52>
100086b2:	6a23      	ldr	r3, [r4, #32]
100086b4:	68db      	ldr	r3, [r3, #12]
100086b6:	681b      	ldr	r3, [r3, #0]
100086b8:	6263      	str	r3, [r4, #36]	; 0x24
100086ba:	e7ce      	b.n	1000865a <xTaskResumeAll+0xbe>
100086bc:	f001 f826 	bl	1000970c <vPortYield>
100086c0:	2401      	movs	r4, #1
100086c2:	e7e6      	b.n	10008692 <xTaskResumeAll+0xf6>
100086c4:	200010d4 	.word	0x200010d4
100086c8:	20001054 	.word	0x20001054
100086cc:	20001154 	.word	0x20001154

100086d0 <xTaskDelayUntil>:
100086d0:	b5f8      	push	{r3, r4, r5, r6, r7, lr}
100086d2:	4e1d      	ldr	r6, [pc, #116]	; (10008748 <xTaskDelayUntil+0x78>)
100086d4:	6fb3      	ldr	r3, [r6, #120]	; 0x78
100086d6:	3301      	adds	r3, #1
100086d8:	67b3      	str	r3, [r6, #120]	; 0x78
100086da:	6802      	ldr	r2, [r0, #0]
100086dc:	6835      	ldr	r5, [r6, #0]
100086de:	1854      	adds	r4, r2, r1
100086e0:	6004      	str	r4, [r0, #0]
100086e2:	42aa      	cmp	r2, r5
100086e4:	d908      	bls.n	100086f8 <xTaskDelayUntil+0x28>
100086e6:	42a2      	cmp	r2, r4
100086e8:	d808      	bhi.n	100086fc <xTaskDelayUntil+0x2c>
100086ea:	2500      	movs	r5, #0
100086ec:	f7ff ff56 	bl	1000859c <xTaskResumeAll>
100086f0:	2800      	cmp	r0, #0
100086f2:	d01a      	beq.n	1000872a <xTaskDelayUntil+0x5a>
100086f4:	0028      	movs	r0, r5
100086f6:	bdf8      	pop	{r3, r4, r5, r6, r7, pc}
100086f8:	42a2      	cmp	r2, r4
100086fa:	d801      	bhi.n	10008700 <xTaskDelayUntil+0x30>
100086fc:	42a5      	cmp	r5, r4
100086fe:	d2f4      	bcs.n	100086ea <xTaskDelayUntil+0x1a>
10008700:	6837      	ldr	r7, [r6, #0]
10008702:	6870      	ldr	r0, [r6, #4]
10008704:	1b7d      	subs	r5, r7, r5
10008706:	3004      	adds	r0, #4
10008708:	f001 f8c8 	bl	1000989c <uxListRemove>
1000870c:	6873      	ldr	r3, [r6, #4]
1000870e:	1964      	adds	r4, r4, r5
10008710:	605c      	str	r4, [r3, #4]
10008712:	42a7      	cmp	r7, r4
10008714:	d90c      	bls.n	10008730 <xTaskDelayUntil+0x60>
10008716:	69f0      	ldr	r0, [r6, #28]
10008718:	6871      	ldr	r1, [r6, #4]
1000871a:	2501      	movs	r5, #1
1000871c:	3104      	adds	r1, #4
1000871e:	f001 f8a5 	bl	1000986c <vListInsert>
10008722:	f7ff ff3b 	bl	1000859c <xTaskResumeAll>
10008726:	2800      	cmp	r0, #0
10008728:	d1e4      	bne.n	100086f4 <xTaskDelayUntil+0x24>
1000872a:	f000 ffef 	bl	1000970c <vPortYield>
1000872e:	e7e1      	b.n	100086f4 <xTaskDelayUntil+0x24>
10008730:	6a30      	ldr	r0, [r6, #32]
10008732:	6871      	ldr	r1, [r6, #4]
10008734:	2501      	movs	r5, #1
10008736:	3104      	adds	r1, #4
10008738:	f001 f898 	bl	1000986c <vListInsert>
1000873c:	6a73      	ldr	r3, [r6, #36]	; 0x24
1000873e:	429c      	cmp	r4, r3
10008740:	d2d4      	bcs.n	100086ec <xTaskDelayUntil+0x1c>
10008742:	6274      	str	r4, [r6, #36]	; 0x24
10008744:	e7d2      	b.n	100086ec <xTaskDelayUntil+0x1c>
10008746:	46c0      	nop			; (mov r8, r8)
10008748:	200010d4 	.word	0x200010d4

1000874c <vTaskDelay>:
1000874c:	b570      	push	{r4, r5, r6, lr}
1000874e:	1e04      	subs	r4, r0, #0
10008750:	d016      	beq.n	10008780 <vTaskDelay+0x34>
10008752:	4d12      	ldr	r5, [pc, #72]	; (1000879c <vTaskDelay+0x50>)
10008754:	6fab      	ldr	r3, [r5, #120]	; 0x78
10008756:	3301      	adds	r3, #1
10008758:	67ab      	str	r3, [r5, #120]	; 0x78
1000875a:	682e      	ldr	r6, [r5, #0]
1000875c:	6868      	ldr	r0, [r5, #4]
1000875e:	19a4      	adds	r4, r4, r6
10008760:	3004      	adds	r0, #4
10008762:	f001 f89b 	bl	1000989c <uxListRemove>
10008766:	686b      	ldr	r3, [r5, #4]
10008768:	605c      	str	r4, [r3, #4]
1000876a:	42a6      	cmp	r6, r4
1000876c:	d90b      	bls.n	10008786 <vTaskDelay+0x3a>
1000876e:	69e8      	ldr	r0, [r5, #28]
10008770:	6869      	ldr	r1, [r5, #4]
10008772:	3104      	adds	r1, #4
10008774:	f001 f87a 	bl	1000986c <vListInsert>
10008778:	f7ff ff10 	bl	1000859c <xTaskResumeAll>
1000877c:	2800      	cmp	r0, #0
1000877e:	d101      	bne.n	10008784 <vTaskDelay+0x38>
10008780:	f000 ffc4 	bl	1000970c <vPortYield>
10008784:	bd70      	pop	{r4, r5, r6, pc}
10008786:	6a28      	ldr	r0, [r5, #32]
10008788:	6869      	ldr	r1, [r5, #4]
1000878a:	3104      	adds	r1, #4
1000878c:	f001 f86e 	bl	1000986c <vListInsert>
10008790:	6a6b      	ldr	r3, [r5, #36]	; 0x24
10008792:	429c      	cmp	r4, r3
10008794:	d2f0      	bcs.n	10008778 <vTaskDelay+0x2c>
10008796:	626c      	str	r4, [r5, #36]	; 0x24
10008798:	e7ee      	b.n	10008778 <vTaskDelay+0x2c>
1000879a:	46c0      	nop			; (mov r8, r8)
1000879c:	200010d4 	.word	0x200010d4

100087a0 <xTaskGetTickCount>:
100087a0:	4b01      	ldr	r3, [pc, #4]	; (100087a8 <xTaskGetTickCount+0x8>)
100087a2:	6818      	ldr	r0, [r3, #0]
100087a4:	4770      	bx	lr
100087a6:	46c0      	nop			; (mov r8, r8)
100087a8:	200010d4 	.word	0x200010d4

100087ac <xTaskGetTickCountFromISR>:
100087ac:	4b01      	ldr	r3, [pc, #4]	; (100087b4 <xTaskGetTickCountFromISR+0x8>)
100087ae:	6818      	ldr	r0, [r3, #0]
100087b0:	4770      	bx	lr
100087b2:	46c0      	nop			; (mov r8, r8)
100087b4:	200010d4 	.word	0x200010d4

100087b8 <uxTaskGetNumberOfTasks>:
100087b8:	4b01      	ldr	r3, [pc, #4]	; (100087c0 <uxTaskGetNumberOfTasks+0x8>)
100087ba:	6998      	ldr	r0, [r3, #24]
100087bc:	4770      	bx	lr
100087be:	46c0      	nop			; (mov r8, r8)
100087c0:	20001054 	.word	0x20001054

100087c4 <pcTaskGetName>:
100087c4:	2800      	cmp	r0, #0
100087c6:	d001      	beq.n	100087cc <pcTaskGetName+0x8>
100087c8:	3034      	adds	r0, #52	; 0x34
100087ca:	4770      	bx	lr
100087cc:	4b01      	ldr	r3, [pc, #4]	; (100087d4 <pcTaskGetName+0x10>)
100087ce:	6858      	ldr	r0, [r3, #4]
100087d0:	e7fa      	b.n	100087c8 <pcTaskGetName+0x4>
100087d2:	46c0      	nop			; (mov r8, r8)
100087d4:	200010d4 	.word	0x200010d4

100087d8 <xTaskCatchUpTicks>:
100087d8:	4a08      	ldr	r2, [pc, #32]	; (100087fc <xTaskCatchUpTicks+0x24>)
100087da:	b510      	push	{r4, lr}
100087dc:	6f93      	ldr	r3, [r2, #120]	; 0x78
100087de:	0004      	movs	r4, r0
100087e0:	3301      	adds	r3, #1
100087e2:	6793      	str	r3, [r2, #120]	; 0x78
100087e4:	f000 ff9e 	bl	10009724 <vPortEnterCritical>
100087e8:	4b05      	ldr	r3, [pc, #20]	; (10008800 <xTaskCatchUpTicks+0x28>)
100087ea:	6818      	ldr	r0, [r3, #0]
100087ec:	1900      	adds	r0, r0, r4
100087ee:	6018      	str	r0, [r3, #0]
100087f0:	f000 ffa4 	bl	1000973c <vPortExitCritical>
100087f4:	f7ff fed2 	bl	1000859c <xTaskResumeAll>
100087f8:	bd10      	pop	{r4, pc}
100087fa:	46c0      	nop			; (mov r8, r8)
100087fc:	200010d4 	.word	0x200010d4
10008800:	20001154 	.word	0x20001154

10008804 <xTaskIncrementTick>:
10008804:	4b06      	ldr	r3, [pc, #24]	; (10008820 <xTaskIncrementTick+0x1c>)
10008806:	b510      	push	{r4, lr}
10008808:	6f9b      	ldr	r3, [r3, #120]	; 0x78
1000880a:	2b00      	cmp	r3, #0
1000880c:	d102      	bne.n	10008814 <xTaskIncrementTick+0x10>
1000880e:	f7ff fa5b 	bl	10007cc8 <xTaskIncrementTick.part.0>
10008812:	bd10      	pop	{r4, pc}
10008814:	4a03      	ldr	r2, [pc, #12]	; (10008824 <xTaskIncrementTick+0x20>)
10008816:	2000      	movs	r0, #0
10008818:	6813      	ldr	r3, [r2, #0]
1000881a:	3301      	adds	r3, #1
1000881c:	6013      	str	r3, [r2, #0]
1000881e:	e7f8      	b.n	10008812 <xTaskIncrementTick+0xe>
10008820:	200010d4 	.word	0x200010d4
10008824:	20001154 	.word	0x20001154

10008828 <vTaskSwitchContext>:
10008828:	4826      	ldr	r0, [pc, #152]	; (100088c4 <vTaskSwitchContext+0x9c>)
1000882a:	b530      	push	{r4, r5, lr}
1000882c:	6f83      	ldr	r3, [r0, #120]	; 0x78
1000882e:	2b00      	cmp	r3, #0
10008830:	d002      	beq.n	10008838 <vTaskSwitchContext+0x10>
10008832:	2301      	movs	r3, #1
10008834:	6303      	str	r3, [r0, #48]	; 0x30
10008836:	bd30      	pop	{r4, r5, pc}
10008838:	6303      	str	r3, [r0, #48]	; 0x30
1000883a:	6ac1      	ldr	r1, [r0, #44]	; 0x2c
1000883c:	4a22      	ldr	r2, [pc, #136]	; (100088c8 <vTaskSwitchContext+0xa0>)
1000883e:	008b      	lsls	r3, r1, #2
10008840:	185c      	adds	r4, r3, r1
10008842:	00a4      	lsls	r4, r4, #2
10008844:	1914      	adds	r4, r2, r4
10008846:	69e4      	ldr	r4, [r4, #28]
10008848:	2c00      	cmp	r4, #0
1000884a:	d125      	bne.n	10008898 <vTaskSwitchContext+0x70>
1000884c:	1e4d      	subs	r5, r1, #1
1000884e:	00ab      	lsls	r3, r5, #2
10008850:	195c      	adds	r4, r3, r5
10008852:	00a4      	lsls	r4, r4, #2
10008854:	1914      	adds	r4, r2, r4
10008856:	69e4      	ldr	r4, [r4, #28]
10008858:	2c00      	cmp	r4, #0
1000885a:	d12b      	bne.n	100088b4 <vTaskSwitchContext+0x8c>
1000885c:	1e8d      	subs	r5, r1, #2
1000885e:	00ab      	lsls	r3, r5, #2
10008860:	195c      	adds	r4, r3, r5
10008862:	00a4      	lsls	r4, r4, #2
10008864:	1914      	adds	r4, r2, r4
10008866:	69e4      	ldr	r4, [r4, #28]
10008868:	2c00      	cmp	r4, #0
1000886a:	d123      	bne.n	100088b4 <vTaskSwitchContext+0x8c>
1000886c:	1ecd      	subs	r5, r1, #3
1000886e:	00ab      	lsls	r3, r5, #2
10008870:	195c      	adds	r4, r3, r5
10008872:	00a4      	lsls	r4, r4, #2
10008874:	1914      	adds	r4, r2, r4
10008876:	69e4      	ldr	r4, [r4, #28]
10008878:	2c00      	cmp	r4, #0
1000887a:	d11b      	bne.n	100088b4 <vTaskSwitchContext+0x8c>
1000887c:	1f0d      	subs	r5, r1, #4
1000887e:	00ab      	lsls	r3, r5, #2
10008880:	195c      	adds	r4, r3, r5
10008882:	00a4      	lsls	r4, r4, #2
10008884:	1914      	adds	r4, r2, r4
10008886:	69e4      	ldr	r4, [r4, #28]
10008888:	2c00      	cmp	r4, #0
1000888a:	d113      	bne.n	100088b4 <vTaskSwitchContext+0x8c>
1000888c:	3905      	subs	r1, #5
1000888e:	008b      	lsls	r3, r1, #2
10008890:	185c      	adds	r4, r3, r1
10008892:	00a4      	lsls	r4, r4, #2
10008894:	1914      	adds	r4, r2, r4
10008896:	69e4      	ldr	r4, [r4, #28]
10008898:	185b      	adds	r3, r3, r1
1000889a:	009b      	lsls	r3, r3, #2
1000889c:	18d5      	adds	r5, r2, r3
1000889e:	002b      	movs	r3, r5
100088a0:	6a2c      	ldr	r4, [r5, #32]
100088a2:	3324      	adds	r3, #36	; 0x24
100088a4:	6864      	ldr	r4, [r4, #4]
100088a6:	622c      	str	r4, [r5, #32]
100088a8:	429c      	cmp	r4, r3
100088aa:	d005      	beq.n	100088b8 <vTaskSwitchContext+0x90>
100088ac:	68e3      	ldr	r3, [r4, #12]
100088ae:	6043      	str	r3, [r0, #4]
100088b0:	62c1      	str	r1, [r0, #44]	; 0x2c
100088b2:	e7c0      	b.n	10008836 <vTaskSwitchContext+0xe>
100088b4:	0029      	movs	r1, r5
100088b6:	e7ef      	b.n	10008898 <vTaskSwitchContext+0x70>
100088b8:	6864      	ldr	r4, [r4, #4]
100088ba:	68e3      	ldr	r3, [r4, #12]
100088bc:	622c      	str	r4, [r5, #32]
100088be:	6043      	str	r3, [r0, #4]
100088c0:	62c1      	str	r1, [r0, #44]	; 0x2c
100088c2:	e7b8      	b.n	10008836 <vTaskSwitchContext+0xe>
100088c4:	200010d4 	.word	0x200010d4
100088c8:	20001054 	.word	0x20001054

100088cc <vTaskPlaceOnEventList>:
100088cc:	b570      	push	{r4, r5, r6, lr}
100088ce:	000d      	movs	r5, r1
100088d0:	4c1a      	ldr	r4, [pc, #104]	; (1000893c <vTaskPlaceOnEventList+0x70>)
100088d2:	6861      	ldr	r1, [r4, #4]
100088d4:	3118      	adds	r1, #24
100088d6:	f000 ffc9 	bl	1000986c <vListInsert>
100088da:	6826      	ldr	r6, [r4, #0]
100088dc:	6860      	ldr	r0, [r4, #4]
100088de:	3004      	adds	r0, #4
100088e0:	f000 ffdc 	bl	1000989c <uxListRemove>
100088e4:	1c6b      	adds	r3, r5, #1
100088e6:	d014      	beq.n	10008912 <vTaskPlaceOnEventList+0x46>
100088e8:	6863      	ldr	r3, [r4, #4]
100088ea:	19ad      	adds	r5, r5, r6
100088ec:	605d      	str	r5, [r3, #4]
100088ee:	42ae      	cmp	r6, r5
100088f0:	d905      	bls.n	100088fe <vTaskPlaceOnEventList+0x32>
100088f2:	69e0      	ldr	r0, [r4, #28]
100088f4:	6861      	ldr	r1, [r4, #4]
100088f6:	3104      	adds	r1, #4
100088f8:	f000 ffb8 	bl	1000986c <vListInsert>
100088fc:	bd70      	pop	{r4, r5, r6, pc}
100088fe:	6a20      	ldr	r0, [r4, #32]
10008900:	6861      	ldr	r1, [r4, #4]
10008902:	3104      	adds	r1, #4
10008904:	f000 ffb2 	bl	1000986c <vListInsert>
10008908:	6a63      	ldr	r3, [r4, #36]	; 0x24
1000890a:	429d      	cmp	r5, r3
1000890c:	d2f6      	bcs.n	100088fc <vTaskPlaceOnEventList+0x30>
1000890e:	6265      	str	r5, [r4, #36]	; 0x24
10008910:	e7f4      	b.n	100088fc <vTaskPlaceOnEventList+0x30>
10008912:	6862      	ldr	r2, [r4, #4]
10008914:	68e3      	ldr	r3, [r4, #12]
10008916:	6899      	ldr	r1, [r3, #8]
10008918:	6093      	str	r3, [r2, #8]
1000891a:	6862      	ldr	r2, [r4, #4]
1000891c:	60d1      	str	r1, [r2, #12]
1000891e:	6862      	ldr	r2, [r4, #4]
10008920:	6899      	ldr	r1, [r3, #8]
10008922:	3204      	adds	r2, #4
10008924:	604a      	str	r2, [r1, #4]
10008926:	6862      	ldr	r2, [r4, #4]
10008928:	3204      	adds	r2, #4
1000892a:	609a      	str	r2, [r3, #8]
1000892c:	0022      	movs	r2, r4
1000892e:	6863      	ldr	r3, [r4, #4]
10008930:	3208      	adds	r2, #8
10008932:	615a      	str	r2, [r3, #20]
10008934:	68a3      	ldr	r3, [r4, #8]
10008936:	3301      	adds	r3, #1
10008938:	60a3      	str	r3, [r4, #8]
1000893a:	e7df      	b.n	100088fc <vTaskPlaceOnEventList+0x30>
1000893c:	200010d4 	.word	0x200010d4

10008940 <vTaskPlaceOnUnorderedEventList>:
10008940:	2380      	movs	r3, #128	; 0x80
10008942:	b570      	push	{r4, r5, r6, lr}
10008944:	0015      	movs	r5, r2
10008946:	4c24      	ldr	r4, [pc, #144]	; (100089d8 <vTaskPlaceOnUnorderedEventList+0x98>)
10008948:	061b      	lsls	r3, r3, #24
1000894a:	6862      	ldr	r2, [r4, #4]
1000894c:	430b      	orrs	r3, r1
1000894e:	6193      	str	r3, [r2, #24]
10008950:	6843      	ldr	r3, [r0, #4]
10008952:	6862      	ldr	r2, [r4, #4]
10008954:	6899      	ldr	r1, [r3, #8]
10008956:	61d3      	str	r3, [r2, #28]
10008958:	6862      	ldr	r2, [r4, #4]
1000895a:	6211      	str	r1, [r2, #32]
1000895c:	6862      	ldr	r2, [r4, #4]
1000895e:	6899      	ldr	r1, [r3, #8]
10008960:	3218      	adds	r2, #24
10008962:	604a      	str	r2, [r1, #4]
10008964:	6862      	ldr	r2, [r4, #4]
10008966:	3218      	adds	r2, #24
10008968:	609a      	str	r2, [r3, #8]
1000896a:	6863      	ldr	r3, [r4, #4]
1000896c:	6298      	str	r0, [r3, #40]	; 0x28
1000896e:	6803      	ldr	r3, [r0, #0]
10008970:	3301      	adds	r3, #1
10008972:	6003      	str	r3, [r0, #0]
10008974:	6826      	ldr	r6, [r4, #0]
10008976:	6860      	ldr	r0, [r4, #4]
10008978:	3004      	adds	r0, #4
1000897a:	f000 ff8f 	bl	1000989c <uxListRemove>
1000897e:	1c6b      	adds	r3, r5, #1
10008980:	d014      	beq.n	100089ac <vTaskPlaceOnUnorderedEventList+0x6c>
10008982:	6863      	ldr	r3, [r4, #4]
10008984:	19ad      	adds	r5, r5, r6
10008986:	605d      	str	r5, [r3, #4]
10008988:	42ae      	cmp	r6, r5
1000898a:	d905      	bls.n	10008998 <vTaskPlaceOnUnorderedEventList+0x58>
1000898c:	69e0      	ldr	r0, [r4, #28]
1000898e:	6861      	ldr	r1, [r4, #4]
10008990:	3104      	adds	r1, #4
10008992:	f000 ff6b 	bl	1000986c <vListInsert>
10008996:	bd70      	pop	{r4, r5, r6, pc}
10008998:	6a20      	ldr	r0, [r4, #32]
1000899a:	6861      	ldr	r1, [r4, #4]
1000899c:	3104      	adds	r1, #4
1000899e:	f000 ff65 	bl	1000986c <vListInsert>
100089a2:	6a63      	ldr	r3, [r4, #36]	; 0x24
100089a4:	429d      	cmp	r5, r3
100089a6:	d2f6      	bcs.n	10008996 <vTaskPlaceOnUnorderedEventList+0x56>
100089a8:	6265      	str	r5, [r4, #36]	; 0x24
100089aa:	e7f4      	b.n	10008996 <vTaskPlaceOnUnorderedEventList+0x56>
100089ac:	6862      	ldr	r2, [r4, #4]
100089ae:	68e3      	ldr	r3, [r4, #12]
100089b0:	6899      	ldr	r1, [r3, #8]
100089b2:	6093      	str	r3, [r2, #8]
100089b4:	6862      	ldr	r2, [r4, #4]
100089b6:	60d1      	str	r1, [r2, #12]
100089b8:	6862      	ldr	r2, [r4, #4]
100089ba:	6899      	ldr	r1, [r3, #8]
100089bc:	3204      	adds	r2, #4
100089be:	604a      	str	r2, [r1, #4]
100089c0:	6862      	ldr	r2, [r4, #4]
100089c2:	3204      	adds	r2, #4
100089c4:	609a      	str	r2, [r3, #8]
100089c6:	0022      	movs	r2, r4
100089c8:	6863      	ldr	r3, [r4, #4]
100089ca:	3208      	adds	r2, #8
100089cc:	615a      	str	r2, [r3, #20]
100089ce:	68a3      	ldr	r3, [r4, #8]
100089d0:	3301      	adds	r3, #1
100089d2:	60a3      	str	r3, [r4, #8]
100089d4:	e7df      	b.n	10008996 <vTaskPlaceOnUnorderedEventList+0x56>
100089d6:	46c0      	nop			; (mov r8, r8)
100089d8:	200010d4 	.word	0x200010d4

100089dc <vTaskPlaceOnEventListRestricted>:
100089dc:	b570      	push	{r4, r5, r6, lr}
100089de:	4c25      	ldr	r4, [pc, #148]	; (10008a74 <vTaskPlaceOnEventListRestricted+0x98>)
100089e0:	6843      	ldr	r3, [r0, #4]
100089e2:	000d      	movs	r5, r1
100089e4:	6861      	ldr	r1, [r4, #4]
100089e6:	689e      	ldr	r6, [r3, #8]
100089e8:	61cb      	str	r3, [r1, #28]
100089ea:	6861      	ldr	r1, [r4, #4]
100089ec:	620e      	str	r6, [r1, #32]
100089ee:	6861      	ldr	r1, [r4, #4]
100089f0:	689e      	ldr	r6, [r3, #8]
100089f2:	3118      	adds	r1, #24
100089f4:	6071      	str	r1, [r6, #4]
100089f6:	6861      	ldr	r1, [r4, #4]
100089f8:	3118      	adds	r1, #24
100089fa:	6099      	str	r1, [r3, #8]
100089fc:	6863      	ldr	r3, [r4, #4]
100089fe:	6298      	str	r0, [r3, #40]	; 0x28
10008a00:	6803      	ldr	r3, [r0, #0]
10008a02:	3301      	adds	r3, #1
10008a04:	6003      	str	r3, [r0, #0]
10008a06:	2a00      	cmp	r2, #0
10008a08:	d019      	beq.n	10008a3e <vTaskPlaceOnEventListRestricted+0x62>
10008a0a:	6823      	ldr	r3, [r4, #0]
10008a0c:	6860      	ldr	r0, [r4, #4]
10008a0e:	3004      	adds	r0, #4
10008a10:	f000 ff44 	bl	1000989c <uxListRemove>
10008a14:	6862      	ldr	r2, [r4, #4]
10008a16:	68e3      	ldr	r3, [r4, #12]
10008a18:	6899      	ldr	r1, [r3, #8]
10008a1a:	6093      	str	r3, [r2, #8]
10008a1c:	6862      	ldr	r2, [r4, #4]
10008a1e:	60d1      	str	r1, [r2, #12]
10008a20:	6862      	ldr	r2, [r4, #4]
10008a22:	6899      	ldr	r1, [r3, #8]
10008a24:	3204      	adds	r2, #4
10008a26:	604a      	str	r2, [r1, #4]
10008a28:	6862      	ldr	r2, [r4, #4]
10008a2a:	3204      	adds	r2, #4
10008a2c:	609a      	str	r2, [r3, #8]
10008a2e:	0022      	movs	r2, r4
10008a30:	6863      	ldr	r3, [r4, #4]
10008a32:	3208      	adds	r2, #8
10008a34:	615a      	str	r2, [r3, #20]
10008a36:	68a3      	ldr	r3, [r4, #8]
10008a38:	3301      	adds	r3, #1
10008a3a:	60a3      	str	r3, [r4, #8]
10008a3c:	bd70      	pop	{r4, r5, r6, pc}
10008a3e:	6826      	ldr	r6, [r4, #0]
10008a40:	6860      	ldr	r0, [r4, #4]
10008a42:	19ad      	adds	r5, r5, r6
10008a44:	3004      	adds	r0, #4
10008a46:	f000 ff29 	bl	1000989c <uxListRemove>
10008a4a:	6863      	ldr	r3, [r4, #4]
10008a4c:	605d      	str	r5, [r3, #4]
10008a4e:	42ae      	cmp	r6, r5
10008a50:	d809      	bhi.n	10008a66 <vTaskPlaceOnEventListRestricted+0x8a>
10008a52:	6a20      	ldr	r0, [r4, #32]
10008a54:	6861      	ldr	r1, [r4, #4]
10008a56:	3104      	adds	r1, #4
10008a58:	f000 ff08 	bl	1000986c <vListInsert>
10008a5c:	6a63      	ldr	r3, [r4, #36]	; 0x24
10008a5e:	429d      	cmp	r5, r3
10008a60:	d2ec      	bcs.n	10008a3c <vTaskPlaceOnEventListRestricted+0x60>
10008a62:	6265      	str	r5, [r4, #36]	; 0x24
10008a64:	e7ea      	b.n	10008a3c <vTaskPlaceOnEventListRestricted+0x60>
10008a66:	69e0      	ldr	r0, [r4, #28]
10008a68:	6861      	ldr	r1, [r4, #4]
10008a6a:	3104      	adds	r1, #4
10008a6c:	f000 fefe 	bl	1000986c <vListInsert>
10008a70:	e7e4      	b.n	10008a3c <vTaskPlaceOnEventListRestricted+0x60>
10008a72:	46c0      	nop			; (mov r8, r8)
10008a74:	200010d4 	.word	0x200010d4

10008a78 <xTaskRemoveFromEventList>:
10008a78:	68c3      	ldr	r3, [r0, #12]
10008a7a:	b5f0      	push	{r4, r5, r6, r7, lr}
10008a7c:	68db      	ldr	r3, [r3, #12]
10008a7e:	69d8      	ldr	r0, [r3, #28]
10008a80:	6a19      	ldr	r1, [r3, #32]
10008a82:	6a9a      	ldr	r2, [r3, #40]	; 0x28
10008a84:	6081      	str	r1, [r0, #8]
10008a86:	6048      	str	r0, [r1, #4]
10008a88:	0018      	movs	r0, r3
10008a8a:	6854      	ldr	r4, [r2, #4]
10008a8c:	3018      	adds	r0, #24
10008a8e:	4284      	cmp	r4, r0
10008a90:	d047      	beq.n	10008b22 <xTaskRemoveFromEventList+0xaa>
10008a92:	2100      	movs	r1, #0
10008a94:	6299      	str	r1, [r3, #40]	; 0x28
10008a96:	6811      	ldr	r1, [r2, #0]
10008a98:	3901      	subs	r1, #1
10008a9a:	6011      	str	r1, [r2, #0]
10008a9c:	4a26      	ldr	r2, [pc, #152]	; (10008b38 <xTaskRemoveFromEventList+0xc0>)
10008a9e:	6f91      	ldr	r1, [r2, #120]	; 0x78
10008aa0:	2900      	cmp	r1, #0
10008aa2:	d12d      	bne.n	10008b00 <xTaskRemoveFromEventList+0x88>
10008aa4:	6898      	ldr	r0, [r3, #8]
10008aa6:	68dc      	ldr	r4, [r3, #12]
10008aa8:	6959      	ldr	r1, [r3, #20]
10008aaa:	6084      	str	r4, [r0, #8]
10008aac:	68dc      	ldr	r4, [r3, #12]
10008aae:	1d1f      	adds	r7, r3, #4
10008ab0:	6060      	str	r0, [r4, #4]
10008ab2:	6848      	ldr	r0, [r1, #4]
10008ab4:	42b8      	cmp	r0, r7
10008ab6:	d036      	beq.n	10008b26 <xTaskRemoveFromEventList+0xae>
10008ab8:	6808      	ldr	r0, [r1, #0]
10008aba:	3801      	subs	r0, #1
10008abc:	6008      	str	r0, [r1, #0]
10008abe:	6ad0      	ldr	r0, [r2, #44]	; 0x2c
10008ac0:	6ad9      	ldr	r1, [r3, #44]	; 0x2c
10008ac2:	4281      	cmp	r1, r0
10008ac4:	d82b      	bhi.n	10008b1e <xTaskRemoveFromEventList+0xa6>
10008ac6:	481d      	ldr	r0, [pc, #116]	; (10008b3c <xTaskRemoveFromEventList+0xc4>)
10008ac8:	008c      	lsls	r4, r1, #2
10008aca:	4684      	mov	ip, r0
10008acc:	1864      	adds	r4, r4, r1
10008ace:	00a4      	lsls	r4, r4, #2
10008ad0:	1906      	adds	r6, r0, r4
10008ad2:	6a35      	ldr	r5, [r6, #32]
10008ad4:	68a8      	ldr	r0, [r5, #8]
10008ad6:	609d      	str	r5, [r3, #8]
10008ad8:	60d8      	str	r0, [r3, #12]
10008ada:	68a8      	ldr	r0, [r5, #8]
10008adc:	6047      	str	r7, [r0, #4]
10008ade:	4660      	mov	r0, ip
10008ae0:	301c      	adds	r0, #28
10008ae2:	1900      	adds	r0, r0, r4
10008ae4:	60af      	str	r7, [r5, #8]
10008ae6:	6158      	str	r0, [r3, #20]
10008ae8:	69f3      	ldr	r3, [r6, #28]
10008aea:	3301      	adds	r3, #1
10008aec:	61f3      	str	r3, [r6, #28]
10008aee:	6853      	ldr	r3, [r2, #4]
10008af0:	2000      	movs	r0, #0
10008af2:	6adb      	ldr	r3, [r3, #44]	; 0x2c
10008af4:	428b      	cmp	r3, r1
10008af6:	d202      	bcs.n	10008afe <xTaskRemoveFromEventList+0x86>
10008af8:	2301      	movs	r3, #1
10008afa:	3001      	adds	r0, #1
10008afc:	6313      	str	r3, [r2, #48]	; 0x30
10008afe:	bdf0      	pop	{r4, r5, r6, r7, pc}
10008b00:	6e11      	ldr	r1, [r2, #96]	; 0x60
10008b02:	688c      	ldr	r4, [r1, #8]
10008b04:	61d9      	str	r1, [r3, #28]
10008b06:	621c      	str	r4, [r3, #32]
10008b08:	688c      	ldr	r4, [r1, #8]
10008b0a:	6060      	str	r0, [r4, #4]
10008b0c:	6088      	str	r0, [r1, #8]
10008b0e:	0011      	movs	r1, r2
10008b10:	315c      	adds	r1, #92	; 0x5c
10008b12:	6299      	str	r1, [r3, #40]	; 0x28
10008b14:	6dd1      	ldr	r1, [r2, #92]	; 0x5c
10008b16:	3101      	adds	r1, #1
10008b18:	65d1      	str	r1, [r2, #92]	; 0x5c
10008b1a:	6ad9      	ldr	r1, [r3, #44]	; 0x2c
10008b1c:	e7e7      	b.n	10008aee <xTaskRemoveFromEventList+0x76>
10008b1e:	62d1      	str	r1, [r2, #44]	; 0x2c
10008b20:	e7d1      	b.n	10008ac6 <xTaskRemoveFromEventList+0x4e>
10008b22:	6051      	str	r1, [r2, #4]
10008b24:	e7b5      	b.n	10008a92 <xTaskRemoveFromEventList+0x1a>
10008b26:	6808      	ldr	r0, [r1, #0]
10008b28:	604c      	str	r4, [r1, #4]
10008b2a:	3801      	subs	r0, #1
10008b2c:	6008      	str	r0, [r1, #0]
10008b2e:	6ad0      	ldr	r0, [r2, #44]	; 0x2c
10008b30:	6ad9      	ldr	r1, [r3, #44]	; 0x2c
10008b32:	4281      	cmp	r1, r0
10008b34:	d9c7      	bls.n	10008ac6 <xTaskRemoveFromEventList+0x4e>
10008b36:	e7f2      	b.n	10008b1e <xTaskRemoveFromEventList+0xa6>
10008b38:	200010d4 	.word	0x200010d4
10008b3c:	20001054 	.word	0x20001054

10008b40 <vTaskRemoveFromUnorderedEventList>:
10008b40:	2380      	movs	r3, #128	; 0x80
10008b42:	061b      	lsls	r3, r3, #24
10008b44:	b5f0      	push	{r4, r5, r6, r7, lr}
10008b46:	430b      	orrs	r3, r1
10008b48:	6884      	ldr	r4, [r0, #8]
10008b4a:	6841      	ldr	r1, [r0, #4]
10008b4c:	6902      	ldr	r2, [r0, #16]
10008b4e:	6003      	str	r3, [r0, #0]
10008b50:	68c3      	ldr	r3, [r0, #12]
10008b52:	608c      	str	r4, [r1, #8]
10008b54:	6884      	ldr	r4, [r0, #8]
10008b56:	6061      	str	r1, [r4, #4]
10008b58:	6851      	ldr	r1, [r2, #4]
10008b5a:	4281      	cmp	r1, r0
10008b5c:	d032      	beq.n	10008bc4 <vTaskRemoveFromUnorderedEventList+0x84>
10008b5e:	2100      	movs	r1, #0
10008b60:	6101      	str	r1, [r0, #16]
10008b62:	6811      	ldr	r1, [r2, #0]
10008b64:	68d8      	ldr	r0, [r3, #12]
10008b66:	3901      	subs	r1, #1
10008b68:	6011      	str	r1, [r2, #0]
10008b6a:	6899      	ldr	r1, [r3, #8]
10008b6c:	695a      	ldr	r2, [r3, #20]
10008b6e:	6088      	str	r0, [r1, #8]
10008b70:	68d8      	ldr	r0, [r3, #12]
10008b72:	1d1f      	adds	r7, r3, #4
10008b74:	6041      	str	r1, [r0, #4]
10008b76:	6851      	ldr	r1, [r2, #4]
10008b78:	42b9      	cmp	r1, r7
10008b7a:	d025      	beq.n	10008bc8 <vTaskRemoveFromUnorderedEventList+0x88>
10008b7c:	6811      	ldr	r1, [r2, #0]
10008b7e:	4d13      	ldr	r5, [pc, #76]	; (10008bcc <vTaskRemoveFromUnorderedEventList+0x8c>)
10008b80:	3901      	subs	r1, #1
10008b82:	6011      	str	r1, [r2, #0]
10008b84:	6ad8      	ldr	r0, [r3, #44]	; 0x2c
10008b86:	6aea      	ldr	r2, [r5, #44]	; 0x2c
10008b88:	4290      	cmp	r0, r2
10008b8a:	d900      	bls.n	10008b8e <vTaskRemoveFromUnorderedEventList+0x4e>
10008b8c:	62e8      	str	r0, [r5, #44]	; 0x2c
10008b8e:	4a10      	ldr	r2, [pc, #64]	; (10008bd0 <vTaskRemoveFromUnorderedEventList+0x90>)
10008b90:	0081      	lsls	r1, r0, #2
10008b92:	4694      	mov	ip, r2
10008b94:	1809      	adds	r1, r1, r0
10008b96:	0089      	lsls	r1, r1, #2
10008b98:	1856      	adds	r6, r2, r1
10008b9a:	6a34      	ldr	r4, [r6, #32]
10008b9c:	68a2      	ldr	r2, [r4, #8]
10008b9e:	609c      	str	r4, [r3, #8]
10008ba0:	60da      	str	r2, [r3, #12]
10008ba2:	68a2      	ldr	r2, [r4, #8]
10008ba4:	6057      	str	r7, [r2, #4]
10008ba6:	4662      	mov	r2, ip
10008ba8:	321c      	adds	r2, #28
10008baa:	1852      	adds	r2, r2, r1
10008bac:	60a7      	str	r7, [r4, #8]
10008bae:	615a      	str	r2, [r3, #20]
10008bb0:	69f3      	ldr	r3, [r6, #28]
10008bb2:	3301      	adds	r3, #1
10008bb4:	61f3      	str	r3, [r6, #28]
10008bb6:	686b      	ldr	r3, [r5, #4]
10008bb8:	6adb      	ldr	r3, [r3, #44]	; 0x2c
10008bba:	4298      	cmp	r0, r3
10008bbc:	d901      	bls.n	10008bc2 <vTaskRemoveFromUnorderedEventList+0x82>
10008bbe:	2301      	movs	r3, #1
10008bc0:	632b      	str	r3, [r5, #48]	; 0x30
10008bc2:	bdf0      	pop	{r4, r5, r6, r7, pc}
10008bc4:	6054      	str	r4, [r2, #4]
10008bc6:	e7ca      	b.n	10008b5e <vTaskRemoveFromUnorderedEventList+0x1e>
10008bc8:	6050      	str	r0, [r2, #4]
10008bca:	e7d7      	b.n	10008b7c <vTaskRemoveFromUnorderedEventList+0x3c>
10008bcc:	200010d4 	.word	0x200010d4
10008bd0:	20001054 	.word	0x20001054

10008bd4 <vTaskSetTimeOutState>:
10008bd4:	b510      	push	{r4, lr}
10008bd6:	0004      	movs	r4, r0
10008bd8:	f000 fda4 	bl	10009724 <vPortEnterCritical>
10008bdc:	4b03      	ldr	r3, [pc, #12]	; (10008bec <vTaskSetTimeOutState+0x18>)
10008bde:	6a9a      	ldr	r2, [r3, #40]	; 0x28
10008be0:	681b      	ldr	r3, [r3, #0]
10008be2:	6022      	str	r2, [r4, #0]
10008be4:	6063      	str	r3, [r4, #4]
10008be6:	f000 fda9 	bl	1000973c <vPortExitCritical>
10008bea:	bd10      	pop	{r4, pc}
10008bec:	200010d4 	.word	0x200010d4

10008bf0 <vTaskInternalSetTimeOutState>:
10008bf0:	4b02      	ldr	r3, [pc, #8]	; (10008bfc <vTaskInternalSetTimeOutState+0xc>)
10008bf2:	6a9a      	ldr	r2, [r3, #40]	; 0x28
10008bf4:	681b      	ldr	r3, [r3, #0]
10008bf6:	6002      	str	r2, [r0, #0]
10008bf8:	6043      	str	r3, [r0, #4]
10008bfa:	4770      	bx	lr
10008bfc:	200010d4 	.word	0x200010d4

10008c00 <xTaskCheckForTimeOut>:
10008c00:	b5f8      	push	{r3, r4, r5, r6, r7, lr}
10008c02:	000d      	movs	r5, r1
10008c04:	0004      	movs	r4, r0
10008c06:	f000 fd8d 	bl	10009724 <vPortEnterCritical>
10008c0a:	4a10      	ldr	r2, [pc, #64]	; (10008c4c <xTaskCheckForTimeOut+0x4c>)
10008c0c:	682b      	ldr	r3, [r5, #0]
10008c0e:	6811      	ldr	r1, [r2, #0]
10008c10:	1c58      	adds	r0, r3, #1
10008c12:	d019      	beq.n	10008c48 <xTaskCheckForTimeOut+0x48>
10008c14:	6a96      	ldr	r6, [r2, #40]	; 0x28
10008c16:	6827      	ldr	r7, [r4, #0]
10008c18:	6860      	ldr	r0, [r4, #4]
10008c1a:	42b7      	cmp	r7, r6
10008c1c:	d008      	beq.n	10008c30 <xTaskCheckForTimeOut+0x30>
10008c1e:	4288      	cmp	r0, r1
10008c20:	d806      	bhi.n	10008c30 <xTaskCheckForTimeOut+0x30>
10008c22:	2300      	movs	r3, #0
10008c24:	2401      	movs	r4, #1
10008c26:	602b      	str	r3, [r5, #0]
10008c28:	f000 fd88 	bl	1000973c <vPortExitCritical>
10008c2c:	0020      	movs	r0, r4
10008c2e:	bdf8      	pop	{r3, r4, r5, r6, r7, pc}
10008c30:	1a0e      	subs	r6, r1, r0
10008c32:	42b3      	cmp	r3, r6
10008c34:	d9f5      	bls.n	10008c22 <xTaskCheckForTimeOut+0x22>
10008c36:	1a5b      	subs	r3, r3, r1
10008c38:	181b      	adds	r3, r3, r0
10008c3a:	602b      	str	r3, [r5, #0]
10008c3c:	6a93      	ldr	r3, [r2, #40]	; 0x28
10008c3e:	6023      	str	r3, [r4, #0]
10008c40:	6813      	ldr	r3, [r2, #0]
10008c42:	6063      	str	r3, [r4, #4]
10008c44:	2400      	movs	r4, #0
10008c46:	e7ef      	b.n	10008c28 <xTaskCheckForTimeOut+0x28>
10008c48:	2400      	movs	r4, #0
10008c4a:	e7ed      	b.n	10008c28 <xTaskCheckForTimeOut+0x28>
10008c4c:	200010d4 	.word	0x200010d4

10008c50 <vTaskMissedYield>:
10008c50:	2201      	movs	r2, #1
10008c52:	4b01      	ldr	r3, [pc, #4]	; (10008c58 <vTaskMissedYield+0x8>)
10008c54:	631a      	str	r2, [r3, #48]	; 0x30
10008c56:	4770      	bx	lr
10008c58:	200010d4 	.word	0x200010d4

10008c5c <vTaskSetThreadLocalStoragePointer>:
10008c5c:	2904      	cmp	r1, #4
10008c5e:	d805      	bhi.n	10008c6c <vTaskSetThreadLocalStoragePointer+0x10>
10008c60:	2800      	cmp	r0, #0
10008c62:	d004      	beq.n	10008c6e <vTaskSetThreadLocalStoragePointer+0x12>
10008c64:	3110      	adds	r1, #16
10008c66:	0089      	lsls	r1, r1, #2
10008c68:	1841      	adds	r1, r0, r1
10008c6a:	604a      	str	r2, [r1, #4]
10008c6c:	4770      	bx	lr
10008c6e:	4b01      	ldr	r3, [pc, #4]	; (10008c74 <vTaskSetThreadLocalStoragePointer+0x18>)
10008c70:	6858      	ldr	r0, [r3, #4]
10008c72:	e7f7      	b.n	10008c64 <vTaskSetThreadLocalStoragePointer+0x8>
10008c74:	200010d4 	.word	0x200010d4

10008c78 <pvTaskGetThreadLocalStoragePointer>:
10008c78:	2904      	cmp	r1, #4
10008c7a:	d809      	bhi.n	10008c90 <pvTaskGetThreadLocalStoragePointer+0x18>
10008c7c:	2800      	cmp	r0, #0
10008c7e:	d004      	beq.n	10008c8a <pvTaskGetThreadLocalStoragePointer+0x12>
10008c80:	3110      	adds	r1, #16
10008c82:	0089      	lsls	r1, r1, #2
10008c84:	1841      	adds	r1, r0, r1
10008c86:	6848      	ldr	r0, [r1, #4]
10008c88:	4770      	bx	lr
10008c8a:	4b02      	ldr	r3, [pc, #8]	; (10008c94 <pvTaskGetThreadLocalStoragePointer+0x1c>)
10008c8c:	6858      	ldr	r0, [r3, #4]
10008c8e:	e7f7      	b.n	10008c80 <pvTaskGetThreadLocalStoragePointer+0x8>
10008c90:	2000      	movs	r0, #0
10008c92:	e7f9      	b.n	10008c88 <pvTaskGetThreadLocalStoragePointer+0x10>
10008c94:	200010d4 	.word	0x200010d4

10008c98 <xTaskGetCurrentTaskHandle>:
10008c98:	4b01      	ldr	r3, [pc, #4]	; (10008ca0 <xTaskGetCurrentTaskHandle+0x8>)
10008c9a:	6858      	ldr	r0, [r3, #4]
10008c9c:	4770      	bx	lr
10008c9e:	46c0      	nop			; (mov r8, r8)
10008ca0:	200010d4 	.word	0x200010d4

10008ca4 <xTaskGetSchedulerState>:
10008ca4:	4b04      	ldr	r3, [pc, #16]	; (10008cb8 <xTaskGetSchedulerState+0x14>)
10008ca6:	2001      	movs	r0, #1
10008ca8:	6f1a      	ldr	r2, [r3, #112]	; 0x70
10008caa:	2a00      	cmp	r2, #0
10008cac:	d003      	beq.n	10008cb6 <xTaskGetSchedulerState+0x12>
10008cae:	6f98      	ldr	r0, [r3, #120]	; 0x78
10008cb0:	4243      	negs	r3, r0
10008cb2:	4158      	adcs	r0, r3
10008cb4:	0040      	lsls	r0, r0, #1
10008cb6:	4770      	bx	lr
10008cb8:	200010d4 	.word	0x200010d4

10008cbc <uxTaskResetEventItemValue>:
10008cbc:	4b04      	ldr	r3, [pc, #16]	; (10008cd0 <uxTaskResetEventItemValue+0x14>)
10008cbe:	685a      	ldr	r2, [r3, #4]
10008cc0:	6859      	ldr	r1, [r3, #4]
10008cc2:	6990      	ldr	r0, [r2, #24]
10008cc4:	685a      	ldr	r2, [r3, #4]
10008cc6:	2305      	movs	r3, #5
10008cc8:	6ac9      	ldr	r1, [r1, #44]	; 0x2c
10008cca:	1a5b      	subs	r3, r3, r1
10008ccc:	6193      	str	r3, [r2, #24]
10008cce:	4770      	bx	lr
10008cd0:	200010d4 	.word	0x200010d4

10008cd4 <ulTaskGenericNotifyTake>:
10008cd4:	b5f0      	push	{r4, r5, r6, r7, lr}
10008cd6:	0004      	movs	r4, r0
10008cd8:	46c6      	mov	lr, r8
10008cda:	0025      	movs	r5, r4
10008cdc:	b500      	push	{lr}
10008cde:	0017      	movs	r7, r2
10008ce0:	4688      	mov	r8, r1
10008ce2:	f000 fd1f 	bl	10009724 <vPortEnterCritical>
10008ce6:	4e19      	ldr	r6, [pc, #100]	; (10008d4c <ulTaskGenericNotifyTake+0x78>)
10008ce8:	3516      	adds	r5, #22
10008cea:	6873      	ldr	r3, [r6, #4]
10008cec:	00aa      	lsls	r2, r5, #2
10008cee:	58d3      	ldr	r3, [r2, r3]
10008cf0:	2b00      	cmp	r3, #0
10008cf2:	d106      	bne.n	10008d02 <ulTaskGenericNotifyTake+0x2e>
10008cf4:	2201      	movs	r2, #1
10008cf6:	6873      	ldr	r3, [r6, #4]
10008cf8:	191b      	adds	r3, r3, r4
10008cfa:	3364      	adds	r3, #100	; 0x64
10008cfc:	701a      	strb	r2, [r3, #0]
10008cfe:	2f00      	cmp	r7, #0
10008d00:	d11d      	bne.n	10008d3e <ulTaskGenericNotifyTake+0x6a>
10008d02:	f000 fd1b 	bl	1000973c <vPortExitCritical>
10008d06:	f000 fd0d 	bl	10009724 <vPortEnterCritical>
10008d0a:	6873      	ldr	r3, [r6, #4]
10008d0c:	00ad      	lsls	r5, r5, #2
10008d0e:	58ef      	ldr	r7, [r5, r3]
10008d10:	2f00      	cmp	r7, #0
10008d12:	d005      	beq.n	10008d20 <ulTaskGenericNotifyTake+0x4c>
10008d14:	4643      	mov	r3, r8
10008d16:	2b00      	cmp	r3, #0
10008d18:	d00d      	beq.n	10008d36 <ulTaskGenericNotifyTake+0x62>
10008d1a:	2200      	movs	r2, #0
10008d1c:	6873      	ldr	r3, [r6, #4]
10008d1e:	50ea      	str	r2, [r5, r3]
10008d20:	2300      	movs	r3, #0
10008d22:	6870      	ldr	r0, [r6, #4]
10008d24:	1900      	adds	r0, r0, r4
10008d26:	3064      	adds	r0, #100	; 0x64
10008d28:	7003      	strb	r3, [r0, #0]
10008d2a:	f000 fd07 	bl	1000973c <vPortExitCritical>
10008d2e:	0038      	movs	r0, r7
10008d30:	bc80      	pop	{r7}
10008d32:	46b8      	mov	r8, r7
10008d34:	bdf0      	pop	{r4, r5, r6, r7, pc}
10008d36:	6873      	ldr	r3, [r6, #4]
10008d38:	1e7a      	subs	r2, r7, #1
10008d3a:	50ea      	str	r2, [r5, r3]
10008d3c:	e7f0      	b.n	10008d20 <ulTaskGenericNotifyTake+0x4c>
10008d3e:	2101      	movs	r1, #1
10008d40:	0038      	movs	r0, r7
10008d42:	f7fe ff87 	bl	10007c54 <prvAddCurrentTaskToDelayedList>
10008d46:	f000 fce1 	bl	1000970c <vPortYield>
10008d4a:	e7da      	b.n	10008d02 <ulTaskGenericNotifyTake+0x2e>
10008d4c:	200010d4 	.word	0x200010d4

10008d50 <xTaskGenericNotifyWait>:
10008d50:	b5f0      	push	{r4, r5, r6, r7, lr}
10008d52:	46c6      	mov	lr, r8
10008d54:	0004      	movs	r4, r0
10008d56:	b500      	push	{lr}
10008d58:	001f      	movs	r7, r3
10008d5a:	4688      	mov	r8, r1
10008d5c:	0016      	movs	r6, r2
10008d5e:	f000 fce1 	bl	10009724 <vPortEnterCritical>
10008d62:	4d21      	ldr	r5, [pc, #132]	; (10008de8 <xTaskGenericNotifyWait+0x98>)
10008d64:	6868      	ldr	r0, [r5, #4]
10008d66:	1900      	adds	r0, r0, r4
10008d68:	3064      	adds	r0, #100	; 0x64
10008d6a:	7803      	ldrb	r3, [r0, #0]
10008d6c:	2b02      	cmp	r3, #2
10008d6e:	d00e      	beq.n	10008d8e <xTaskGenericNotifyWait+0x3e>
10008d70:	4641      	mov	r1, r8
10008d72:	686b      	ldr	r3, [r5, #4]
10008d74:	00a2      	lsls	r2, r4, #2
10008d76:	189b      	adds	r3, r3, r2
10008d78:	6d9a      	ldr	r2, [r3, #88]	; 0x58
10008d7a:	438a      	bics	r2, r1
10008d7c:	659a      	str	r2, [r3, #88]	; 0x58
10008d7e:	2201      	movs	r2, #1
10008d80:	686b      	ldr	r3, [r5, #4]
10008d82:	191b      	adds	r3, r3, r4
10008d84:	3364      	adds	r3, #100	; 0x64
10008d86:	701a      	strb	r2, [r3, #0]
10008d88:	9b06      	ldr	r3, [sp, #24]
10008d8a:	2b00      	cmp	r3, #0
10008d8c:	d124      	bne.n	10008dd8 <xTaskGenericNotifyWait+0x88>
10008d8e:	f000 fcd5 	bl	1000973c <vPortExitCritical>
10008d92:	f000 fcc7 	bl	10009724 <vPortEnterCritical>
10008d96:	2f00      	cmp	r7, #0
10008d98:	d005      	beq.n	10008da6 <xTaskGenericNotifyWait+0x56>
10008d9a:	0023      	movs	r3, r4
10008d9c:	686a      	ldr	r2, [r5, #4]
10008d9e:	3316      	adds	r3, #22
10008da0:	009b      	lsls	r3, r3, #2
10008da2:	589b      	ldr	r3, [r3, r2]
10008da4:	603b      	str	r3, [r7, #0]
10008da6:	686b      	ldr	r3, [r5, #4]
10008da8:	2700      	movs	r7, #0
10008daa:	191b      	adds	r3, r3, r4
10008dac:	3364      	adds	r3, #100	; 0x64
10008dae:	781b      	ldrb	r3, [r3, #0]
10008db0:	2b02      	cmp	r3, #2
10008db2:	d106      	bne.n	10008dc2 <xTaskGenericNotifyWait+0x72>
10008db4:	686b      	ldr	r3, [r5, #4]
10008db6:	00a2      	lsls	r2, r4, #2
10008db8:	189b      	adds	r3, r3, r2
10008dba:	6d9a      	ldr	r2, [r3, #88]	; 0x58
10008dbc:	3701      	adds	r7, #1
10008dbe:	43b2      	bics	r2, r6
10008dc0:	659a      	str	r2, [r3, #88]	; 0x58
10008dc2:	2300      	movs	r3, #0
10008dc4:	6868      	ldr	r0, [r5, #4]
10008dc6:	1904      	adds	r4, r0, r4
10008dc8:	3464      	adds	r4, #100	; 0x64
10008dca:	7023      	strb	r3, [r4, #0]
10008dcc:	f000 fcb6 	bl	1000973c <vPortExitCritical>
10008dd0:	0038      	movs	r0, r7
10008dd2:	bc80      	pop	{r7}
10008dd4:	46b8      	mov	r8, r7
10008dd6:	bdf0      	pop	{r4, r5, r6, r7, pc}
10008dd8:	2101      	movs	r1, #1
10008dda:	0018      	movs	r0, r3
10008ddc:	f7fe ff3a 	bl	10007c54 <prvAddCurrentTaskToDelayedList>
10008de0:	f000 fc94 	bl	1000970c <vPortYield>
10008de4:	e7d3      	b.n	10008d8e <xTaskGenericNotifyWait+0x3e>
10008de6:	46c0      	nop			; (mov r8, r8)
10008de8:	200010d4 	.word	0x200010d4

10008dec <xTaskGenericNotify>:
10008dec:	b5f0      	push	{r4, r5, r6, r7, lr}
10008dee:	46c6      	mov	lr, r8
10008df0:	b500      	push	{lr}
10008df2:	9d06      	ldr	r5, [sp, #24]
10008df4:	0006      	movs	r6, r0
10008df6:	000c      	movs	r4, r1
10008df8:	4690      	mov	r8, r2
10008dfa:	001f      	movs	r7, r3
10008dfc:	f000 fc92 	bl	10009724 <vPortEnterCritical>
10008e00:	2d00      	cmp	r5, #0
10008e02:	d004      	beq.n	10008e0e <xTaskGenericNotify+0x22>
10008e04:	0023      	movs	r3, r4
10008e06:	3316      	adds	r3, #22
10008e08:	009b      	lsls	r3, r3, #2
10008e0a:	599b      	ldr	r3, [r3, r6]
10008e0c:	602b      	str	r3, [r5, #0]
10008e0e:	2302      	movs	r3, #2
10008e10:	1931      	adds	r1, r6, r4
10008e12:	3164      	adds	r1, #100	; 0x64
10008e14:	780d      	ldrb	r5, [r1, #0]
10008e16:	700b      	strb	r3, [r1, #0]
10008e18:	b2ed      	uxtb	r5, r5
10008e1a:	2f03      	cmp	r7, #3
10008e1c:	d016      	beq.n	10008e4c <xTaskGenericNotify+0x60>
10008e1e:	d811      	bhi.n	10008e44 <xTaskGenericNotify+0x58>
10008e20:	2f01      	cmp	r7, #1
10008e22:	d046      	beq.n	10008eb2 <xTaskGenericNotify+0xc6>
10008e24:	2f02      	cmp	r7, #2
10008e26:	d104      	bne.n	10008e32 <xTaskGenericNotify+0x46>
10008e28:	00a4      	lsls	r4, r4, #2
10008e2a:	1934      	adds	r4, r6, r4
10008e2c:	6da3      	ldr	r3, [r4, #88]	; 0x58
10008e2e:	3301      	adds	r3, #1
10008e30:	65a3      	str	r3, [r4, #88]	; 0x58
10008e32:	2d01      	cmp	r5, #1
10008e34:	d010      	beq.n	10008e58 <xTaskGenericNotify+0x6c>
10008e36:	2401      	movs	r4, #1
10008e38:	f000 fc80 	bl	1000973c <vPortExitCritical>
10008e3c:	0020      	movs	r0, r4
10008e3e:	bc80      	pop	{r7}
10008e40:	46b8      	mov	r8, r7
10008e42:	bdf0      	pop	{r4, r5, r6, r7, pc}
10008e44:	2f04      	cmp	r7, #4
10008e46:	d1f4      	bne.n	10008e32 <xTaskGenericNotify+0x46>
10008e48:	2d02      	cmp	r5, #2
10008e4a:	d03b      	beq.n	10008ec4 <xTaskGenericNotify+0xd8>
10008e4c:	4643      	mov	r3, r8
10008e4e:	3416      	adds	r4, #22
10008e50:	00a4      	lsls	r4, r4, #2
10008e52:	51a3      	str	r3, [r4, r6]
10008e54:	2d01      	cmp	r5, #1
10008e56:	d1ee      	bne.n	10008e36 <xTaskGenericNotify+0x4a>
10008e58:	6973      	ldr	r3, [r6, #20]
10008e5a:	68b1      	ldr	r1, [r6, #8]
10008e5c:	68f2      	ldr	r2, [r6, #12]
10008e5e:	1d37      	adds	r7, r6, #4
10008e60:	608a      	str	r2, [r1, #8]
10008e62:	6051      	str	r1, [r2, #4]
10008e64:	6859      	ldr	r1, [r3, #4]
10008e66:	42b9      	cmp	r1, r7
10008e68:	d02e      	beq.n	10008ec8 <xTaskGenericNotify+0xdc>
10008e6a:	681a      	ldr	r2, [r3, #0]
10008e6c:	4d17      	ldr	r5, [pc, #92]	; (10008ecc <xTaskGenericNotify+0xe0>)
10008e6e:	3a01      	subs	r2, #1
10008e70:	601a      	str	r2, [r3, #0]
10008e72:	6af1      	ldr	r1, [r6, #44]	; 0x2c
10008e74:	6aeb      	ldr	r3, [r5, #44]	; 0x2c
10008e76:	4299      	cmp	r1, r3
10008e78:	d900      	bls.n	10008e7c <xTaskGenericNotify+0x90>
10008e7a:	62e9      	str	r1, [r5, #44]	; 0x2c
10008e7c:	4b14      	ldr	r3, [pc, #80]	; (10008ed0 <xTaskGenericNotify+0xe4>)
10008e7e:	008a      	lsls	r2, r1, #2
10008e80:	469c      	mov	ip, r3
10008e82:	1852      	adds	r2, r2, r1
10008e84:	0092      	lsls	r2, r2, #2
10008e86:	189c      	adds	r4, r3, r2
10008e88:	6a20      	ldr	r0, [r4, #32]
10008e8a:	6883      	ldr	r3, [r0, #8]
10008e8c:	60b0      	str	r0, [r6, #8]
10008e8e:	60f3      	str	r3, [r6, #12]
10008e90:	6883      	ldr	r3, [r0, #8]
10008e92:	605f      	str	r7, [r3, #4]
10008e94:	4663      	mov	r3, ip
10008e96:	331c      	adds	r3, #28
10008e98:	189b      	adds	r3, r3, r2
10008e9a:	6087      	str	r7, [r0, #8]
10008e9c:	6173      	str	r3, [r6, #20]
10008e9e:	69e3      	ldr	r3, [r4, #28]
10008ea0:	3301      	adds	r3, #1
10008ea2:	61e3      	str	r3, [r4, #28]
10008ea4:	686b      	ldr	r3, [r5, #4]
10008ea6:	6adb      	ldr	r3, [r3, #44]	; 0x2c
10008ea8:	4299      	cmp	r1, r3
10008eaa:	d9c4      	bls.n	10008e36 <xTaskGenericNotify+0x4a>
10008eac:	f000 fc2e 	bl	1000970c <vPortYield>
10008eb0:	e7c1      	b.n	10008e36 <xTaskGenericNotify+0x4a>
10008eb2:	4647      	mov	r7, r8
10008eb4:	00a4      	lsls	r4, r4, #2
10008eb6:	1934      	adds	r4, r6, r4
10008eb8:	6da2      	ldr	r2, [r4, #88]	; 0x58
10008eba:	4317      	orrs	r7, r2
10008ebc:	65a7      	str	r7, [r4, #88]	; 0x58
10008ebe:	2d01      	cmp	r5, #1
10008ec0:	d1b9      	bne.n	10008e36 <xTaskGenericNotify+0x4a>
10008ec2:	e7c9      	b.n	10008e58 <xTaskGenericNotify+0x6c>
10008ec4:	2400      	movs	r4, #0
10008ec6:	e7b7      	b.n	10008e38 <xTaskGenericNotify+0x4c>
10008ec8:	605a      	str	r2, [r3, #4]
10008eca:	e7ce      	b.n	10008e6a <xTaskGenericNotify+0x7e>
10008ecc:	200010d4 	.word	0x200010d4
10008ed0:	20001054 	.word	0x20001054

10008ed4 <xTaskGenericNotifyFromISR>:
10008ed4:	b5f8      	push	{r3, r4, r5, r6, r7, lr}
10008ed6:	4647      	mov	r7, r8
10008ed8:	46ce      	mov	lr, r9
10008eda:	b580      	push	{r7, lr}
10008edc:	9f08      	ldr	r7, [sp, #32]
10008ede:	0006      	movs	r6, r0
10008ee0:	000c      	movs	r4, r1
10008ee2:	4690      	mov	r8, r2
10008ee4:	001d      	movs	r5, r3
10008ee6:	f000 fc33 	bl	10009750 <ulSetInterruptMaskFromISR>
10008eea:	2f00      	cmp	r7, #0
10008eec:	d004      	beq.n	10008ef8 <xTaskGenericNotifyFromISR+0x24>
10008eee:	0023      	movs	r3, r4
10008ef0:	3316      	adds	r3, #22
10008ef2:	009b      	lsls	r3, r3, #2
10008ef4:	599b      	ldr	r3, [r3, r6]
10008ef6:	603b      	str	r3, [r7, #0]
10008ef8:	2202      	movs	r2, #2
10008efa:	1933      	adds	r3, r6, r4
10008efc:	3364      	adds	r3, #100	; 0x64
10008efe:	781f      	ldrb	r7, [r3, #0]
10008f00:	701a      	strb	r2, [r3, #0]
10008f02:	b2ff      	uxtb	r7, r7
10008f04:	2d03      	cmp	r5, #3
10008f06:	d017      	beq.n	10008f38 <xTaskGenericNotifyFromISR+0x64>
10008f08:	d812      	bhi.n	10008f30 <xTaskGenericNotifyFromISR+0x5c>
10008f0a:	2d01      	cmp	r5, #1
10008f0c:	d03b      	beq.n	10008f86 <xTaskGenericNotifyFromISR+0xb2>
10008f0e:	2d02      	cmp	r5, #2
10008f10:	d104      	bne.n	10008f1c <xTaskGenericNotifyFromISR+0x48>
10008f12:	00a4      	lsls	r4, r4, #2
10008f14:	1934      	adds	r4, r6, r4
10008f16:	6da3      	ldr	r3, [r4, #88]	; 0x58
10008f18:	3301      	adds	r3, #1
10008f1a:	65a3      	str	r3, [r4, #88]	; 0x58
10008f1c:	2f01      	cmp	r7, #1
10008f1e:	d011      	beq.n	10008f44 <xTaskGenericNotifyFromISR+0x70>
10008f20:	2401      	movs	r4, #1
10008f22:	f000 fc19 	bl	10009758 <vClearInterruptMaskFromISR>
10008f26:	0020      	movs	r0, r4
10008f28:	bcc0      	pop	{r6, r7}
10008f2a:	46b9      	mov	r9, r7
10008f2c:	46b0      	mov	r8, r6
10008f2e:	bdf8      	pop	{r3, r4, r5, r6, r7, pc}
10008f30:	2d04      	cmp	r5, #4
10008f32:	d1f3      	bne.n	10008f1c <xTaskGenericNotifyFromISR+0x48>
10008f34:	2f02      	cmp	r7, #2
10008f36:	d059      	beq.n	10008fec <xTaskGenericNotifyFromISR+0x118>
10008f38:	4643      	mov	r3, r8
10008f3a:	3416      	adds	r4, #22
10008f3c:	00a4      	lsls	r4, r4, #2
10008f3e:	51a3      	str	r3, [r4, r6]
10008f40:	2f01      	cmp	r7, #1
10008f42:	d1ed      	bne.n	10008f20 <xTaskGenericNotifyFromISR+0x4c>
10008f44:	4b2b      	ldr	r3, [pc, #172]	; (10008ff4 <xTaskGenericNotifyFromISR+0x120>)
10008f46:	6f9a      	ldr	r2, [r3, #120]	; 0x78
10008f48:	2a00      	cmp	r2, #0
10008f4a:	d025      	beq.n	10008f98 <xTaskGenericNotifyFromISR+0xc4>
10008f4c:	6e1a      	ldr	r2, [r3, #96]	; 0x60
10008f4e:	6891      	ldr	r1, [r2, #8]
10008f50:	61f2      	str	r2, [r6, #28]
10008f52:	6231      	str	r1, [r6, #32]
10008f54:	0031      	movs	r1, r6
10008f56:	6894      	ldr	r4, [r2, #8]
10008f58:	3118      	adds	r1, #24
10008f5a:	6061      	str	r1, [r4, #4]
10008f5c:	6091      	str	r1, [r2, #8]
10008f5e:	001a      	movs	r2, r3
10008f60:	325c      	adds	r2, #92	; 0x5c
10008f62:	62b2      	str	r2, [r6, #40]	; 0x28
10008f64:	6dda      	ldr	r2, [r3, #92]	; 0x5c
10008f66:	3201      	adds	r2, #1
10008f68:	65da      	str	r2, [r3, #92]	; 0x5c
10008f6a:	6af2      	ldr	r2, [r6, #44]	; 0x2c
10008f6c:	6859      	ldr	r1, [r3, #4]
10008f6e:	6ac9      	ldr	r1, [r1, #44]	; 0x2c
10008f70:	4291      	cmp	r1, r2
10008f72:	d2d5      	bcs.n	10008f20 <xTaskGenericNotifyFromISR+0x4c>
10008f74:	9a09      	ldr	r2, [sp, #36]	; 0x24
10008f76:	2a00      	cmp	r2, #0
10008f78:	d002      	beq.n	10008f80 <xTaskGenericNotifyFromISR+0xac>
10008f7a:	0011      	movs	r1, r2
10008f7c:	2201      	movs	r2, #1
10008f7e:	600a      	str	r2, [r1, #0]
10008f80:	2201      	movs	r2, #1
10008f82:	631a      	str	r2, [r3, #48]	; 0x30
10008f84:	e7cc      	b.n	10008f20 <xTaskGenericNotifyFromISR+0x4c>
10008f86:	4643      	mov	r3, r8
10008f88:	00a4      	lsls	r4, r4, #2
10008f8a:	1934      	adds	r4, r6, r4
10008f8c:	6da2      	ldr	r2, [r4, #88]	; 0x58
10008f8e:	431a      	orrs	r2, r3
10008f90:	65a2      	str	r2, [r4, #88]	; 0x58
10008f92:	2f01      	cmp	r7, #1
10008f94:	d1c4      	bne.n	10008f20 <xTaskGenericNotifyFromISR+0x4c>
10008f96:	e7d5      	b.n	10008f44 <xTaskGenericNotifyFromISR+0x70>
10008f98:	68b4      	ldr	r4, [r6, #8]
10008f9a:	68f1      	ldr	r1, [r6, #12]
10008f9c:	6972      	ldr	r2, [r6, #20]
10008f9e:	60a1      	str	r1, [r4, #8]
10008fa0:	604c      	str	r4, [r1, #4]
10008fa2:	1d34      	adds	r4, r6, #4
10008fa4:	46a0      	mov	r8, r4
10008fa6:	6854      	ldr	r4, [r2, #4]
10008fa8:	4544      	cmp	r4, r8
10008faa:	d021      	beq.n	10008ff0 <xTaskGenericNotifyFromISR+0x11c>
10008fac:	6811      	ldr	r1, [r2, #0]
10008fae:	3901      	subs	r1, #1
10008fb0:	6011      	str	r1, [r2, #0]
10008fb2:	6ad9      	ldr	r1, [r3, #44]	; 0x2c
10008fb4:	6af2      	ldr	r2, [r6, #44]	; 0x2c
10008fb6:	428a      	cmp	r2, r1
10008fb8:	d900      	bls.n	10008fbc <xTaskGenericNotifyFromISR+0xe8>
10008fba:	62da      	str	r2, [r3, #44]	; 0x2c
10008fbc:	490e      	ldr	r1, [pc, #56]	; (10008ff8 <xTaskGenericNotifyFromISR+0x124>)
10008fbe:	0094      	lsls	r4, r2, #2
10008fc0:	468c      	mov	ip, r1
10008fc2:	18a4      	adds	r4, r4, r2
10008fc4:	00a1      	lsls	r1, r4, #2
10008fc6:	4689      	mov	r9, r1
10008fc8:	4667      	mov	r7, ip
10008fca:	4644      	mov	r4, r8
10008fcc:	444f      	add	r7, r9
10008fce:	6a3d      	ldr	r5, [r7, #32]
10008fd0:	68a9      	ldr	r1, [r5, #8]
10008fd2:	60b5      	str	r5, [r6, #8]
10008fd4:	60f1      	str	r1, [r6, #12]
10008fd6:	68a9      	ldr	r1, [r5, #8]
10008fd8:	604c      	str	r4, [r1, #4]
10008fda:	4661      	mov	r1, ip
10008fdc:	311c      	adds	r1, #28
10008fde:	4449      	add	r1, r9
10008fe0:	60ac      	str	r4, [r5, #8]
10008fe2:	6171      	str	r1, [r6, #20]
10008fe4:	69f9      	ldr	r1, [r7, #28]
10008fe6:	3101      	adds	r1, #1
10008fe8:	61f9      	str	r1, [r7, #28]
10008fea:	e7bf      	b.n	10008f6c <xTaskGenericNotifyFromISR+0x98>
10008fec:	2400      	movs	r4, #0
10008fee:	e798      	b.n	10008f22 <xTaskGenericNotifyFromISR+0x4e>
10008ff0:	6051      	str	r1, [r2, #4]
10008ff2:	e7db      	b.n	10008fac <xTaskGenericNotifyFromISR+0xd8>
10008ff4:	200010d4 	.word	0x200010d4
10008ff8:	20001054 	.word	0x20001054

10008ffc <vTaskGenericNotifyGiveFromISR>:
10008ffc:	b5f0      	push	{r4, r5, r6, r7, lr}
10008ffe:	46d6      	mov	lr, sl
10009000:	4646      	mov	r6, r8
10009002:	464f      	mov	r7, r9
10009004:	000c      	movs	r4, r1
10009006:	0005      	movs	r5, r0
10009008:	b5c0      	push	{r6, r7, lr}
1000900a:	0016      	movs	r6, r2
1000900c:	f000 fba0 	bl	10009750 <ulSetInterruptMaskFromISR>
10009010:	2102      	movs	r1, #2
10009012:	192b      	adds	r3, r5, r4
10009014:	3364      	adds	r3, #100	; 0x64
10009016:	00a4      	lsls	r4, r4, #2
10009018:	781a      	ldrb	r2, [r3, #0]
1000901a:	192c      	adds	r4, r5, r4
1000901c:	7019      	strb	r1, [r3, #0]
1000901e:	6da3      	ldr	r3, [r4, #88]	; 0x58
10009020:	3301      	adds	r3, #1
10009022:	65a3      	str	r3, [r4, #88]	; 0x58
10009024:	2a01      	cmp	r2, #1
10009026:	d006      	beq.n	10009036 <vTaskGenericNotifyGiveFromISR+0x3a>
10009028:	f000 fb96 	bl	10009758 <vClearInterruptMaskFromISR>
1000902c:	bce0      	pop	{r5, r6, r7}
1000902e:	46ba      	mov	sl, r7
10009030:	46b1      	mov	r9, r6
10009032:	46a8      	mov	r8, r5
10009034:	bdf0      	pop	{r4, r5, r6, r7, pc}
10009036:	4b27      	ldr	r3, [pc, #156]	; (100090d4 <vTaskGenericNotifyGiveFromISR+0xd8>)
10009038:	6f9a      	ldr	r2, [r3, #120]	; 0x78
1000903a:	2a00      	cmp	r2, #0
1000903c:	d01a      	beq.n	10009074 <vTaskGenericNotifyGiveFromISR+0x78>
1000903e:	6e1a      	ldr	r2, [r3, #96]	; 0x60
10009040:	6891      	ldr	r1, [r2, #8]
10009042:	61ea      	str	r2, [r5, #28]
10009044:	6229      	str	r1, [r5, #32]
10009046:	0029      	movs	r1, r5
10009048:	6894      	ldr	r4, [r2, #8]
1000904a:	3118      	adds	r1, #24
1000904c:	6061      	str	r1, [r4, #4]
1000904e:	6091      	str	r1, [r2, #8]
10009050:	001a      	movs	r2, r3
10009052:	325c      	adds	r2, #92	; 0x5c
10009054:	62aa      	str	r2, [r5, #40]	; 0x28
10009056:	6dda      	ldr	r2, [r3, #92]	; 0x5c
10009058:	3201      	adds	r2, #1
1000905a:	65da      	str	r2, [r3, #92]	; 0x5c
1000905c:	6aea      	ldr	r2, [r5, #44]	; 0x2c
1000905e:	6859      	ldr	r1, [r3, #4]
10009060:	6ac9      	ldr	r1, [r1, #44]	; 0x2c
10009062:	4291      	cmp	r1, r2
10009064:	d2e0      	bcs.n	10009028 <vTaskGenericNotifyGiveFromISR+0x2c>
10009066:	2e00      	cmp	r6, #0
10009068:	d001      	beq.n	1000906e <vTaskGenericNotifyGiveFromISR+0x72>
1000906a:	2201      	movs	r2, #1
1000906c:	6032      	str	r2, [r6, #0]
1000906e:	2201      	movs	r2, #1
10009070:	631a      	str	r2, [r3, #48]	; 0x30
10009072:	e7d9      	b.n	10009028 <vTaskGenericNotifyGiveFromISR+0x2c>
10009074:	68ac      	ldr	r4, [r5, #8]
10009076:	68e9      	ldr	r1, [r5, #12]
10009078:	696a      	ldr	r2, [r5, #20]
1000907a:	60a1      	str	r1, [r4, #8]
1000907c:	604c      	str	r4, [r1, #4]
1000907e:	1d2c      	adds	r4, r5, #4
10009080:	46a4      	mov	ip, r4
10009082:	6854      	ldr	r4, [r2, #4]
10009084:	4564      	cmp	r4, ip
10009086:	d022      	beq.n	100090ce <vTaskGenericNotifyGiveFromISR+0xd2>
10009088:	6811      	ldr	r1, [r2, #0]
1000908a:	3901      	subs	r1, #1
1000908c:	6011      	str	r1, [r2, #0]
1000908e:	6ad9      	ldr	r1, [r3, #44]	; 0x2c
10009090:	6aea      	ldr	r2, [r5, #44]	; 0x2c
10009092:	428a      	cmp	r2, r1
10009094:	d900      	bls.n	10009098 <vTaskGenericNotifyGiveFromISR+0x9c>
10009096:	62da      	str	r2, [r3, #44]	; 0x2c
10009098:	490f      	ldr	r1, [pc, #60]	; (100090d8 <vTaskGenericNotifyGiveFromISR+0xdc>)
1000909a:	0094      	lsls	r4, r2, #2
1000909c:	4689      	mov	r9, r1
1000909e:	18a4      	adds	r4, r4, r2
100090a0:	00a1      	lsls	r1, r4, #2
100090a2:	468a      	mov	sl, r1
100090a4:	4649      	mov	r1, r9
100090a6:	4664      	mov	r4, ip
100090a8:	4451      	add	r1, sl
100090aa:	6a0f      	ldr	r7, [r1, #32]
100090ac:	4688      	mov	r8, r1
100090ae:	68b9      	ldr	r1, [r7, #8]
100090b0:	60af      	str	r7, [r5, #8]
100090b2:	60e9      	str	r1, [r5, #12]
100090b4:	68b9      	ldr	r1, [r7, #8]
100090b6:	604c      	str	r4, [r1, #4]
100090b8:	4649      	mov	r1, r9
100090ba:	311c      	adds	r1, #28
100090bc:	4451      	add	r1, sl
100090be:	60bc      	str	r4, [r7, #8]
100090c0:	6169      	str	r1, [r5, #20]
100090c2:	4641      	mov	r1, r8
100090c4:	4644      	mov	r4, r8
100090c6:	69c9      	ldr	r1, [r1, #28]
100090c8:	3101      	adds	r1, #1
100090ca:	61e1      	str	r1, [r4, #28]
100090cc:	e7c7      	b.n	1000905e <vTaskGenericNotifyGiveFromISR+0x62>
100090ce:	6051      	str	r1, [r2, #4]
100090d0:	e7da      	b.n	10009088 <vTaskGenericNotifyGiveFromISR+0x8c>
100090d2:	46c0      	nop			; (mov r8, r8)
100090d4:	200010d4 	.word	0x200010d4
100090d8:	20001054 	.word	0x20001054

100090dc <xTaskGenericNotifyStateClear>:
100090dc:	b570      	push	{r4, r5, r6, lr}
100090de:	0004      	movs	r4, r0
100090e0:	000d      	movs	r5, r1
100090e2:	2800      	cmp	r0, #0
100090e4:	d00d      	beq.n	10009102 <xTaskGenericNotifyStateClear+0x26>
100090e6:	1964      	adds	r4, r4, r5
100090e8:	3464      	adds	r4, #100	; 0x64
100090ea:	f000 fb1b 	bl	10009724 <vPortEnterCritical>
100090ee:	7823      	ldrb	r3, [r4, #0]
100090f0:	2500      	movs	r5, #0
100090f2:	2b02      	cmp	r3, #2
100090f4:	d101      	bne.n	100090fa <xTaskGenericNotifyStateClear+0x1e>
100090f6:	7025      	strb	r5, [r4, #0]
100090f8:	3501      	adds	r5, #1
100090fa:	f000 fb1f 	bl	1000973c <vPortExitCritical>
100090fe:	0028      	movs	r0, r5
10009100:	bd70      	pop	{r4, r5, r6, pc}
10009102:	4b01      	ldr	r3, [pc, #4]	; (10009108 <xTaskGenericNotifyStateClear+0x2c>)
10009104:	685c      	ldr	r4, [r3, #4]
10009106:	e7ee      	b.n	100090e6 <xTaskGenericNotifyStateClear+0xa>
10009108:	200010d4 	.word	0x200010d4

1000910c <ulTaskGenericNotifyValueClear>:
1000910c:	b570      	push	{r4, r5, r6, lr}
1000910e:	0004      	movs	r4, r0
10009110:	000d      	movs	r5, r1
10009112:	0016      	movs	r6, r2
10009114:	2800      	cmp	r0, #0
10009116:	d00b      	beq.n	10009130 <ulTaskGenericNotifyValueClear+0x24>
10009118:	f000 fb04 	bl	10009724 <vPortEnterCritical>
1000911c:	00a8      	lsls	r0, r5, #2
1000911e:	1820      	adds	r0, r4, r0
10009120:	6d84      	ldr	r4, [r0, #88]	; 0x58
10009122:	6d83      	ldr	r3, [r0, #88]	; 0x58
10009124:	43b3      	bics	r3, r6
10009126:	6583      	str	r3, [r0, #88]	; 0x58
10009128:	f000 fb08 	bl	1000973c <vPortExitCritical>
1000912c:	0020      	movs	r0, r4
1000912e:	bd70      	pop	{r4, r5, r6, pc}
10009130:	4b01      	ldr	r3, [pc, #4]	; (10009138 <ulTaskGenericNotifyValueClear+0x2c>)
10009132:	685c      	ldr	r4, [r3, #4]
10009134:	e7f0      	b.n	10009118 <ulTaskGenericNotifyValueClear+0xc>
10009136:	46c0      	nop			; (mov r8, r8)
10009138:	200010d4 	.word	0x200010d4

1000913c <prvTimerTask>:
1000913c:	b5f0      	push	{r4, r5, r6, r7, lr}
1000913e:	4645      	mov	r5, r8
10009140:	46de      	mov	lr, fp
10009142:	4657      	mov	r7, sl
10009144:	464e      	mov	r6, r9
10009146:	b5e0      	push	{r5, r6, r7, lr}
10009148:	4dc0      	ldr	r5, [pc, #768]	; (1000944c <prvTimerTask+0x310>)
1000914a:	b087      	sub	sp, #28
1000914c:	682b      	ldr	r3, [r5, #0]
1000914e:	681c      	ldr	r4, [r3, #0]
10009150:	2c00      	cmp	r4, #0
10009152:	d100      	bne.n	10009156 <prvTimerTask+0x1a>
10009154:	e0d6      	b.n	10009304 <prvTimerTask+0x1c8>
10009156:	68db      	ldr	r3, [r3, #12]
10009158:	681c      	ldr	r4, [r3, #0]
1000915a:	f7ff fa17 	bl	1000858c <vTaskSuspendAll>
1000915e:	f7ff fb1f 	bl	100087a0 <xTaskGetTickCount>
10009162:	686b      	ldr	r3, [r5, #4]
10009164:	4681      	mov	r9, r0
10009166:	4298      	cmp	r0, r3
10009168:	d200      	bcs.n	1000916c <prvTimerTask+0x30>
1000916a:	e0da      	b.n	10009322 <prvTimerTask+0x1e6>
1000916c:	6068      	str	r0, [r5, #4]
1000916e:	4284      	cmp	r4, r0
10009170:	d800      	bhi.n	10009174 <prvTimerTask+0x38>
10009172:	e12e      	b.n	100093d2 <prvTimerTask+0x296>
10009174:	2200      	movs	r2, #0
10009176:	464b      	mov	r3, r9
10009178:	68e8      	ldr	r0, [r5, #12]
1000917a:	1ae1      	subs	r1, r4, r3
1000917c:	f001 fc36 	bl	1000a9ec <vQueueWaitForMessageRestricted>
10009180:	f7ff fa0c 	bl	1000859c <xTaskResumeAll>
10009184:	2800      	cmp	r0, #0
10009186:	d100      	bne.n	1000918a <prvTimerTask+0x4e>
10009188:	e115      	b.n	100093b6 <prvTimerTask+0x27a>
1000918a:	2324      	movs	r3, #36	; 0x24
1000918c:	469a      	mov	sl, r3
1000918e:	2200      	movs	r2, #0
10009190:	68e8      	ldr	r0, [r5, #12]
10009192:	a903      	add	r1, sp, #12
10009194:	f000 fe7e 	bl	10009e94 <xQueueReceive>
10009198:	2800      	cmp	r0, #0
1000919a:	d0d7      	beq.n	1000914c <prvTimerTask+0x10>
1000919c:	9b03      	ldr	r3, [sp, #12]
1000919e:	9301      	str	r3, [sp, #4]
100091a0:	2b00      	cmp	r3, #0
100091a2:	dbf4      	blt.n	1000918e <prvTimerTask+0x52>
100091a4:	9b05      	ldr	r3, [sp, #20]
100091a6:	4698      	mov	r8, r3
100091a8:	695b      	ldr	r3, [r3, #20]
100091aa:	2b00      	cmp	r3, #0
100091ac:	d003      	beq.n	100091b6 <prvTimerTask+0x7a>
100091ae:	4643      	mov	r3, r8
100091b0:	1d18      	adds	r0, r3, #4
100091b2:	f000 fb73 	bl	1000989c <uxListRemove>
100091b6:	f7ff faf3 	bl	100087a0 <xTaskGetTickCount>
100091ba:	686b      	ldr	r3, [r5, #4]
100091bc:	4683      	mov	fp, r0
100091be:	4298      	cmp	r0, r3
100091c0:	d30f      	bcc.n	100091e2 <prvTimerTask+0xa6>
100091c2:	465b      	mov	r3, fp
100091c4:	606b      	str	r3, [r5, #4]
100091c6:	9b03      	ldr	r3, [sp, #12]
100091c8:	2b09      	cmp	r3, #9
100091ca:	d8e0      	bhi.n	1000918e <prvTimerTask+0x52>
100091cc:	4aa0      	ldr	r2, [pc, #640]	; (10009450 <prvTimerTask+0x314>)
100091ce:	009b      	lsls	r3, r3, #2
100091d0:	58d3      	ldr	r3, [r2, r3]
100091d2:	469f      	mov	pc, r3
100091d4:	2201      	movs	r2, #1
100091d6:	4393      	bics	r3, r2
100091d8:	4652      	mov	r2, sl
100091da:	54a3      	strb	r3, [r4, r2]
100091dc:	0020      	movs	r0, r4
100091de:	6a23      	ldr	r3, [r4, #32]
100091e0:	4798      	blx	r3
100091e2:	682b      	ldr	r3, [r5, #0]
100091e4:	681a      	ldr	r2, [r3, #0]
100091e6:	2a00      	cmp	r2, #0
100091e8:	d100      	bne.n	100091ec <prvTimerTask+0xb0>
100091ea:	e0e0      	b.n	100093ae <prvTimerTask+0x272>
100091ec:	68db      	ldr	r3, [r3, #12]
100091ee:	68dc      	ldr	r4, [r3, #12]
100091f0:	681e      	ldr	r6, [r3, #0]
100091f2:	1d23      	adds	r3, r4, #4
100091f4:	0018      	movs	r0, r3
100091f6:	4699      	mov	r9, r3
100091f8:	f000 fb50 	bl	1000989c <uxListRemove>
100091fc:	4653      	mov	r3, sl
100091fe:	2204      	movs	r2, #4
10009200:	5ce3      	ldrb	r3, [r4, r3]
10009202:	421a      	tst	r2, r3
10009204:	d0e6      	beq.n	100091d4 <prvTimerTask+0x98>
10009206:	69a3      	ldr	r3, [r4, #24]
10009208:	6124      	str	r4, [r4, #16]
1000920a:	18f7      	adds	r7, r6, r3
1000920c:	43f6      	mvns	r6, r6
1000920e:	6067      	str	r7, [r4, #4]
10009210:	42b3      	cmp	r3, r6
10009212:	d80a      	bhi.n	1000922a <prvTimerTask+0xee>
10009214:	003e      	movs	r6, r7
10009216:	43f6      	mvns	r6, r6
10009218:	6a23      	ldr	r3, [r4, #32]
1000921a:	0020      	movs	r0, r4
1000921c:	4798      	blx	r3
1000921e:	69a3      	ldr	r3, [r4, #24]
10009220:	6124      	str	r4, [r4, #16]
10009222:	18ff      	adds	r7, r7, r3
10009224:	6067      	str	r7, [r4, #4]
10009226:	42b3      	cmp	r3, r6
10009228:	d9f4      	bls.n	10009214 <prvTimerTask+0xd8>
1000922a:	4649      	mov	r1, r9
1000922c:	68a8      	ldr	r0, [r5, #8]
1000922e:	f000 fb1d 	bl	1000986c <vListInsert>
10009232:	e7d3      	b.n	100091dc <prvTimerTask+0xa0>
10009234:	4643      	mov	r3, r8
10009236:	4652      	mov	r2, sl
10009238:	5c98      	ldrb	r0, [r3, r2]
1000923a:	2301      	movs	r3, #1
1000923c:	4642      	mov	r2, r8
1000923e:	4651      	mov	r1, sl
10009240:	4644      	mov	r4, r8
10009242:	4303      	orrs	r3, r0
10009244:	5453      	strb	r3, [r2, r1]
10009246:	6992      	ldr	r2, [r2, #24]
10009248:	9904      	ldr	r1, [sp, #16]
1000924a:	6124      	str	r4, [r4, #16]
1000924c:	188b      	adds	r3, r1, r2
1000924e:	6063      	str	r3, [r4, #4]
10009250:	455b      	cmp	r3, fp
10009252:	d900      	bls.n	10009256 <prvTimerTask+0x11a>
10009254:	e0b2      	b.n	100093bc <prvTimerTask+0x280>
10009256:	465c      	mov	r4, fp
10009258:	1a61      	subs	r1, r4, r1
1000925a:	428a      	cmp	r2, r1
1000925c:	d900      	bls.n	10009260 <prvTimerTask+0x124>
1000925e:	e0ef      	b.n	10009440 <prvTimerTask+0x304>
10009260:	0741      	lsls	r1, r0, #29
10009262:	d414      	bmi.n	1000928e <prvTimerTask+0x152>
10009264:	2301      	movs	r3, #1
10009266:	4652      	mov	r2, sl
10009268:	4398      	bics	r0, r3
1000926a:	4643      	mov	r3, r8
1000926c:	5498      	strb	r0, [r3, r2]
1000926e:	4643      	mov	r3, r8
10009270:	4640      	mov	r0, r8
10009272:	6a1b      	ldr	r3, [r3, #32]
10009274:	4798      	blx	r3
10009276:	e78a      	b.n	1000918e <prvTimerTask+0x52>
10009278:	4659      	mov	r1, fp
1000927a:	1acb      	subs	r3, r1, r3
1000927c:	4293      	cmp	r3, r2
1000927e:	d200      	bcs.n	10009282 <prvTimerTask+0x146>
10009280:	e0d8      	b.n	10009434 <prvTimerTask+0x2f8>
10009282:	4640      	mov	r0, r8
10009284:	6a03      	ldr	r3, [r0, #32]
10009286:	4798      	blx	r3
10009288:	4643      	mov	r3, r8
1000928a:	699a      	ldr	r2, [r3, #24]
1000928c:	0023      	movs	r3, r4
1000928e:	4641      	mov	r1, r8
10009290:	189c      	adds	r4, r3, r2
10009292:	604c      	str	r4, [r1, #4]
10009294:	6109      	str	r1, [r1, #16]
10009296:	45a3      	cmp	fp, r4
10009298:	d2ee      	bcs.n	10009278 <prvTimerTask+0x13c>
1000929a:	459b      	cmp	fp, r3
1000929c:	d201      	bcs.n	100092a2 <prvTimerTask+0x166>
1000929e:	42a3      	cmp	r3, r4
100092a0:	d9ef      	bls.n	10009282 <prvTimerTask+0x146>
100092a2:	4643      	mov	r3, r8
100092a4:	6828      	ldr	r0, [r5, #0]
100092a6:	1d19      	adds	r1, r3, #4
100092a8:	f000 fae0 	bl	1000986c <vListInsert>
100092ac:	e7df      	b.n	1000926e <prvTimerTask+0x132>
100092ae:	4643      	mov	r3, r8
100092b0:	4652      	mov	r2, sl
100092b2:	5c9b      	ldrb	r3, [r3, r2]
100092b4:	2201      	movs	r2, #1
100092b6:	4651      	mov	r1, sl
100092b8:	4393      	bics	r3, r2
100092ba:	4642      	mov	r2, r8
100092bc:	5453      	strb	r3, [r2, r1]
100092be:	e766      	b.n	1000918e <prvTimerTask+0x52>
100092c0:	4652      	mov	r2, sl
100092c2:	4643      	mov	r3, r8
100092c4:	5c9b      	ldrb	r3, [r3, r2]
100092c6:	2201      	movs	r2, #1
100092c8:	4651      	mov	r1, sl
100092ca:	4313      	orrs	r3, r2
100092cc:	4642      	mov	r2, r8
100092ce:	5453      	strb	r3, [r2, r1]
100092d0:	9b04      	ldr	r3, [sp, #16]
100092d2:	4641      	mov	r1, r8
100092d4:	6193      	str	r3, [r2, #24]
100092d6:	465a      	mov	r2, fp
100092d8:	189a      	adds	r2, r3, r2
100092da:	604a      	str	r2, [r1, #4]
100092dc:	6109      	str	r1, [r1, #16]
100092de:	455a      	cmp	r2, fp
100092e0:	d871      	bhi.n	100093c6 <prvTimerTask+0x28a>
100092e2:	2b00      	cmp	r3, #0
100092e4:	d100      	bne.n	100092e8 <prvTimerTask+0x1ac>
100092e6:	e752      	b.n	1000918e <prvTimerTask+0x52>
100092e8:	68a8      	ldr	r0, [r5, #8]
100092ea:	3104      	adds	r1, #4
100092ec:	f000 fabe 	bl	1000986c <vListInsert>
100092f0:	e74d      	b.n	1000918e <prvTimerTask+0x52>
100092f2:	4643      	mov	r3, r8
100092f4:	4652      	mov	r2, sl
100092f6:	5c9b      	ldrb	r3, [r3, r2]
100092f8:	079a      	lsls	r2, r3, #30
100092fa:	d4db      	bmi.n	100092b4 <prvTimerTask+0x178>
100092fc:	4640      	mov	r0, r8
100092fe:	f000 f9c3 	bl	10009688 <vPortFree>
10009302:	e744      	b.n	1000918e <prvTimerTask+0x52>
10009304:	f7ff f942 	bl	1000858c <vTaskSuspendAll>
10009308:	f7ff fa4a 	bl	100087a0 <xTaskGetTickCount>
1000930c:	686b      	ldr	r3, [r5, #4]
1000930e:	4681      	mov	r9, r0
10009310:	4298      	cmp	r0, r3
10009312:	d306      	bcc.n	10009322 <prvTimerTask+0x1e6>
10009314:	464b      	mov	r3, r9
10009316:	606b      	str	r3, [r5, #4]
10009318:	68ab      	ldr	r3, [r5, #8]
1000931a:	681a      	ldr	r2, [r3, #0]
1000931c:	4253      	negs	r3, r2
1000931e:	415a      	adcs	r2, r3
10009320:	e729      	b.n	10009176 <prvTimerTask+0x3a>
10009322:	682b      	ldr	r3, [r5, #0]
10009324:	681a      	ldr	r2, [r3, #0]
10009326:	2a00      	cmp	r2, #0
10009328:	d039      	beq.n	1000939e <prvTimerTask+0x262>
1000932a:	2224      	movs	r2, #36	; 0x24
1000932c:	4692      	mov	sl, r2
1000932e:	3a20      	subs	r2, #32
10009330:	4693      	mov	fp, r2
10009332:	e00a      	b.n	1000934a <prvTimerTask+0x20e>
10009334:	2201      	movs	r2, #1
10009336:	4393      	bics	r3, r2
10009338:	4652      	mov	r2, sl
1000933a:	54a3      	strb	r3, [r4, r2]
1000933c:	6a23      	ldr	r3, [r4, #32]
1000933e:	0020      	movs	r0, r4
10009340:	4798      	blx	r3
10009342:	682b      	ldr	r3, [r5, #0]
10009344:	681a      	ldr	r2, [r3, #0]
10009346:	2a00      	cmp	r2, #0
10009348:	d029      	beq.n	1000939e <prvTimerTask+0x262>
1000934a:	68db      	ldr	r3, [r3, #12]
1000934c:	68dc      	ldr	r4, [r3, #12]
1000934e:	681e      	ldr	r6, [r3, #0]
10009350:	1d23      	adds	r3, r4, #4
10009352:	0018      	movs	r0, r3
10009354:	4698      	mov	r8, r3
10009356:	f000 faa1 	bl	1000989c <uxListRemove>
1000935a:	4653      	mov	r3, sl
1000935c:	465a      	mov	r2, fp
1000935e:	5ce3      	ldrb	r3, [r4, r3]
10009360:	421a      	tst	r2, r3
10009362:	d0e7      	beq.n	10009334 <prvTimerTask+0x1f8>
10009364:	69a3      	ldr	r3, [r4, #24]
10009366:	6124      	str	r4, [r4, #16]
10009368:	18f7      	adds	r7, r6, r3
1000936a:	43f6      	mvns	r6, r6
1000936c:	6067      	str	r7, [r4, #4]
1000936e:	42b3      	cmp	r3, r6
10009370:	d80a      	bhi.n	10009388 <prvTimerTask+0x24c>
10009372:	003e      	movs	r6, r7
10009374:	43f6      	mvns	r6, r6
10009376:	6a23      	ldr	r3, [r4, #32]
10009378:	0020      	movs	r0, r4
1000937a:	4798      	blx	r3
1000937c:	69a3      	ldr	r3, [r4, #24]
1000937e:	6124      	str	r4, [r4, #16]
10009380:	18ff      	adds	r7, r7, r3
10009382:	6067      	str	r7, [r4, #4]
10009384:	42b3      	cmp	r3, r6
10009386:	d9f4      	bls.n	10009372 <prvTimerTask+0x236>
10009388:	4641      	mov	r1, r8
1000938a:	68a8      	ldr	r0, [r5, #8]
1000938c:	f000 fa6e 	bl	1000986c <vListInsert>
10009390:	6a23      	ldr	r3, [r4, #32]
10009392:	0020      	movs	r0, r4
10009394:	4798      	blx	r3
10009396:	682b      	ldr	r3, [r5, #0]
10009398:	681a      	ldr	r2, [r3, #0]
1000939a:	2a00      	cmp	r2, #0
1000939c:	d1d5      	bne.n	1000934a <prvTimerTask+0x20e>
1000939e:	68aa      	ldr	r2, [r5, #8]
100093a0:	60ab      	str	r3, [r5, #8]
100093a2:	464b      	mov	r3, r9
100093a4:	602a      	str	r2, [r5, #0]
100093a6:	606b      	str	r3, [r5, #4]
100093a8:	f7ff f8f8 	bl	1000859c <xTaskResumeAll>
100093ac:	e6ed      	b.n	1000918a <prvTimerTask+0x4e>
100093ae:	68aa      	ldr	r2, [r5, #8]
100093b0:	60ab      	str	r3, [r5, #8]
100093b2:	602a      	str	r2, [r5, #0]
100093b4:	e705      	b.n	100091c2 <prvTimerTask+0x86>
100093b6:	f000 f9a9 	bl	1000970c <vPortYield>
100093ba:	e6e6      	b.n	1000918a <prvTimerTask+0x4e>
100093bc:	4559      	cmp	r1, fp
100093be:	d902      	bls.n	100093c6 <prvTimerTask+0x28a>
100093c0:	4299      	cmp	r1, r3
100093c2:	d800      	bhi.n	100093c6 <prvTimerTask+0x28a>
100093c4:	e74c      	b.n	10009260 <prvTimerTask+0x124>
100093c6:	4641      	mov	r1, r8
100093c8:	6828      	ldr	r0, [r5, #0]
100093ca:	3104      	adds	r1, #4
100093cc:	f000 fa4e 	bl	1000986c <vListInsert>
100093d0:	e6dd      	b.n	1000918e <prvTimerTask+0x52>
100093d2:	f7ff f8e3 	bl	1000859c <xTaskResumeAll>
100093d6:	682b      	ldr	r3, [r5, #0]
100093d8:	68db      	ldr	r3, [r3, #12]
100093da:	68de      	ldr	r6, [r3, #12]
100093dc:	1d33      	adds	r3, r6, #4
100093de:	0018      	movs	r0, r3
100093e0:	4698      	mov	r8, r3
100093e2:	f000 fa5b 	bl	1000989c <uxListRemove>
100093e6:	2224      	movs	r2, #36	; 0x24
100093e8:	5cb3      	ldrb	r3, [r6, r2]
100093ea:	0759      	lsls	r1, r3, #29
100093ec:	d40e      	bmi.n	1000940c <prvTimerTask+0x2d0>
100093ee:	2101      	movs	r1, #1
100093f0:	438b      	bics	r3, r1
100093f2:	54b3      	strb	r3, [r6, r2]
100093f4:	0030      	movs	r0, r6
100093f6:	6a33      	ldr	r3, [r6, #32]
100093f8:	4798      	blx	r3
100093fa:	e6c6      	b.n	1000918a <prvTimerTask+0x4e>
100093fc:	464a      	mov	r2, r9
100093fe:	1b14      	subs	r4, r2, r4
10009400:	42a3      	cmp	r3, r4
10009402:	d812      	bhi.n	1000942a <prvTimerTask+0x2ee>
10009404:	0030      	movs	r0, r6
10009406:	6a33      	ldr	r3, [r6, #32]
10009408:	4798      	blx	r3
1000940a:	003c      	movs	r4, r7
1000940c:	69b3      	ldr	r3, [r6, #24]
1000940e:	6136      	str	r6, [r6, #16]
10009410:	18e7      	adds	r7, r4, r3
10009412:	6077      	str	r7, [r6, #4]
10009414:	45b9      	cmp	r9, r7
10009416:	d2f1      	bcs.n	100093fc <prvTimerTask+0x2c0>
10009418:	45a1      	cmp	r9, r4
1000941a:	d201      	bcs.n	10009420 <prvTimerTask+0x2e4>
1000941c:	42bc      	cmp	r4, r7
1000941e:	d9f1      	bls.n	10009404 <prvTimerTask+0x2c8>
10009420:	4641      	mov	r1, r8
10009422:	6828      	ldr	r0, [r5, #0]
10009424:	f000 fa22 	bl	1000986c <vListInsert>
10009428:	e7e4      	b.n	100093f4 <prvTimerTask+0x2b8>
1000942a:	4641      	mov	r1, r8
1000942c:	68a8      	ldr	r0, [r5, #8]
1000942e:	f000 fa1d 	bl	1000986c <vListInsert>
10009432:	e7df      	b.n	100093f4 <prvTimerTask+0x2b8>
10009434:	4643      	mov	r3, r8
10009436:	68a8      	ldr	r0, [r5, #8]
10009438:	1d19      	adds	r1, r3, #4
1000943a:	f000 fa17 	bl	1000986c <vListInsert>
1000943e:	e716      	b.n	1000926e <prvTimerTask+0x132>
10009440:	4641      	mov	r1, r8
10009442:	68a8      	ldr	r0, [r5, #8]
10009444:	3104      	adds	r1, #4
10009446:	f000 fa11 	bl	1000986c <vListInsert>
1000944a:	e6a0      	b.n	1000918e <prvTimerTask+0x52>
1000944c:	20001158 	.word	0x20001158
10009450:	1000b9e0 	.word	0x1000b9e0

10009454 <xTimerCreateTimerTask>:
10009454:	b570      	push	{r4, r5, r6, lr}
10009456:	b082      	sub	sp, #8
10009458:	f000 f964 	bl	10009724 <vPortEnterCritical>
1000945c:	4c16      	ldr	r4, [pc, #88]	; (100094b8 <xTimerCreateTimerTask+0x64>)
1000945e:	68e3      	ldr	r3, [r4, #12]
10009460:	2b00      	cmp	r3, #0
10009462:	d011      	beq.n	10009488 <xTimerCreateTimerTask+0x34>
10009464:	f000 f96a 	bl	1000973c <vPortExitCritical>
10009468:	68e3      	ldr	r3, [r4, #12]
1000946a:	2000      	movs	r0, #0
1000946c:	2b00      	cmp	r3, #0
1000946e:	d009      	beq.n	10009484 <xTimerCreateTimerTask+0x30>
10009470:	2303      	movs	r3, #3
10009472:	3438      	adds	r4, #56	; 0x38
10009474:	9300      	str	r3, [sp, #0]
10009476:	2280      	movs	r2, #128	; 0x80
10009478:	2300      	movs	r3, #0
1000947a:	4910      	ldr	r1, [pc, #64]	; (100094bc <xTimerCreateTimerTask+0x68>)
1000947c:	4810      	ldr	r0, [pc, #64]	; (100094c0 <xTimerCreateTimerTask+0x6c>)
1000947e:	9401      	str	r4, [sp, #4]
10009480:	f7fe fcb2 	bl	10007de8 <xTaskCreate>
10009484:	b002      	add	sp, #8
10009486:	bd70      	pop	{r4, r5, r6, pc}
10009488:	0026      	movs	r6, r4
1000948a:	0025      	movs	r5, r4
1000948c:	3610      	adds	r6, #16
1000948e:	0030      	movs	r0, r6
10009490:	3524      	adds	r5, #36	; 0x24
10009492:	f000 f9cf 	bl	10009834 <vListInitialise>
10009496:	0028      	movs	r0, r5
10009498:	f000 f9cc 	bl	10009834 <vListInitialise>
1000949c:	2200      	movs	r2, #0
1000949e:	210c      	movs	r1, #12
100094a0:	200a      	movs	r0, #10
100094a2:	6026      	str	r6, [r4, #0]
100094a4:	60a5      	str	r5, [r4, #8]
100094a6:	f000 fa5b 	bl	10009960 <xQueueGenericCreate>
100094aa:	60e0      	str	r0, [r4, #12]
100094ac:	2800      	cmp	r0, #0
100094ae:	d0d9      	beq.n	10009464 <xTimerCreateTimerTask+0x10>
100094b0:	4904      	ldr	r1, [pc, #16]	; (100094c4 <xTimerCreateTimerTask+0x70>)
100094b2:	f001 f999 	bl	1000a7e8 <vQueueAddToRegistry>
100094b6:	e7d5      	b.n	10009464 <xTimerCreateTimerTask+0x10>
100094b8:	20001158 	.word	0x20001158
100094bc:	1000ba10 	.word	0x1000ba10
100094c0:	1000913d 	.word	0x1000913d
100094c4:	1000ba08 	.word	0x1000ba08

100094c8 <xTimerCreate>:
100094c8:	b5f8      	push	{r3, r4, r5, r6, r7, lr}
100094ca:	4645      	mov	r5, r8
100094cc:	46de      	mov	lr, fp
100094ce:	4657      	mov	r7, sl
100094d0:	464e      	mov	r6, r9
100094d2:	b5e0      	push	{r5, r6, r7, lr}
100094d4:	0007      	movs	r7, r0
100094d6:	2028      	movs	r0, #40	; 0x28
100094d8:	4688      	mov	r8, r1
100094da:	0016      	movs	r6, r2
100094dc:	001d      	movs	r5, r3
100094de:	f000 f8c7 	bl	10009670 <pvPortMalloc>
100094e2:	1e04      	subs	r4, r0, #0
100094e4:	d01b      	beq.n	1000951e <xTimerCreate+0x56>
100094e6:	2324      	movs	r3, #36	; 0x24
100094e8:	2200      	movs	r2, #0
100094ea:	54c2      	strb	r2, [r0, r3]
100094ec:	f000 f91a 	bl	10009724 <vPortEnterCritical>
100094f0:	4b1d      	ldr	r3, [pc, #116]	; (10009568 <xTimerCreate+0xa0>)
100094f2:	4699      	mov	r9, r3
100094f4:	68db      	ldr	r3, [r3, #12]
100094f6:	2b00      	cmp	r3, #0
100094f8:	d018      	beq.n	1000952c <xTimerCreate+0x64>
100094fa:	f000 f91f 	bl	1000973c <vPortExitCritical>
100094fe:	4643      	mov	r3, r8
10009500:	61a3      	str	r3, [r4, #24]
10009502:	9b0a      	ldr	r3, [sp, #40]	; 0x28
10009504:	6027      	str	r7, [r4, #0]
10009506:	61e5      	str	r5, [r4, #28]
10009508:	6223      	str	r3, [r4, #32]
1000950a:	1d20      	adds	r0, r4, #4
1000950c:	f000 f99e 	bl	1000984c <vListInitialiseItem>
10009510:	2e00      	cmp	r6, #0
10009512:	d004      	beq.n	1000951e <xTimerCreate+0x56>
10009514:	2224      	movs	r2, #36	; 0x24
10009516:	2104      	movs	r1, #4
10009518:	5ca3      	ldrb	r3, [r4, r2]
1000951a:	430b      	orrs	r3, r1
1000951c:	54a3      	strb	r3, [r4, r2]
1000951e:	0020      	movs	r0, r4
10009520:	bcf0      	pop	{r4, r5, r6, r7}
10009522:	46bb      	mov	fp, r7
10009524:	46b2      	mov	sl, r6
10009526:	46a9      	mov	r9, r5
10009528:	46a0      	mov	r8, r4
1000952a:	bdf8      	pop	{r3, r4, r5, r6, r7, pc}
1000952c:	3310      	adds	r3, #16
1000952e:	444b      	add	r3, r9
10009530:	0018      	movs	r0, r3
10009532:	469b      	mov	fp, r3
10009534:	f000 f97e 	bl	10009834 <vListInitialise>
10009538:	2324      	movs	r3, #36	; 0x24
1000953a:	444b      	add	r3, r9
1000953c:	0018      	movs	r0, r3
1000953e:	469a      	mov	sl, r3
10009540:	f000 f978 	bl	10009834 <vListInitialise>
10009544:	464b      	mov	r3, r9
10009546:	465a      	mov	r2, fp
10009548:	601a      	str	r2, [r3, #0]
1000954a:	4652      	mov	r2, sl
1000954c:	210c      	movs	r1, #12
1000954e:	609a      	str	r2, [r3, #8]
10009550:	200a      	movs	r0, #10
10009552:	2200      	movs	r2, #0
10009554:	f000 fa04 	bl	10009960 <xQueueGenericCreate>
10009558:	464b      	mov	r3, r9
1000955a:	60d8      	str	r0, [r3, #12]
1000955c:	2800      	cmp	r0, #0
1000955e:	d0cc      	beq.n	100094fa <xTimerCreate+0x32>
10009560:	4902      	ldr	r1, [pc, #8]	; (1000956c <xTimerCreate+0xa4>)
10009562:	f001 f941 	bl	1000a7e8 <vQueueAddToRegistry>
10009566:	e7c8      	b.n	100094fa <xTimerCreate+0x32>
10009568:	20001158 	.word	0x20001158
1000956c:	1000ba08 	.word	0x1000ba08

10009570 <xTimerGenericCommand>:
10009570:	b570      	push	{r4, r5, r6, lr}
10009572:	4e13      	ldr	r6, [pc, #76]	; (100095c0 <xTimerGenericCommand+0x50>)
10009574:	001c      	movs	r4, r3
10009576:	68f5      	ldr	r5, [r6, #12]
10009578:	b084      	sub	sp, #16
1000957a:	2d00      	cmp	r5, #0
1000957c:	d017      	beq.n	100095ae <xTimerGenericCommand+0x3e>
1000957e:	9101      	str	r1, [sp, #4]
10009580:	9202      	str	r2, [sp, #8]
10009582:	9003      	str	r0, [sp, #12]
10009584:	2905      	cmp	r1, #5
10009586:	dc0a      	bgt.n	1000959e <xTimerGenericCommand+0x2e>
10009588:	f7ff fb8c 	bl	10008ca4 <xTaskGetSchedulerState>
1000958c:	2802      	cmp	r0, #2
1000958e:	d010      	beq.n	100095b2 <xTimerGenericCommand+0x42>
10009590:	2300      	movs	r3, #0
10009592:	2200      	movs	r2, #0
10009594:	68f0      	ldr	r0, [r6, #12]
10009596:	a901      	add	r1, sp, #4
10009598:	f000 fa2e 	bl	100099f8 <xQueueGenericSend>
1000959c:	e005      	b.n	100095aa <xTimerGenericCommand+0x3a>
1000959e:	2300      	movs	r3, #0
100095a0:	0022      	movs	r2, r4
100095a2:	0028      	movs	r0, r5
100095a4:	a901      	add	r1, sp, #4
100095a6:	f000 fbb3 	bl	10009d10 <xQueueGenericSendFromISR>
100095aa:	b004      	add	sp, #16
100095ac:	bd70      	pop	{r4, r5, r6, pc}
100095ae:	2000      	movs	r0, #0
100095b0:	e7fb      	b.n	100095aa <xTimerGenericCommand+0x3a>
100095b2:	2300      	movs	r3, #0
100095b4:	68f0      	ldr	r0, [r6, #12]
100095b6:	9a08      	ldr	r2, [sp, #32]
100095b8:	a901      	add	r1, sp, #4
100095ba:	f000 fa1d 	bl	100099f8 <xQueueGenericSend>
100095be:	e7f4      	b.n	100095aa <xTimerGenericCommand+0x3a>
100095c0:	20001158 	.word	0x20001158

100095c4 <xTimerGetTimerDaemonTaskHandle>:
100095c4:	4b01      	ldr	r3, [pc, #4]	; (100095cc <xTimerGetTimerDaemonTaskHandle+0x8>)
100095c6:	6b98      	ldr	r0, [r3, #56]	; 0x38
100095c8:	4770      	bx	lr
100095ca:	46c0      	nop			; (mov r8, r8)
100095cc:	20001158 	.word	0x20001158

100095d0 <xTimerGetPeriod>:
100095d0:	6980      	ldr	r0, [r0, #24]
100095d2:	4770      	bx	lr

100095d4 <vTimerSetReloadMode>:
100095d4:	b570      	push	{r4, r5, r6, lr}
100095d6:	0004      	movs	r4, r0
100095d8:	000d      	movs	r5, r1
100095da:	f000 f8a3 	bl	10009724 <vPortEnterCritical>
100095de:	2324      	movs	r3, #36	; 0x24
100095e0:	2204      	movs	r2, #4
100095e2:	5ce3      	ldrb	r3, [r4, r3]
100095e4:	2d00      	cmp	r5, #0
100095e6:	d005      	beq.n	100095f4 <vTimerSetReloadMode+0x20>
100095e8:	4313      	orrs	r3, r2
100095ea:	2224      	movs	r2, #36	; 0x24
100095ec:	54a3      	strb	r3, [r4, r2]
100095ee:	f000 f8a5 	bl	1000973c <vPortExitCritical>
100095f2:	bd70      	pop	{r4, r5, r6, pc}
100095f4:	4393      	bics	r3, r2
100095f6:	e7f8      	b.n	100095ea <vTimerSetReloadMode+0x16>

100095f8 <xTimerGetReloadMode>:
100095f8:	b510      	push	{r4, lr}
100095fa:	0004      	movs	r4, r0
100095fc:	f000 f892 	bl	10009724 <vPortEnterCritical>
10009600:	2324      	movs	r3, #36	; 0x24
10009602:	5ce4      	ldrb	r4, [r4, r3]
10009604:	f000 f89a 	bl	1000973c <vPortExitCritical>
10009608:	0764      	lsls	r4, r4, #29
1000960a:	0fe4      	lsrs	r4, r4, #31
1000960c:	0020      	movs	r0, r4
1000960e:	bd10      	pop	{r4, pc}

10009610 <uxTimerGetReloadMode>:
10009610:	b510      	push	{r4, lr}
10009612:	0004      	movs	r4, r0
10009614:	f000 f886 	bl	10009724 <vPortEnterCritical>
10009618:	2324      	movs	r3, #36	; 0x24
1000961a:	5ce4      	ldrb	r4, [r4, r3]
1000961c:	f000 f88e 	bl	1000973c <vPortExitCritical>
10009620:	0764      	lsls	r4, r4, #29
10009622:	0fe4      	lsrs	r4, r4, #31
10009624:	0020      	movs	r0, r4
10009626:	bd10      	pop	{r4, pc}

10009628 <xTimerGetExpiryTime>:
10009628:	6840      	ldr	r0, [r0, #4]
1000962a:	4770      	bx	lr

1000962c <pcTimerGetName>:
1000962c:	6800      	ldr	r0, [r0, #0]
1000962e:	4770      	bx	lr

10009630 <xTimerIsTimerActive>:
10009630:	b510      	push	{r4, lr}
10009632:	0004      	movs	r4, r0
10009634:	f000 f876 	bl	10009724 <vPortEnterCritical>
10009638:	2324      	movs	r3, #36	; 0x24
1000963a:	5ce3      	ldrb	r3, [r4, r3]
1000963c:	2401      	movs	r4, #1
1000963e:	401c      	ands	r4, r3
10009640:	f000 f87c 	bl	1000973c <vPortExitCritical>
10009644:	0020      	movs	r0, r4
10009646:	bd10      	pop	{r4, pc}

10009648 <pvTimerGetTimerID>:
10009648:	b510      	push	{r4, lr}
1000964a:	0004      	movs	r4, r0
1000964c:	f000 f86a 	bl	10009724 <vPortEnterCritical>
10009650:	69e4      	ldr	r4, [r4, #28]
10009652:	f000 f873 	bl	1000973c <vPortExitCritical>
10009656:	0020      	movs	r0, r4
10009658:	bd10      	pop	{r4, pc}
1000965a:	46c0      	nop			; (mov r8, r8)

1000965c <vTimerSetTimerID>:
1000965c:	b570      	push	{r4, r5, r6, lr}
1000965e:	000d      	movs	r5, r1
10009660:	0004      	movs	r4, r0
10009662:	f000 f85f 	bl	10009724 <vPortEnterCritical>
10009666:	61e5      	str	r5, [r4, #28]
10009668:	f000 f868 	bl	1000973c <vPortExitCritical>
1000966c:	bd70      	pop	{r4, r5, r6, pc}
1000966e:	46c0      	nop			; (mov r8, r8)

10009670 <pvPortMalloc>:
10009670:	b510      	push	{r4, lr}
10009672:	0004      	movs	r4, r0
10009674:	f7fe ff8a 	bl	1000858c <vTaskSuspendAll>
10009678:	0020      	movs	r0, r4
1000967a:	f7fb fa75 	bl	10004b68 <__wrap_malloc>
1000967e:	0004      	movs	r4, r0
10009680:	f7fe ff8c 	bl	1000859c <xTaskResumeAll>
10009684:	0020      	movs	r0, r4
10009686:	bd10      	pop	{r4, pc}

10009688 <vPortFree>:
10009688:	b510      	push	{r4, lr}
1000968a:	1e04      	subs	r4, r0, #0
1000968c:	d006      	beq.n	1000969c <vPortFree+0x14>
1000968e:	f7fe ff7d 	bl	1000858c <vTaskSuspendAll>
10009692:	0020      	movs	r0, r4
10009694:	f7fb fa7a 	bl	10004b8c <__wrap_free>
10009698:	f7fe ff80 	bl	1000859c <xTaskResumeAll>
1000969c:	bd10      	pop	{r4, pc}
1000969e:	46c0      	nop			; (mov r8, r8)

100096a0 <prvTaskExitError>:
100096a0:	2300      	movs	r3, #0
100096a2:	b082      	sub	sp, #8
100096a4:	9301      	str	r3, [sp, #4]
100096a6:	b672      	cpsid	i
100096a8:	9b01      	ldr	r3, [sp, #4]
100096aa:	2b00      	cmp	r3, #0
100096ac:	d0fc      	beq.n	100096a8 <prvTaskExitError+0x8>
100096ae:	b002      	add	sp, #8
100096b0:	4770      	bx	lr
100096b2:	46c0      	nop			; (mov r8, r8)

100096b4 <vPortStartFirstTask>:
100096b4:	4a0a      	ldr	r2, [pc, #40]	; (100096e0 <pxCurrentTCBConst2>)
100096b6:	6813      	ldr	r3, [r2, #0]
100096b8:	6818      	ldr	r0, [r3, #0]
100096ba:	3020      	adds	r0, #32
100096bc:	f380 8809 	msr	PSP, r0
100096c0:	2002      	movs	r0, #2
100096c2:	f380 8814 	msr	CONTROL, r0
100096c6:	f3bf 8f6f 	isb	sy
100096ca:	bc3f      	pop	{r0, r1, r2, r3, r4, r5}
100096cc:	46ae      	mov	lr, r5
100096ce:	bc08      	pop	{r3}
100096d0:	bc04      	pop	{r2}
100096d2:	b662      	cpsie	i
100096d4:	4718      	bx	r3
100096d6:	46c0      	nop			; (mov r8, r8)
100096d8:	46c0      	nop			; (mov r8, r8)
100096da:	46c0      	nop			; (mov r8, r8)
100096dc:	46c0      	nop			; (mov r8, r8)
100096de:	46c0      	nop			; (mov r8, r8)

100096e0 <pxCurrentTCBConst2>:
100096e0:	200010d8 	.word	0x200010d8

100096e4 <pxPortInitialiseStack>:
100096e4:	b510      	push	{r4, lr}
100096e6:	2480      	movs	r4, #128	; 0x80
100096e8:	1f03      	subs	r3, r0, #4
100096ea:	0464      	lsls	r4, r4, #17
100096ec:	601c      	str	r4, [r3, #0]
100096ee:	3b04      	subs	r3, #4
100096f0:	6019      	str	r1, [r3, #0]
100096f2:	4903      	ldr	r1, [pc, #12]	; (10009700 <pxPortInitialiseStack+0x1c>)
100096f4:	3b04      	subs	r3, #4
100096f6:	6019      	str	r1, [r3, #0]
100096f8:	3b14      	subs	r3, #20
100096fa:	3840      	subs	r0, #64	; 0x40
100096fc:	601a      	str	r2, [r3, #0]
100096fe:	bd10      	pop	{r4, pc}
10009700:	100096a1 	.word	0x100096a1

10009704 <isr_svcall>:
10009704:	4770      	bx	lr
10009706:	46c0      	nop			; (mov r8, r8)

10009708 <vPortEndScheduler>:
10009708:	4770      	bx	lr
1000970a:	46c0      	nop			; (mov r8, r8)

1000970c <vPortYield>:
1000970c:	2280      	movs	r2, #128	; 0x80
1000970e:	4b04      	ldr	r3, [pc, #16]	; (10009720 <vPortYield+0x14>)
10009710:	0552      	lsls	r2, r2, #21
10009712:	601a      	str	r2, [r3, #0]
10009714:	f3bf 8f4f 	dsb	sy
10009718:	f3bf 8f6f 	isb	sy
1000971c:	4770      	bx	lr
1000971e:	46c0      	nop			; (mov r8, r8)
10009720:	e000ed04 	.word	0xe000ed04

10009724 <vPortEnterCritical>:
10009724:	b672      	cpsid	i
10009726:	4a04      	ldr	r2, [pc, #16]	; (10009738 <vPortEnterCritical+0x14>)
10009728:	6813      	ldr	r3, [r2, #0]
1000972a:	3301      	adds	r3, #1
1000972c:	6013      	str	r3, [r2, #0]
1000972e:	f3bf 8f4f 	dsb	sy
10009732:	f3bf 8f6f 	isb	sy
10009736:	4770      	bx	lr
10009738:	2000047c 	.word	0x2000047c

1000973c <vPortExitCritical>:
1000973c:	4a03      	ldr	r2, [pc, #12]	; (1000974c <vPortExitCritical+0x10>)
1000973e:	6813      	ldr	r3, [r2, #0]
10009740:	3b01      	subs	r3, #1
10009742:	6013      	str	r3, [r2, #0]
10009744:	2b00      	cmp	r3, #0
10009746:	d100      	bne.n	1000974a <vPortExitCritical+0xe>
10009748:	b662      	cpsie	i
1000974a:	4770      	bx	lr
1000974c:	2000047c 	.word	0x2000047c

10009750 <ulSetInterruptMaskFromISR>:
10009750:	f3ef 8010 	mrs	r0, PRIMASK
10009754:	b672      	cpsid	i
10009756:	4770      	bx	lr

10009758 <vClearInterruptMaskFromISR>:
10009758:	f380 8810 	msr	PRIMASK, r0
1000975c:	4770      	bx	lr
1000975e:	46c0      	nop			; (mov r8, r8)

10009760 <isr_pendsv>:
10009760:	f3ef 8009 	mrs	r0, PSP
10009764:	4b0e      	ldr	r3, [pc, #56]	; (100097a0 <pxCurrentTCBConst>)
10009766:	681a      	ldr	r2, [r3, #0]
10009768:	3820      	subs	r0, #32
1000976a:	6010      	str	r0, [r2, #0]
1000976c:	c0f0      	stmia	r0!, {r4, r5, r6, r7}
1000976e:	4644      	mov	r4, r8
10009770:	464d      	mov	r5, r9
10009772:	4656      	mov	r6, sl
10009774:	465f      	mov	r7, fp
10009776:	c0f0      	stmia	r0!, {r4, r5, r6, r7}
10009778:	b508      	push	{r3, lr}
1000977a:	b672      	cpsid	i
1000977c:	f7ff f854 	bl	10008828 <vTaskSwitchContext>
10009780:	b662      	cpsie	i
10009782:	bc0c      	pop	{r2, r3}
10009784:	6811      	ldr	r1, [r2, #0]
10009786:	6808      	ldr	r0, [r1, #0]
10009788:	3010      	adds	r0, #16
1000978a:	c8f0      	ldmia	r0!, {r4, r5, r6, r7}
1000978c:	46a0      	mov	r8, r4
1000978e:	46a9      	mov	r9, r5
10009790:	46b2      	mov	sl, r6
10009792:	46bb      	mov	fp, r7
10009794:	f380 8809 	msr	PSP, r0
10009798:	3820      	subs	r0, #32
1000979a:	c8f0      	ldmia	r0!, {r4, r5, r6, r7}
1000979c:	4718      	bx	r3
1000979e:	46c0      	nop			; (mov r8, r8)

100097a0 <pxCurrentTCBConst>:
100097a0:	200010d8 	.word	0x200010d8

100097a4 <isr_systick>:
100097a4:	b510      	push	{r4, lr}
100097a6:	f7ff ffd3 	bl	10009750 <ulSetInterruptMaskFromISR>
100097aa:	0004      	movs	r4, r0
100097ac:	f7ff f82a 	bl	10008804 <xTaskIncrementTick>
100097b0:	2800      	cmp	r0, #0
100097b2:	d003      	beq.n	100097bc <isr_systick+0x18>
100097b4:	2280      	movs	r2, #128	; 0x80
100097b6:	4b03      	ldr	r3, [pc, #12]	; (100097c4 <isr_systick+0x20>)
100097b8:	0552      	lsls	r2, r2, #21
100097ba:	601a      	str	r2, [r3, #0]
100097bc:	0020      	movs	r0, r4
100097be:	f7ff ffcb 	bl	10009758 <vClearInterruptMaskFromISR>
100097c2:	bd10      	pop	{r4, pc}
100097c4:	e000ed04 	.word	0xe000ed04

100097c8 <vPortSetupTimerInterrupt>:
100097c8:	2200      	movs	r2, #0
100097ca:	4b05      	ldr	r3, [pc, #20]	; (100097e0 <vPortSetupTimerInterrupt+0x18>)
100097cc:	4905      	ldr	r1, [pc, #20]	; (100097e4 <vPortSetupTimerInterrupt+0x1c>)
100097ce:	601a      	str	r2, [r3, #0]
100097d0:	600a      	str	r2, [r1, #0]
100097d2:	4a05      	ldr	r2, [pc, #20]	; (100097e8 <vPortSetupTimerInterrupt+0x20>)
100097d4:	4905      	ldr	r1, [pc, #20]	; (100097ec <vPortSetupTimerInterrupt+0x24>)
100097d6:	6011      	str	r1, [r2, #0]
100097d8:	2207      	movs	r2, #7
100097da:	601a      	str	r2, [r3, #0]
100097dc:	4770      	bx	lr
100097de:	46c0      	nop			; (mov r8, r8)
100097e0:	e000e010 	.word	0xe000e010
100097e4:	e000e018 	.word	0xe000e018
100097e8:	e000e014 	.word	0xe000e014
100097ec:	00020787 	.word	0x00020787

100097f0 <xPortStartScheduler>:
100097f0:	22ff      	movs	r2, #255	; 0xff
100097f2:	4b0e      	ldr	r3, [pc, #56]	; (1000982c <xPortStartScheduler+0x3c>)
100097f4:	0412      	lsls	r2, r2, #16
100097f6:	6819      	ldr	r1, [r3, #0]
100097f8:	b510      	push	{r4, lr}
100097fa:	430a      	orrs	r2, r1
100097fc:	601a      	str	r2, [r3, #0]
100097fe:	22ff      	movs	r2, #255	; 0xff
10009800:	2400      	movs	r4, #0
10009802:	6819      	ldr	r1, [r3, #0]
10009804:	0612      	lsls	r2, r2, #24
10009806:	430a      	orrs	r2, r1
10009808:	b082      	sub	sp, #8
1000980a:	601a      	str	r2, [r3, #0]
1000980c:	f7ff ffdc 	bl	100097c8 <vPortSetupTimerInterrupt>
10009810:	4b07      	ldr	r3, [pc, #28]	; (10009830 <xPortStartScheduler+0x40>)
10009812:	601c      	str	r4, [r3, #0]
10009814:	f7ff ff4e 	bl	100096b4 <vPortStartFirstTask>
10009818:	f7ff f806 	bl	10008828 <vTaskSwitchContext>
1000981c:	9401      	str	r4, [sp, #4]
1000981e:	b672      	cpsid	i
10009820:	9b01      	ldr	r3, [sp, #4]
10009822:	2b00      	cmp	r3, #0
10009824:	d0fc      	beq.n	10009820 <xPortStartScheduler+0x30>
10009826:	2000      	movs	r0, #0
10009828:	b002      	add	sp, #8
1000982a:	bd10      	pop	{r4, pc}
1000982c:	e000ed20 	.word	0xe000ed20
10009830:	2000047c 	.word	0x2000047c

10009834 <vListInitialise>:
10009834:	0003      	movs	r3, r0
10009836:	3308      	adds	r3, #8
10009838:	2201      	movs	r2, #1
1000983a:	6043      	str	r3, [r0, #4]
1000983c:	60c3      	str	r3, [r0, #12]
1000983e:	6103      	str	r3, [r0, #16]
10009840:	2300      	movs	r3, #0
10009842:	4252      	negs	r2, r2
10009844:	6082      	str	r2, [r0, #8]
10009846:	6003      	str	r3, [r0, #0]
10009848:	4770      	bx	lr
1000984a:	46c0      	nop			; (mov r8, r8)

1000984c <vListInitialiseItem>:
1000984c:	2300      	movs	r3, #0
1000984e:	6103      	str	r3, [r0, #16]
10009850:	4770      	bx	lr
10009852:	46c0      	nop			; (mov r8, r8)

10009854 <vListInsertEnd>:
10009854:	6843      	ldr	r3, [r0, #4]
10009856:	689a      	ldr	r2, [r3, #8]
10009858:	604b      	str	r3, [r1, #4]
1000985a:	608a      	str	r2, [r1, #8]
1000985c:	689a      	ldr	r2, [r3, #8]
1000985e:	6051      	str	r1, [r2, #4]
10009860:	6099      	str	r1, [r3, #8]
10009862:	6803      	ldr	r3, [r0, #0]
10009864:	6108      	str	r0, [r1, #16]
10009866:	3301      	adds	r3, #1
10009868:	6003      	str	r3, [r0, #0]
1000986a:	4770      	bx	lr

1000986c <vListInsert>:
1000986c:	0003      	movs	r3, r0
1000986e:	b530      	push	{r4, r5, lr}
10009870:	680c      	ldr	r4, [r1, #0]
10009872:	3308      	adds	r3, #8
10009874:	1c62      	adds	r2, r4, #1
10009876:	d00d      	beq.n	10009894 <vListInsert+0x28>
10009878:	001a      	movs	r2, r3
1000987a:	685b      	ldr	r3, [r3, #4]
1000987c:	681d      	ldr	r5, [r3, #0]
1000987e:	42a5      	cmp	r5, r4
10009880:	d9fa      	bls.n	10009878 <vListInsert+0xc>
10009882:	604b      	str	r3, [r1, #4]
10009884:	6099      	str	r1, [r3, #8]
10009886:	6803      	ldr	r3, [r0, #0]
10009888:	608a      	str	r2, [r1, #8]
1000988a:	3301      	adds	r3, #1
1000988c:	6051      	str	r1, [r2, #4]
1000988e:	6108      	str	r0, [r1, #16]
10009890:	6003      	str	r3, [r0, #0]
10009892:	bd30      	pop	{r4, r5, pc}
10009894:	6902      	ldr	r2, [r0, #16]
10009896:	6853      	ldr	r3, [r2, #4]
10009898:	e7f3      	b.n	10009882 <vListInsert+0x16>
1000989a:	46c0      	nop			; (mov r8, r8)

1000989c <uxListRemove>:
1000989c:	6903      	ldr	r3, [r0, #16]
1000989e:	6841      	ldr	r1, [r0, #4]
100098a0:	6882      	ldr	r2, [r0, #8]
100098a2:	608a      	str	r2, [r1, #8]
100098a4:	6051      	str	r1, [r2, #4]
100098a6:	6859      	ldr	r1, [r3, #4]
100098a8:	4281      	cmp	r1, r0
100098aa:	d006      	beq.n	100098ba <uxListRemove+0x1e>
100098ac:	2200      	movs	r2, #0
100098ae:	6102      	str	r2, [r0, #16]
100098b0:	681a      	ldr	r2, [r3, #0]
100098b2:	3a01      	subs	r2, #1
100098b4:	601a      	str	r2, [r3, #0]
100098b6:	6818      	ldr	r0, [r3, #0]
100098b8:	4770      	bx	lr
100098ba:	605a      	str	r2, [r3, #4]
100098bc:	e7f6      	b.n	100098ac <uxListRemove+0x10>
100098be:	46c0      	nop			; (mov r8, r8)

100098c0 <xQueueGenericReset>:
100098c0:	b570      	push	{r4, r5, r6, lr}
100098c2:	0004      	movs	r4, r0
100098c4:	000d      	movs	r5, r1
100098c6:	2800      	cmp	r0, #0
100098c8:	d032      	beq.n	10009930 <xQueueGenericReset+0x70>
100098ca:	6bc3      	ldr	r3, [r0, #60]	; 0x3c
100098cc:	2000      	movs	r0, #0
100098ce:	2b00      	cmp	r3, #0
100098d0:	d020      	beq.n	10009914 <xQueueGenericReset+0x54>
100098d2:	6c21      	ldr	r1, [r4, #64]	; 0x40
100098d4:	0c18      	lsrs	r0, r3, #16
100098d6:	0c0a      	lsrs	r2, r1, #16
100098d8:	d11d      	bne.n	10009916 <xQueueGenericReset+0x56>
100098da:	2800      	cmp	r0, #0
100098dc:	d12a      	bne.n	10009934 <xQueueGenericReset+0x74>
100098de:	f7ff ff21 	bl	10009724 <vPortEnterCritical>
100098e2:	6c21      	ldr	r1, [r4, #64]	; 0x40
100098e4:	6be3      	ldr	r3, [r4, #60]	; 0x3c
100098e6:	6822      	ldr	r2, [r4, #0]
100098e8:	434b      	muls	r3, r1
100098ea:	18d0      	adds	r0, r2, r3
100098ec:	1a5b      	subs	r3, r3, r1
100098ee:	18d3      	adds	r3, r2, r3
100098f0:	60a0      	str	r0, [r4, #8]
100098f2:	6062      	str	r2, [r4, #4]
100098f4:	60e3      	str	r3, [r4, #12]
100098f6:	2244      	movs	r2, #68	; 0x44
100098f8:	23ff      	movs	r3, #255	; 0xff
100098fa:	2000      	movs	r0, #0
100098fc:	63a0      	str	r0, [r4, #56]	; 0x38
100098fe:	54a3      	strb	r3, [r4, r2]
10009900:	3201      	adds	r2, #1
10009902:	54a3      	strb	r3, [r4, r2]
10009904:	2d00      	cmp	r5, #0
10009906:	d118      	bne.n	1000993a <xQueueGenericReset+0x7a>
10009908:	6923      	ldr	r3, [r4, #16]
1000990a:	2b00      	cmp	r3, #0
1000990c:	d11e      	bne.n	1000994c <xQueueGenericReset+0x8c>
1000990e:	f7ff ff15 	bl	1000973c <vPortExitCritical>
10009912:	2001      	movs	r0, #1
10009914:	bd70      	pop	{r4, r5, r6, pc}
10009916:	2800      	cmp	r0, #0
10009918:	d10a      	bne.n	10009930 <xQueueGenericReset+0x70>
1000991a:	1c18      	adds	r0, r3, #0
1000991c:	b289      	uxth	r1, r1
1000991e:	b29b      	uxth	r3, r3
10009920:	434b      	muls	r3, r1
10009922:	b280      	uxth	r0, r0
10009924:	b292      	uxth	r2, r2
10009926:	4342      	muls	r2, r0
10009928:	0c1b      	lsrs	r3, r3, #16
1000992a:	18d3      	adds	r3, r2, r3
1000992c:	0c1b      	lsrs	r3, r3, #16
1000992e:	d0d6      	beq.n	100098de <xQueueGenericReset+0x1e>
10009930:	2000      	movs	r0, #0
10009932:	e7ef      	b.n	10009914 <xQueueGenericReset+0x54>
10009934:	1c02      	adds	r2, r0, #0
10009936:	1c08      	adds	r0, r1, #0
10009938:	e7f0      	b.n	1000991c <xQueueGenericReset+0x5c>
1000993a:	0020      	movs	r0, r4
1000993c:	3010      	adds	r0, #16
1000993e:	f7ff ff79 	bl	10009834 <vListInitialise>
10009942:	0020      	movs	r0, r4
10009944:	3024      	adds	r0, #36	; 0x24
10009946:	f7ff ff75 	bl	10009834 <vListInitialise>
1000994a:	e7e0      	b.n	1000990e <xQueueGenericReset+0x4e>
1000994c:	0020      	movs	r0, r4
1000994e:	3010      	adds	r0, #16
10009950:	f7ff f892 	bl	10008a78 <xTaskRemoveFromEventList>
10009954:	2800      	cmp	r0, #0
10009956:	d0da      	beq.n	1000990e <xQueueGenericReset+0x4e>
10009958:	f7ff fed8 	bl	1000970c <vPortYield>
1000995c:	e7d7      	b.n	1000990e <xQueueGenericReset+0x4e>
1000995e:	46c0      	nop			; (mov r8, r8)

10009960 <xQueueGenericCreate>:
10009960:	b570      	push	{r4, r5, r6, lr}
10009962:	0005      	movs	r5, r0
10009964:	000e      	movs	r6, r1
10009966:	2800      	cmp	r0, #0
10009968:	d043      	beq.n	100099f2 <xQueueGenericCreate+0x92>
1000996a:	0c0b      	lsrs	r3, r1, #16
1000996c:	0c02      	lsrs	r2, r0, #16
1000996e:	2b00      	cmp	r3, #0
10009970:	d131      	bne.n	100099d6 <xQueueGenericCreate+0x76>
10009972:	1c33      	adds	r3, r6, #0
10009974:	2a00      	cmp	r2, #0
10009976:	d132      	bne.n	100099de <xQueueGenericCreate+0x7e>
10009978:	0030      	movs	r0, r6
1000997a:	4368      	muls	r0, r5
1000997c:	0003      	movs	r3, r0
1000997e:	3349      	adds	r3, #73	; 0x49
10009980:	d837      	bhi.n	100099f2 <xQueueGenericCreate+0x92>
10009982:	3048      	adds	r0, #72	; 0x48
10009984:	f7ff fe74 	bl	10009670 <pvPortMalloc>
10009988:	1e04      	subs	r4, r0, #0
1000998a:	d032      	beq.n	100099f2 <xQueueGenericCreate+0x92>
1000998c:	0003      	movs	r3, r0
1000998e:	2e00      	cmp	r6, #0
10009990:	d000      	beq.n	10009994 <xQueueGenericCreate+0x34>
10009992:	3348      	adds	r3, #72	; 0x48
10009994:	6023      	str	r3, [r4, #0]
10009996:	63e5      	str	r5, [r4, #60]	; 0x3c
10009998:	6426      	str	r6, [r4, #64]	; 0x40
1000999a:	f7ff fec3 	bl	10009724 <vPortEnterCritical>
1000999e:	6c21      	ldr	r1, [r4, #64]	; 0x40
100099a0:	6be3      	ldr	r3, [r4, #60]	; 0x3c
100099a2:	6822      	ldr	r2, [r4, #0]
100099a4:	434b      	muls	r3, r1
100099a6:	18d0      	adds	r0, r2, r3
100099a8:	60a0      	str	r0, [r4, #8]
100099aa:	2000      	movs	r0, #0
100099ac:	1a5b      	subs	r3, r3, r1
100099ae:	18d3      	adds	r3, r2, r3
100099b0:	6062      	str	r2, [r4, #4]
100099b2:	60e3      	str	r3, [r4, #12]
100099b4:	2244      	movs	r2, #68	; 0x44
100099b6:	23ff      	movs	r3, #255	; 0xff
100099b8:	63a0      	str	r0, [r4, #56]	; 0x38
100099ba:	0020      	movs	r0, r4
100099bc:	54a3      	strb	r3, [r4, r2]
100099be:	3201      	adds	r2, #1
100099c0:	54a3      	strb	r3, [r4, r2]
100099c2:	3010      	adds	r0, #16
100099c4:	f7ff ff36 	bl	10009834 <vListInitialise>
100099c8:	0020      	movs	r0, r4
100099ca:	3024      	adds	r0, #36	; 0x24
100099cc:	f7ff ff32 	bl	10009834 <vListInitialise>
100099d0:	f7ff feb4 	bl	1000973c <vPortExitCritical>
100099d4:	e00e      	b.n	100099f4 <xQueueGenericCreate+0x94>
100099d6:	2a00      	cmp	r2, #0
100099d8:	d10b      	bne.n	100099f2 <xQueueGenericCreate+0x92>
100099da:	1c1a      	adds	r2, r3, #0
100099dc:	1c03      	adds	r3, r0, #0
100099de:	b2b0      	uxth	r0, r6
100099e0:	b2a9      	uxth	r1, r5
100099e2:	4341      	muls	r1, r0
100099e4:	b298      	uxth	r0, r3
100099e6:	b293      	uxth	r3, r2
100099e8:	4343      	muls	r3, r0
100099ea:	0c09      	lsrs	r1, r1, #16
100099ec:	185b      	adds	r3, r3, r1
100099ee:	0c1b      	lsrs	r3, r3, #16
100099f0:	d0c2      	beq.n	10009978 <xQueueGenericCreate+0x18>
100099f2:	2400      	movs	r4, #0
100099f4:	0020      	movs	r0, r4
100099f6:	bd70      	pop	{r4, r5, r6, pc}

100099f8 <xQueueGenericSend>:
100099f8:	b5f0      	push	{r4, r5, r6, r7, lr}
100099fa:	46ce      	mov	lr, r9
100099fc:	4647      	mov	r7, r8
100099fe:	0004      	movs	r4, r0
10009a00:	0006      	movs	r6, r0
10009a02:	b580      	push	{r7, lr}
10009a04:	b085      	sub	sp, #20
10009a06:	4699      	mov	r9, r3
10009a08:	9201      	str	r2, [sp, #4]
10009a0a:	4688      	mov	r8, r1
10009a0c:	f7ff fe8a 	bl	10009724 <vPortEnterCritical>
10009a10:	6ba3      	ldr	r3, [r4, #56]	; 0x38
10009a12:	6be2      	ldr	r2, [r4, #60]	; 0x3c
10009a14:	2500      	movs	r5, #0
10009a16:	3624      	adds	r6, #36	; 0x24
10009a18:	4293      	cmp	r3, r2
10009a1a:	d37c      	bcc.n	10009b16 <xQueueGenericSend+0x11e>
10009a1c:	464b      	mov	r3, r9
10009a1e:	2b02      	cmp	r3, #2
10009a20:	d100      	bne.n	10009a24 <xQueueGenericSend+0x2c>
10009a22:	e0e1      	b.n	10009be8 <xQueueGenericSend+0x1f0>
10009a24:	9b01      	ldr	r3, [sp, #4]
10009a26:	2b00      	cmp	r3, #0
10009a28:	d100      	bne.n	10009a2c <xQueueGenericSend+0x34>
10009a2a:	e0f9      	b.n	10009c20 <xQueueGenericSend+0x228>
10009a2c:	2d00      	cmp	r5, #0
10009a2e:	d100      	bne.n	10009a32 <xQueueGenericSend+0x3a>
10009a30:	e0d6      	b.n	10009be0 <xQueueGenericSend+0x1e8>
10009a32:	f7ff fe83 	bl	1000973c <vPortExitCritical>
10009a36:	f7fe fda9 	bl	1000858c <vTaskSuspendAll>
10009a3a:	f7ff fe73 	bl	10009724 <vPortEnterCritical>
10009a3e:	2244      	movs	r2, #68	; 0x44
10009a40:	5ca3      	ldrb	r3, [r4, r2]
10009a42:	b25b      	sxtb	r3, r3
10009a44:	3301      	adds	r3, #1
10009a46:	d101      	bne.n	10009a4c <xQueueGenericSend+0x54>
10009a48:	2300      	movs	r3, #0
10009a4a:	54a3      	strb	r3, [r4, r2]
10009a4c:	2245      	movs	r2, #69	; 0x45
10009a4e:	5ca3      	ldrb	r3, [r4, r2]
10009a50:	b25b      	sxtb	r3, r3
10009a52:	3301      	adds	r3, #1
10009a54:	d101      	bne.n	10009a5a <xQueueGenericSend+0x62>
10009a56:	2300      	movs	r3, #0
10009a58:	54a3      	strb	r3, [r4, r2]
10009a5a:	f7ff fe6f 	bl	1000973c <vPortExitCritical>
10009a5e:	a901      	add	r1, sp, #4
10009a60:	a802      	add	r0, sp, #8
10009a62:	f7ff f8cd 	bl	10008c00 <xTaskCheckForTimeOut>
10009a66:	2800      	cmp	r0, #0
10009a68:	d000      	beq.n	10009a6c <xQueueGenericSend+0x74>
10009a6a:	e0dd      	b.n	10009c28 <xQueueGenericSend+0x230>
10009a6c:	f7ff fe5a 	bl	10009724 <vPortEnterCritical>
10009a70:	6ba3      	ldr	r3, [r4, #56]	; 0x38
10009a72:	6be2      	ldr	r2, [r4, #60]	; 0x3c
10009a74:	4293      	cmp	r3, r2
10009a76:	d061      	beq.n	10009b3c <xQueueGenericSend+0x144>
10009a78:	f7ff fe60 	bl	1000973c <vPortExitCritical>
10009a7c:	f7ff fe52 	bl	10009724 <vPortEnterCritical>
10009a80:	2345      	movs	r3, #69	; 0x45
10009a82:	5ce5      	ldrb	r5, [r4, r3]
10009a84:	b26d      	sxtb	r5, r5
10009a86:	2d00      	cmp	r5, #0
10009a88:	dc05      	bgt.n	10009a96 <xQueueGenericSend+0x9e>
10009a8a:	e013      	b.n	10009ab4 <xQueueGenericSend+0xbc>
10009a8c:	3d01      	subs	r5, #1
10009a8e:	b2eb      	uxtb	r3, r5
10009a90:	b26d      	sxtb	r5, r5
10009a92:	2b00      	cmp	r3, #0
10009a94:	d00e      	beq.n	10009ab4 <xQueueGenericSend+0xbc>
10009a96:	6a63      	ldr	r3, [r4, #36]	; 0x24
10009a98:	2b00      	cmp	r3, #0
10009a9a:	d00b      	beq.n	10009ab4 <xQueueGenericSend+0xbc>
10009a9c:	0030      	movs	r0, r6
10009a9e:	f7fe ffeb 	bl	10008a78 <xTaskRemoveFromEventList>
10009aa2:	2800      	cmp	r0, #0
10009aa4:	d0f2      	beq.n	10009a8c <xQueueGenericSend+0x94>
10009aa6:	3d01      	subs	r5, #1
10009aa8:	f7ff f8d2 	bl	10008c50 <vTaskMissedYield>
10009aac:	b2eb      	uxtb	r3, r5
10009aae:	b26d      	sxtb	r5, r5
10009ab0:	2b00      	cmp	r3, #0
10009ab2:	d1f0      	bne.n	10009a96 <xQueueGenericSend+0x9e>
10009ab4:	2345      	movs	r3, #69	; 0x45
10009ab6:	22ff      	movs	r2, #255	; 0xff
10009ab8:	54e2      	strb	r2, [r4, r3]
10009aba:	f7ff fe3f 	bl	1000973c <vPortExitCritical>
10009abe:	f7ff fe31 	bl	10009724 <vPortEnterCritical>
10009ac2:	2344      	movs	r3, #68	; 0x44
10009ac4:	0027      	movs	r7, r4
10009ac6:	5ce5      	ldrb	r5, [r4, r3]
10009ac8:	3710      	adds	r7, #16
10009aca:	b26d      	sxtb	r5, r5
10009acc:	2d00      	cmp	r5, #0
10009ace:	dc05      	bgt.n	10009adc <xQueueGenericSend+0xe4>
10009ad0:	e013      	b.n	10009afa <xQueueGenericSend+0x102>
10009ad2:	3d01      	subs	r5, #1
10009ad4:	b2eb      	uxtb	r3, r5
10009ad6:	b26d      	sxtb	r5, r5
10009ad8:	2b00      	cmp	r3, #0
10009ada:	d00e      	beq.n	10009afa <xQueueGenericSend+0x102>
10009adc:	6923      	ldr	r3, [r4, #16]
10009ade:	2b00      	cmp	r3, #0
10009ae0:	d00b      	beq.n	10009afa <xQueueGenericSend+0x102>
10009ae2:	0038      	movs	r0, r7
10009ae4:	f7fe ffc8 	bl	10008a78 <xTaskRemoveFromEventList>
10009ae8:	2800      	cmp	r0, #0
10009aea:	d0f2      	beq.n	10009ad2 <xQueueGenericSend+0xda>
10009aec:	3d01      	subs	r5, #1
10009aee:	f7ff f8af 	bl	10008c50 <vTaskMissedYield>
10009af2:	b2eb      	uxtb	r3, r5
10009af4:	b26d      	sxtb	r5, r5
10009af6:	2b00      	cmp	r3, #0
10009af8:	d1f0      	bne.n	10009adc <xQueueGenericSend+0xe4>
10009afa:	2344      	movs	r3, #68	; 0x44
10009afc:	22ff      	movs	r2, #255	; 0xff
10009afe:	54e2      	strb	r2, [r4, r3]
10009b00:	f7ff fe1c 	bl	1000973c <vPortExitCritical>
10009b04:	f7fe fd4a 	bl	1000859c <xTaskResumeAll>
10009b08:	2501      	movs	r5, #1
10009b0a:	f7ff fe0b 	bl	10009724 <vPortEnterCritical>
10009b0e:	6ba3      	ldr	r3, [r4, #56]	; 0x38
10009b10:	6be2      	ldr	r2, [r4, #60]	; 0x3c
10009b12:	4293      	cmp	r3, r2
10009b14:	d282      	bcs.n	10009a1c <xQueueGenericSend+0x24>
10009b16:	6c22      	ldr	r2, [r4, #64]	; 0x40
10009b18:	6ba5      	ldr	r5, [r4, #56]	; 0x38
10009b1a:	2a00      	cmp	r2, #0
10009b1c:	d000      	beq.n	10009b20 <xQueueGenericSend+0x128>
10009b1e:	e0cd      	b.n	10009cbc <xQueueGenericSend+0x2c4>
10009b20:	3501      	adds	r5, #1
10009b22:	63a5      	str	r5, [r4, #56]	; 0x38
10009b24:	6a63      	ldr	r3, [r4, #36]	; 0x24
10009b26:	2b00      	cmp	r3, #0
10009b28:	d000      	beq.n	10009b2c <xQueueGenericSend+0x134>
10009b2a:	e0db      	b.n	10009ce4 <xQueueGenericSend+0x2ec>
10009b2c:	f7ff fe06 	bl	1000973c <vPortExitCritical>
10009b30:	2001      	movs	r0, #1
10009b32:	b005      	add	sp, #20
10009b34:	bcc0      	pop	{r6, r7}
10009b36:	46b9      	mov	r9, r7
10009b38:	46b0      	mov	r8, r6
10009b3a:	bdf0      	pop	{r4, r5, r6, r7, pc}
10009b3c:	0027      	movs	r7, r4
10009b3e:	3710      	adds	r7, #16
10009b40:	f7ff fdfc 	bl	1000973c <vPortExitCritical>
10009b44:	0038      	movs	r0, r7
10009b46:	9901      	ldr	r1, [sp, #4]
10009b48:	f7fe fec0 	bl	100088cc <vTaskPlaceOnEventList>
10009b4c:	f7ff fdea 	bl	10009724 <vPortEnterCritical>
10009b50:	2345      	movs	r3, #69	; 0x45
10009b52:	5ce5      	ldrb	r5, [r4, r3]
10009b54:	b26d      	sxtb	r5, r5
10009b56:	2d00      	cmp	r5, #0
10009b58:	dc05      	bgt.n	10009b66 <xQueueGenericSend+0x16e>
10009b5a:	e013      	b.n	10009b84 <xQueueGenericSend+0x18c>
10009b5c:	3d01      	subs	r5, #1
10009b5e:	b2ea      	uxtb	r2, r5
10009b60:	b26d      	sxtb	r5, r5
10009b62:	2a00      	cmp	r2, #0
10009b64:	d00e      	beq.n	10009b84 <xQueueGenericSend+0x18c>
10009b66:	6a63      	ldr	r3, [r4, #36]	; 0x24
10009b68:	2b00      	cmp	r3, #0
10009b6a:	d00b      	beq.n	10009b84 <xQueueGenericSend+0x18c>
10009b6c:	0030      	movs	r0, r6
10009b6e:	f7fe ff83 	bl	10008a78 <xTaskRemoveFromEventList>
10009b72:	2800      	cmp	r0, #0
10009b74:	d0f2      	beq.n	10009b5c <xQueueGenericSend+0x164>
10009b76:	3d01      	subs	r5, #1
10009b78:	f7ff f86a 	bl	10008c50 <vTaskMissedYield>
10009b7c:	b2ea      	uxtb	r2, r5
10009b7e:	b26d      	sxtb	r5, r5
10009b80:	2a00      	cmp	r2, #0
10009b82:	d1f0      	bne.n	10009b66 <xQueueGenericSend+0x16e>
10009b84:	2345      	movs	r3, #69	; 0x45
10009b86:	22ff      	movs	r2, #255	; 0xff
10009b88:	54e2      	strb	r2, [r4, r3]
10009b8a:	f7ff fdd7 	bl	1000973c <vPortExitCritical>
10009b8e:	f7ff fdc9 	bl	10009724 <vPortEnterCritical>
10009b92:	2344      	movs	r3, #68	; 0x44
10009b94:	5ce5      	ldrb	r5, [r4, r3]
10009b96:	b26d      	sxtb	r5, r5
10009b98:	2d00      	cmp	r5, #0
10009b9a:	dc05      	bgt.n	10009ba8 <xQueueGenericSend+0x1b0>
10009b9c:	e013      	b.n	10009bc6 <xQueueGenericSend+0x1ce>
10009b9e:	3d01      	subs	r5, #1
10009ba0:	b2ea      	uxtb	r2, r5
10009ba2:	b26d      	sxtb	r5, r5
10009ba4:	2a00      	cmp	r2, #0
10009ba6:	d00e      	beq.n	10009bc6 <xQueueGenericSend+0x1ce>
10009ba8:	6923      	ldr	r3, [r4, #16]
10009baa:	2b00      	cmp	r3, #0
10009bac:	d00b      	beq.n	10009bc6 <xQueueGenericSend+0x1ce>
10009bae:	0038      	movs	r0, r7
10009bb0:	f7fe ff62 	bl	10008a78 <xTaskRemoveFromEventList>
10009bb4:	2800      	cmp	r0, #0
10009bb6:	d0f2      	beq.n	10009b9e <xQueueGenericSend+0x1a6>
10009bb8:	3d01      	subs	r5, #1
10009bba:	f7ff f849 	bl	10008c50 <vTaskMissedYield>
10009bbe:	b2ea      	uxtb	r2, r5
10009bc0:	b26d      	sxtb	r5, r5
10009bc2:	2a00      	cmp	r2, #0
10009bc4:	d1f0      	bne.n	10009ba8 <xQueueGenericSend+0x1b0>
10009bc6:	2344      	movs	r3, #68	; 0x44
10009bc8:	22ff      	movs	r2, #255	; 0xff
10009bca:	54e2      	strb	r2, [r4, r3]
10009bcc:	f7ff fdb6 	bl	1000973c <vPortExitCritical>
10009bd0:	f7fe fce4 	bl	1000859c <xTaskResumeAll>
10009bd4:	2800      	cmp	r0, #0
10009bd6:	d197      	bne.n	10009b08 <xQueueGenericSend+0x110>
10009bd8:	f7ff fd98 	bl	1000970c <vPortYield>
10009bdc:	2501      	movs	r5, #1
10009bde:	e794      	b.n	10009b0a <xQueueGenericSend+0x112>
10009be0:	a802      	add	r0, sp, #8
10009be2:	f7ff f805 	bl	10008bf0 <vTaskInternalSetTimeOutState>
10009be6:	e724      	b.n	10009a32 <xQueueGenericSend+0x3a>
10009be8:	6c22      	ldr	r2, [r4, #64]	; 0x40
10009bea:	6ba5      	ldr	r5, [r4, #56]	; 0x38
10009bec:	2a00      	cmp	r2, #0
10009bee:	d097      	beq.n	10009b20 <xQueueGenericSend+0x128>
10009bf0:	4641      	mov	r1, r8
10009bf2:	68e0      	ldr	r0, [r4, #12]
10009bf4:	f7fa ffdc 	bl	10004bb0 <__wrap___aeabi_memcpy>
10009bf8:	68e1      	ldr	r1, [r4, #12]
10009bfa:	6c23      	ldr	r3, [r4, #64]	; 0x40
10009bfc:	425a      	negs	r2, r3
10009bfe:	1acb      	subs	r3, r1, r3
10009c00:	6821      	ldr	r1, [r4, #0]
10009c02:	60e3      	str	r3, [r4, #12]
10009c04:	428b      	cmp	r3, r1
10009c06:	d207      	bcs.n	10009c18 <xQueueGenericSend+0x220>
10009c08:	68a3      	ldr	r3, [r4, #8]
10009c0a:	469c      	mov	ip, r3
10009c0c:	4462      	add	r2, ip
10009c0e:	60e2      	str	r2, [r4, #12]
10009c10:	464b      	mov	r3, r9
10009c12:	2b02      	cmp	r3, #2
10009c14:	d000      	beq.n	10009c18 <xQueueGenericSend+0x220>
10009c16:	e783      	b.n	10009b20 <xQueueGenericSend+0x128>
10009c18:	2d00      	cmp	r5, #0
10009c1a:	d000      	beq.n	10009c1e <xQueueGenericSend+0x226>
10009c1c:	e781      	b.n	10009b22 <xQueueGenericSend+0x12a>
10009c1e:	e77f      	b.n	10009b20 <xQueueGenericSend+0x128>
10009c20:	f7ff fd8c 	bl	1000973c <vPortExitCritical>
10009c24:	2000      	movs	r0, #0
10009c26:	e784      	b.n	10009b32 <xQueueGenericSend+0x13a>
10009c28:	f7ff fd7c 	bl	10009724 <vPortEnterCritical>
10009c2c:	2345      	movs	r3, #69	; 0x45
10009c2e:	0026      	movs	r6, r4
10009c30:	5ce5      	ldrb	r5, [r4, r3]
10009c32:	3624      	adds	r6, #36	; 0x24
10009c34:	b26d      	sxtb	r5, r5
10009c36:	2d00      	cmp	r5, #0
10009c38:	dc05      	bgt.n	10009c46 <xQueueGenericSend+0x24e>
10009c3a:	e013      	b.n	10009c64 <xQueueGenericSend+0x26c>
10009c3c:	3d01      	subs	r5, #1
10009c3e:	b2ea      	uxtb	r2, r5
10009c40:	b26d      	sxtb	r5, r5
10009c42:	2a00      	cmp	r2, #0
10009c44:	d00e      	beq.n	10009c64 <xQueueGenericSend+0x26c>
10009c46:	6a63      	ldr	r3, [r4, #36]	; 0x24
10009c48:	2b00      	cmp	r3, #0
10009c4a:	d00b      	beq.n	10009c64 <xQueueGenericSend+0x26c>
10009c4c:	0030      	movs	r0, r6
10009c4e:	f7fe ff13 	bl	10008a78 <xTaskRemoveFromEventList>
10009c52:	2800      	cmp	r0, #0
10009c54:	d0f2      	beq.n	10009c3c <xQueueGenericSend+0x244>
10009c56:	3d01      	subs	r5, #1
10009c58:	f7fe fffa 	bl	10008c50 <vTaskMissedYield>
10009c5c:	b2ea      	uxtb	r2, r5
10009c5e:	b26d      	sxtb	r5, r5
10009c60:	2a00      	cmp	r2, #0
10009c62:	d1f0      	bne.n	10009c46 <xQueueGenericSend+0x24e>
10009c64:	2345      	movs	r3, #69	; 0x45
10009c66:	22ff      	movs	r2, #255	; 0xff
10009c68:	54e2      	strb	r2, [r4, r3]
10009c6a:	f7ff fd67 	bl	1000973c <vPortExitCritical>
10009c6e:	f7ff fd59 	bl	10009724 <vPortEnterCritical>
10009c72:	2344      	movs	r3, #68	; 0x44
10009c74:	0026      	movs	r6, r4
10009c76:	5ce5      	ldrb	r5, [r4, r3]
10009c78:	3610      	adds	r6, #16
10009c7a:	b26d      	sxtb	r5, r5
10009c7c:	2d00      	cmp	r5, #0
10009c7e:	dc05      	bgt.n	10009c8c <xQueueGenericSend+0x294>
10009c80:	e013      	b.n	10009caa <xQueueGenericSend+0x2b2>
10009c82:	3d01      	subs	r5, #1
10009c84:	b2ea      	uxtb	r2, r5
10009c86:	b26d      	sxtb	r5, r5
10009c88:	2a00      	cmp	r2, #0
10009c8a:	d00e      	beq.n	10009caa <xQueueGenericSend+0x2b2>
10009c8c:	6923      	ldr	r3, [r4, #16]
10009c8e:	2b00      	cmp	r3, #0
10009c90:	d00b      	beq.n	10009caa <xQueueGenericSend+0x2b2>
10009c92:	0030      	movs	r0, r6
10009c94:	f7fe fef0 	bl	10008a78 <xTaskRemoveFromEventList>
10009c98:	2800      	cmp	r0, #0
10009c9a:	d0f2      	beq.n	10009c82 <xQueueGenericSend+0x28a>
10009c9c:	3d01      	subs	r5, #1
10009c9e:	f7fe ffd7 	bl	10008c50 <vTaskMissedYield>
10009ca2:	b2ea      	uxtb	r2, r5
10009ca4:	b26d      	sxtb	r5, r5
10009ca6:	2a00      	cmp	r2, #0
10009ca8:	d1f0      	bne.n	10009c8c <xQueueGenericSend+0x294>
10009caa:	2344      	movs	r3, #68	; 0x44
10009cac:	22ff      	movs	r2, #255	; 0xff
10009cae:	54e2      	strb	r2, [r4, r3]
10009cb0:	f7ff fd44 	bl	1000973c <vPortExitCritical>
10009cb4:	f7fe fc72 	bl	1000859c <xTaskResumeAll>
10009cb8:	2000      	movs	r0, #0
10009cba:	e73a      	b.n	10009b32 <xQueueGenericSend+0x13a>
10009cbc:	464b      	mov	r3, r9
10009cbe:	4641      	mov	r1, r8
10009cc0:	2b00      	cmp	r3, #0
10009cc2:	d119      	bne.n	10009cf8 <xQueueGenericSend+0x300>
10009cc4:	6860      	ldr	r0, [r4, #4]
10009cc6:	f7fa ff73 	bl	10004bb0 <__wrap___aeabi_memcpy>
10009cca:	6c22      	ldr	r2, [r4, #64]	; 0x40
10009ccc:	6863      	ldr	r3, [r4, #4]
10009cce:	4694      	mov	ip, r2
10009cd0:	68a2      	ldr	r2, [r4, #8]
10009cd2:	4463      	add	r3, ip
10009cd4:	6063      	str	r3, [r4, #4]
10009cd6:	4293      	cmp	r3, r2
10009cd8:	d200      	bcs.n	10009cdc <xQueueGenericSend+0x2e4>
10009cda:	e721      	b.n	10009b20 <xQueueGenericSend+0x128>
10009cdc:	6823      	ldr	r3, [r4, #0]
10009cde:	3501      	adds	r5, #1
10009ce0:	6063      	str	r3, [r4, #4]
10009ce2:	e71e      	b.n	10009b22 <xQueueGenericSend+0x12a>
10009ce4:	0020      	movs	r0, r4
10009ce6:	3024      	adds	r0, #36	; 0x24
10009ce8:	f7fe fec6 	bl	10008a78 <xTaskRemoveFromEventList>
10009cec:	2800      	cmp	r0, #0
10009cee:	d100      	bne.n	10009cf2 <xQueueGenericSend+0x2fa>
10009cf0:	e71c      	b.n	10009b2c <xQueueGenericSend+0x134>
10009cf2:	f7ff fd0b 	bl	1000970c <vPortYield>
10009cf6:	e719      	b.n	10009b2c <xQueueGenericSend+0x134>
10009cf8:	68e0      	ldr	r0, [r4, #12]
10009cfa:	f7fa ff59 	bl	10004bb0 <__wrap___aeabi_memcpy>
10009cfe:	68e1      	ldr	r1, [r4, #12]
10009d00:	6c23      	ldr	r3, [r4, #64]	; 0x40
10009d02:	425a      	negs	r2, r3
10009d04:	1acb      	subs	r3, r1, r3
10009d06:	6821      	ldr	r1, [r4, #0]
10009d08:	60e3      	str	r3, [r4, #12]
10009d0a:	428b      	cmp	r3, r1
10009d0c:	d280      	bcs.n	10009c10 <xQueueGenericSend+0x218>
10009d0e:	e77b      	b.n	10009c08 <xQueueGenericSend+0x210>

10009d10 <xQueueGenericSendFromISR>:
10009d10:	b5f0      	push	{r4, r5, r6, r7, lr}
10009d12:	464f      	mov	r7, r9
10009d14:	46d6      	mov	lr, sl
10009d16:	4646      	mov	r6, r8
10009d18:	b5c0      	push	{r6, r7, lr}
10009d1a:	0004      	movs	r4, r0
10009d1c:	4699      	mov	r9, r3
10009d1e:	000f      	movs	r7, r1
10009d20:	4690      	mov	r8, r2
10009d22:	f7ff fd15 	bl	10009750 <ulSetInterruptMaskFromISR>
10009d26:	6be3      	ldr	r3, [r4, #60]	; 0x3c
10009d28:	0005      	movs	r5, r0
10009d2a:	6ba0      	ldr	r0, [r4, #56]	; 0x38
10009d2c:	4298      	cmp	r0, r3
10009d2e:	d337      	bcc.n	10009da0 <xQueueGenericSendFromISR+0x90>
10009d30:	464b      	mov	r3, r9
10009d32:	2b02      	cmp	r3, #2
10009d34:	d009      	beq.n	10009d4a <xQueueGenericSendFromISR+0x3a>
10009d36:	2400      	movs	r4, #0
10009d38:	0028      	movs	r0, r5
10009d3a:	f7ff fd0d 	bl	10009758 <vClearInterruptMaskFromISR>
10009d3e:	0020      	movs	r0, r4
10009d40:	bce0      	pop	{r5, r6, r7}
10009d42:	46ba      	mov	sl, r7
10009d44:	46b1      	mov	r9, r6
10009d46:	46a8      	mov	r8, r5
10009d48:	bdf0      	pop	{r4, r5, r6, r7, pc}
10009d4a:	2345      	movs	r3, #69	; 0x45
10009d4c:	6c22      	ldr	r2, [r4, #64]	; 0x40
10009d4e:	5ce6      	ldrb	r6, [r4, r3]
10009d50:	6ba3      	ldr	r3, [r4, #56]	; 0x38
10009d52:	6ba3      	ldr	r3, [r4, #56]	; 0x38
10009d54:	b276      	sxtb	r6, r6
10009d56:	469a      	mov	sl, r3
10009d58:	2a00      	cmp	r2, #0
10009d5a:	d02a      	beq.n	10009db2 <xQueueGenericSendFromISR+0xa2>
10009d5c:	0039      	movs	r1, r7
10009d5e:	68e0      	ldr	r0, [r4, #12]
10009d60:	f7fa ff26 	bl	10004bb0 <__wrap___aeabi_memcpy>
10009d64:	68e1      	ldr	r1, [r4, #12]
10009d66:	6c23      	ldr	r3, [r4, #64]	; 0x40
10009d68:	425a      	negs	r2, r3
10009d6a:	1acb      	subs	r3, r1, r3
10009d6c:	6821      	ldr	r1, [r4, #0]
10009d6e:	60e3      	str	r3, [r4, #12]
10009d70:	428b      	cmp	r3, r1
10009d72:	d249      	bcs.n	10009e08 <xQueueGenericSendFromISR+0xf8>
10009d74:	68a3      	ldr	r3, [r4, #8]
10009d76:	469c      	mov	ip, r3
10009d78:	4462      	add	r2, ip
10009d7a:	60e2      	str	r2, [r4, #12]
10009d7c:	464b      	mov	r3, r9
10009d7e:	2b02      	cmp	r3, #2
10009d80:	d042      	beq.n	10009e08 <xQueueGenericSendFromISR+0xf8>
10009d82:	4653      	mov	r3, sl
10009d84:	3301      	adds	r3, #1
10009d86:	63a3      	str	r3, [r4, #56]	; 0x38
10009d88:	1c73      	adds	r3, r6, #1
10009d8a:	d016      	beq.n	10009dba <xQueueGenericSendFromISR+0xaa>
10009d8c:	f7fe fd14 	bl	100087b8 <uxTaskGetNumberOfTasks>
10009d90:	4286      	cmp	r6, r0
10009d92:	d215      	bcs.n	10009dc0 <xQueueGenericSendFromISR+0xb0>
10009d94:	2345      	movs	r3, #69	; 0x45
10009d96:	3601      	adds	r6, #1
10009d98:	b276      	sxtb	r6, r6
10009d9a:	54e6      	strb	r6, [r4, r3]
10009d9c:	2401      	movs	r4, #1
10009d9e:	e7cb      	b.n	10009d38 <xQueueGenericSendFromISR+0x28>
10009da0:	2345      	movs	r3, #69	; 0x45
10009da2:	6c22      	ldr	r2, [r4, #64]	; 0x40
10009da4:	5ce6      	ldrb	r6, [r4, r3]
10009da6:	6ba3      	ldr	r3, [r4, #56]	; 0x38
10009da8:	6ba3      	ldr	r3, [r4, #56]	; 0x38
10009daa:	b276      	sxtb	r6, r6
10009dac:	469a      	mov	sl, r3
10009dae:	2a00      	cmp	r2, #0
10009db0:	d108      	bne.n	10009dc4 <xQueueGenericSendFromISR+0xb4>
10009db2:	3301      	adds	r3, #1
10009db4:	63a3      	str	r3, [r4, #56]	; 0x38
10009db6:	1c73      	adds	r3, r6, #1
10009db8:	d1e8      	bne.n	10009d8c <xQueueGenericSendFromISR+0x7c>
10009dba:	6a63      	ldr	r3, [r4, #36]	; 0x24
10009dbc:	2b00      	cmp	r3, #0
10009dbe:	d115      	bne.n	10009dec <xQueueGenericSendFromISR+0xdc>
10009dc0:	2401      	movs	r4, #1
10009dc2:	e7b9      	b.n	10009d38 <xQueueGenericSendFromISR+0x28>
10009dc4:	464b      	mov	r3, r9
10009dc6:	0039      	movs	r1, r7
10009dc8:	2b00      	cmp	r3, #0
10009dca:	d121      	bne.n	10009e10 <xQueueGenericSendFromISR+0x100>
10009dcc:	6860      	ldr	r0, [r4, #4]
10009dce:	f7fa feef 	bl	10004bb0 <__wrap___aeabi_memcpy>
10009dd2:	6c22      	ldr	r2, [r4, #64]	; 0x40
10009dd4:	6863      	ldr	r3, [r4, #4]
10009dd6:	4694      	mov	ip, r2
10009dd8:	68a2      	ldr	r2, [r4, #8]
10009dda:	4463      	add	r3, ip
10009ddc:	6063      	str	r3, [r4, #4]
10009dde:	4293      	cmp	r3, r2
10009de0:	d3cf      	bcc.n	10009d82 <xQueueGenericSendFromISR+0x72>
10009de2:	6823      	ldr	r3, [r4, #0]
10009de4:	6063      	str	r3, [r4, #4]
10009de6:	4653      	mov	r3, sl
10009de8:	3301      	adds	r3, #1
10009dea:	e7e3      	b.n	10009db4 <xQueueGenericSendFromISR+0xa4>
10009dec:	0020      	movs	r0, r4
10009dee:	3024      	adds	r0, #36	; 0x24
10009df0:	f7fe fe42 	bl	10008a78 <xTaskRemoveFromEventList>
10009df4:	2800      	cmp	r0, #0
10009df6:	d0e3      	beq.n	10009dc0 <xQueueGenericSendFromISR+0xb0>
10009df8:	4643      	mov	r3, r8
10009dfa:	2b00      	cmp	r3, #0
10009dfc:	d0e0      	beq.n	10009dc0 <xQueueGenericSendFromISR+0xb0>
10009dfe:	2301      	movs	r3, #1
10009e00:	4642      	mov	r2, r8
10009e02:	2401      	movs	r4, #1
10009e04:	6013      	str	r3, [r2, #0]
10009e06:	e797      	b.n	10009d38 <xQueueGenericSendFromISR+0x28>
10009e08:	4653      	mov	r3, sl
10009e0a:	2b00      	cmp	r3, #0
10009e0c:	d1d2      	bne.n	10009db4 <xQueueGenericSendFromISR+0xa4>
10009e0e:	e7d0      	b.n	10009db2 <xQueueGenericSendFromISR+0xa2>
10009e10:	68e0      	ldr	r0, [r4, #12]
10009e12:	f7fa fecd 	bl	10004bb0 <__wrap___aeabi_memcpy>
10009e16:	68e1      	ldr	r1, [r4, #12]
10009e18:	6c23      	ldr	r3, [r4, #64]	; 0x40
10009e1a:	425a      	negs	r2, r3
10009e1c:	1acb      	subs	r3, r1, r3
10009e1e:	6821      	ldr	r1, [r4, #0]
10009e20:	60e3      	str	r3, [r4, #12]
10009e22:	428b      	cmp	r3, r1
10009e24:	d2aa      	bcs.n	10009d7c <xQueueGenericSendFromISR+0x6c>
10009e26:	e7a5      	b.n	10009d74 <xQueueGenericSendFromISR+0x64>

10009e28 <xQueueGiveFromISR>:
10009e28:	b5f0      	push	{r4, r5, r6, r7, lr}
10009e2a:	46c6      	mov	lr, r8
10009e2c:	0004      	movs	r4, r0
10009e2e:	b500      	push	{lr}
10009e30:	000e      	movs	r6, r1
10009e32:	f7ff fc8d 	bl	10009750 <ulSetInterruptMaskFromISR>
10009e36:	6ba3      	ldr	r3, [r4, #56]	; 0x38
10009e38:	6be2      	ldr	r2, [r4, #60]	; 0x3c
10009e3a:	0005      	movs	r5, r0
10009e3c:	2700      	movs	r7, #0
10009e3e:	429a      	cmp	r2, r3
10009e40:	d90b      	bls.n	10009e5a <xQueueGiveFromISR+0x32>
10009e42:	2245      	movs	r2, #69	; 0x45
10009e44:	5ca7      	ldrb	r7, [r4, r2]
10009e46:	3301      	adds	r3, #1
10009e48:	b27f      	sxtb	r7, r7
10009e4a:	4690      	mov	r8, r2
10009e4c:	63a3      	str	r3, [r4, #56]	; 0x38
10009e4e:	1c7b      	adds	r3, r7, #1
10009e50:	d10a      	bne.n	10009e68 <xQueueGiveFromISR+0x40>
10009e52:	6a63      	ldr	r3, [r4, #36]	; 0x24
10009e54:	2b00      	cmp	r3, #0
10009e56:	d111      	bne.n	10009e7c <xQueueGiveFromISR+0x54>
10009e58:	2701      	movs	r7, #1
10009e5a:	0028      	movs	r0, r5
10009e5c:	f7ff fc7c 	bl	10009758 <vClearInterruptMaskFromISR>
10009e60:	0038      	movs	r0, r7
10009e62:	bc80      	pop	{r7}
10009e64:	46b8      	mov	r8, r7
10009e66:	bdf0      	pop	{r4, r5, r6, r7, pc}
10009e68:	f7fe fca6 	bl	100087b8 <uxTaskGetNumberOfTasks>
10009e6c:	4287      	cmp	r7, r0
10009e6e:	d2f3      	bcs.n	10009e58 <xQueueGiveFromISR+0x30>
10009e70:	4643      	mov	r3, r8
10009e72:	3701      	adds	r7, #1
10009e74:	b27f      	sxtb	r7, r7
10009e76:	54e7      	strb	r7, [r4, r3]
10009e78:	2701      	movs	r7, #1
10009e7a:	e7ee      	b.n	10009e5a <xQueueGiveFromISR+0x32>
10009e7c:	0020      	movs	r0, r4
10009e7e:	3024      	adds	r0, #36	; 0x24
10009e80:	f7fe fdfa 	bl	10008a78 <xTaskRemoveFromEventList>
10009e84:	2800      	cmp	r0, #0
10009e86:	d0e7      	beq.n	10009e58 <xQueueGiveFromISR+0x30>
10009e88:	2e00      	cmp	r6, #0
10009e8a:	d0e5      	beq.n	10009e58 <xQueueGiveFromISR+0x30>
10009e8c:	2301      	movs	r3, #1
10009e8e:	2701      	movs	r7, #1
10009e90:	6033      	str	r3, [r6, #0]
10009e92:	e7e2      	b.n	10009e5a <xQueueGiveFromISR+0x32>

10009e94 <xQueueReceive>:
10009e94:	b5f0      	push	{r4, r5, r6, r7, lr}
10009e96:	46ce      	mov	lr, r9
10009e98:	4647      	mov	r7, r8
10009e9a:	0004      	movs	r4, r0
10009e9c:	b580      	push	{r7, lr}
10009e9e:	b085      	sub	sp, #20
10009ea0:	4688      	mov	r8, r1
10009ea2:	9201      	str	r2, [sp, #4]
10009ea4:	f7ff fc3e 	bl	10009724 <vPortEnterCritical>
10009ea8:	6ba5      	ldr	r5, [r4, #56]	; 0x38
10009eaa:	2d00      	cmp	r5, #0
10009eac:	d000      	beq.n	10009eb0 <xQueueReceive+0x1c>
10009eae:	e11f      	b.n	1000a0f0 <xQueueReceive+0x25c>
10009eb0:	9b01      	ldr	r3, [sp, #4]
10009eb2:	2b00      	cmp	r3, #0
10009eb4:	d100      	bne.n	10009eb8 <xQueueReceive+0x24>
10009eb6:	e0cb      	b.n	1000a050 <xQueueReceive+0x1bc>
10009eb8:	0026      	movs	r6, r4
10009eba:	a802      	add	r0, sp, #8
10009ebc:	f7fe fe98 	bl	10008bf0 <vTaskInternalSetTimeOutState>
10009ec0:	2744      	movs	r7, #68	; 0x44
10009ec2:	3624      	adds	r6, #36	; 0x24
10009ec4:	f7ff fc3a 	bl	1000973c <vPortExitCritical>
10009ec8:	f7fe fb60 	bl	1000858c <vTaskSuspendAll>
10009ecc:	f7ff fc2a 	bl	10009724 <vPortEnterCritical>
10009ed0:	5de3      	ldrb	r3, [r4, r7]
10009ed2:	b25b      	sxtb	r3, r3
10009ed4:	3301      	adds	r3, #1
10009ed6:	d101      	bne.n	10009edc <xQueueReceive+0x48>
10009ed8:	2300      	movs	r3, #0
10009eda:	55e3      	strb	r3, [r4, r7]
10009edc:	2245      	movs	r2, #69	; 0x45
10009ede:	5ca3      	ldrb	r3, [r4, r2]
10009ee0:	b25b      	sxtb	r3, r3
10009ee2:	3301      	adds	r3, #1
10009ee4:	d101      	bne.n	10009eea <xQueueReceive+0x56>
10009ee6:	2300      	movs	r3, #0
10009ee8:	54a3      	strb	r3, [r4, r2]
10009eea:	f7ff fc27 	bl	1000973c <vPortExitCritical>
10009eee:	a901      	add	r1, sp, #4
10009ef0:	a802      	add	r0, sp, #8
10009ef2:	f7fe fe85 	bl	10008c00 <xTaskCheckForTimeOut>
10009ef6:	2800      	cmp	r0, #0
10009ef8:	d155      	bne.n	10009fa6 <xQueueReceive+0x112>
10009efa:	f7ff fc13 	bl	10009724 <vPortEnterCritical>
10009efe:	6ba3      	ldr	r3, [r4, #56]	; 0x38
10009f00:	2b00      	cmp	r3, #0
10009f02:	d000      	beq.n	10009f06 <xQueueReceive+0x72>
10009f04:	e0ac      	b.n	1000a060 <xQueueReceive+0x1cc>
10009f06:	f7ff fc19 	bl	1000973c <vPortExitCritical>
10009f0a:	0030      	movs	r0, r6
10009f0c:	9901      	ldr	r1, [sp, #4]
10009f0e:	f7fe fcdd 	bl	100088cc <vTaskPlaceOnEventList>
10009f12:	f7ff fc07 	bl	10009724 <vPortEnterCritical>
10009f16:	2345      	movs	r3, #69	; 0x45
10009f18:	5ce5      	ldrb	r5, [r4, r3]
10009f1a:	b26d      	sxtb	r5, r5
10009f1c:	2d00      	cmp	r5, #0
10009f1e:	dc05      	bgt.n	10009f2c <xQueueReceive+0x98>
10009f20:	e013      	b.n	10009f4a <xQueueReceive+0xb6>
10009f22:	3d01      	subs	r5, #1
10009f24:	b2ea      	uxtb	r2, r5
10009f26:	b26d      	sxtb	r5, r5
10009f28:	2a00      	cmp	r2, #0
10009f2a:	d00e      	beq.n	10009f4a <xQueueReceive+0xb6>
10009f2c:	6a63      	ldr	r3, [r4, #36]	; 0x24
10009f2e:	2b00      	cmp	r3, #0
10009f30:	d00b      	beq.n	10009f4a <xQueueReceive+0xb6>
10009f32:	0030      	movs	r0, r6
10009f34:	f7fe fda0 	bl	10008a78 <xTaskRemoveFromEventList>
10009f38:	2800      	cmp	r0, #0
10009f3a:	d0f2      	beq.n	10009f22 <xQueueReceive+0x8e>
10009f3c:	3d01      	subs	r5, #1
10009f3e:	f7fe fe87 	bl	10008c50 <vTaskMissedYield>
10009f42:	b2ea      	uxtb	r2, r5
10009f44:	b26d      	sxtb	r5, r5
10009f46:	2a00      	cmp	r2, #0
10009f48:	d1f0      	bne.n	10009f2c <xQueueReceive+0x98>
10009f4a:	2345      	movs	r3, #69	; 0x45
10009f4c:	22ff      	movs	r2, #255	; 0xff
10009f4e:	54e2      	strb	r2, [r4, r3]
10009f50:	f7ff fbf4 	bl	1000973c <vPortExitCritical>
10009f54:	f7ff fbe6 	bl	10009724 <vPortEnterCritical>
10009f58:	2310      	movs	r3, #16
10009f5a:	4699      	mov	r9, r3
10009f5c:	5de5      	ldrb	r5, [r4, r7]
10009f5e:	44a1      	add	r9, r4
10009f60:	b26d      	sxtb	r5, r5
10009f62:	2d00      	cmp	r5, #0
10009f64:	dc05      	bgt.n	10009f72 <xQueueReceive+0xde>
10009f66:	e013      	b.n	10009f90 <xQueueReceive+0xfc>
10009f68:	3d01      	subs	r5, #1
10009f6a:	b2ea      	uxtb	r2, r5
10009f6c:	b26d      	sxtb	r5, r5
10009f6e:	2a00      	cmp	r2, #0
10009f70:	d00e      	beq.n	10009f90 <xQueueReceive+0xfc>
10009f72:	6923      	ldr	r3, [r4, #16]
10009f74:	2b00      	cmp	r3, #0
10009f76:	d00b      	beq.n	10009f90 <xQueueReceive+0xfc>
10009f78:	4648      	mov	r0, r9
10009f7a:	f7fe fd7d 	bl	10008a78 <xTaskRemoveFromEventList>
10009f7e:	2800      	cmp	r0, #0
10009f80:	d0f2      	beq.n	10009f68 <xQueueReceive+0xd4>
10009f82:	3d01      	subs	r5, #1
10009f84:	f7fe fe64 	bl	10008c50 <vTaskMissedYield>
10009f88:	b2ea      	uxtb	r2, r5
10009f8a:	b26d      	sxtb	r5, r5
10009f8c:	2a00      	cmp	r2, #0
10009f8e:	d1f0      	bne.n	10009f72 <xQueueReceive+0xde>
10009f90:	23ff      	movs	r3, #255	; 0xff
10009f92:	55e3      	strb	r3, [r4, r7]
10009f94:	f7ff fbd2 	bl	1000973c <vPortExitCritical>
10009f98:	f7fe fb00 	bl	1000859c <xTaskResumeAll>
10009f9c:	2800      	cmp	r0, #0
10009f9e:	d14e      	bne.n	1000a03e <xQueueReceive+0x1aa>
10009fa0:	f7ff fbb4 	bl	1000970c <vPortYield>
10009fa4:	e04b      	b.n	1000a03e <xQueueReceive+0x1aa>
10009fa6:	f7ff fbbd 	bl	10009724 <vPortEnterCritical>
10009faa:	2345      	movs	r3, #69	; 0x45
10009fac:	5ce5      	ldrb	r5, [r4, r3]
10009fae:	b26d      	sxtb	r5, r5
10009fb0:	2d00      	cmp	r5, #0
10009fb2:	dc05      	bgt.n	10009fc0 <xQueueReceive+0x12c>
10009fb4:	e013      	b.n	10009fde <xQueueReceive+0x14a>
10009fb6:	3d01      	subs	r5, #1
10009fb8:	b2ea      	uxtb	r2, r5
10009fba:	b26d      	sxtb	r5, r5
10009fbc:	2a00      	cmp	r2, #0
10009fbe:	d00e      	beq.n	10009fde <xQueueReceive+0x14a>
10009fc0:	6a63      	ldr	r3, [r4, #36]	; 0x24
10009fc2:	2b00      	cmp	r3, #0
10009fc4:	d00b      	beq.n	10009fde <xQueueReceive+0x14a>
10009fc6:	0030      	movs	r0, r6
10009fc8:	f7fe fd56 	bl	10008a78 <xTaskRemoveFromEventList>
10009fcc:	2800      	cmp	r0, #0
10009fce:	d0f2      	beq.n	10009fb6 <xQueueReceive+0x122>
10009fd0:	3d01      	subs	r5, #1
10009fd2:	f7fe fe3d 	bl	10008c50 <vTaskMissedYield>
10009fd6:	b2ea      	uxtb	r2, r5
10009fd8:	b26d      	sxtb	r5, r5
10009fda:	2a00      	cmp	r2, #0
10009fdc:	d1f0      	bne.n	10009fc0 <xQueueReceive+0x12c>
10009fde:	2345      	movs	r3, #69	; 0x45
10009fe0:	22ff      	movs	r2, #255	; 0xff
10009fe2:	54e2      	strb	r2, [r4, r3]
10009fe4:	f7ff fbaa 	bl	1000973c <vPortExitCritical>
10009fe8:	f7ff fb9c 	bl	10009724 <vPortEnterCritical>
10009fec:	2310      	movs	r3, #16
10009fee:	4699      	mov	r9, r3
10009ff0:	5de5      	ldrb	r5, [r4, r7]
10009ff2:	44a1      	add	r9, r4
10009ff4:	b26d      	sxtb	r5, r5
10009ff6:	2d00      	cmp	r5, #0
10009ff8:	dc05      	bgt.n	1000a006 <xQueueReceive+0x172>
10009ffa:	e013      	b.n	1000a024 <xQueueReceive+0x190>
10009ffc:	3d01      	subs	r5, #1
10009ffe:	b2ea      	uxtb	r2, r5
1000a000:	b26d      	sxtb	r5, r5
1000a002:	2a00      	cmp	r2, #0
1000a004:	d00e      	beq.n	1000a024 <xQueueReceive+0x190>
1000a006:	6923      	ldr	r3, [r4, #16]
1000a008:	2b00      	cmp	r3, #0
1000a00a:	d00b      	beq.n	1000a024 <xQueueReceive+0x190>
1000a00c:	4648      	mov	r0, r9
1000a00e:	f7fe fd33 	bl	10008a78 <xTaskRemoveFromEventList>
1000a012:	2800      	cmp	r0, #0
1000a014:	d0f2      	beq.n	10009ffc <xQueueReceive+0x168>
1000a016:	3d01      	subs	r5, #1
1000a018:	f7fe fe1a 	bl	10008c50 <vTaskMissedYield>
1000a01c:	b2ea      	uxtb	r2, r5
1000a01e:	b26d      	sxtb	r5, r5
1000a020:	2a00      	cmp	r2, #0
1000a022:	d1f0      	bne.n	1000a006 <xQueueReceive+0x172>
1000a024:	23ff      	movs	r3, #255	; 0xff
1000a026:	55e3      	strb	r3, [r4, r7]
1000a028:	f7ff fb88 	bl	1000973c <vPortExitCritical>
1000a02c:	f7fe fab6 	bl	1000859c <xTaskResumeAll>
1000a030:	f7ff fb78 	bl	10009724 <vPortEnterCritical>
1000a034:	6ba3      	ldr	r3, [r4, #56]	; 0x38
1000a036:	2b00      	cmp	r3, #0
1000a038:	d00a      	beq.n	1000a050 <xQueueReceive+0x1bc>
1000a03a:	f7ff fb7f 	bl	1000973c <vPortExitCritical>
1000a03e:	f7ff fb71 	bl	10009724 <vPortEnterCritical>
1000a042:	6ba5      	ldr	r5, [r4, #56]	; 0x38
1000a044:	2d00      	cmp	r5, #0
1000a046:	d153      	bne.n	1000a0f0 <xQueueReceive+0x25c>
1000a048:	9b01      	ldr	r3, [sp, #4]
1000a04a:	2b00      	cmp	r3, #0
1000a04c:	d000      	beq.n	1000a050 <xQueueReceive+0x1bc>
1000a04e:	e739      	b.n	10009ec4 <xQueueReceive+0x30>
1000a050:	f7ff fb74 	bl	1000973c <vPortExitCritical>
1000a054:	2000      	movs	r0, #0
1000a056:	b005      	add	sp, #20
1000a058:	bcc0      	pop	{r6, r7}
1000a05a:	46b9      	mov	r9, r7
1000a05c:	46b0      	mov	r8, r6
1000a05e:	bdf0      	pop	{r4, r5, r6, r7, pc}
1000a060:	f7ff fb6c 	bl	1000973c <vPortExitCritical>
1000a064:	f7ff fb5e 	bl	10009724 <vPortEnterCritical>
1000a068:	2345      	movs	r3, #69	; 0x45
1000a06a:	5ce5      	ldrb	r5, [r4, r3]
1000a06c:	b26d      	sxtb	r5, r5
1000a06e:	2d00      	cmp	r5, #0
1000a070:	dc05      	bgt.n	1000a07e <xQueueReceive+0x1ea>
1000a072:	e013      	b.n	1000a09c <xQueueReceive+0x208>
1000a074:	3d01      	subs	r5, #1
1000a076:	b2ea      	uxtb	r2, r5
1000a078:	b26d      	sxtb	r5, r5
1000a07a:	2a00      	cmp	r2, #0
1000a07c:	d00e      	beq.n	1000a09c <xQueueReceive+0x208>
1000a07e:	6a63      	ldr	r3, [r4, #36]	; 0x24
1000a080:	2b00      	cmp	r3, #0
1000a082:	d00b      	beq.n	1000a09c <xQueueReceive+0x208>
1000a084:	0030      	movs	r0, r6
1000a086:	f7fe fcf7 	bl	10008a78 <xTaskRemoveFromEventList>
1000a08a:	2800      	cmp	r0, #0
1000a08c:	d0f2      	beq.n	1000a074 <xQueueReceive+0x1e0>
1000a08e:	3d01      	subs	r5, #1
1000a090:	f7fe fdde 	bl	10008c50 <vTaskMissedYield>
1000a094:	b2ea      	uxtb	r2, r5
1000a096:	b26d      	sxtb	r5, r5
1000a098:	2a00      	cmp	r2, #0
1000a09a:	d1f0      	bne.n	1000a07e <xQueueReceive+0x1ea>
1000a09c:	2345      	movs	r3, #69	; 0x45
1000a09e:	22ff      	movs	r2, #255	; 0xff
1000a0a0:	54e2      	strb	r2, [r4, r3]
1000a0a2:	f7ff fb4b 	bl	1000973c <vPortExitCritical>
1000a0a6:	f7ff fb3d 	bl	10009724 <vPortEnterCritical>
1000a0aa:	2310      	movs	r3, #16
1000a0ac:	4699      	mov	r9, r3
1000a0ae:	5de5      	ldrb	r5, [r4, r7]
1000a0b0:	44a1      	add	r9, r4
1000a0b2:	b26d      	sxtb	r5, r5
1000a0b4:	2d00      	cmp	r5, #0
1000a0b6:	dc05      	bgt.n	1000a0c4 <xQueueReceive+0x230>
1000a0b8:	e013      	b.n	1000a0e2 <xQueueReceive+0x24e>
1000a0ba:	3d01      	subs	r5, #1
1000a0bc:	b2ea      	uxtb	r2, r5
1000a0be:	b26d      	sxtb	r5, r5
1000a0c0:	2a00      	cmp	r2, #0
1000a0c2:	d00e      	beq.n	1000a0e2 <xQueueReceive+0x24e>
1000a0c4:	6923      	ldr	r3, [r4, #16]
1000a0c6:	2b00      	cmp	r3, #0
1000a0c8:	d00b      	beq.n	1000a0e2 <xQueueReceive+0x24e>
1000a0ca:	4648      	mov	r0, r9
1000a0cc:	f7fe fcd4 	bl	10008a78 <xTaskRemoveFromEventList>
1000a0d0:	2800      	cmp	r0, #0
1000a0d2:	d0f2      	beq.n	1000a0ba <xQueueReceive+0x226>
1000a0d4:	3d01      	subs	r5, #1
1000a0d6:	f7fe fdbb 	bl	10008c50 <vTaskMissedYield>
1000a0da:	b2ea      	uxtb	r2, r5
1000a0dc:	b26d      	sxtb	r5, r5
1000a0de:	2a00      	cmp	r2, #0
1000a0e0:	d1f0      	bne.n	1000a0c4 <xQueueReceive+0x230>
1000a0e2:	23ff      	movs	r3, #255	; 0xff
1000a0e4:	55e3      	strb	r3, [r4, r7]
1000a0e6:	f7ff fb29 	bl	1000973c <vPortExitCritical>
1000a0ea:	f7fe fa57 	bl	1000859c <xTaskResumeAll>
1000a0ee:	e7a6      	b.n	1000a03e <xQueueReceive+0x1aa>
1000a0f0:	6c22      	ldr	r2, [r4, #64]	; 0x40
1000a0f2:	2a00      	cmp	r2, #0
1000a0f4:	d008      	beq.n	1000a108 <xQueueReceive+0x274>
1000a0f6:	68e3      	ldr	r3, [r4, #12]
1000a0f8:	1899      	adds	r1, r3, r2
1000a0fa:	68a3      	ldr	r3, [r4, #8]
1000a0fc:	60e1      	str	r1, [r4, #12]
1000a0fe:	4299      	cmp	r1, r3
1000a100:	d20b      	bcs.n	1000a11a <xQueueReceive+0x286>
1000a102:	4640      	mov	r0, r8
1000a104:	f7fa fd54 	bl	10004bb0 <__wrap___aeabi_memcpy>
1000a108:	3d01      	subs	r5, #1
1000a10a:	63a5      	str	r5, [r4, #56]	; 0x38
1000a10c:	6923      	ldr	r3, [r4, #16]
1000a10e:	2b00      	cmp	r3, #0
1000a110:	d106      	bne.n	1000a120 <xQueueReceive+0x28c>
1000a112:	f7ff fb13 	bl	1000973c <vPortExitCritical>
1000a116:	2001      	movs	r0, #1
1000a118:	e79d      	b.n	1000a056 <xQueueReceive+0x1c2>
1000a11a:	6821      	ldr	r1, [r4, #0]
1000a11c:	60e1      	str	r1, [r4, #12]
1000a11e:	e7f0      	b.n	1000a102 <xQueueReceive+0x26e>
1000a120:	0020      	movs	r0, r4
1000a122:	3010      	adds	r0, #16
1000a124:	f7fe fca8 	bl	10008a78 <xTaskRemoveFromEventList>
1000a128:	2800      	cmp	r0, #0
1000a12a:	d0f2      	beq.n	1000a112 <xQueueReceive+0x27e>
1000a12c:	f7ff faee 	bl	1000970c <vPortYield>
1000a130:	e7ef      	b.n	1000a112 <xQueueReceive+0x27e>
1000a132:	46c0      	nop			; (mov r8, r8)

1000a134 <xQueueSemaphoreTake>:
1000a134:	b5f0      	push	{r4, r5, r6, r7, lr}
1000a136:	46c6      	mov	lr, r8
1000a138:	0004      	movs	r4, r0
1000a13a:	b500      	push	{lr}
1000a13c:	b084      	sub	sp, #16
1000a13e:	9101      	str	r1, [sp, #4]
1000a140:	f7ff faf0 	bl	10009724 <vPortEnterCritical>
1000a144:	6ba3      	ldr	r3, [r4, #56]	; 0x38
1000a146:	2b00      	cmp	r3, #0
1000a148:	d000      	beq.n	1000a14c <xQueueSemaphoreTake+0x18>
1000a14a:	e122      	b.n	1000a392 <xQueueSemaphoreTake+0x25e>
1000a14c:	9b01      	ldr	r3, [sp, #4]
1000a14e:	2b00      	cmp	r3, #0
1000a150:	d100      	bne.n	1000a154 <xQueueSemaphoreTake+0x20>
1000a152:	e0cb      	b.n	1000a2ec <xQueueSemaphoreTake+0x1b8>
1000a154:	0026      	movs	r6, r4
1000a156:	a802      	add	r0, sp, #8
1000a158:	f7fe fd4a 	bl	10008bf0 <vTaskInternalSetTimeOutState>
1000a15c:	2744      	movs	r7, #68	; 0x44
1000a15e:	3624      	adds	r6, #36	; 0x24
1000a160:	f7ff faec 	bl	1000973c <vPortExitCritical>
1000a164:	f7fe fa12 	bl	1000858c <vTaskSuspendAll>
1000a168:	f7ff fadc 	bl	10009724 <vPortEnterCritical>
1000a16c:	5de3      	ldrb	r3, [r4, r7]
1000a16e:	b25b      	sxtb	r3, r3
1000a170:	3301      	adds	r3, #1
1000a172:	d101      	bne.n	1000a178 <xQueueSemaphoreTake+0x44>
1000a174:	2300      	movs	r3, #0
1000a176:	55e3      	strb	r3, [r4, r7]
1000a178:	2245      	movs	r2, #69	; 0x45
1000a17a:	5ca3      	ldrb	r3, [r4, r2]
1000a17c:	b25b      	sxtb	r3, r3
1000a17e:	3301      	adds	r3, #1
1000a180:	d101      	bne.n	1000a186 <xQueueSemaphoreTake+0x52>
1000a182:	2300      	movs	r3, #0
1000a184:	54a3      	strb	r3, [r4, r2]
1000a186:	f7ff fad9 	bl	1000973c <vPortExitCritical>
1000a18a:	a901      	add	r1, sp, #4
1000a18c:	a802      	add	r0, sp, #8
1000a18e:	f7fe fd37 	bl	10008c00 <xTaskCheckForTimeOut>
1000a192:	2800      	cmp	r0, #0
1000a194:	d155      	bne.n	1000a242 <xQueueSemaphoreTake+0x10e>
1000a196:	f7ff fac5 	bl	10009724 <vPortEnterCritical>
1000a19a:	6ba3      	ldr	r3, [r4, #56]	; 0x38
1000a19c:	2b00      	cmp	r3, #0
1000a19e:	d000      	beq.n	1000a1a2 <xQueueSemaphoreTake+0x6e>
1000a1a0:	e0ab      	b.n	1000a2fa <xQueueSemaphoreTake+0x1c6>
1000a1a2:	f7ff facb 	bl	1000973c <vPortExitCritical>
1000a1a6:	0030      	movs	r0, r6
1000a1a8:	9901      	ldr	r1, [sp, #4]
1000a1aa:	f7fe fb8f 	bl	100088cc <vTaskPlaceOnEventList>
1000a1ae:	f7ff fab9 	bl	10009724 <vPortEnterCritical>
1000a1b2:	2345      	movs	r3, #69	; 0x45
1000a1b4:	5ce5      	ldrb	r5, [r4, r3]
1000a1b6:	b26d      	sxtb	r5, r5
1000a1b8:	2d00      	cmp	r5, #0
1000a1ba:	dc05      	bgt.n	1000a1c8 <xQueueSemaphoreTake+0x94>
1000a1bc:	e013      	b.n	1000a1e6 <xQueueSemaphoreTake+0xb2>
1000a1be:	3d01      	subs	r5, #1
1000a1c0:	b2ea      	uxtb	r2, r5
1000a1c2:	b26d      	sxtb	r5, r5
1000a1c4:	2a00      	cmp	r2, #0
1000a1c6:	d00e      	beq.n	1000a1e6 <xQueueSemaphoreTake+0xb2>
1000a1c8:	6a63      	ldr	r3, [r4, #36]	; 0x24
1000a1ca:	2b00      	cmp	r3, #0
1000a1cc:	d00b      	beq.n	1000a1e6 <xQueueSemaphoreTake+0xb2>
1000a1ce:	0030      	movs	r0, r6
1000a1d0:	f7fe fc52 	bl	10008a78 <xTaskRemoveFromEventList>
1000a1d4:	2800      	cmp	r0, #0
1000a1d6:	d0f2      	beq.n	1000a1be <xQueueSemaphoreTake+0x8a>
1000a1d8:	3d01      	subs	r5, #1
1000a1da:	f7fe fd39 	bl	10008c50 <vTaskMissedYield>
1000a1de:	b2ea      	uxtb	r2, r5
1000a1e0:	b26d      	sxtb	r5, r5
1000a1e2:	2a00      	cmp	r2, #0
1000a1e4:	d1f0      	bne.n	1000a1c8 <xQueueSemaphoreTake+0x94>
1000a1e6:	2345      	movs	r3, #69	; 0x45
1000a1e8:	22ff      	movs	r2, #255	; 0xff
1000a1ea:	54e2      	strb	r2, [r4, r3]
1000a1ec:	f7ff faa6 	bl	1000973c <vPortExitCritical>
1000a1f0:	f7ff fa98 	bl	10009724 <vPortEnterCritical>
1000a1f4:	5de5      	ldrb	r5, [r4, r7]
1000a1f6:	b26d      	sxtb	r5, r5
1000a1f8:	2d00      	cmp	r5, #0
1000a1fa:	dd17      	ble.n	1000a22c <xQueueSemaphoreTake+0xf8>
1000a1fc:	2310      	movs	r3, #16
1000a1fe:	4698      	mov	r8, r3
1000a200:	44a0      	add	r8, r4
1000a202:	e004      	b.n	1000a20e <xQueueSemaphoreTake+0xda>
1000a204:	3d01      	subs	r5, #1
1000a206:	b2ea      	uxtb	r2, r5
1000a208:	b26d      	sxtb	r5, r5
1000a20a:	2a00      	cmp	r2, #0
1000a20c:	d00e      	beq.n	1000a22c <xQueueSemaphoreTake+0xf8>
1000a20e:	6923      	ldr	r3, [r4, #16]
1000a210:	2b00      	cmp	r3, #0
1000a212:	d00b      	beq.n	1000a22c <xQueueSemaphoreTake+0xf8>
1000a214:	4640      	mov	r0, r8
1000a216:	f7fe fc2f 	bl	10008a78 <xTaskRemoveFromEventList>
1000a21a:	2800      	cmp	r0, #0
1000a21c:	d0f2      	beq.n	1000a204 <xQueueSemaphoreTake+0xd0>
1000a21e:	3d01      	subs	r5, #1
1000a220:	f7fe fd16 	bl	10008c50 <vTaskMissedYield>
1000a224:	b2ea      	uxtb	r2, r5
1000a226:	b26d      	sxtb	r5, r5
1000a228:	2a00      	cmp	r2, #0
1000a22a:	d1f0      	bne.n	1000a20e <xQueueSemaphoreTake+0xda>
1000a22c:	23ff      	movs	r3, #255	; 0xff
1000a22e:	55e3      	strb	r3, [r4, r7]
1000a230:	f7ff fa84 	bl	1000973c <vPortExitCritical>
1000a234:	f7fe f9b2 	bl	1000859c <xTaskResumeAll>
1000a238:	2800      	cmp	r0, #0
1000a23a:	d14e      	bne.n	1000a2da <xQueueSemaphoreTake+0x1a6>
1000a23c:	f7ff fa66 	bl	1000970c <vPortYield>
1000a240:	e04b      	b.n	1000a2da <xQueueSemaphoreTake+0x1a6>
1000a242:	f7ff fa6f 	bl	10009724 <vPortEnterCritical>
1000a246:	2345      	movs	r3, #69	; 0x45
1000a248:	5ce5      	ldrb	r5, [r4, r3]
1000a24a:	b26d      	sxtb	r5, r5
1000a24c:	2d00      	cmp	r5, #0
1000a24e:	dc05      	bgt.n	1000a25c <xQueueSemaphoreTake+0x128>
1000a250:	e013      	b.n	1000a27a <xQueueSemaphoreTake+0x146>
1000a252:	3d01      	subs	r5, #1
1000a254:	b2ea      	uxtb	r2, r5
1000a256:	b26d      	sxtb	r5, r5
1000a258:	2a00      	cmp	r2, #0
1000a25a:	d00e      	beq.n	1000a27a <xQueueSemaphoreTake+0x146>
1000a25c:	6a63      	ldr	r3, [r4, #36]	; 0x24
1000a25e:	2b00      	cmp	r3, #0
1000a260:	d00b      	beq.n	1000a27a <xQueueSemaphoreTake+0x146>
1000a262:	0030      	movs	r0, r6
1000a264:	f7fe fc08 	bl	10008a78 <xTaskRemoveFromEventList>
1000a268:	2800      	cmp	r0, #0
1000a26a:	d0f2      	beq.n	1000a252 <xQueueSemaphoreTake+0x11e>
1000a26c:	3d01      	subs	r5, #1
1000a26e:	f7fe fcef 	bl	10008c50 <vTaskMissedYield>
1000a272:	b2ea      	uxtb	r2, r5
1000a274:	b26d      	sxtb	r5, r5
1000a276:	2a00      	cmp	r2, #0
1000a278:	d1f0      	bne.n	1000a25c <xQueueSemaphoreTake+0x128>
1000a27a:	2345      	movs	r3, #69	; 0x45
1000a27c:	22ff      	movs	r2, #255	; 0xff
1000a27e:	54e2      	strb	r2, [r4, r3]
1000a280:	f7ff fa5c 	bl	1000973c <vPortExitCritical>
1000a284:	f7ff fa4e 	bl	10009724 <vPortEnterCritical>
1000a288:	5de5      	ldrb	r5, [r4, r7]
1000a28a:	b26d      	sxtb	r5, r5
1000a28c:	2d00      	cmp	r5, #0
1000a28e:	dd17      	ble.n	1000a2c0 <xQueueSemaphoreTake+0x18c>
1000a290:	2310      	movs	r3, #16
1000a292:	4698      	mov	r8, r3
1000a294:	44a0      	add	r8, r4
1000a296:	e004      	b.n	1000a2a2 <xQueueSemaphoreTake+0x16e>
1000a298:	3d01      	subs	r5, #1
1000a29a:	b2ea      	uxtb	r2, r5
1000a29c:	b26d      	sxtb	r5, r5
1000a29e:	2a00      	cmp	r2, #0
1000a2a0:	d00e      	beq.n	1000a2c0 <xQueueSemaphoreTake+0x18c>
1000a2a2:	6923      	ldr	r3, [r4, #16]
1000a2a4:	2b00      	cmp	r3, #0
1000a2a6:	d00b      	beq.n	1000a2c0 <xQueueSemaphoreTake+0x18c>
1000a2a8:	4640      	mov	r0, r8
1000a2aa:	f7fe fbe5 	bl	10008a78 <xTaskRemoveFromEventList>
1000a2ae:	2800      	cmp	r0, #0
1000a2b0:	d0f2      	beq.n	1000a298 <xQueueSemaphoreTake+0x164>
1000a2b2:	3d01      	subs	r5, #1
1000a2b4:	f7fe fccc 	bl	10008c50 <vTaskMissedYield>
1000a2b8:	b2ea      	uxtb	r2, r5
1000a2ba:	b26d      	sxtb	r5, r5
1000a2bc:	2a00      	cmp	r2, #0
1000a2be:	d1f0      	bne.n	1000a2a2 <xQueueSemaphoreTake+0x16e>
1000a2c0:	23ff      	movs	r3, #255	; 0xff
1000a2c2:	55e3      	strb	r3, [r4, r7]
1000a2c4:	f7ff fa3a 	bl	1000973c <vPortExitCritical>
1000a2c8:	f7fe f968 	bl	1000859c <xTaskResumeAll>
1000a2cc:	f7ff fa2a 	bl	10009724 <vPortEnterCritical>
1000a2d0:	6ba3      	ldr	r3, [r4, #56]	; 0x38
1000a2d2:	2b00      	cmp	r3, #0
1000a2d4:	d00a      	beq.n	1000a2ec <xQueueSemaphoreTake+0x1b8>
1000a2d6:	f7ff fa31 	bl	1000973c <vPortExitCritical>
1000a2da:	f7ff fa23 	bl	10009724 <vPortEnterCritical>
1000a2de:	6ba3      	ldr	r3, [r4, #56]	; 0x38
1000a2e0:	2b00      	cmp	r3, #0
1000a2e2:	d156      	bne.n	1000a392 <xQueueSemaphoreTake+0x25e>
1000a2e4:	9b01      	ldr	r3, [sp, #4]
1000a2e6:	2b00      	cmp	r3, #0
1000a2e8:	d000      	beq.n	1000a2ec <xQueueSemaphoreTake+0x1b8>
1000a2ea:	e739      	b.n	1000a160 <xQueueSemaphoreTake+0x2c>
1000a2ec:	f7ff fa26 	bl	1000973c <vPortExitCritical>
1000a2f0:	2000      	movs	r0, #0
1000a2f2:	b004      	add	sp, #16
1000a2f4:	bc80      	pop	{r7}
1000a2f6:	46b8      	mov	r8, r7
1000a2f8:	bdf0      	pop	{r4, r5, r6, r7, pc}
1000a2fa:	f7ff fa1f 	bl	1000973c <vPortExitCritical>
1000a2fe:	f7ff fa11 	bl	10009724 <vPortEnterCritical>
1000a302:	2345      	movs	r3, #69	; 0x45
1000a304:	5ce5      	ldrb	r5, [r4, r3]
1000a306:	b26d      	sxtb	r5, r5
1000a308:	2d00      	cmp	r5, #0
1000a30a:	dc05      	bgt.n	1000a318 <xQueueSemaphoreTake+0x1e4>
1000a30c:	e013      	b.n	1000a336 <xQueueSemaphoreTake+0x202>
1000a30e:	3d01      	subs	r5, #1
1000a310:	b2ea      	uxtb	r2, r5
1000a312:	b26d      	sxtb	r5, r5
1000a314:	2a00      	cmp	r2, #0
1000a316:	d00e      	beq.n	1000a336 <xQueueSemaphoreTake+0x202>
1000a318:	6a63      	ldr	r3, [r4, #36]	; 0x24
1000a31a:	2b00      	cmp	r3, #0
1000a31c:	d00b      	beq.n	1000a336 <xQueueSemaphoreTake+0x202>
1000a31e:	0030      	movs	r0, r6
1000a320:	f7fe fbaa 	bl	10008a78 <xTaskRemoveFromEventList>
1000a324:	2800      	cmp	r0, #0
1000a326:	d0f2      	beq.n	1000a30e <xQueueSemaphoreTake+0x1da>
1000a328:	3d01      	subs	r5, #1
1000a32a:	f7fe fc91 	bl	10008c50 <vTaskMissedYield>
1000a32e:	b2ea      	uxtb	r2, r5
1000a330:	b26d      	sxtb	r5, r5
1000a332:	2a00      	cmp	r2, #0
1000a334:	d1f0      	bne.n	1000a318 <xQueueSemaphoreTake+0x1e4>
1000a336:	2345      	movs	r3, #69	; 0x45
1000a338:	22ff      	movs	r2, #255	; 0xff
1000a33a:	54e2      	strb	r2, [r4, r3]
1000a33c:	f7ff f9fe 	bl	1000973c <vPortExitCritical>
1000a340:	f7ff f9f0 	bl	10009724 <vPortEnterCritical>
1000a344:	5de5      	ldrb	r5, [r4, r7]
1000a346:	b26d      	sxtb	r5, r5
1000a348:	2d00      	cmp	r5, #0
1000a34a:	dd17      	ble.n	1000a37c <xQueueSemaphoreTake+0x248>
1000a34c:	2310      	movs	r3, #16
1000a34e:	4698      	mov	r8, r3
1000a350:	44a0      	add	r8, r4
1000a352:	e004      	b.n	1000a35e <xQueueSemaphoreTake+0x22a>
1000a354:	3d01      	subs	r5, #1
1000a356:	b2ea      	uxtb	r2, r5
1000a358:	b26d      	sxtb	r5, r5
1000a35a:	2a00      	cmp	r2, #0
1000a35c:	d00e      	beq.n	1000a37c <xQueueSemaphoreTake+0x248>
1000a35e:	6923      	ldr	r3, [r4, #16]
1000a360:	2b00      	cmp	r3, #0
1000a362:	d00b      	beq.n	1000a37c <xQueueSemaphoreTake+0x248>
1000a364:	4640      	mov	r0, r8
1000a366:	f7fe fb87 	bl	10008a78 <xTaskRemoveFromEventList>
1000a36a:	2800      	cmp	r0, #0
1000a36c:	d0f2      	beq.n	1000a354 <xQueueSemaphoreTake+0x220>
1000a36e:	3d01      	subs	r5, #1
1000a370:	f7fe fc6e 	bl	10008c50 <vTaskMissedYield>
1000a374:	b2ea      	uxtb	r2, r5
1000a376:	b26d      	sxtb	r5, r5
1000a378:	2a00      	cmp	r2, #0
1000a37a:	d1f0      	bne.n	1000a35e <xQueueSemaphoreTake+0x22a>
1000a37c:	23ff      	movs	r3, #255	; 0xff
1000a37e:	55e3      	strb	r3, [r4, r7]
1000a380:	f7ff f9dc 	bl	1000973c <vPortExitCritical>
1000a384:	f7fe f90a 	bl	1000859c <xTaskResumeAll>
1000a388:	f7ff f9cc 	bl	10009724 <vPortEnterCritical>
1000a38c:	6ba3      	ldr	r3, [r4, #56]	; 0x38
1000a38e:	2b00      	cmp	r3, #0
1000a390:	d0a8      	beq.n	1000a2e4 <xQueueSemaphoreTake+0x1b0>
1000a392:	3b01      	subs	r3, #1
1000a394:	63a3      	str	r3, [r4, #56]	; 0x38
1000a396:	6923      	ldr	r3, [r4, #16]
1000a398:	2b00      	cmp	r3, #0
1000a39a:	d103      	bne.n	1000a3a4 <xQueueSemaphoreTake+0x270>
1000a39c:	f7ff f9ce 	bl	1000973c <vPortExitCritical>
1000a3a0:	2001      	movs	r0, #1
1000a3a2:	e7a6      	b.n	1000a2f2 <xQueueSemaphoreTake+0x1be>
1000a3a4:	0020      	movs	r0, r4
1000a3a6:	3010      	adds	r0, #16
1000a3a8:	f7fe fb66 	bl	10008a78 <xTaskRemoveFromEventList>
1000a3ac:	2800      	cmp	r0, #0
1000a3ae:	d0f5      	beq.n	1000a39c <xQueueSemaphoreTake+0x268>
1000a3b0:	f7ff f9ac 	bl	1000970c <vPortYield>
1000a3b4:	e7f2      	b.n	1000a39c <xQueueSemaphoreTake+0x268>
1000a3b6:	46c0      	nop			; (mov r8, r8)

1000a3b8 <xQueuePeek>:
1000a3b8:	b5f0      	push	{r4, r5, r6, r7, lr}
1000a3ba:	46ce      	mov	lr, r9
1000a3bc:	4647      	mov	r7, r8
1000a3be:	0004      	movs	r4, r0
1000a3c0:	b580      	push	{r7, lr}
1000a3c2:	b085      	sub	sp, #20
1000a3c4:	4688      	mov	r8, r1
1000a3c6:	9201      	str	r2, [sp, #4]
1000a3c8:	f7ff f9ac 	bl	10009724 <vPortEnterCritical>
1000a3cc:	6ba3      	ldr	r3, [r4, #56]	; 0x38
1000a3ce:	2b00      	cmp	r3, #0
1000a3d0:	d000      	beq.n	1000a3d4 <xQueuePeek+0x1c>
1000a3d2:	e11f      	b.n	1000a614 <xQueuePeek+0x25c>
1000a3d4:	9b01      	ldr	r3, [sp, #4]
1000a3d6:	2b00      	cmp	r3, #0
1000a3d8:	d100      	bne.n	1000a3dc <xQueuePeek+0x24>
1000a3da:	e0cb      	b.n	1000a574 <xQueuePeek+0x1bc>
1000a3dc:	0026      	movs	r6, r4
1000a3de:	a802      	add	r0, sp, #8
1000a3e0:	f7fe fc06 	bl	10008bf0 <vTaskInternalSetTimeOutState>
1000a3e4:	2744      	movs	r7, #68	; 0x44
1000a3e6:	3624      	adds	r6, #36	; 0x24
1000a3e8:	f7ff f9a8 	bl	1000973c <vPortExitCritical>
1000a3ec:	f7fe f8ce 	bl	1000858c <vTaskSuspendAll>
1000a3f0:	f7ff f998 	bl	10009724 <vPortEnterCritical>
1000a3f4:	5de3      	ldrb	r3, [r4, r7]
1000a3f6:	b25b      	sxtb	r3, r3
1000a3f8:	3301      	adds	r3, #1
1000a3fa:	d101      	bne.n	1000a400 <xQueuePeek+0x48>
1000a3fc:	2300      	movs	r3, #0
1000a3fe:	55e3      	strb	r3, [r4, r7]
1000a400:	2245      	movs	r2, #69	; 0x45
1000a402:	5ca3      	ldrb	r3, [r4, r2]
1000a404:	b25b      	sxtb	r3, r3
1000a406:	3301      	adds	r3, #1
1000a408:	d101      	bne.n	1000a40e <xQueuePeek+0x56>
1000a40a:	2300      	movs	r3, #0
1000a40c:	54a3      	strb	r3, [r4, r2]
1000a40e:	f7ff f995 	bl	1000973c <vPortExitCritical>
1000a412:	a901      	add	r1, sp, #4
1000a414:	a802      	add	r0, sp, #8
1000a416:	f7fe fbf3 	bl	10008c00 <xTaskCheckForTimeOut>
1000a41a:	2800      	cmp	r0, #0
1000a41c:	d155      	bne.n	1000a4ca <xQueuePeek+0x112>
1000a41e:	f7ff f981 	bl	10009724 <vPortEnterCritical>
1000a422:	6ba3      	ldr	r3, [r4, #56]	; 0x38
1000a424:	2b00      	cmp	r3, #0
1000a426:	d000      	beq.n	1000a42a <xQueuePeek+0x72>
1000a428:	e0ac      	b.n	1000a584 <xQueuePeek+0x1cc>
1000a42a:	f7ff f987 	bl	1000973c <vPortExitCritical>
1000a42e:	0030      	movs	r0, r6
1000a430:	9901      	ldr	r1, [sp, #4]
1000a432:	f7fe fa4b 	bl	100088cc <vTaskPlaceOnEventList>
1000a436:	f7ff f975 	bl	10009724 <vPortEnterCritical>
1000a43a:	2345      	movs	r3, #69	; 0x45
1000a43c:	5ce5      	ldrb	r5, [r4, r3]
1000a43e:	b26d      	sxtb	r5, r5
1000a440:	2d00      	cmp	r5, #0
1000a442:	dc05      	bgt.n	1000a450 <xQueuePeek+0x98>
1000a444:	e013      	b.n	1000a46e <xQueuePeek+0xb6>
1000a446:	3d01      	subs	r5, #1
1000a448:	b2ea      	uxtb	r2, r5
1000a44a:	b26d      	sxtb	r5, r5
1000a44c:	2a00      	cmp	r2, #0
1000a44e:	d00e      	beq.n	1000a46e <xQueuePeek+0xb6>
1000a450:	6a63      	ldr	r3, [r4, #36]	; 0x24
1000a452:	2b00      	cmp	r3, #0
1000a454:	d00b      	beq.n	1000a46e <xQueuePeek+0xb6>
1000a456:	0030      	movs	r0, r6
1000a458:	f7fe fb0e 	bl	10008a78 <xTaskRemoveFromEventList>
1000a45c:	2800      	cmp	r0, #0
1000a45e:	d0f2      	beq.n	1000a446 <xQueuePeek+0x8e>
1000a460:	3d01      	subs	r5, #1
1000a462:	f7fe fbf5 	bl	10008c50 <vTaskMissedYield>
1000a466:	b2ea      	uxtb	r2, r5
1000a468:	b26d      	sxtb	r5, r5
1000a46a:	2a00      	cmp	r2, #0
1000a46c:	d1f0      	bne.n	1000a450 <xQueuePeek+0x98>
1000a46e:	2345      	movs	r3, #69	; 0x45
1000a470:	22ff      	movs	r2, #255	; 0xff
1000a472:	54e2      	strb	r2, [r4, r3]
1000a474:	f7ff f962 	bl	1000973c <vPortExitCritical>
1000a478:	f7ff f954 	bl	10009724 <vPortEnterCritical>
1000a47c:	2310      	movs	r3, #16
1000a47e:	4699      	mov	r9, r3
1000a480:	5de5      	ldrb	r5, [r4, r7]
1000a482:	44a1      	add	r9, r4
1000a484:	b26d      	sxtb	r5, r5
1000a486:	2d00      	cmp	r5, #0
1000a488:	dc05      	bgt.n	1000a496 <xQueuePeek+0xde>
1000a48a:	e013      	b.n	1000a4b4 <xQueuePeek+0xfc>
1000a48c:	3d01      	subs	r5, #1
1000a48e:	b2ea      	uxtb	r2, r5
1000a490:	b26d      	sxtb	r5, r5
1000a492:	2a00      	cmp	r2, #0
1000a494:	d00e      	beq.n	1000a4b4 <xQueuePeek+0xfc>
1000a496:	6923      	ldr	r3, [r4, #16]
1000a498:	2b00      	cmp	r3, #0
1000a49a:	d00b      	beq.n	1000a4b4 <xQueuePeek+0xfc>
1000a49c:	4648      	mov	r0, r9
1000a49e:	f7fe faeb 	bl	10008a78 <xTaskRemoveFromEventList>
1000a4a2:	2800      	cmp	r0, #0
1000a4a4:	d0f2      	beq.n	1000a48c <xQueuePeek+0xd4>
1000a4a6:	3d01      	subs	r5, #1
1000a4a8:	f7fe fbd2 	bl	10008c50 <vTaskMissedYield>
1000a4ac:	b2ea      	uxtb	r2, r5
1000a4ae:	b26d      	sxtb	r5, r5
1000a4b0:	2a00      	cmp	r2, #0
1000a4b2:	d1f0      	bne.n	1000a496 <xQueuePeek+0xde>
1000a4b4:	23ff      	movs	r3, #255	; 0xff
1000a4b6:	55e3      	strb	r3, [r4, r7]
1000a4b8:	f7ff f940 	bl	1000973c <vPortExitCritical>
1000a4bc:	f7fe f86e 	bl	1000859c <xTaskResumeAll>
1000a4c0:	2800      	cmp	r0, #0
1000a4c2:	d14e      	bne.n	1000a562 <xQueuePeek+0x1aa>
1000a4c4:	f7ff f922 	bl	1000970c <vPortYield>
1000a4c8:	e04b      	b.n	1000a562 <xQueuePeek+0x1aa>
1000a4ca:	f7ff f92b 	bl	10009724 <vPortEnterCritical>
1000a4ce:	2345      	movs	r3, #69	; 0x45
1000a4d0:	5ce5      	ldrb	r5, [r4, r3]
1000a4d2:	b26d      	sxtb	r5, r5
1000a4d4:	2d00      	cmp	r5, #0
1000a4d6:	dc05      	bgt.n	1000a4e4 <xQueuePeek+0x12c>
1000a4d8:	e013      	b.n	1000a502 <xQueuePeek+0x14a>
1000a4da:	3d01      	subs	r5, #1
1000a4dc:	b2ea      	uxtb	r2, r5
1000a4de:	b26d      	sxtb	r5, r5
1000a4e0:	2a00      	cmp	r2, #0
1000a4e2:	d00e      	beq.n	1000a502 <xQueuePeek+0x14a>
1000a4e4:	6a63      	ldr	r3, [r4, #36]	; 0x24
1000a4e6:	2b00      	cmp	r3, #0
1000a4e8:	d00b      	beq.n	1000a502 <xQueuePeek+0x14a>
1000a4ea:	0030      	movs	r0, r6
1000a4ec:	f7fe fac4 	bl	10008a78 <xTaskRemoveFromEventList>
1000a4f0:	2800      	cmp	r0, #0
1000a4f2:	d0f2      	beq.n	1000a4da <xQueuePeek+0x122>
1000a4f4:	3d01      	subs	r5, #1
1000a4f6:	f7fe fbab 	bl	10008c50 <vTaskMissedYield>
1000a4fa:	b2ea      	uxtb	r2, r5
1000a4fc:	b26d      	sxtb	r5, r5
1000a4fe:	2a00      	cmp	r2, #0
1000a500:	d1f0      	bne.n	1000a4e4 <xQueuePeek+0x12c>
1000a502:	2345      	movs	r3, #69	; 0x45
1000a504:	22ff      	movs	r2, #255	; 0xff
1000a506:	54e2      	strb	r2, [r4, r3]
1000a508:	f7ff f918 	bl	1000973c <vPortExitCritical>
1000a50c:	f7ff f90a 	bl	10009724 <vPortEnterCritical>
1000a510:	2310      	movs	r3, #16
1000a512:	4699      	mov	r9, r3
1000a514:	5de5      	ldrb	r5, [r4, r7]
1000a516:	44a1      	add	r9, r4
1000a518:	b26d      	sxtb	r5, r5
1000a51a:	2d00      	cmp	r5, #0
1000a51c:	dc05      	bgt.n	1000a52a <xQueuePeek+0x172>
1000a51e:	e013      	b.n	1000a548 <xQueuePeek+0x190>
1000a520:	3d01      	subs	r5, #1
1000a522:	b2ea      	uxtb	r2, r5
1000a524:	b26d      	sxtb	r5, r5
1000a526:	2a00      	cmp	r2, #0
1000a528:	d00e      	beq.n	1000a548 <xQueuePeek+0x190>
1000a52a:	6923      	ldr	r3, [r4, #16]
1000a52c:	2b00      	cmp	r3, #0
1000a52e:	d00b      	beq.n	1000a548 <xQueuePeek+0x190>
1000a530:	4648      	mov	r0, r9
1000a532:	f7fe faa1 	bl	10008a78 <xTaskRemoveFromEventList>
1000a536:	2800      	cmp	r0, #0
1000a538:	d0f2      	beq.n	1000a520 <xQueuePeek+0x168>
1000a53a:	3d01      	subs	r5, #1
1000a53c:	f7fe fb88 	bl	10008c50 <vTaskMissedYield>
1000a540:	b2ea      	uxtb	r2, r5
1000a542:	b26d      	sxtb	r5, r5
1000a544:	2a00      	cmp	r2, #0
1000a546:	d1f0      	bne.n	1000a52a <xQueuePeek+0x172>
1000a548:	23ff      	movs	r3, #255	; 0xff
1000a54a:	55e3      	strb	r3, [r4, r7]
1000a54c:	f7ff f8f6 	bl	1000973c <vPortExitCritical>
1000a550:	f7fe f824 	bl	1000859c <xTaskResumeAll>
1000a554:	f7ff f8e6 	bl	10009724 <vPortEnterCritical>
1000a558:	6ba3      	ldr	r3, [r4, #56]	; 0x38
1000a55a:	2b00      	cmp	r3, #0
1000a55c:	d00a      	beq.n	1000a574 <xQueuePeek+0x1bc>
1000a55e:	f7ff f8ed 	bl	1000973c <vPortExitCritical>
1000a562:	f7ff f8df 	bl	10009724 <vPortEnterCritical>
1000a566:	6ba3      	ldr	r3, [r4, #56]	; 0x38
1000a568:	2b00      	cmp	r3, #0
1000a56a:	d153      	bne.n	1000a614 <xQueuePeek+0x25c>
1000a56c:	9b01      	ldr	r3, [sp, #4]
1000a56e:	2b00      	cmp	r3, #0
1000a570:	d000      	beq.n	1000a574 <xQueuePeek+0x1bc>
1000a572:	e739      	b.n	1000a3e8 <xQueuePeek+0x30>
1000a574:	f7ff f8e2 	bl	1000973c <vPortExitCritical>
1000a578:	2000      	movs	r0, #0
1000a57a:	b005      	add	sp, #20
1000a57c:	bcc0      	pop	{r6, r7}
1000a57e:	46b9      	mov	r9, r7
1000a580:	46b0      	mov	r8, r6
1000a582:	bdf0      	pop	{r4, r5, r6, r7, pc}
1000a584:	f7ff f8da 	bl	1000973c <vPortExitCritical>
1000a588:	f7ff f8cc 	bl	10009724 <vPortEnterCritical>
1000a58c:	2345      	movs	r3, #69	; 0x45
1000a58e:	5ce5      	ldrb	r5, [r4, r3]
1000a590:	b26d      	sxtb	r5, r5
1000a592:	2d00      	cmp	r5, #0
1000a594:	dc05      	bgt.n	1000a5a2 <xQueuePeek+0x1ea>
1000a596:	e013      	b.n	1000a5c0 <xQueuePeek+0x208>
1000a598:	3d01      	subs	r5, #1
1000a59a:	b2ea      	uxtb	r2, r5
1000a59c:	b26d      	sxtb	r5, r5
1000a59e:	2a00      	cmp	r2, #0
1000a5a0:	d00e      	beq.n	1000a5c0 <xQueuePeek+0x208>
1000a5a2:	6a63      	ldr	r3, [r4, #36]	; 0x24
1000a5a4:	2b00      	cmp	r3, #0
1000a5a6:	d00b      	beq.n	1000a5c0 <xQueuePeek+0x208>
1000a5a8:	0030      	movs	r0, r6
1000a5aa:	f7fe fa65 	bl	10008a78 <xTaskRemoveFromEventList>
1000a5ae:	2800      	cmp	r0, #0
1000a5b0:	d0f2      	beq.n	1000a598 <xQueuePeek+0x1e0>
1000a5b2:	3d01      	subs	r5, #1
1000a5b4:	f7fe fb4c 	bl	10008c50 <vTaskMissedYield>
1000a5b8:	b2ea      	uxtb	r2, r5
1000a5ba:	b26d      	sxtb	r5, r5
1000a5bc:	2a00      	cmp	r2, #0
1000a5be:	d1f0      	bne.n	1000a5a2 <xQueuePeek+0x1ea>
1000a5c0:	2345      	movs	r3, #69	; 0x45
1000a5c2:	22ff      	movs	r2, #255	; 0xff
1000a5c4:	54e2      	strb	r2, [r4, r3]
1000a5c6:	f7ff f8b9 	bl	1000973c <vPortExitCritical>
1000a5ca:	f7ff f8ab 	bl	10009724 <vPortEnterCritical>
1000a5ce:	2310      	movs	r3, #16
1000a5d0:	4699      	mov	r9, r3
1000a5d2:	5de5      	ldrb	r5, [r4, r7]
1000a5d4:	44a1      	add	r9, r4
1000a5d6:	b26d      	sxtb	r5, r5
1000a5d8:	2d00      	cmp	r5, #0
1000a5da:	dc05      	bgt.n	1000a5e8 <xQueuePeek+0x230>
1000a5dc:	e013      	b.n	1000a606 <xQueuePeek+0x24e>
1000a5de:	3d01      	subs	r5, #1
1000a5e0:	b2ea      	uxtb	r2, r5
1000a5e2:	b26d      	sxtb	r5, r5
1000a5e4:	2a00      	cmp	r2, #0
1000a5e6:	d00e      	beq.n	1000a606 <xQueuePeek+0x24e>
1000a5e8:	6923      	ldr	r3, [r4, #16]
1000a5ea:	2b00      	cmp	r3, #0
1000a5ec:	d00b      	beq.n	1000a606 <xQueuePeek+0x24e>
1000a5ee:	4648      	mov	r0, r9
1000a5f0:	f7fe fa42 	bl	10008a78 <xTaskRemoveFromEventList>
1000a5f4:	2800      	cmp	r0, #0
1000a5f6:	d0f2      	beq.n	1000a5de <xQueuePeek+0x226>
1000a5f8:	3d01      	subs	r5, #1
1000a5fa:	f7fe fb29 	bl	10008c50 <vTaskMissedYield>
1000a5fe:	b2ea      	uxtb	r2, r5
1000a600:	b26d      	sxtb	r5, r5
1000a602:	2a00      	cmp	r2, #0
1000a604:	d1f0      	bne.n	1000a5e8 <xQueuePeek+0x230>
1000a606:	23ff      	movs	r3, #255	; 0xff
1000a608:	55e3      	strb	r3, [r4, r7]
1000a60a:	f7ff f897 	bl	1000973c <vPortExitCritical>
1000a60e:	f7fd ffc5 	bl	1000859c <xTaskResumeAll>
1000a612:	e7a6      	b.n	1000a562 <xQueuePeek+0x1aa>
1000a614:	6c22      	ldr	r2, [r4, #64]	; 0x40
1000a616:	68e5      	ldr	r5, [r4, #12]
1000a618:	2a00      	cmp	r2, #0
1000a61a:	d007      	beq.n	1000a62c <xQueuePeek+0x274>
1000a61c:	68a3      	ldr	r3, [r4, #8]
1000a61e:	18a9      	adds	r1, r5, r2
1000a620:	60e1      	str	r1, [r4, #12]
1000a622:	4299      	cmp	r1, r3
1000a624:	d20a      	bcs.n	1000a63c <xQueuePeek+0x284>
1000a626:	4640      	mov	r0, r8
1000a628:	f7fa fac2 	bl	10004bb0 <__wrap___aeabi_memcpy>
1000a62c:	6a63      	ldr	r3, [r4, #36]	; 0x24
1000a62e:	60e5      	str	r5, [r4, #12]
1000a630:	2b00      	cmp	r3, #0
1000a632:	d106      	bne.n	1000a642 <xQueuePeek+0x28a>
1000a634:	f7ff f882 	bl	1000973c <vPortExitCritical>
1000a638:	2001      	movs	r0, #1
1000a63a:	e79e      	b.n	1000a57a <xQueuePeek+0x1c2>
1000a63c:	6821      	ldr	r1, [r4, #0]
1000a63e:	60e1      	str	r1, [r4, #12]
1000a640:	e7f1      	b.n	1000a626 <xQueuePeek+0x26e>
1000a642:	0020      	movs	r0, r4
1000a644:	3024      	adds	r0, #36	; 0x24
1000a646:	f7fe fa17 	bl	10008a78 <xTaskRemoveFromEventList>
1000a64a:	2800      	cmp	r0, #0
1000a64c:	d0f2      	beq.n	1000a634 <xQueuePeek+0x27c>
1000a64e:	f7ff f85d 	bl	1000970c <vPortYield>
1000a652:	e7ef      	b.n	1000a634 <xQueuePeek+0x27c>

1000a654 <xQueueReceiveFromISR>:
1000a654:	b5f8      	push	{r3, r4, r5, r6, r7, lr}
1000a656:	46ce      	mov	lr, r9
1000a658:	4647      	mov	r7, r8
1000a65a:	0004      	movs	r4, r0
1000a65c:	b580      	push	{r7, lr}
1000a65e:	4689      	mov	r9, r1
1000a660:	4690      	mov	r8, r2
1000a662:	f7ff f875 	bl	10009750 <ulSetInterruptMaskFromISR>
1000a666:	6ba6      	ldr	r6, [r4, #56]	; 0x38
1000a668:	0005      	movs	r5, r0
1000a66a:	2700      	movs	r7, #0
1000a66c:	2e00      	cmp	r6, #0
1000a66e:	d107      	bne.n	1000a680 <xQueueReceiveFromISR+0x2c>
1000a670:	0028      	movs	r0, r5
1000a672:	f7ff f871 	bl	10009758 <vClearInterruptMaskFromISR>
1000a676:	0038      	movs	r0, r7
1000a678:	bcc0      	pop	{r6, r7}
1000a67a:	46b9      	mov	r9, r7
1000a67c:	46b0      	mov	r8, r6
1000a67e:	bdf8      	pop	{r3, r4, r5, r6, r7, pc}
1000a680:	2344      	movs	r3, #68	; 0x44
1000a682:	6c22      	ldr	r2, [r4, #64]	; 0x40
1000a684:	5ce7      	ldrb	r7, [r4, r3]
1000a686:	b27f      	sxtb	r7, r7
1000a688:	2a00      	cmp	r2, #0
1000a68a:	d00a      	beq.n	1000a6a2 <xQueueReceiveFromISR+0x4e>
1000a68c:	68e3      	ldr	r3, [r4, #12]
1000a68e:	1899      	adds	r1, r3, r2
1000a690:	68a3      	ldr	r3, [r4, #8]
1000a692:	60e1      	str	r1, [r4, #12]
1000a694:	4299      	cmp	r1, r3
1000a696:	d301      	bcc.n	1000a69c <xQueueReceiveFromISR+0x48>
1000a698:	6821      	ldr	r1, [r4, #0]
1000a69a:	60e1      	str	r1, [r4, #12]
1000a69c:	4648      	mov	r0, r9
1000a69e:	f7fa fa87 	bl	10004bb0 <__wrap___aeabi_memcpy>
1000a6a2:	3e01      	subs	r6, #1
1000a6a4:	63a6      	str	r6, [r4, #56]	; 0x38
1000a6a6:	1c7b      	adds	r3, r7, #1
1000a6a8:	d104      	bne.n	1000a6b4 <xQueueReceiveFromISR+0x60>
1000a6aa:	6923      	ldr	r3, [r4, #16]
1000a6ac:	2b00      	cmp	r3, #0
1000a6ae:	d10b      	bne.n	1000a6c8 <xQueueReceiveFromISR+0x74>
1000a6b0:	2701      	movs	r7, #1
1000a6b2:	e7dd      	b.n	1000a670 <xQueueReceiveFromISR+0x1c>
1000a6b4:	f7fe f880 	bl	100087b8 <uxTaskGetNumberOfTasks>
1000a6b8:	4287      	cmp	r7, r0
1000a6ba:	d2f9      	bcs.n	1000a6b0 <xQueueReceiveFromISR+0x5c>
1000a6bc:	2344      	movs	r3, #68	; 0x44
1000a6be:	3701      	adds	r7, #1
1000a6c0:	b27f      	sxtb	r7, r7
1000a6c2:	54e7      	strb	r7, [r4, r3]
1000a6c4:	2701      	movs	r7, #1
1000a6c6:	e7d3      	b.n	1000a670 <xQueueReceiveFromISR+0x1c>
1000a6c8:	0020      	movs	r0, r4
1000a6ca:	3010      	adds	r0, #16
1000a6cc:	f7fe f9d4 	bl	10008a78 <xTaskRemoveFromEventList>
1000a6d0:	2800      	cmp	r0, #0
1000a6d2:	d0ed      	beq.n	1000a6b0 <xQueueReceiveFromISR+0x5c>
1000a6d4:	4643      	mov	r3, r8
1000a6d6:	2b00      	cmp	r3, #0
1000a6d8:	d0ea      	beq.n	1000a6b0 <xQueueReceiveFromISR+0x5c>
1000a6da:	2301      	movs	r3, #1
1000a6dc:	4642      	mov	r2, r8
1000a6de:	2701      	movs	r7, #1
1000a6e0:	6013      	str	r3, [r2, #0]
1000a6e2:	e7c5      	b.n	1000a670 <xQueueReceiveFromISR+0x1c>

1000a6e4 <xQueuePeekFromISR>:
1000a6e4:	b5f8      	push	{r3, r4, r5, r6, r7, lr}
1000a6e6:	0004      	movs	r4, r0
1000a6e8:	000f      	movs	r7, r1
1000a6ea:	f7ff f831 	bl	10009750 <ulSetInterruptMaskFromISR>
1000a6ee:	6ba3      	ldr	r3, [r4, #56]	; 0x38
1000a6f0:	0005      	movs	r5, r0
1000a6f2:	2600      	movs	r6, #0
1000a6f4:	2b00      	cmp	r3, #0
1000a6f6:	d104      	bne.n	1000a702 <xQueuePeekFromISR+0x1e>
1000a6f8:	0028      	movs	r0, r5
1000a6fa:	f7ff f82d 	bl	10009758 <vClearInterruptMaskFromISR>
1000a6fe:	0030      	movs	r0, r6
1000a700:	bdf8      	pop	{r3, r4, r5, r6, r7, pc}
1000a702:	6c22      	ldr	r2, [r4, #64]	; 0x40
1000a704:	68e6      	ldr	r6, [r4, #12]
1000a706:	2a00      	cmp	r2, #0
1000a708:	d009      	beq.n	1000a71e <xQueuePeekFromISR+0x3a>
1000a70a:	68a3      	ldr	r3, [r4, #8]
1000a70c:	18b1      	adds	r1, r6, r2
1000a70e:	60e1      	str	r1, [r4, #12]
1000a710:	4299      	cmp	r1, r3
1000a712:	d301      	bcc.n	1000a718 <xQueuePeekFromISR+0x34>
1000a714:	6821      	ldr	r1, [r4, #0]
1000a716:	60e1      	str	r1, [r4, #12]
1000a718:	0038      	movs	r0, r7
1000a71a:	f7fa fa49 	bl	10004bb0 <__wrap___aeabi_memcpy>
1000a71e:	60e6      	str	r6, [r4, #12]
1000a720:	2601      	movs	r6, #1
1000a722:	e7e9      	b.n	1000a6f8 <xQueuePeekFromISR+0x14>

1000a724 <uxQueueMessagesWaiting>:
1000a724:	b510      	push	{r4, lr}
1000a726:	0004      	movs	r4, r0
1000a728:	f7fe fffc 	bl	10009724 <vPortEnterCritical>
1000a72c:	6ba4      	ldr	r4, [r4, #56]	; 0x38
1000a72e:	f7ff f805 	bl	1000973c <vPortExitCritical>
1000a732:	0020      	movs	r0, r4
1000a734:	bd10      	pop	{r4, pc}
1000a736:	46c0      	nop			; (mov r8, r8)

1000a738 <uxQueueSpacesAvailable>:
1000a738:	b510      	push	{r4, lr}
1000a73a:	0004      	movs	r4, r0
1000a73c:	f7fe fff2 	bl	10009724 <vPortEnterCritical>
1000a740:	6ba3      	ldr	r3, [r4, #56]	; 0x38
1000a742:	6be4      	ldr	r4, [r4, #60]	; 0x3c
1000a744:	1ae4      	subs	r4, r4, r3
1000a746:	f7fe fff9 	bl	1000973c <vPortExitCritical>
1000a74a:	0020      	movs	r0, r4
1000a74c:	bd10      	pop	{r4, pc}
1000a74e:	46c0      	nop			; (mov r8, r8)

1000a750 <uxQueueMessagesWaitingFromISR>:
1000a750:	6b80      	ldr	r0, [r0, #56]	; 0x38
1000a752:	4770      	bx	lr

1000a754 <vQueueDelete>:
1000a754:	4b1e      	ldr	r3, [pc, #120]	; (1000a7d0 <vQueueDelete+0x7c>)
1000a756:	b570      	push	{r4, r5, r6, lr}
1000a758:	685a      	ldr	r2, [r3, #4]
1000a75a:	4290      	cmp	r0, r2
1000a75c:	d01d      	beq.n	1000a79a <vQueueDelete+0x46>
1000a75e:	68da      	ldr	r2, [r3, #12]
1000a760:	4290      	cmp	r0, r2
1000a762:	d022      	beq.n	1000a7aa <vQueueDelete+0x56>
1000a764:	695a      	ldr	r2, [r3, #20]
1000a766:	4290      	cmp	r0, r2
1000a768:	d021      	beq.n	1000a7ae <vQueueDelete+0x5a>
1000a76a:	69da      	ldr	r2, [r3, #28]
1000a76c:	4290      	cmp	r0, r2
1000a76e:	d020      	beq.n	1000a7b2 <vQueueDelete+0x5e>
1000a770:	6a5a      	ldr	r2, [r3, #36]	; 0x24
1000a772:	4290      	cmp	r0, r2
1000a774:	d01f      	beq.n	1000a7b6 <vQueueDelete+0x62>
1000a776:	6ada      	ldr	r2, [r3, #44]	; 0x2c
1000a778:	4290      	cmp	r0, r2
1000a77a:	d01e      	beq.n	1000a7ba <vQueueDelete+0x66>
1000a77c:	6b5a      	ldr	r2, [r3, #52]	; 0x34
1000a77e:	4290      	cmp	r0, r2
1000a780:	d01d      	beq.n	1000a7be <vQueueDelete+0x6a>
1000a782:	6bda      	ldr	r2, [r3, #60]	; 0x3c
1000a784:	4290      	cmp	r0, r2
1000a786:	d01c      	beq.n	1000a7c2 <vQueueDelete+0x6e>
1000a788:	6c5a      	ldr	r2, [r3, #68]	; 0x44
1000a78a:	4290      	cmp	r0, r2
1000a78c:	d01b      	beq.n	1000a7c6 <vQueueDelete+0x72>
1000a78e:	6cda      	ldr	r2, [r3, #76]	; 0x4c
1000a790:	4290      	cmp	r0, r2
1000a792:	d01a      	beq.n	1000a7ca <vQueueDelete+0x76>
1000a794:	f7fe ff78 	bl	10009688 <vPortFree>
1000a798:	bd70      	pop	{r4, r5, r6, pc}
1000a79a:	2200      	movs	r2, #0
1000a79c:	2400      	movs	r4, #0
1000a79e:	2500      	movs	r5, #0
1000a7a0:	00d2      	lsls	r2, r2, #3
1000a7a2:	189b      	adds	r3, r3, r2
1000a7a4:	601c      	str	r4, [r3, #0]
1000a7a6:	605d      	str	r5, [r3, #4]
1000a7a8:	e7f4      	b.n	1000a794 <vQueueDelete+0x40>
1000a7aa:	2201      	movs	r2, #1
1000a7ac:	e7f6      	b.n	1000a79c <vQueueDelete+0x48>
1000a7ae:	2202      	movs	r2, #2
1000a7b0:	e7f4      	b.n	1000a79c <vQueueDelete+0x48>
1000a7b2:	2203      	movs	r2, #3
1000a7b4:	e7f2      	b.n	1000a79c <vQueueDelete+0x48>
1000a7b6:	2204      	movs	r2, #4
1000a7b8:	e7f0      	b.n	1000a79c <vQueueDelete+0x48>
1000a7ba:	2205      	movs	r2, #5
1000a7bc:	e7ee      	b.n	1000a79c <vQueueDelete+0x48>
1000a7be:	2206      	movs	r2, #6
1000a7c0:	e7ec      	b.n	1000a79c <vQueueDelete+0x48>
1000a7c2:	2207      	movs	r2, #7
1000a7c4:	e7ea      	b.n	1000a79c <vQueueDelete+0x48>
1000a7c6:	2208      	movs	r2, #8
1000a7c8:	e7e8      	b.n	1000a79c <vQueueDelete+0x48>
1000a7ca:	2209      	movs	r2, #9
1000a7cc:	e7e6      	b.n	1000a79c <vQueueDelete+0x48>
1000a7ce:	46c0      	nop			; (mov r8, r8)
1000a7d0:	20000ce0 	.word	0x20000ce0

1000a7d4 <xQueueIsQueueEmptyFromISR>:
1000a7d4:	6b80      	ldr	r0, [r0, #56]	; 0x38
1000a7d6:	4243      	negs	r3, r0
1000a7d8:	4158      	adcs	r0, r3
1000a7da:	4770      	bx	lr

1000a7dc <xQueueIsQueueFullFromISR>:
1000a7dc:	6b83      	ldr	r3, [r0, #56]	; 0x38
1000a7de:	6bc0      	ldr	r0, [r0, #60]	; 0x3c
1000a7e0:	1ac0      	subs	r0, r0, r3
1000a7e2:	4243      	negs	r3, r0
1000a7e4:	4158      	adcs	r0, r3
1000a7e6:	4770      	bx	lr

1000a7e8 <vQueueAddToRegistry>:
1000a7e8:	b570      	push	{r4, r5, r6, lr}
1000a7ea:	2900      	cmp	r1, #0
1000a7ec:	d00f      	beq.n	1000a80e <vQueueAddToRegistry+0x26>
1000a7ee:	2600      	movs	r6, #0
1000a7f0:	2300      	movs	r3, #0
1000a7f2:	4c42      	ldr	r4, [pc, #264]	; (1000a8fc <vQueueAddToRegistry+0x114>)
1000a7f4:	00da      	lsls	r2, r3, #3
1000a7f6:	18a5      	adds	r5, r4, r2
1000a7f8:	686d      	ldr	r5, [r5, #4]
1000a7fa:	4285      	cmp	r5, r0
1000a7fc:	d100      	bne.n	1000a800 <vQueueAddToRegistry+0x18>
1000a7fe:	e06f      	b.n	1000a8e0 <vQueueAddToRegistry+0xf8>
1000a800:	2e00      	cmp	r6, #0
1000a802:	d005      	beq.n	1000a810 <vQueueAddToRegistry+0x28>
1000a804:	3301      	adds	r3, #1
1000a806:	2b0a      	cmp	r3, #10
1000a808:	d1f4      	bne.n	1000a7f4 <vQueueAddToRegistry+0xc>
1000a80a:	6031      	str	r1, [r6, #0]
1000a80c:	6070      	str	r0, [r6, #4]
1000a80e:	bd70      	pop	{r4, r5, r6, pc}
1000a810:	58a5      	ldr	r5, [r4, r2]
1000a812:	2d00      	cmp	r5, #0
1000a814:	d061      	beq.n	1000a8da <vQueueAddToRegistry+0xf2>
1000a816:	1c5d      	adds	r5, r3, #1
1000a818:	2b09      	cmp	r3, #9
1000a81a:	d0f8      	beq.n	1000a80e <vQueueAddToRegistry+0x26>
1000a81c:	00ea      	lsls	r2, r5, #3
1000a81e:	18a6      	adds	r6, r4, r2
1000a820:	6876      	ldr	r6, [r6, #4]
1000a822:	42b0      	cmp	r0, r6
1000a824:	d05c      	beq.n	1000a8e0 <vQueueAddToRegistry+0xf8>
1000a826:	58a6      	ldr	r6, [r4, r2]
1000a828:	2e00      	cmp	r6, #0
1000a82a:	d05d      	beq.n	1000a8e8 <vQueueAddToRegistry+0x100>
1000a82c:	1c9d      	adds	r5, r3, #2
1000a82e:	2b08      	cmp	r3, #8
1000a830:	d0ed      	beq.n	1000a80e <vQueueAddToRegistry+0x26>
1000a832:	00ea      	lsls	r2, r5, #3
1000a834:	18a6      	adds	r6, r4, r2
1000a836:	6876      	ldr	r6, [r6, #4]
1000a838:	42b0      	cmp	r0, r6
1000a83a:	d051      	beq.n	1000a8e0 <vQueueAddToRegistry+0xf8>
1000a83c:	58a6      	ldr	r6, [r4, r2]
1000a83e:	2e00      	cmp	r6, #0
1000a840:	d052      	beq.n	1000a8e8 <vQueueAddToRegistry+0x100>
1000a842:	1cdd      	adds	r5, r3, #3
1000a844:	2b07      	cmp	r3, #7
1000a846:	d0e2      	beq.n	1000a80e <vQueueAddToRegistry+0x26>
1000a848:	00ea      	lsls	r2, r5, #3
1000a84a:	18a6      	adds	r6, r4, r2
1000a84c:	6876      	ldr	r6, [r6, #4]
1000a84e:	4286      	cmp	r6, r0
1000a850:	d046      	beq.n	1000a8e0 <vQueueAddToRegistry+0xf8>
1000a852:	58a6      	ldr	r6, [r4, r2]
1000a854:	2e00      	cmp	r6, #0
1000a856:	d047      	beq.n	1000a8e8 <vQueueAddToRegistry+0x100>
1000a858:	1d1d      	adds	r5, r3, #4
1000a85a:	2b06      	cmp	r3, #6
1000a85c:	d0d7      	beq.n	1000a80e <vQueueAddToRegistry+0x26>
1000a85e:	00ea      	lsls	r2, r5, #3
1000a860:	18a6      	adds	r6, r4, r2
1000a862:	6876      	ldr	r6, [r6, #4]
1000a864:	42b0      	cmp	r0, r6
1000a866:	d03b      	beq.n	1000a8e0 <vQueueAddToRegistry+0xf8>
1000a868:	58a6      	ldr	r6, [r4, r2]
1000a86a:	2e00      	cmp	r6, #0
1000a86c:	d03c      	beq.n	1000a8e8 <vQueueAddToRegistry+0x100>
1000a86e:	1d5d      	adds	r5, r3, #5
1000a870:	2b05      	cmp	r3, #5
1000a872:	d0cc      	beq.n	1000a80e <vQueueAddToRegistry+0x26>
1000a874:	00ea      	lsls	r2, r5, #3
1000a876:	18a6      	adds	r6, r4, r2
1000a878:	6876      	ldr	r6, [r6, #4]
1000a87a:	42b0      	cmp	r0, r6
1000a87c:	d030      	beq.n	1000a8e0 <vQueueAddToRegistry+0xf8>
1000a87e:	58a6      	ldr	r6, [r4, r2]
1000a880:	2e00      	cmp	r6, #0
1000a882:	d031      	beq.n	1000a8e8 <vQueueAddToRegistry+0x100>
1000a884:	1d9a      	adds	r2, r3, #6
1000a886:	2b04      	cmp	r3, #4
1000a888:	d0c1      	beq.n	1000a80e <vQueueAddToRegistry+0x26>
1000a88a:	00d5      	lsls	r5, r2, #3
1000a88c:	1966      	adds	r6, r4, r5
1000a88e:	6876      	ldr	r6, [r6, #4]
1000a890:	42b0      	cmp	r0, r6
1000a892:	d024      	beq.n	1000a8de <vQueueAddToRegistry+0xf6>
1000a894:	5965      	ldr	r5, [r4, r5]
1000a896:	2d00      	cmp	r5, #0
1000a898:	d029      	beq.n	1000a8ee <vQueueAddToRegistry+0x106>
1000a89a:	1ddd      	adds	r5, r3, #7
1000a89c:	2b03      	cmp	r3, #3
1000a89e:	d0b6      	beq.n	1000a80e <vQueueAddToRegistry+0x26>
1000a8a0:	00ea      	lsls	r2, r5, #3
1000a8a2:	18a6      	adds	r6, r4, r2
1000a8a4:	6876      	ldr	r6, [r6, #4]
1000a8a6:	42b0      	cmp	r0, r6
1000a8a8:	d01a      	beq.n	1000a8e0 <vQueueAddToRegistry+0xf8>
1000a8aa:	58a6      	ldr	r6, [r4, r2]
1000a8ac:	2e00      	cmp	r6, #0
1000a8ae:	d01b      	beq.n	1000a8e8 <vQueueAddToRegistry+0x100>
1000a8b0:	3501      	adds	r5, #1
1000a8b2:	2b02      	cmp	r3, #2
1000a8b4:	d0ab      	beq.n	1000a80e <vQueueAddToRegistry+0x26>
1000a8b6:	00ea      	lsls	r2, r5, #3
1000a8b8:	18a6      	adds	r6, r4, r2
1000a8ba:	6876      	ldr	r6, [r6, #4]
1000a8bc:	42b0      	cmp	r0, r6
1000a8be:	d00f      	beq.n	1000a8e0 <vQueueAddToRegistry+0xf8>
1000a8c0:	58a6      	ldr	r6, [r4, r2]
1000a8c2:	2e00      	cmp	r6, #0
1000a8c4:	d010      	beq.n	1000a8e8 <vQueueAddToRegistry+0x100>
1000a8c6:	2b01      	cmp	r3, #1
1000a8c8:	d0a1      	beq.n	1000a80e <vQueueAddToRegistry+0x26>
1000a8ca:	6ce3      	ldr	r3, [r4, #76]	; 0x4c
1000a8cc:	4298      	cmp	r0, r3
1000a8ce:	d012      	beq.n	1000a8f6 <vQueueAddToRegistry+0x10e>
1000a8d0:	6ca3      	ldr	r3, [r4, #72]	; 0x48
1000a8d2:	2b00      	cmp	r3, #0
1000a8d4:	d19b      	bne.n	1000a80e <vQueueAddToRegistry+0x26>
1000a8d6:	2309      	movs	r3, #9
1000a8d8:	2248      	movs	r2, #72	; 0x48
1000a8da:	18a6      	adds	r6, r4, r2
1000a8dc:	e792      	b.n	1000a804 <vQueueAddToRegistry+0x1c>
1000a8de:	00d2      	lsls	r2, r2, #3
1000a8e0:	18a6      	adds	r6, r4, r2
1000a8e2:	6031      	str	r1, [r6, #0]
1000a8e4:	6070      	str	r0, [r6, #4]
1000a8e6:	e792      	b.n	1000a80e <vQueueAddToRegistry+0x26>
1000a8e8:	002b      	movs	r3, r5
1000a8ea:	18a6      	adds	r6, r4, r2
1000a8ec:	e78a      	b.n	1000a804 <vQueueAddToRegistry+0x1c>
1000a8ee:	0013      	movs	r3, r2
1000a8f0:	00d2      	lsls	r2, r2, #3
1000a8f2:	18a6      	adds	r6, r4, r2
1000a8f4:	e786      	b.n	1000a804 <vQueueAddToRegistry+0x1c>
1000a8f6:	2248      	movs	r2, #72	; 0x48
1000a8f8:	18a6      	adds	r6, r4, r2
1000a8fa:	e7f2      	b.n	1000a8e2 <vQueueAddToRegistry+0xfa>
1000a8fc:	20000ce0 	.word	0x20000ce0

1000a900 <pcQueueGetName>:
1000a900:	4a1b      	ldr	r2, [pc, #108]	; (1000a970 <pcQueueGetName+0x70>)
1000a902:	0003      	movs	r3, r0
1000a904:	6851      	ldr	r1, [r2, #4]
1000a906:	4288      	cmp	r0, r1
1000a908:	d01c      	beq.n	1000a944 <pcQueueGetName+0x44>
1000a90a:	68d1      	ldr	r1, [r2, #12]
1000a90c:	4288      	cmp	r0, r1
1000a90e:	d01d      	beq.n	1000a94c <pcQueueGetName+0x4c>
1000a910:	6951      	ldr	r1, [r2, #20]
1000a912:	4288      	cmp	r0, r1
1000a914:	d01c      	beq.n	1000a950 <pcQueueGetName+0x50>
1000a916:	69d1      	ldr	r1, [r2, #28]
1000a918:	4288      	cmp	r0, r1
1000a91a:	d01b      	beq.n	1000a954 <pcQueueGetName+0x54>
1000a91c:	6a51      	ldr	r1, [r2, #36]	; 0x24
1000a91e:	4288      	cmp	r0, r1
1000a920:	d01a      	beq.n	1000a958 <pcQueueGetName+0x58>
1000a922:	6ad1      	ldr	r1, [r2, #44]	; 0x2c
1000a924:	4288      	cmp	r0, r1
1000a926:	d019      	beq.n	1000a95c <pcQueueGetName+0x5c>
1000a928:	6b51      	ldr	r1, [r2, #52]	; 0x34
1000a92a:	4288      	cmp	r0, r1
1000a92c:	d018      	beq.n	1000a960 <pcQueueGetName+0x60>
1000a92e:	6bd1      	ldr	r1, [r2, #60]	; 0x3c
1000a930:	4288      	cmp	r0, r1
1000a932:	d017      	beq.n	1000a964 <pcQueueGetName+0x64>
1000a934:	6c51      	ldr	r1, [r2, #68]	; 0x44
1000a936:	4288      	cmp	r0, r1
1000a938:	d016      	beq.n	1000a968 <pcQueueGetName+0x68>
1000a93a:	6cd1      	ldr	r1, [r2, #76]	; 0x4c
1000a93c:	2000      	movs	r0, #0
1000a93e:	4299      	cmp	r1, r3
1000a940:	d014      	beq.n	1000a96c <pcQueueGetName+0x6c>
1000a942:	4770      	bx	lr
1000a944:	2300      	movs	r3, #0
1000a946:	00db      	lsls	r3, r3, #3
1000a948:	58d0      	ldr	r0, [r2, r3]
1000a94a:	e7fa      	b.n	1000a942 <pcQueueGetName+0x42>
1000a94c:	2301      	movs	r3, #1
1000a94e:	e7fa      	b.n	1000a946 <pcQueueGetName+0x46>
1000a950:	2302      	movs	r3, #2
1000a952:	e7f8      	b.n	1000a946 <pcQueueGetName+0x46>
1000a954:	2303      	movs	r3, #3
1000a956:	e7f6      	b.n	1000a946 <pcQueueGetName+0x46>
1000a958:	2304      	movs	r3, #4
1000a95a:	e7f4      	b.n	1000a946 <pcQueueGetName+0x46>
1000a95c:	2305      	movs	r3, #5
1000a95e:	e7f2      	b.n	1000a946 <pcQueueGetName+0x46>
1000a960:	2306      	movs	r3, #6
1000a962:	e7f0      	b.n	1000a946 <pcQueueGetName+0x46>
1000a964:	2307      	movs	r3, #7
1000a966:	e7ee      	b.n	1000a946 <pcQueueGetName+0x46>
1000a968:	2308      	movs	r3, #8
1000a96a:	e7ec      	b.n	1000a946 <pcQueueGetName+0x46>
1000a96c:	2309      	movs	r3, #9
1000a96e:	e7ea      	b.n	1000a946 <pcQueueGetName+0x46>
1000a970:	20000ce0 	.word	0x20000ce0

1000a974 <vQueueUnregisterQueue>:
1000a974:	4b1c      	ldr	r3, [pc, #112]	; (1000a9e8 <vQueueUnregisterQueue+0x74>)
1000a976:	685a      	ldr	r2, [r3, #4]
1000a978:	4290      	cmp	r0, r2
1000a97a:	d01b      	beq.n	1000a9b4 <vQueueUnregisterQueue+0x40>
1000a97c:	68da      	ldr	r2, [r3, #12]
1000a97e:	4290      	cmp	r0, r2
1000a980:	d020      	beq.n	1000a9c4 <vQueueUnregisterQueue+0x50>
1000a982:	695a      	ldr	r2, [r3, #20]
1000a984:	4290      	cmp	r0, r2
1000a986:	d01f      	beq.n	1000a9c8 <vQueueUnregisterQueue+0x54>
1000a988:	69da      	ldr	r2, [r3, #28]
1000a98a:	4290      	cmp	r0, r2
1000a98c:	d01e      	beq.n	1000a9cc <vQueueUnregisterQueue+0x58>
1000a98e:	6a5a      	ldr	r2, [r3, #36]	; 0x24
1000a990:	4290      	cmp	r0, r2
1000a992:	d01d      	beq.n	1000a9d0 <vQueueUnregisterQueue+0x5c>
1000a994:	6ada      	ldr	r2, [r3, #44]	; 0x2c
1000a996:	4290      	cmp	r0, r2
1000a998:	d01c      	beq.n	1000a9d4 <vQueueUnregisterQueue+0x60>
1000a99a:	6b5a      	ldr	r2, [r3, #52]	; 0x34
1000a99c:	4290      	cmp	r0, r2
1000a99e:	d01b      	beq.n	1000a9d8 <vQueueUnregisterQueue+0x64>
1000a9a0:	6bda      	ldr	r2, [r3, #60]	; 0x3c
1000a9a2:	4290      	cmp	r0, r2
1000a9a4:	d01a      	beq.n	1000a9dc <vQueueUnregisterQueue+0x68>
1000a9a6:	6c5a      	ldr	r2, [r3, #68]	; 0x44
1000a9a8:	4290      	cmp	r0, r2
1000a9aa:	d019      	beq.n	1000a9e0 <vQueueUnregisterQueue+0x6c>
1000a9ac:	6cda      	ldr	r2, [r3, #76]	; 0x4c
1000a9ae:	4282      	cmp	r2, r0
1000a9b0:	d018      	beq.n	1000a9e4 <vQueueUnregisterQueue+0x70>
1000a9b2:	4770      	bx	lr
1000a9b4:	2200      	movs	r2, #0
1000a9b6:	2000      	movs	r0, #0
1000a9b8:	2100      	movs	r1, #0
1000a9ba:	00d2      	lsls	r2, r2, #3
1000a9bc:	189b      	adds	r3, r3, r2
1000a9be:	6018      	str	r0, [r3, #0]
1000a9c0:	6059      	str	r1, [r3, #4]
1000a9c2:	e7f6      	b.n	1000a9b2 <vQueueUnregisterQueue+0x3e>
1000a9c4:	2201      	movs	r2, #1
1000a9c6:	e7f6      	b.n	1000a9b6 <vQueueUnregisterQueue+0x42>
1000a9c8:	2202      	movs	r2, #2
1000a9ca:	e7f4      	b.n	1000a9b6 <vQueueUnregisterQueue+0x42>
1000a9cc:	2203      	movs	r2, #3
1000a9ce:	e7f2      	b.n	1000a9b6 <vQueueUnregisterQueue+0x42>
1000a9d0:	2204      	movs	r2, #4
1000a9d2:	e7f0      	b.n	1000a9b6 <vQueueUnregisterQueue+0x42>
1000a9d4:	2205      	movs	r2, #5
1000a9d6:	e7ee      	b.n	1000a9b6 <vQueueUnregisterQueue+0x42>
1000a9d8:	2206      	movs	r2, #6
1000a9da:	e7ec      	b.n	1000a9b6 <vQueueUnregisterQueue+0x42>
1000a9dc:	2207      	movs	r2, #7
1000a9de:	e7ea      	b.n	1000a9b6 <vQueueUnregisterQueue+0x42>
1000a9e0:	2208      	movs	r2, #8
1000a9e2:	e7e8      	b.n	1000a9b6 <vQueueUnregisterQueue+0x42>
1000a9e4:	2209      	movs	r2, #9
1000a9e6:	e7e6      	b.n	1000a9b6 <vQueueUnregisterQueue+0x42>
1000a9e8:	20000ce0 	.word	0x20000ce0

1000a9ec <vQueueWaitForMessageRestricted>:
1000a9ec:	b570      	push	{r4, r5, r6, lr}
1000a9ee:	0005      	movs	r5, r0
1000a9f0:	0016      	movs	r6, r2
1000a9f2:	000c      	movs	r4, r1
1000a9f4:	f7fe fe96 	bl	10009724 <vPortEnterCritical>
1000a9f8:	2244      	movs	r2, #68	; 0x44
1000a9fa:	5cab      	ldrb	r3, [r5, r2]
1000a9fc:	b25b      	sxtb	r3, r3
1000a9fe:	3301      	adds	r3, #1
1000aa00:	d101      	bne.n	1000aa06 <vQueueWaitForMessageRestricted+0x1a>
1000aa02:	2300      	movs	r3, #0
1000aa04:	54ab      	strb	r3, [r5, r2]
1000aa06:	2245      	movs	r2, #69	; 0x45
1000aa08:	5cab      	ldrb	r3, [r5, r2]
1000aa0a:	b25b      	sxtb	r3, r3
1000aa0c:	3301      	adds	r3, #1
1000aa0e:	d101      	bne.n	1000aa14 <vQueueWaitForMessageRestricted+0x28>
1000aa10:	2300      	movs	r3, #0
1000aa12:	54ab      	strb	r3, [r5, r2]
1000aa14:	f7fe fe92 	bl	1000973c <vPortExitCritical>
1000aa18:	6bab      	ldr	r3, [r5, #56]	; 0x38
1000aa1a:	2b00      	cmp	r3, #0
1000aa1c:	d046      	beq.n	1000aaac <vQueueWaitForMessageRestricted+0xc0>
1000aa1e:	f7fe fe81 	bl	10009724 <vPortEnterCritical>
1000aa22:	2345      	movs	r3, #69	; 0x45
1000aa24:	5cec      	ldrb	r4, [r5, r3]
1000aa26:	b264      	sxtb	r4, r4
1000aa28:	2c00      	cmp	r4, #0
1000aa2a:	dd16      	ble.n	1000aa5a <vQueueWaitForMessageRestricted+0x6e>
1000aa2c:	002e      	movs	r6, r5
1000aa2e:	3624      	adds	r6, #36	; 0x24
1000aa30:	e004      	b.n	1000aa3c <vQueueWaitForMessageRestricted+0x50>
1000aa32:	3c01      	subs	r4, #1
1000aa34:	b2e2      	uxtb	r2, r4
1000aa36:	b264      	sxtb	r4, r4
1000aa38:	2a00      	cmp	r2, #0
1000aa3a:	d00e      	beq.n	1000aa5a <vQueueWaitForMessageRestricted+0x6e>
1000aa3c:	6a6b      	ldr	r3, [r5, #36]	; 0x24
1000aa3e:	2b00      	cmp	r3, #0
1000aa40:	d00b      	beq.n	1000aa5a <vQueueWaitForMessageRestricted+0x6e>
1000aa42:	0030      	movs	r0, r6
1000aa44:	f7fe f818 	bl	10008a78 <xTaskRemoveFromEventList>
1000aa48:	2800      	cmp	r0, #0
1000aa4a:	d0f2      	beq.n	1000aa32 <vQueueWaitForMessageRestricted+0x46>
1000aa4c:	3c01      	subs	r4, #1
1000aa4e:	f7fe f8ff 	bl	10008c50 <vTaskMissedYield>
1000aa52:	b2e2      	uxtb	r2, r4
1000aa54:	b264      	sxtb	r4, r4
1000aa56:	2a00      	cmp	r2, #0
1000aa58:	d1f0      	bne.n	1000aa3c <vQueueWaitForMessageRestricted+0x50>
1000aa5a:	2345      	movs	r3, #69	; 0x45
1000aa5c:	22ff      	movs	r2, #255	; 0xff
1000aa5e:	54ea      	strb	r2, [r5, r3]
1000aa60:	f7fe fe6c 	bl	1000973c <vPortExitCritical>
1000aa64:	f7fe fe5e 	bl	10009724 <vPortEnterCritical>
1000aa68:	2344      	movs	r3, #68	; 0x44
1000aa6a:	5cec      	ldrb	r4, [r5, r3]
1000aa6c:	b264      	sxtb	r4, r4
1000aa6e:	2c00      	cmp	r4, #0
1000aa70:	dd16      	ble.n	1000aaa0 <vQueueWaitForMessageRestricted+0xb4>
1000aa72:	002e      	movs	r6, r5
1000aa74:	3610      	adds	r6, #16
1000aa76:	e004      	b.n	1000aa82 <vQueueWaitForMessageRestricted+0x96>
1000aa78:	3c01      	subs	r4, #1
1000aa7a:	b2e2      	uxtb	r2, r4
1000aa7c:	b264      	sxtb	r4, r4
1000aa7e:	2a00      	cmp	r2, #0
1000aa80:	d00e      	beq.n	1000aaa0 <vQueueWaitForMessageRestricted+0xb4>
1000aa82:	692b      	ldr	r3, [r5, #16]
1000aa84:	2b00      	cmp	r3, #0
1000aa86:	d00b      	beq.n	1000aaa0 <vQueueWaitForMessageRestricted+0xb4>
1000aa88:	0030      	movs	r0, r6
1000aa8a:	f7fd fff5 	bl	10008a78 <xTaskRemoveFromEventList>
1000aa8e:	2800      	cmp	r0, #0
1000aa90:	d0f2      	beq.n	1000aa78 <vQueueWaitForMessageRestricted+0x8c>
1000aa92:	3c01      	subs	r4, #1
1000aa94:	f7fe f8dc 	bl	10008c50 <vTaskMissedYield>
1000aa98:	b2e2      	uxtb	r2, r4
1000aa9a:	b264      	sxtb	r4, r4
1000aa9c:	2a00      	cmp	r2, #0
1000aa9e:	d1f0      	bne.n	1000aa82 <vQueueWaitForMessageRestricted+0x96>
1000aaa0:	2344      	movs	r3, #68	; 0x44
1000aaa2:	22ff      	movs	r2, #255	; 0xff
1000aaa4:	54ea      	strb	r2, [r5, r3]
1000aaa6:	f7fe fe49 	bl	1000973c <vPortExitCritical>
1000aaaa:	bd70      	pop	{r4, r5, r6, pc}
1000aaac:	0028      	movs	r0, r5
1000aaae:	0032      	movs	r2, r6
1000aab0:	0021      	movs	r1, r4
1000aab2:	3024      	adds	r0, #36	; 0x24
1000aab4:	f7fd ff92 	bl	100089dc <vTaskPlaceOnEventListRestricted>
1000aab8:	e7b1      	b.n	1000aa1e <vQueueWaitForMessageRestricted+0x32>
1000aaba:	46c0      	nop			; (mov r8, r8)

1000aabc <malloc>:
1000aabc:	b510      	push	{r4, lr}
1000aabe:	4b03      	ldr	r3, [pc, #12]	; (1000aacc <malloc+0x10>)
1000aac0:	0001      	movs	r1, r0
1000aac2:	6818      	ldr	r0, [r3, #0]
1000aac4:	f000 f80e 	bl	1000aae4 <_malloc_r>
1000aac8:	bd10      	pop	{r4, pc}
1000aaca:	46c0      	nop			; (mov r8, r8)
1000aacc:	20000480 	.word	0x20000480

1000aad0 <free>:
1000aad0:	b510      	push	{r4, lr}
1000aad2:	4b03      	ldr	r3, [pc, #12]	; (1000aae0 <free+0x10>)
1000aad4:	0001      	movs	r1, r0
1000aad6:	6818      	ldr	r0, [r3, #0]
1000aad8:	f000 fb50 	bl	1000b17c <_free_r>
1000aadc:	bd10      	pop	{r4, pc}
1000aade:	46c0      	nop			; (mov r8, r8)
1000aae0:	20000480 	.word	0x20000480

1000aae4 <_malloc_r>:
1000aae4:	b5f0      	push	{r4, r5, r6, r7, lr}
1000aae6:	464e      	mov	r6, r9
1000aae8:	4645      	mov	r5, r8
1000aaea:	46de      	mov	lr, fp
1000aaec:	4657      	mov	r7, sl
1000aaee:	b5e0      	push	{r5, r6, r7, lr}
1000aaf0:	000d      	movs	r5, r1
1000aaf2:	350b      	adds	r5, #11
1000aaf4:	0006      	movs	r6, r0
1000aaf6:	b083      	sub	sp, #12
1000aaf8:	2d16      	cmp	r5, #22
1000aafa:	d822      	bhi.n	1000ab42 <_malloc_r+0x5e>
1000aafc:	2910      	cmp	r1, #16
1000aafe:	d900      	bls.n	1000ab02 <_malloc_r+0x1e>
1000ab00:	e0b2      	b.n	1000ac68 <_malloc_r+0x184>
1000ab02:	f000 faa9 	bl	1000b058 <__malloc_lock>
1000ab06:	2510      	movs	r5, #16
1000ab08:	2318      	movs	r3, #24
1000ab0a:	2002      	movs	r0, #2
1000ab0c:	4fcc      	ldr	r7, [pc, #816]	; (1000ae40 <_malloc_r+0x35c>)
1000ab0e:	18fb      	adds	r3, r7, r3
1000ab10:	001a      	movs	r2, r3
1000ab12:	685c      	ldr	r4, [r3, #4]
1000ab14:	3a08      	subs	r2, #8
1000ab16:	4294      	cmp	r4, r2
1000ab18:	d100      	bne.n	1000ab1c <_malloc_r+0x38>
1000ab1a:	e0b5      	b.n	1000ac88 <_malloc_r+0x1a4>
1000ab1c:	2303      	movs	r3, #3
1000ab1e:	6862      	ldr	r2, [r4, #4]
1000ab20:	439a      	bics	r2, r3
1000ab22:	0013      	movs	r3, r2
1000ab24:	68e2      	ldr	r2, [r4, #12]
1000ab26:	68a1      	ldr	r1, [r4, #8]
1000ab28:	60ca      	str	r2, [r1, #12]
1000ab2a:	6091      	str	r1, [r2, #8]
1000ab2c:	2201      	movs	r2, #1
1000ab2e:	18e3      	adds	r3, r4, r3
1000ab30:	6859      	ldr	r1, [r3, #4]
1000ab32:	0030      	movs	r0, r6
1000ab34:	430a      	orrs	r2, r1
1000ab36:	605a      	str	r2, [r3, #4]
1000ab38:	f000 fa90 	bl	1000b05c <__malloc_unlock>
1000ab3c:	0020      	movs	r0, r4
1000ab3e:	3008      	adds	r0, #8
1000ab40:	e095      	b.n	1000ac6e <_malloc_r+0x18a>
1000ab42:	2307      	movs	r3, #7
1000ab44:	439d      	bics	r5, r3
1000ab46:	d500      	bpl.n	1000ab4a <_malloc_r+0x66>
1000ab48:	e08e      	b.n	1000ac68 <_malloc_r+0x184>
1000ab4a:	42a9      	cmp	r1, r5
1000ab4c:	d900      	bls.n	1000ab50 <_malloc_r+0x6c>
1000ab4e:	e08b      	b.n	1000ac68 <_malloc_r+0x184>
1000ab50:	f000 fa82 	bl	1000b058 <__malloc_lock>
1000ab54:	23fc      	movs	r3, #252	; 0xfc
1000ab56:	005b      	lsls	r3, r3, #1
1000ab58:	429d      	cmp	r5, r3
1000ab5a:	d200      	bcs.n	1000ab5e <_malloc_r+0x7a>
1000ab5c:	e1a1      	b.n	1000aea2 <_malloc_r+0x3be>
1000ab5e:	0a68      	lsrs	r0, r5, #9
1000ab60:	d100      	bne.n	1000ab64 <_malloc_r+0x80>
1000ab62:	e08b      	b.n	1000ac7c <_malloc_r+0x198>
1000ab64:	2804      	cmp	r0, #4
1000ab66:	d900      	bls.n	1000ab6a <_malloc_r+0x86>
1000ab68:	e174      	b.n	1000ae54 <_malloc_r+0x370>
1000ab6a:	2338      	movs	r3, #56	; 0x38
1000ab6c:	4698      	mov	r8, r3
1000ab6e:	09a8      	lsrs	r0, r5, #6
1000ab70:	4480      	add	r8, r0
1000ab72:	3039      	adds	r0, #57	; 0x39
1000ab74:	00c1      	lsls	r1, r0, #3
1000ab76:	4fb2      	ldr	r7, [pc, #712]	; (1000ae40 <_malloc_r+0x35c>)
1000ab78:	1879      	adds	r1, r7, r1
1000ab7a:	684c      	ldr	r4, [r1, #4]
1000ab7c:	3908      	subs	r1, #8
1000ab7e:	42a1      	cmp	r1, r4
1000ab80:	d00e      	beq.n	1000aba0 <_malloc_r+0xbc>
1000ab82:	2303      	movs	r3, #3
1000ab84:	469c      	mov	ip, r3
1000ab86:	e004      	b.n	1000ab92 <_malloc_r+0xae>
1000ab88:	2a00      	cmp	r2, #0
1000ab8a:	dacb      	bge.n	1000ab24 <_malloc_r+0x40>
1000ab8c:	68e4      	ldr	r4, [r4, #12]
1000ab8e:	42a1      	cmp	r1, r4
1000ab90:	d006      	beq.n	1000aba0 <_malloc_r+0xbc>
1000ab92:	4662      	mov	r2, ip
1000ab94:	6863      	ldr	r3, [r4, #4]
1000ab96:	4393      	bics	r3, r2
1000ab98:	1b5a      	subs	r2, r3, r5
1000ab9a:	2a0f      	cmp	r2, #15
1000ab9c:	ddf4      	ble.n	1000ab88 <_malloc_r+0xa4>
1000ab9e:	4640      	mov	r0, r8
1000aba0:	003a      	movs	r2, r7
1000aba2:	693c      	ldr	r4, [r7, #16]
1000aba4:	3208      	adds	r2, #8
1000aba6:	4294      	cmp	r4, r2
1000aba8:	d100      	bne.n	1000abac <_malloc_r+0xc8>
1000abaa:	e078      	b.n	1000ac9e <_malloc_r+0x1ba>
1000abac:	2303      	movs	r3, #3
1000abae:	6861      	ldr	r1, [r4, #4]
1000abb0:	4399      	bics	r1, r3
1000abb2:	4689      	mov	r9, r1
1000abb4:	000b      	movs	r3, r1
1000abb6:	1b49      	subs	r1, r1, r5
1000abb8:	290f      	cmp	r1, #15
1000abba:	dd00      	ble.n	1000abbe <_malloc_r+0xda>
1000abbc:	e175      	b.n	1000aeaa <_malloc_r+0x3c6>
1000abbe:	617a      	str	r2, [r7, #20]
1000abc0:	613a      	str	r2, [r7, #16]
1000abc2:	2900      	cmp	r1, #0
1000abc4:	dab2      	bge.n	1000ab2c <_malloc_r+0x48>
1000abc6:	2280      	movs	r2, #128	; 0x80
1000abc8:	0092      	lsls	r2, r2, #2
1000abca:	4591      	cmp	r9, r2
1000abcc:	d300      	bcc.n	1000abd0 <_malloc_r+0xec>
1000abce:	e110      	b.n	1000adf2 <_malloc_r+0x30e>
1000abd0:	0959      	lsrs	r1, r3, #5
1000abd2:	08da      	lsrs	r2, r3, #3
1000abd4:	2301      	movs	r3, #1
1000abd6:	408b      	lsls	r3, r1
1000abd8:	00d2      	lsls	r2, r2, #3
1000abda:	6879      	ldr	r1, [r7, #4]
1000abdc:	19d2      	adds	r2, r2, r7
1000abde:	430b      	orrs	r3, r1
1000abe0:	6891      	ldr	r1, [r2, #8]
1000abe2:	607b      	str	r3, [r7, #4]
1000abe4:	60e2      	str	r2, [r4, #12]
1000abe6:	60a1      	str	r1, [r4, #8]
1000abe8:	6094      	str	r4, [r2, #8]
1000abea:	60cc      	str	r4, [r1, #12]
1000abec:	2101      	movs	r1, #1
1000abee:	1082      	asrs	r2, r0, #2
1000abf0:	4091      	lsls	r1, r2
1000abf2:	4299      	cmp	r1, r3
1000abf4:	d859      	bhi.n	1000acaa <_malloc_r+0x1c6>
1000abf6:	420b      	tst	r3, r1
1000abf8:	d105      	bne.n	1000ac06 <_malloc_r+0x122>
1000abfa:	2203      	movs	r2, #3
1000abfc:	4390      	bics	r0, r2
1000abfe:	0049      	lsls	r1, r1, #1
1000ac00:	3004      	adds	r0, #4
1000ac02:	420b      	tst	r3, r1
1000ac04:	d0fb      	beq.n	1000abfe <_malloc_r+0x11a>
1000ac06:	2303      	movs	r3, #3
1000ac08:	4698      	mov	r8, r3
1000ac0a:	00c3      	lsls	r3, r0, #3
1000ac0c:	4699      	mov	r9, r3
1000ac0e:	44b9      	add	r9, r7
1000ac10:	46cc      	mov	ip, r9
1000ac12:	4682      	mov	sl, r0
1000ac14:	4663      	mov	r3, ip
1000ac16:	68dc      	ldr	r4, [r3, #12]
1000ac18:	45a4      	cmp	ip, r4
1000ac1a:	d107      	bne.n	1000ac2c <_malloc_r+0x148>
1000ac1c:	e126      	b.n	1000ae6c <_malloc_r+0x388>
1000ac1e:	2a00      	cmp	r2, #0
1000ac20:	db00      	blt.n	1000ac24 <_malloc_r+0x140>
1000ac22:	e12f      	b.n	1000ae84 <_malloc_r+0x3a0>
1000ac24:	68e4      	ldr	r4, [r4, #12]
1000ac26:	45a4      	cmp	ip, r4
1000ac28:	d100      	bne.n	1000ac2c <_malloc_r+0x148>
1000ac2a:	e11f      	b.n	1000ae6c <_malloc_r+0x388>
1000ac2c:	4642      	mov	r2, r8
1000ac2e:	6863      	ldr	r3, [r4, #4]
1000ac30:	4393      	bics	r3, r2
1000ac32:	1b5a      	subs	r2, r3, r5
1000ac34:	2a0f      	cmp	r2, #15
1000ac36:	ddf2      	ble.n	1000ac1e <_malloc_r+0x13a>
1000ac38:	2001      	movs	r0, #1
1000ac3a:	4680      	mov	r8, r0
1000ac3c:	1961      	adds	r1, r4, r5
1000ac3e:	4305      	orrs	r5, r0
1000ac40:	6065      	str	r5, [r4, #4]
1000ac42:	68a0      	ldr	r0, [r4, #8]
1000ac44:	68e5      	ldr	r5, [r4, #12]
1000ac46:	3708      	adds	r7, #8
1000ac48:	60c5      	str	r5, [r0, #12]
1000ac4a:	60a8      	str	r0, [r5, #8]
1000ac4c:	4640      	mov	r0, r8
1000ac4e:	4310      	orrs	r0, r2
1000ac50:	60f9      	str	r1, [r7, #12]
1000ac52:	60b9      	str	r1, [r7, #8]
1000ac54:	6048      	str	r0, [r1, #4]
1000ac56:	60cf      	str	r7, [r1, #12]
1000ac58:	0030      	movs	r0, r6
1000ac5a:	608f      	str	r7, [r1, #8]
1000ac5c:	50e2      	str	r2, [r4, r3]
1000ac5e:	f000 f9fd 	bl	1000b05c <__malloc_unlock>
1000ac62:	0020      	movs	r0, r4
1000ac64:	3008      	adds	r0, #8
1000ac66:	e002      	b.n	1000ac6e <_malloc_r+0x18a>
1000ac68:	230c      	movs	r3, #12
1000ac6a:	2000      	movs	r0, #0
1000ac6c:	6033      	str	r3, [r6, #0]
1000ac6e:	b003      	add	sp, #12
1000ac70:	bcf0      	pop	{r4, r5, r6, r7}
1000ac72:	46bb      	mov	fp, r7
1000ac74:	46b2      	mov	sl, r6
1000ac76:	46a9      	mov	r9, r5
1000ac78:	46a0      	mov	r8, r4
1000ac7a:	bdf0      	pop	{r4, r5, r6, r7, pc}
1000ac7c:	2180      	movs	r1, #128	; 0x80
1000ac7e:	233f      	movs	r3, #63	; 0x3f
1000ac80:	2040      	movs	r0, #64	; 0x40
1000ac82:	4698      	mov	r8, r3
1000ac84:	0089      	lsls	r1, r1, #2
1000ac86:	e776      	b.n	1000ab76 <_malloc_r+0x92>
1000ac88:	68dc      	ldr	r4, [r3, #12]
1000ac8a:	3002      	adds	r0, #2
1000ac8c:	42a3      	cmp	r3, r4
1000ac8e:	d000      	beq.n	1000ac92 <_malloc_r+0x1ae>
1000ac90:	e744      	b.n	1000ab1c <_malloc_r+0x38>
1000ac92:	003a      	movs	r2, r7
1000ac94:	693c      	ldr	r4, [r7, #16]
1000ac96:	3208      	adds	r2, #8
1000ac98:	4294      	cmp	r4, r2
1000ac9a:	d000      	beq.n	1000ac9e <_malloc_r+0x1ba>
1000ac9c:	e786      	b.n	1000abac <_malloc_r+0xc8>
1000ac9e:	2101      	movs	r1, #1
1000aca0:	687b      	ldr	r3, [r7, #4]
1000aca2:	1082      	asrs	r2, r0, #2
1000aca4:	4091      	lsls	r1, r2
1000aca6:	4299      	cmp	r1, r3
1000aca8:	d9a5      	bls.n	1000abf6 <_malloc_r+0x112>
1000acaa:	2303      	movs	r3, #3
1000acac:	68bc      	ldr	r4, [r7, #8]
1000acae:	6862      	ldr	r2, [r4, #4]
1000acb0:	439a      	bics	r2, r3
1000acb2:	4691      	mov	r9, r2
1000acb4:	4295      	cmp	r5, r2
1000acb6:	d803      	bhi.n	1000acc0 <_malloc_r+0x1dc>
1000acb8:	1b53      	subs	r3, r2, r5
1000acba:	2b0f      	cmp	r3, #15
1000acbc:	dd00      	ble.n	1000acc0 <_malloc_r+0x1dc>
1000acbe:	e08a      	b.n	1000add6 <_malloc_r+0x2f2>
1000acc0:	0023      	movs	r3, r4
1000acc2:	444b      	add	r3, r9
1000acc4:	4a5f      	ldr	r2, [pc, #380]	; (1000ae44 <_malloc_r+0x360>)
1000acc6:	9301      	str	r3, [sp, #4]
1000acc8:	4b5f      	ldr	r3, [pc, #380]	; (1000ae48 <_malloc_r+0x364>)
1000acca:	4693      	mov	fp, r2
1000accc:	469a      	mov	sl, r3
1000acce:	6812      	ldr	r2, [r2, #0]
1000acd0:	681b      	ldr	r3, [r3, #0]
1000acd2:	18eb      	adds	r3, r5, r3
1000acd4:	3201      	adds	r2, #1
1000acd6:	d100      	bne.n	1000acda <_malloc_r+0x1f6>
1000acd8:	e136      	b.n	1000af48 <_malloc_r+0x464>
1000acda:	4a5c      	ldr	r2, [pc, #368]	; (1000ae4c <_malloc_r+0x368>)
1000acdc:	4694      	mov	ip, r2
1000acde:	4463      	add	r3, ip
1000ace0:	0b1b      	lsrs	r3, r3, #12
1000ace2:	031b      	lsls	r3, r3, #12
1000ace4:	9300      	str	r3, [sp, #0]
1000ace6:	0030      	movs	r0, r6
1000ace8:	9900      	ldr	r1, [sp, #0]
1000acea:	f000 f9b9 	bl	1000b060 <_sbrk_r>
1000acee:	0003      	movs	r3, r0
1000acf0:	4680      	mov	r8, r0
1000acf2:	3301      	adds	r3, #1
1000acf4:	d100      	bne.n	1000acf8 <_malloc_r+0x214>
1000acf6:	e0f3      	b.n	1000aee0 <_malloc_r+0x3fc>
1000acf8:	9b01      	ldr	r3, [sp, #4]
1000acfa:	4283      	cmp	r3, r0
1000acfc:	d900      	bls.n	1000ad00 <_malloc_r+0x21c>
1000acfe:	e0ed      	b.n	1000aedc <_malloc_r+0x3f8>
1000ad00:	4652      	mov	r2, sl
1000ad02:	9800      	ldr	r0, [sp, #0]
1000ad04:	6852      	ldr	r2, [r2, #4]
1000ad06:	0003      	movs	r3, r0
1000ad08:	4694      	mov	ip, r2
1000ad0a:	4651      	mov	r1, sl
1000ad0c:	4463      	add	r3, ip
1000ad0e:	604b      	str	r3, [r1, #4]
1000ad10:	9901      	ldr	r1, [sp, #4]
1000ad12:	001a      	movs	r2, r3
1000ad14:	4541      	cmp	r1, r8
1000ad16:	d100      	bne.n	1000ad1a <_malloc_r+0x236>
1000ad18:	e14b      	b.n	1000afb2 <_malloc_r+0x4ce>
1000ad1a:	465b      	mov	r3, fp
1000ad1c:	681b      	ldr	r3, [r3, #0]
1000ad1e:	3301      	adds	r3, #1
1000ad20:	d100      	bne.n	1000ad24 <_malloc_r+0x240>
1000ad22:	e150      	b.n	1000afc6 <_malloc_r+0x4e2>
1000ad24:	4643      	mov	r3, r8
1000ad26:	9901      	ldr	r1, [sp, #4]
1000ad28:	1a5b      	subs	r3, r3, r1
1000ad2a:	189a      	adds	r2, r3, r2
1000ad2c:	4653      	mov	r3, sl
1000ad2e:	605a      	str	r2, [r3, #4]
1000ad30:	2307      	movs	r3, #7
1000ad32:	4642      	mov	r2, r8
1000ad34:	4641      	mov	r1, r8
1000ad36:	401a      	ands	r2, r3
1000ad38:	9201      	str	r2, [sp, #4]
1000ad3a:	4219      	tst	r1, r3
1000ad3c:	d100      	bne.n	1000ad40 <_malloc_r+0x25c>
1000ad3e:	e10d      	b.n	1000af5c <_malloc_r+0x478>
1000ad40:	2308      	movs	r3, #8
1000ad42:	4698      	mov	r8, r3
1000ad44:	1a88      	subs	r0, r1, r2
1000ad46:	4b42      	ldr	r3, [pc, #264]	; (1000ae50 <_malloc_r+0x36c>)
1000ad48:	9900      	ldr	r1, [sp, #0]
1000ad4a:	4480      	add	r8, r0
1000ad4c:	4441      	add	r1, r8
1000ad4e:	1a9b      	subs	r3, r3, r2
1000ad50:	1a5b      	subs	r3, r3, r1
1000ad52:	051b      	lsls	r3, r3, #20
1000ad54:	0d1b      	lsrs	r3, r3, #20
1000ad56:	9100      	str	r1, [sp, #0]
1000ad58:	0030      	movs	r0, r6
1000ad5a:	0019      	movs	r1, r3
1000ad5c:	469b      	mov	fp, r3
1000ad5e:	f000 f97f 	bl	1000b060 <_sbrk_r>
1000ad62:	1c43      	adds	r3, r0, #1
1000ad64:	d100      	bne.n	1000ad68 <_malloc_r+0x284>
1000ad66:	e14a      	b.n	1000affe <_malloc_r+0x51a>
1000ad68:	4643      	mov	r3, r8
1000ad6a:	1ac0      	subs	r0, r0, r3
1000ad6c:	0003      	movs	r3, r0
1000ad6e:	445b      	add	r3, fp
1000ad70:	9300      	str	r3, [sp, #0]
1000ad72:	4653      	mov	r3, sl
1000ad74:	4652      	mov	r2, sl
1000ad76:	685b      	ldr	r3, [r3, #4]
1000ad78:	2101      	movs	r1, #1
1000ad7a:	445b      	add	r3, fp
1000ad7c:	6053      	str	r3, [r2, #4]
1000ad7e:	4642      	mov	r2, r8
1000ad80:	4640      	mov	r0, r8
1000ad82:	60ba      	str	r2, [r7, #8]
1000ad84:	9a00      	ldr	r2, [sp, #0]
1000ad86:	430a      	orrs	r2, r1
1000ad88:	6042      	str	r2, [r0, #4]
1000ad8a:	42bc      	cmp	r4, r7
1000ad8c:	d100      	bne.n	1000ad90 <_malloc_r+0x2ac>
1000ad8e:	e11e      	b.n	1000afce <_malloc_r+0x4ea>
1000ad90:	464a      	mov	r2, r9
1000ad92:	2a0f      	cmp	r2, #15
1000ad94:	d800      	bhi.n	1000ad98 <_malloc_r+0x2b4>
1000ad96:	e11c      	b.n	1000afd2 <_malloc_r+0x4ee>
1000ad98:	2007      	movs	r0, #7
1000ad9a:	3a0c      	subs	r2, #12
1000ad9c:	4382      	bics	r2, r0
1000ad9e:	6860      	ldr	r0, [r4, #4]
1000ada0:	4001      	ands	r1, r0
1000ada2:	2005      	movs	r0, #5
1000ada4:	4311      	orrs	r1, r2
1000ada6:	6061      	str	r1, [r4, #4]
1000ada8:	18a1      	adds	r1, r4, r2
1000adaa:	6048      	str	r0, [r1, #4]
1000adac:	6088      	str	r0, [r1, #8]
1000adae:	2a0f      	cmp	r2, #15
1000adb0:	d900      	bls.n	1000adb4 <_malloc_r+0x2d0>
1000adb2:	e12f      	b.n	1000b014 <_malloc_r+0x530>
1000adb4:	4642      	mov	r2, r8
1000adb6:	4644      	mov	r4, r8
1000adb8:	6852      	ldr	r2, [r2, #4]
1000adba:	4651      	mov	r1, sl
1000adbc:	6ac9      	ldr	r1, [r1, #44]	; 0x2c
1000adbe:	4299      	cmp	r1, r3
1000adc0:	d201      	bcs.n	1000adc6 <_malloc_r+0x2e2>
1000adc2:	4651      	mov	r1, sl
1000adc4:	62cb      	str	r3, [r1, #44]	; 0x2c
1000adc6:	4651      	mov	r1, sl
1000adc8:	6b09      	ldr	r1, [r1, #48]	; 0x30
1000adca:	4299      	cmp	r1, r3
1000adcc:	d300      	bcc.n	1000add0 <_malloc_r+0x2ec>
1000adce:	e089      	b.n	1000aee4 <_malloc_r+0x400>
1000add0:	4651      	mov	r1, sl
1000add2:	630b      	str	r3, [r1, #48]	; 0x30
1000add4:	e086      	b.n	1000aee4 <_malloc_r+0x400>
1000add6:	2201      	movs	r2, #1
1000add8:	0029      	movs	r1, r5
1000adda:	4313      	orrs	r3, r2
1000addc:	4311      	orrs	r1, r2
1000adde:	1965      	adds	r5, r4, r5
1000ade0:	6061      	str	r1, [r4, #4]
1000ade2:	0030      	movs	r0, r6
1000ade4:	60bd      	str	r5, [r7, #8]
1000ade6:	606b      	str	r3, [r5, #4]
1000ade8:	f000 f938 	bl	1000b05c <__malloc_unlock>
1000adec:	0020      	movs	r0, r4
1000adee:	3008      	adds	r0, #8
1000adf0:	e73d      	b.n	1000ac6e <_malloc_r+0x18a>
1000adf2:	0a5a      	lsrs	r2, r3, #9
1000adf4:	2a04      	cmp	r2, #4
1000adf6:	d96b      	bls.n	1000aed0 <_malloc_r+0x3ec>
1000adf8:	2a14      	cmp	r2, #20
1000adfa:	d900      	bls.n	1000adfe <_malloc_r+0x31a>
1000adfc:	e0be      	b.n	1000af7c <_malloc_r+0x498>
1000adfe:	0011      	movs	r1, r2
1000ae00:	325c      	adds	r2, #92	; 0x5c
1000ae02:	315b      	adds	r1, #91	; 0x5b
1000ae04:	00d2      	lsls	r2, r2, #3
1000ae06:	2308      	movs	r3, #8
1000ae08:	425b      	negs	r3, r3
1000ae0a:	469c      	mov	ip, r3
1000ae0c:	18ba      	adds	r2, r7, r2
1000ae0e:	4494      	add	ip, r2
1000ae10:	4663      	mov	r3, ip
1000ae12:	689a      	ldr	r2, [r3, #8]
1000ae14:	2303      	movs	r3, #3
1000ae16:	4698      	mov	r8, r3
1000ae18:	4594      	cmp	ip, r2
1000ae1a:	d100      	bne.n	1000ae1e <_malloc_r+0x33a>
1000ae1c:	e097      	b.n	1000af4e <_malloc_r+0x46a>
1000ae1e:	4643      	mov	r3, r8
1000ae20:	6851      	ldr	r1, [r2, #4]
1000ae22:	4399      	bics	r1, r3
1000ae24:	4549      	cmp	r1, r9
1000ae26:	d902      	bls.n	1000ae2e <_malloc_r+0x34a>
1000ae28:	6892      	ldr	r2, [r2, #8]
1000ae2a:	4594      	cmp	ip, r2
1000ae2c:	d1f7      	bne.n	1000ae1e <_malloc_r+0x33a>
1000ae2e:	68d3      	ldr	r3, [r2, #12]
1000ae30:	469c      	mov	ip, r3
1000ae32:	687b      	ldr	r3, [r7, #4]
1000ae34:	4661      	mov	r1, ip
1000ae36:	60a2      	str	r2, [r4, #8]
1000ae38:	60e1      	str	r1, [r4, #12]
1000ae3a:	608c      	str	r4, [r1, #8]
1000ae3c:	60d4      	str	r4, [r2, #12]
1000ae3e:	e6d5      	b.n	1000abec <_malloc_r+0x108>
1000ae40:	200008b8 	.word	0x200008b8
1000ae44:	200008b0 	.word	0x200008b0
1000ae48:	20001194 	.word	0x20001194
1000ae4c:	0000100f 	.word	0x0000100f
1000ae50:	00001008 	.word	0x00001008
1000ae54:	2814      	cmp	r0, #20
1000ae56:	d952      	bls.n	1000aefe <_malloc_r+0x41a>
1000ae58:	2854      	cmp	r0, #84	; 0x54
1000ae5a:	d900      	bls.n	1000ae5e <_malloc_r+0x37a>
1000ae5c:	e096      	b.n	1000af8c <_malloc_r+0x4a8>
1000ae5e:	236e      	movs	r3, #110	; 0x6e
1000ae60:	4698      	mov	r8, r3
1000ae62:	0b28      	lsrs	r0, r5, #12
1000ae64:	4480      	add	r8, r0
1000ae66:	306f      	adds	r0, #111	; 0x6f
1000ae68:	00c1      	lsls	r1, r0, #3
1000ae6a:	e684      	b.n	1000ab76 <_malloc_r+0x92>
1000ae6c:	2308      	movs	r3, #8
1000ae6e:	469b      	mov	fp, r3
1000ae70:	3b07      	subs	r3, #7
1000ae72:	44dc      	add	ip, fp
1000ae74:	469b      	mov	fp, r3
1000ae76:	44da      	add	sl, fp
1000ae78:	4643      	mov	r3, r8
1000ae7a:	4652      	mov	r2, sl
1000ae7c:	4213      	tst	r3, r2
1000ae7e:	d000      	beq.n	1000ae82 <_malloc_r+0x39e>
1000ae80:	e6c8      	b.n	1000ac14 <_malloc_r+0x130>
1000ae82:	e04c      	b.n	1000af1e <_malloc_r+0x43a>
1000ae84:	2201      	movs	r2, #1
1000ae86:	18e3      	adds	r3, r4, r3
1000ae88:	6859      	ldr	r1, [r3, #4]
1000ae8a:	0030      	movs	r0, r6
1000ae8c:	430a      	orrs	r2, r1
1000ae8e:	605a      	str	r2, [r3, #4]
1000ae90:	68e3      	ldr	r3, [r4, #12]
1000ae92:	68a2      	ldr	r2, [r4, #8]
1000ae94:	60d3      	str	r3, [r2, #12]
1000ae96:	609a      	str	r2, [r3, #8]
1000ae98:	f000 f8e0 	bl	1000b05c <__malloc_unlock>
1000ae9c:	0020      	movs	r0, r4
1000ae9e:	3008      	adds	r0, #8
1000aea0:	e6e5      	b.n	1000ac6e <_malloc_r+0x18a>
1000aea2:	002b      	movs	r3, r5
1000aea4:	08e8      	lsrs	r0, r5, #3
1000aea6:	3308      	adds	r3, #8
1000aea8:	e630      	b.n	1000ab0c <_malloc_r+0x28>
1000aeaa:	2301      	movs	r3, #1
1000aeac:	1960      	adds	r0, r4, r5
1000aeae:	431d      	orrs	r5, r3
1000aeb0:	6065      	str	r5, [r4, #4]
1000aeb2:	6178      	str	r0, [r7, #20]
1000aeb4:	6138      	str	r0, [r7, #16]
1000aeb6:	60c2      	str	r2, [r0, #12]
1000aeb8:	6082      	str	r2, [r0, #8]
1000aeba:	001a      	movs	r2, r3
1000aebc:	464b      	mov	r3, r9
1000aebe:	430a      	orrs	r2, r1
1000aec0:	6042      	str	r2, [r0, #4]
1000aec2:	0030      	movs	r0, r6
1000aec4:	50e1      	str	r1, [r4, r3]
1000aec6:	f000 f8c9 	bl	1000b05c <__malloc_unlock>
1000aeca:	0020      	movs	r0, r4
1000aecc:	3008      	adds	r0, #8
1000aece:	e6ce      	b.n	1000ac6e <_malloc_r+0x18a>
1000aed0:	099a      	lsrs	r2, r3, #6
1000aed2:	0011      	movs	r1, r2
1000aed4:	3239      	adds	r2, #57	; 0x39
1000aed6:	3138      	adds	r1, #56	; 0x38
1000aed8:	00d2      	lsls	r2, r2, #3
1000aeda:	e794      	b.n	1000ae06 <_malloc_r+0x322>
1000aedc:	42bc      	cmp	r4, r7
1000aede:	d060      	beq.n	1000afa2 <_malloc_r+0x4be>
1000aee0:	68bc      	ldr	r4, [r7, #8]
1000aee2:	6862      	ldr	r2, [r4, #4]
1000aee4:	2303      	movs	r3, #3
1000aee6:	439a      	bics	r2, r3
1000aee8:	1b53      	subs	r3, r2, r5
1000aeea:	4295      	cmp	r5, r2
1000aeec:	d802      	bhi.n	1000aef4 <_malloc_r+0x410>
1000aeee:	2b0f      	cmp	r3, #15
1000aef0:	dd00      	ble.n	1000aef4 <_malloc_r+0x410>
1000aef2:	e770      	b.n	1000add6 <_malloc_r+0x2f2>
1000aef4:	0030      	movs	r0, r6
1000aef6:	f000 f8b1 	bl	1000b05c <__malloc_unlock>
1000aefa:	2000      	movs	r0, #0
1000aefc:	e6b7      	b.n	1000ac6e <_malloc_r+0x18a>
1000aefe:	235b      	movs	r3, #91	; 0x5b
1000af00:	4698      	mov	r8, r3
1000af02:	4480      	add	r8, r0
1000af04:	305c      	adds	r0, #92	; 0x5c
1000af06:	00c1      	lsls	r1, r0, #3
1000af08:	e635      	b.n	1000ab76 <_malloc_r+0x92>
1000af0a:	2308      	movs	r3, #8
1000af0c:	425b      	negs	r3, r3
1000af0e:	469c      	mov	ip, r3
1000af10:	44e1      	add	r9, ip
1000af12:	464b      	mov	r3, r9
1000af14:	689b      	ldr	r3, [r3, #8]
1000af16:	3801      	subs	r0, #1
1000af18:	454b      	cmp	r3, r9
1000af1a:	d000      	beq.n	1000af1e <_malloc_r+0x43a>
1000af1c:	e097      	b.n	1000b04e <_malloc_r+0x56a>
1000af1e:	4643      	mov	r3, r8
1000af20:	4203      	tst	r3, r0
1000af22:	d1f2      	bne.n	1000af0a <_malloc_r+0x426>
1000af24:	687b      	ldr	r3, [r7, #4]
1000af26:	438b      	bics	r3, r1
1000af28:	607b      	str	r3, [r7, #4]
1000af2a:	0049      	lsls	r1, r1, #1
1000af2c:	4299      	cmp	r1, r3
1000af2e:	d900      	bls.n	1000af32 <_malloc_r+0x44e>
1000af30:	e6bb      	b.n	1000acaa <_malloc_r+0x1c6>
1000af32:	2900      	cmp	r1, #0
1000af34:	d104      	bne.n	1000af40 <_malloc_r+0x45c>
1000af36:	e6b8      	b.n	1000acaa <_malloc_r+0x1c6>
1000af38:	2204      	movs	r2, #4
1000af3a:	4694      	mov	ip, r2
1000af3c:	0049      	lsls	r1, r1, #1
1000af3e:	44e2      	add	sl, ip
1000af40:	420b      	tst	r3, r1
1000af42:	d0f9      	beq.n	1000af38 <_malloc_r+0x454>
1000af44:	4650      	mov	r0, sl
1000af46:	e660      	b.n	1000ac0a <_malloc_r+0x126>
1000af48:	3310      	adds	r3, #16
1000af4a:	9300      	str	r3, [sp, #0]
1000af4c:	e6cb      	b.n	1000ace6 <_malloc_r+0x202>
1000af4e:	1089      	asrs	r1, r1, #2
1000af50:	3b02      	subs	r3, #2
1000af52:	408b      	lsls	r3, r1
1000af54:	6879      	ldr	r1, [r7, #4]
1000af56:	430b      	orrs	r3, r1
1000af58:	607b      	str	r3, [r7, #4]
1000af5a:	e76b      	b.n	1000ae34 <_malloc_r+0x350>
1000af5c:	9b00      	ldr	r3, [sp, #0]
1000af5e:	0030      	movs	r0, r6
1000af60:	4443      	add	r3, r8
1000af62:	425b      	negs	r3, r3
1000af64:	051b      	lsls	r3, r3, #20
1000af66:	0d1b      	lsrs	r3, r3, #20
1000af68:	0019      	movs	r1, r3
1000af6a:	469b      	mov	fp, r3
1000af6c:	f000 f878 	bl	1000b060 <_sbrk_r>
1000af70:	1c43      	adds	r3, r0, #1
1000af72:	d000      	beq.n	1000af76 <_malloc_r+0x492>
1000af74:	e6f8      	b.n	1000ad68 <_malloc_r+0x284>
1000af76:	2300      	movs	r3, #0
1000af78:	469b      	mov	fp, r3
1000af7a:	e6fa      	b.n	1000ad72 <_malloc_r+0x28e>
1000af7c:	2a54      	cmp	r2, #84	; 0x54
1000af7e:	d82a      	bhi.n	1000afd6 <_malloc_r+0x4f2>
1000af80:	0b1a      	lsrs	r2, r3, #12
1000af82:	0011      	movs	r1, r2
1000af84:	326f      	adds	r2, #111	; 0x6f
1000af86:	316e      	adds	r1, #110	; 0x6e
1000af88:	00d2      	lsls	r2, r2, #3
1000af8a:	e73c      	b.n	1000ae06 <_malloc_r+0x322>
1000af8c:	23aa      	movs	r3, #170	; 0xaa
1000af8e:	005b      	lsls	r3, r3, #1
1000af90:	4298      	cmp	r0, r3
1000af92:	d82a      	bhi.n	1000afea <_malloc_r+0x506>
1000af94:	3bdd      	subs	r3, #221	; 0xdd
1000af96:	4698      	mov	r8, r3
1000af98:	0be8      	lsrs	r0, r5, #15
1000af9a:	4480      	add	r8, r0
1000af9c:	3078      	adds	r0, #120	; 0x78
1000af9e:	00c1      	lsls	r1, r0, #3
1000afa0:	e5e9      	b.n	1000ab76 <_malloc_r+0x92>
1000afa2:	4653      	mov	r3, sl
1000afa4:	685b      	ldr	r3, [r3, #4]
1000afa6:	9a00      	ldr	r2, [sp, #0]
1000afa8:	469c      	mov	ip, r3
1000afaa:	4653      	mov	r3, sl
1000afac:	4462      	add	r2, ip
1000afae:	605a      	str	r2, [r3, #4]
1000afb0:	e6b3      	b.n	1000ad1a <_malloc_r+0x236>
1000afb2:	0509      	lsls	r1, r1, #20
1000afb4:	d000      	beq.n	1000afb8 <_malloc_r+0x4d4>
1000afb6:	e6b0      	b.n	1000ad1a <_malloc_r+0x236>
1000afb8:	0002      	movs	r2, r0
1000afba:	68bc      	ldr	r4, [r7, #8]
1000afbc:	444a      	add	r2, r9
1000afbe:	3101      	adds	r1, #1
1000afc0:	430a      	orrs	r2, r1
1000afc2:	6062      	str	r2, [r4, #4]
1000afc4:	e6f9      	b.n	1000adba <_malloc_r+0x2d6>
1000afc6:	465b      	mov	r3, fp
1000afc8:	4642      	mov	r2, r8
1000afca:	601a      	str	r2, [r3, #0]
1000afcc:	e6b0      	b.n	1000ad30 <_malloc_r+0x24c>
1000afce:	4644      	mov	r4, r8
1000afd0:	e6f3      	b.n	1000adba <_malloc_r+0x2d6>
1000afd2:	6041      	str	r1, [r0, #4]
1000afd4:	e78e      	b.n	1000aef4 <_malloc_r+0x410>
1000afd6:	21aa      	movs	r1, #170	; 0xaa
1000afd8:	0049      	lsls	r1, r1, #1
1000afda:	428a      	cmp	r2, r1
1000afdc:	d824      	bhi.n	1000b028 <_malloc_r+0x544>
1000afde:	0bda      	lsrs	r2, r3, #15
1000afe0:	0011      	movs	r1, r2
1000afe2:	3278      	adds	r2, #120	; 0x78
1000afe4:	3177      	adds	r1, #119	; 0x77
1000afe6:	00d2      	lsls	r2, r2, #3
1000afe8:	e70d      	b.n	1000ae06 <_malloc_r+0x322>
1000afea:	4b1a      	ldr	r3, [pc, #104]	; (1000b054 <_malloc_r+0x570>)
1000afec:	4298      	cmp	r0, r3
1000afee:	d824      	bhi.n	1000b03a <_malloc_r+0x556>
1000aff0:	237c      	movs	r3, #124	; 0x7c
1000aff2:	4698      	mov	r8, r3
1000aff4:	0ca8      	lsrs	r0, r5, #18
1000aff6:	4480      	add	r8, r0
1000aff8:	307d      	adds	r0, #125	; 0x7d
1000affa:	00c1      	lsls	r1, r0, #3
1000affc:	e5bb      	b.n	1000ab76 <_malloc_r+0x92>
1000affe:	9a00      	ldr	r2, [sp, #0]
1000b000:	9b01      	ldr	r3, [sp, #4]
1000b002:	4694      	mov	ip, r2
1000b004:	4642      	mov	r2, r8
1000b006:	3b08      	subs	r3, #8
1000b008:	4463      	add	r3, ip
1000b00a:	1a9b      	subs	r3, r3, r2
1000b00c:	9300      	str	r3, [sp, #0]
1000b00e:	2300      	movs	r3, #0
1000b010:	469b      	mov	fp, r3
1000b012:	e6ae      	b.n	1000ad72 <_malloc_r+0x28e>
1000b014:	0021      	movs	r1, r4
1000b016:	0030      	movs	r0, r6
1000b018:	3108      	adds	r1, #8
1000b01a:	f000 f8af 	bl	1000b17c <_free_r>
1000b01e:	4653      	mov	r3, sl
1000b020:	68bc      	ldr	r4, [r7, #8]
1000b022:	685b      	ldr	r3, [r3, #4]
1000b024:	6862      	ldr	r2, [r4, #4]
1000b026:	e6c8      	b.n	1000adba <_malloc_r+0x2d6>
1000b028:	490a      	ldr	r1, [pc, #40]	; (1000b054 <_malloc_r+0x570>)
1000b02a:	428a      	cmp	r2, r1
1000b02c:	d80b      	bhi.n	1000b046 <_malloc_r+0x562>
1000b02e:	0c9a      	lsrs	r2, r3, #18
1000b030:	0011      	movs	r1, r2
1000b032:	327d      	adds	r2, #125	; 0x7d
1000b034:	317c      	adds	r1, #124	; 0x7c
1000b036:	00d2      	lsls	r2, r2, #3
1000b038:	e6e5      	b.n	1000ae06 <_malloc_r+0x322>
1000b03a:	21fe      	movs	r1, #254	; 0xfe
1000b03c:	237e      	movs	r3, #126	; 0x7e
1000b03e:	207f      	movs	r0, #127	; 0x7f
1000b040:	4698      	mov	r8, r3
1000b042:	0089      	lsls	r1, r1, #2
1000b044:	e597      	b.n	1000ab76 <_malloc_r+0x92>
1000b046:	22fe      	movs	r2, #254	; 0xfe
1000b048:	217e      	movs	r1, #126	; 0x7e
1000b04a:	0092      	lsls	r2, r2, #2
1000b04c:	e6db      	b.n	1000ae06 <_malloc_r+0x322>
1000b04e:	687b      	ldr	r3, [r7, #4]
1000b050:	e76b      	b.n	1000af2a <_malloc_r+0x446>
1000b052:	46c0      	nop			; (mov r8, r8)
1000b054:	00000554 	.word	0x00000554

1000b058 <__malloc_lock>:
1000b058:	4770      	bx	lr
1000b05a:	46c0      	nop			; (mov r8, r8)

1000b05c <__malloc_unlock>:
1000b05c:	4770      	bx	lr
1000b05e:	46c0      	nop			; (mov r8, r8)

1000b060 <_sbrk_r>:
1000b060:	2300      	movs	r3, #0
1000b062:	b570      	push	{r4, r5, r6, lr}
1000b064:	4d06      	ldr	r5, [pc, #24]	; (1000b080 <_sbrk_r+0x20>)
1000b066:	0004      	movs	r4, r0
1000b068:	0008      	movs	r0, r1
1000b06a:	602b      	str	r3, [r5, #0]
1000b06c:	f7f7 f866 	bl	1000213c <_sbrk>
1000b070:	1c43      	adds	r3, r0, #1
1000b072:	d000      	beq.n	1000b076 <_sbrk_r+0x16>
1000b074:	bd70      	pop	{r4, r5, r6, pc}
1000b076:	682b      	ldr	r3, [r5, #0]
1000b078:	2b00      	cmp	r3, #0
1000b07a:	d0fb      	beq.n	1000b074 <_sbrk_r+0x14>
1000b07c:	6023      	str	r3, [r4, #0]
1000b07e:	e7f9      	b.n	1000b074 <_sbrk_r+0x14>
1000b080:	200011c8 	.word	0x200011c8

1000b084 <strlen>:
1000b084:	b510      	push	{r4, lr}
1000b086:	0783      	lsls	r3, r0, #30
1000b088:	d00a      	beq.n	1000b0a0 <strlen+0x1c>
1000b08a:	0003      	movs	r3, r0
1000b08c:	2103      	movs	r1, #3
1000b08e:	e002      	b.n	1000b096 <strlen+0x12>
1000b090:	3301      	adds	r3, #1
1000b092:	420b      	tst	r3, r1
1000b094:	d005      	beq.n	1000b0a2 <strlen+0x1e>
1000b096:	781a      	ldrb	r2, [r3, #0]
1000b098:	2a00      	cmp	r2, #0
1000b09a:	d1f9      	bne.n	1000b090 <strlen+0xc>
1000b09c:	1a18      	subs	r0, r3, r0
1000b09e:	bd10      	pop	{r4, pc}
1000b0a0:	0003      	movs	r3, r0
1000b0a2:	6819      	ldr	r1, [r3, #0]
1000b0a4:	4a0c      	ldr	r2, [pc, #48]	; (1000b0d8 <strlen+0x54>)
1000b0a6:	4c0d      	ldr	r4, [pc, #52]	; (1000b0dc <strlen+0x58>)
1000b0a8:	188a      	adds	r2, r1, r2
1000b0aa:	438a      	bics	r2, r1
1000b0ac:	4222      	tst	r2, r4
1000b0ae:	d10f      	bne.n	1000b0d0 <strlen+0x4c>
1000b0b0:	6859      	ldr	r1, [r3, #4]
1000b0b2:	4a09      	ldr	r2, [pc, #36]	; (1000b0d8 <strlen+0x54>)
1000b0b4:	3304      	adds	r3, #4
1000b0b6:	188a      	adds	r2, r1, r2
1000b0b8:	438a      	bics	r2, r1
1000b0ba:	4222      	tst	r2, r4
1000b0bc:	d108      	bne.n	1000b0d0 <strlen+0x4c>
1000b0be:	6859      	ldr	r1, [r3, #4]
1000b0c0:	4a05      	ldr	r2, [pc, #20]	; (1000b0d8 <strlen+0x54>)
1000b0c2:	3304      	adds	r3, #4
1000b0c4:	188a      	adds	r2, r1, r2
1000b0c6:	438a      	bics	r2, r1
1000b0c8:	4222      	tst	r2, r4
1000b0ca:	d0f1      	beq.n	1000b0b0 <strlen+0x2c>
1000b0cc:	e000      	b.n	1000b0d0 <strlen+0x4c>
1000b0ce:	3301      	adds	r3, #1
1000b0d0:	781a      	ldrb	r2, [r3, #0]
1000b0d2:	2a00      	cmp	r2, #0
1000b0d4:	d1fb      	bne.n	1000b0ce <strlen+0x4a>
1000b0d6:	e7e1      	b.n	1000b09c <strlen+0x18>
1000b0d8:	fefefeff 	.word	0xfefefeff
1000b0dc:	80808080 	.word	0x80808080

1000b0e0 <_malloc_trim_r>:
1000b0e0:	b5f8      	push	{r3, r4, r5, r6, r7, lr}
1000b0e2:	000c      	movs	r4, r1
1000b0e4:	0005      	movs	r5, r0
1000b0e6:	f7ff ffb7 	bl	1000b058 <__malloc_lock>
1000b0ea:	4f20      	ldr	r7, [pc, #128]	; (1000b16c <_malloc_trim_r+0x8c>)
1000b0ec:	68bb      	ldr	r3, [r7, #8]
1000b0ee:	685e      	ldr	r6, [r3, #4]
1000b0f0:	2303      	movs	r3, #3
1000b0f2:	439e      	bics	r6, r3
1000b0f4:	4b1e      	ldr	r3, [pc, #120]	; (1000b170 <_malloc_trim_r+0x90>)
1000b0f6:	1b34      	subs	r4, r6, r4
1000b0f8:	469c      	mov	ip, r3
1000b0fa:	4464      	add	r4, ip
1000b0fc:	0b24      	lsrs	r4, r4, #12
1000b0fe:	3c01      	subs	r4, #1
1000b100:	3311      	adds	r3, #17
1000b102:	0324      	lsls	r4, r4, #12
1000b104:	429c      	cmp	r4, r3
1000b106:	db07      	blt.n	1000b118 <_malloc_trim_r+0x38>
1000b108:	2100      	movs	r1, #0
1000b10a:	0028      	movs	r0, r5
1000b10c:	f7ff ffa8 	bl	1000b060 <_sbrk_r>
1000b110:	68bb      	ldr	r3, [r7, #8]
1000b112:	199b      	adds	r3, r3, r6
1000b114:	4298      	cmp	r0, r3
1000b116:	d004      	beq.n	1000b122 <_malloc_trim_r+0x42>
1000b118:	0028      	movs	r0, r5
1000b11a:	f7ff ff9f 	bl	1000b05c <__malloc_unlock>
1000b11e:	2000      	movs	r0, #0
1000b120:	bdf8      	pop	{r3, r4, r5, r6, r7, pc}
1000b122:	0028      	movs	r0, r5
1000b124:	4261      	negs	r1, r4
1000b126:	f7ff ff9b 	bl	1000b060 <_sbrk_r>
1000b12a:	1c43      	adds	r3, r0, #1
1000b12c:	d00d      	beq.n	1000b14a <_malloc_trim_r+0x6a>
1000b12e:	2201      	movs	r2, #1
1000b130:	68bb      	ldr	r3, [r7, #8]
1000b132:	1b36      	subs	r6, r6, r4
1000b134:	4316      	orrs	r6, r2
1000b136:	605e      	str	r6, [r3, #4]
1000b138:	4b0e      	ldr	r3, [pc, #56]	; (1000b174 <_malloc_trim_r+0x94>)
1000b13a:	0028      	movs	r0, r5
1000b13c:	681a      	ldr	r2, [r3, #0]
1000b13e:	1b14      	subs	r4, r2, r4
1000b140:	601c      	str	r4, [r3, #0]
1000b142:	f7ff ff8b 	bl	1000b05c <__malloc_unlock>
1000b146:	2001      	movs	r0, #1
1000b148:	e7ea      	b.n	1000b120 <_malloc_trim_r+0x40>
1000b14a:	2100      	movs	r1, #0
1000b14c:	0028      	movs	r0, r5
1000b14e:	f7ff ff87 	bl	1000b060 <_sbrk_r>
1000b152:	68ba      	ldr	r2, [r7, #8]
1000b154:	1a83      	subs	r3, r0, r2
1000b156:	2b0f      	cmp	r3, #15
1000b158:	ddde      	ble.n	1000b118 <_malloc_trim_r+0x38>
1000b15a:	4907      	ldr	r1, [pc, #28]	; (1000b178 <_malloc_trim_r+0x98>)
1000b15c:	6809      	ldr	r1, [r1, #0]
1000b15e:	1a40      	subs	r0, r0, r1
1000b160:	4904      	ldr	r1, [pc, #16]	; (1000b174 <_malloc_trim_r+0x94>)
1000b162:	6008      	str	r0, [r1, #0]
1000b164:	2101      	movs	r1, #1
1000b166:	430b      	orrs	r3, r1
1000b168:	6053      	str	r3, [r2, #4]
1000b16a:	e7d5      	b.n	1000b118 <_malloc_trim_r+0x38>
1000b16c:	200008b8 	.word	0x200008b8
1000b170:	00000fef 	.word	0x00000fef
1000b174:	20001198 	.word	0x20001198
1000b178:	200008b0 	.word	0x200008b0

1000b17c <_free_r>:
1000b17c:	b5f0      	push	{r4, r5, r6, r7, lr}
1000b17e:	46c6      	mov	lr, r8
1000b180:	0005      	movs	r5, r0
1000b182:	000c      	movs	r4, r1
1000b184:	b500      	push	{lr}
1000b186:	2900      	cmp	r1, #0
1000b188:	d04f      	beq.n	1000b22a <_free_r+0xae>
1000b18a:	f7ff ff65 	bl	1000b058 <__malloc_lock>
1000b18e:	0021      	movs	r1, r4
1000b190:	3908      	subs	r1, #8
1000b192:	684c      	ldr	r4, [r1, #4]
1000b194:	2601      	movs	r6, #1
1000b196:	0022      	movs	r2, r4
1000b198:	2003      	movs	r0, #3
1000b19a:	43b2      	bics	r2, r6
1000b19c:	188f      	adds	r7, r1, r2
1000b19e:	687b      	ldr	r3, [r7, #4]
1000b1a0:	4383      	bics	r3, r0
1000b1a2:	4862      	ldr	r0, [pc, #392]	; (1000b32c <_free_r+0x1b0>)
1000b1a4:	4698      	mov	r8, r3
1000b1a6:	6883      	ldr	r3, [r0, #8]
1000b1a8:	42bb      	cmp	r3, r7
1000b1aa:	d06a      	beq.n	1000b282 <_free_r+0x106>
1000b1ac:	4643      	mov	r3, r8
1000b1ae:	607b      	str	r3, [r7, #4]
1000b1b0:	4226      	tst	r6, r4
1000b1b2:	d11e      	bne.n	1000b1f2 <_free_r+0x76>
1000b1b4:	2308      	movs	r3, #8
1000b1b6:	469c      	mov	ip, r3
1000b1b8:	680c      	ldr	r4, [r1, #0]
1000b1ba:	4484      	add	ip, r0
1000b1bc:	1b09      	subs	r1, r1, r4
1000b1be:	1912      	adds	r2, r2, r4
1000b1c0:	688c      	ldr	r4, [r1, #8]
1000b1c2:	4564      	cmp	r4, ip
1000b1c4:	d04f      	beq.n	1000b266 <_free_r+0xea>
1000b1c6:	68cb      	ldr	r3, [r1, #12]
1000b1c8:	60e3      	str	r3, [r4, #12]
1000b1ca:	609c      	str	r4, [r3, #8]
1000b1cc:	4643      	mov	r3, r8
1000b1ce:	18fc      	adds	r4, r7, r3
1000b1d0:	6864      	ldr	r4, [r4, #4]
1000b1d2:	4234      	tst	r4, r6
1000b1d4:	d111      	bne.n	1000b1fa <_free_r+0x7e>
1000b1d6:	68bb      	ldr	r3, [r7, #8]
1000b1d8:	4c55      	ldr	r4, [pc, #340]	; (1000b330 <_free_r+0x1b4>)
1000b1da:	4442      	add	r2, r8
1000b1dc:	42a3      	cmp	r3, r4
1000b1de:	d100      	bne.n	1000b1e2 <_free_r+0x66>
1000b1e0:	e07e      	b.n	1000b2e0 <_free_r+0x164>
1000b1e2:	68fc      	ldr	r4, [r7, #12]
1000b1e4:	60dc      	str	r4, [r3, #12]
1000b1e6:	60a3      	str	r3, [r4, #8]
1000b1e8:	2301      	movs	r3, #1
1000b1ea:	4313      	orrs	r3, r2
1000b1ec:	604b      	str	r3, [r1, #4]
1000b1ee:	508a      	str	r2, [r1, r2]
1000b1f0:	e006      	b.n	1000b200 <_free_r+0x84>
1000b1f2:	18fc      	adds	r4, r7, r3
1000b1f4:	6864      	ldr	r4, [r4, #4]
1000b1f6:	4234      	tst	r4, r6
1000b1f8:	d0ed      	beq.n	1000b1d6 <_free_r+0x5a>
1000b1fa:	4316      	orrs	r6, r2
1000b1fc:	604e      	str	r6, [r1, #4]
1000b1fe:	603a      	str	r2, [r7, #0]
1000b200:	2380      	movs	r3, #128	; 0x80
1000b202:	009b      	lsls	r3, r3, #2
1000b204:	429a      	cmp	r2, r3
1000b206:	d213      	bcs.n	1000b230 <_free_r+0xb4>
1000b208:	0954      	lsrs	r4, r2, #5
1000b20a:	08d3      	lsrs	r3, r2, #3
1000b20c:	2201      	movs	r2, #1
1000b20e:	40a2      	lsls	r2, r4
1000b210:	6844      	ldr	r4, [r0, #4]
1000b212:	00db      	lsls	r3, r3, #3
1000b214:	4322      	orrs	r2, r4
1000b216:	6042      	str	r2, [r0, #4]
1000b218:	1818      	adds	r0, r3, r0
1000b21a:	6883      	ldr	r3, [r0, #8]
1000b21c:	60c8      	str	r0, [r1, #12]
1000b21e:	608b      	str	r3, [r1, #8]
1000b220:	6081      	str	r1, [r0, #8]
1000b222:	60d9      	str	r1, [r3, #12]
1000b224:	0028      	movs	r0, r5
1000b226:	f7ff ff19 	bl	1000b05c <__malloc_unlock>
1000b22a:	bc80      	pop	{r7}
1000b22c:	46b8      	mov	r8, r7
1000b22e:	bdf0      	pop	{r4, r5, r6, r7, pc}
1000b230:	0a53      	lsrs	r3, r2, #9
1000b232:	2b04      	cmp	r3, #4
1000b234:	d83e      	bhi.n	1000b2b4 <_free_r+0x138>
1000b236:	0994      	lsrs	r4, r2, #6
1000b238:	0026      	movs	r6, r4
1000b23a:	3439      	adds	r4, #57	; 0x39
1000b23c:	3638      	adds	r6, #56	; 0x38
1000b23e:	00e4      	lsls	r4, r4, #3
1000b240:	1904      	adds	r4, r0, r4
1000b242:	6823      	ldr	r3, [r4, #0]
1000b244:	3c08      	subs	r4, #8
1000b246:	2703      	movs	r7, #3
1000b248:	429c      	cmp	r4, r3
1000b24a:	d042      	beq.n	1000b2d2 <_free_r+0x156>
1000b24c:	6858      	ldr	r0, [r3, #4]
1000b24e:	43b8      	bics	r0, r7
1000b250:	4290      	cmp	r0, r2
1000b252:	d902      	bls.n	1000b25a <_free_r+0xde>
1000b254:	689b      	ldr	r3, [r3, #8]
1000b256:	429c      	cmp	r4, r3
1000b258:	d1f8      	bne.n	1000b24c <_free_r+0xd0>
1000b25a:	68dc      	ldr	r4, [r3, #12]
1000b25c:	60cc      	str	r4, [r1, #12]
1000b25e:	608b      	str	r3, [r1, #8]
1000b260:	60a1      	str	r1, [r4, #8]
1000b262:	60d9      	str	r1, [r3, #12]
1000b264:	e7de      	b.n	1000b224 <_free_r+0xa8>
1000b266:	4643      	mov	r3, r8
1000b268:	18f8      	adds	r0, r7, r3
1000b26a:	6840      	ldr	r0, [r0, #4]
1000b26c:	4230      	tst	r0, r6
1000b26e:	d157      	bne.n	1000b320 <_free_r+0x1a4>
1000b270:	68fb      	ldr	r3, [r7, #12]
1000b272:	68b8      	ldr	r0, [r7, #8]
1000b274:	4442      	add	r2, r8
1000b276:	4316      	orrs	r6, r2
1000b278:	60c3      	str	r3, [r0, #12]
1000b27a:	6098      	str	r0, [r3, #8]
1000b27c:	604e      	str	r6, [r1, #4]
1000b27e:	508a      	str	r2, [r1, r2]
1000b280:	e7d0      	b.n	1000b224 <_free_r+0xa8>
1000b282:	0013      	movs	r3, r2
1000b284:	4443      	add	r3, r8
1000b286:	4226      	tst	r6, r4
1000b288:	d106      	bne.n	1000b298 <_free_r+0x11c>
1000b28a:	680a      	ldr	r2, [r1, #0]
1000b28c:	1a89      	subs	r1, r1, r2
1000b28e:	688c      	ldr	r4, [r1, #8]
1000b290:	189b      	adds	r3, r3, r2
1000b292:	68ca      	ldr	r2, [r1, #12]
1000b294:	60e2      	str	r2, [r4, #12]
1000b296:	6094      	str	r4, [r2, #8]
1000b298:	2201      	movs	r2, #1
1000b29a:	431a      	orrs	r2, r3
1000b29c:	604a      	str	r2, [r1, #4]
1000b29e:	4a25      	ldr	r2, [pc, #148]	; (1000b334 <_free_r+0x1b8>)
1000b2a0:	6081      	str	r1, [r0, #8]
1000b2a2:	6812      	ldr	r2, [r2, #0]
1000b2a4:	429a      	cmp	r2, r3
1000b2a6:	d8bd      	bhi.n	1000b224 <_free_r+0xa8>
1000b2a8:	4b23      	ldr	r3, [pc, #140]	; (1000b338 <_free_r+0x1bc>)
1000b2aa:	0028      	movs	r0, r5
1000b2ac:	6819      	ldr	r1, [r3, #0]
1000b2ae:	f7ff ff17 	bl	1000b0e0 <_malloc_trim_r>
1000b2b2:	e7b7      	b.n	1000b224 <_free_r+0xa8>
1000b2b4:	2b14      	cmp	r3, #20
1000b2b6:	d907      	bls.n	1000b2c8 <_free_r+0x14c>
1000b2b8:	2b54      	cmp	r3, #84	; 0x54
1000b2ba:	d81a      	bhi.n	1000b2f2 <_free_r+0x176>
1000b2bc:	0b14      	lsrs	r4, r2, #12
1000b2be:	0026      	movs	r6, r4
1000b2c0:	346f      	adds	r4, #111	; 0x6f
1000b2c2:	366e      	adds	r6, #110	; 0x6e
1000b2c4:	00e4      	lsls	r4, r4, #3
1000b2c6:	e7bb      	b.n	1000b240 <_free_r+0xc4>
1000b2c8:	001e      	movs	r6, r3
1000b2ca:	335c      	adds	r3, #92	; 0x5c
1000b2cc:	365b      	adds	r6, #91	; 0x5b
1000b2ce:	00dc      	lsls	r4, r3, #3
1000b2d0:	e7b6      	b.n	1000b240 <_free_r+0xc4>
1000b2d2:	2201      	movs	r2, #1
1000b2d4:	10b6      	asrs	r6, r6, #2
1000b2d6:	40b2      	lsls	r2, r6
1000b2d8:	6846      	ldr	r6, [r0, #4]
1000b2da:	4332      	orrs	r2, r6
1000b2dc:	6042      	str	r2, [r0, #4]
1000b2de:	e7bd      	b.n	1000b25c <_free_r+0xe0>
1000b2e0:	60d9      	str	r1, [r3, #12]
1000b2e2:	6099      	str	r1, [r3, #8]
1000b2e4:	60cb      	str	r3, [r1, #12]
1000b2e6:	608b      	str	r3, [r1, #8]
1000b2e8:	2301      	movs	r3, #1
1000b2ea:	4313      	orrs	r3, r2
1000b2ec:	604b      	str	r3, [r1, #4]
1000b2ee:	508a      	str	r2, [r1, r2]
1000b2f0:	e798      	b.n	1000b224 <_free_r+0xa8>
1000b2f2:	24aa      	movs	r4, #170	; 0xaa
1000b2f4:	0064      	lsls	r4, r4, #1
1000b2f6:	42a3      	cmp	r3, r4
1000b2f8:	d805      	bhi.n	1000b306 <_free_r+0x18a>
1000b2fa:	0bd4      	lsrs	r4, r2, #15
1000b2fc:	0026      	movs	r6, r4
1000b2fe:	3478      	adds	r4, #120	; 0x78
1000b300:	3677      	adds	r6, #119	; 0x77
1000b302:	00e4      	lsls	r4, r4, #3
1000b304:	e79c      	b.n	1000b240 <_free_r+0xc4>
1000b306:	4c0d      	ldr	r4, [pc, #52]	; (1000b33c <_free_r+0x1c0>)
1000b308:	42a3      	cmp	r3, r4
1000b30a:	d805      	bhi.n	1000b318 <_free_r+0x19c>
1000b30c:	0c94      	lsrs	r4, r2, #18
1000b30e:	0026      	movs	r6, r4
1000b310:	347d      	adds	r4, #125	; 0x7d
1000b312:	367c      	adds	r6, #124	; 0x7c
1000b314:	00e4      	lsls	r4, r4, #3
1000b316:	e793      	b.n	1000b240 <_free_r+0xc4>
1000b318:	24fe      	movs	r4, #254	; 0xfe
1000b31a:	267e      	movs	r6, #126	; 0x7e
1000b31c:	00a4      	lsls	r4, r4, #2
1000b31e:	e78f      	b.n	1000b240 <_free_r+0xc4>
1000b320:	0033      	movs	r3, r6
1000b322:	4313      	orrs	r3, r2
1000b324:	604b      	str	r3, [r1, #4]
1000b326:	603a      	str	r2, [r7, #0]
1000b328:	e77c      	b.n	1000b224 <_free_r+0xa8>
1000b32a:	46c0      	nop			; (mov r8, r8)
1000b32c:	200008b8 	.word	0x200008b8
1000b330:	200008c0 	.word	0x200008c0
1000b334:	200008b4 	.word	0x200008b4
1000b338:	20001194 	.word	0x20001194
1000b33c:	00000554 	.word	0x00000554

1000b340 <_fini>:
1000b340:	b5f8      	push	{r3, r4, r5, r6, r7, lr}
1000b342:	46c0      	nop			; (mov r8, r8)
1000b344:	0000      	movs	r0, r0
	...

1000b348 <__flash_do_cmd_veneer>:
1000b348:	b401      	push	{r0}
1000b34a:	4802      	ldr	r0, [pc, #8]	; (1000b354 <__flash_do_cmd_veneer+0xc>)
1000b34c:	4684      	mov	ip, r0
1000b34e:	bc01      	pop	{r0}
1000b350:	4760      	bx	ip
1000b352:	bf00      	nop
1000b354:	2000028d 	.word	0x2000028d

1000b358 <__mutex_exit_veneer>:
1000b358:	b401      	push	{r0}
1000b35a:	4802      	ldr	r0, [pc, #8]	; (1000b364 <__mutex_exit_veneer+0xc>)
1000b35c:	4684      	mov	ip, r0
1000b35e:	bc01      	pop	{r0}
1000b360:	4760      	bx	ip
1000b362:	bf00      	nop
1000b364:	200001ed 	.word	0x200001ed

1000b368 <____aeabi_ldiv0_veneer>:
1000b368:	b401      	push	{r0}
1000b36a:	4802      	ldr	r0, [pc, #8]	; (1000b374 <____aeabi_ldiv0_veneer+0xc>)
1000b36c:	4684      	mov	ip, r0
1000b36e:	bc01      	pop	{r0}
1000b370:	4760      	bx	ip
1000b372:	bf00      	nop
1000b374:	20000351 	.word	0x20000351

1000b378 <____aeabi_idiv0_veneer>:
1000b378:	b401      	push	{r0}
1000b37a:	4802      	ldr	r0, [pc, #8]	; (1000b384 <____aeabi_idiv0_veneer+0xc>)
1000b37c:	4684      	mov	ip, r0
1000b37e:	bc01      	pop	{r0}
1000b380:	4760      	bx	ip
1000b382:	bf00      	nop
1000b384:	20000351 	.word	0x20000351

1000b388 <__mutex_try_enter_veneer>:
1000b388:	b401      	push	{r0}
1000b38a:	4802      	ldr	r0, [pc, #8]	; (1000b394 <__mutex_try_enter_veneer+0xc>)
1000b38c:	4684      	mov	ip, r0
1000b38e:	bc01      	pop	{r0}
1000b390:	4760      	bx	ip
1000b392:	bf00      	nop
1000b394:	20000109 	.word	0x20000109

1000b398 <__mutex_enter_timeout_ms_veneer>:
1000b398:	b401      	push	{r0}
1000b39a:	4802      	ldr	r0, [pc, #8]	; (1000b3a4 <__mutex_enter_timeout_ms_veneer+0xc>)
1000b39c:	4684      	mov	ip, r0
1000b39e:	bc01      	pop	{r0}
1000b3a0:	4760      	bx	ip
1000b3a2:	bf00      	nop
1000b3a4:	2000014d 	.word	0x2000014d

1000b3a8 <__mutex_enter_blocking_veneer>:
1000b3a8:	b401      	push	{r0}
1000b3aa:	4802      	ldr	r0, [pc, #8]	; (1000b3b4 <__mutex_enter_blocking_veneer+0xc>)
1000b3ac:	4684      	mov	ip, r0
1000b3ae:	bc01      	pop	{r0}
1000b3b0:	4760      	bx	ip
1000b3b2:	bf00      	nop
1000b3b4:	200000c1 	.word	0x200000c1

Disassembly of section .data:

200000c0 <mutex_enter_blocking>:
200000c0:	23d0      	movs	r3, #208	; 0xd0
200000c2:	b530      	push	{r4, r5, lr}
200000c4:	2500      	movs	r5, #0
200000c6:	061b      	lsls	r3, r3, #24
200000c8:	2400      	movs	r4, #0
200000ca:	575d      	ldrsb	r5, [r3, r5]
200000cc:	e006      	b.n	200000dc <mutex_enter_blocking+0x1c>
200000ce:	6803      	ldr	r3, [r0, #0]
200000d0:	f3bf 8f5f 	dmb	sy
200000d4:	601c      	str	r4, [r3, #0]
200000d6:	f381 8810 	msr	PRIMASK, r1
200000da:	bf20      	wfe
200000dc:	6802      	ldr	r2, [r0, #0]
200000de:	f3ef 8110 	mrs	r1, PRIMASK
200000e2:	b672      	cpsid	i
200000e4:	6813      	ldr	r3, [r2, #0]
200000e6:	2b00      	cmp	r3, #0
200000e8:	d0fc      	beq.n	200000e4 <mutex_enter_blocking+0x24>
200000ea:	f3bf 8f5f 	dmb	sy
200000ee:	7903      	ldrb	r3, [r0, #4]
200000f0:	2b7f      	cmp	r3, #127	; 0x7f
200000f2:	d9ec      	bls.n	200000ce <mutex_enter_blocking+0xe>
200000f4:	7105      	strb	r5, [r0, #4]
200000f6:	6803      	ldr	r3, [r0, #0]
200000f8:	f3bf 8f5f 	dmb	sy
200000fc:	2200      	movs	r2, #0
200000fe:	601a      	str	r2, [r3, #0]
20000100:	f381 8810 	msr	PRIMASK, r1
20000104:	bd30      	pop	{r4, r5, pc}
20000106:	46c0      	nop			; (mov r8, r8)

20000108 <mutex_try_enter>:
20000108:	0003      	movs	r3, r0
2000010a:	6800      	ldr	r0, [r0, #0]
2000010c:	f3ef 8c10 	mrs	ip, PRIMASK
20000110:	b672      	cpsid	i
20000112:	6802      	ldr	r2, [r0, #0]
20000114:	2a00      	cmp	r2, #0
20000116:	d0fc      	beq.n	20000112 <mutex_try_enter+0xa>
20000118:	f3bf 8f5f 	dmb	sy
2000011c:	2204      	movs	r2, #4
2000011e:	569a      	ldrsb	r2, [r3, r2]
20000120:	2a00      	cmp	r2, #0
20000122:	db0b      	blt.n	2000013c <mutex_try_enter+0x34>
20000124:	2900      	cmp	r1, #0
20000126:	d00f      	beq.n	20000148 <mutex_try_enter+0x40>
20000128:	2000      	movs	r0, #0
2000012a:	600a      	str	r2, [r1, #0]
2000012c:	681b      	ldr	r3, [r3, #0]
2000012e:	f3bf 8f5f 	dmb	sy
20000132:	2200      	movs	r2, #0
20000134:	601a      	str	r2, [r3, #0]
20000136:	f38c 8810 	msr	PRIMASK, ip
2000013a:	4770      	bx	lr
2000013c:	22d0      	movs	r2, #208	; 0xd0
2000013e:	0612      	lsls	r2, r2, #24
20000140:	6812      	ldr	r2, [r2, #0]
20000142:	2001      	movs	r0, #1
20000144:	711a      	strb	r2, [r3, #4]
20000146:	e7f1      	b.n	2000012c <mutex_try_enter+0x24>
20000148:	2000      	movs	r0, #0
2000014a:	e7ef      	b.n	2000012c <mutex_try_enter+0x24>

2000014c <mutex_enter_timeout_ms>:
2000014c:	b5f0      	push	{r4, r5, r6, r7, lr}
2000014e:	46c6      	mov	lr, r8
20000150:	b500      	push	{lr}
20000152:	b082      	sub	sp, #8
20000154:	000c      	movs	r4, r1
20000156:	0007      	movs	r7, r0
20000158:	f000 f8fe 	bl	20000358 <__time_us_64_veneer>
2000015c:	22fa      	movs	r2, #250	; 0xfa
2000015e:	2300      	movs	r3, #0
20000160:	9000      	str	r0, [sp, #0]
20000162:	9101      	str	r1, [sp, #4]
20000164:	0020      	movs	r0, r4
20000166:	0092      	lsls	r2, r2, #2
20000168:	2100      	movs	r1, #0
2000016a:	f000 f905 	bl	20000378 <____wrap___aeabi_lmul_veneer>
2000016e:	9a00      	ldr	r2, [sp, #0]
20000170:	9b01      	ldr	r3, [sp, #4]
20000172:	0014      	movs	r4, r2
20000174:	001d      	movs	r5, r3
20000176:	1824      	adds	r4, r4, r0
20000178:	414d      	adcs	r5, r1
2000017a:	42ab      	cmp	r3, r5
2000017c:	d82f      	bhi.n	200001de <mutex_enter_timeout_ms+0x92>
2000017e:	d02b      	beq.n	200001d8 <mutex_enter_timeout_ms+0x8c>
20000180:	23d0      	movs	r3, #208	; 0xd0
20000182:	061b      	lsls	r3, r3, #24
20000184:	681b      	ldr	r3, [r3, #0]
20000186:	2600      	movs	r6, #0
20000188:	4698      	mov	r8, r3
2000018a:	e00b      	b.n	200001a4 <mutex_enter_timeout_ms+0x58>
2000018c:	683b      	ldr	r3, [r7, #0]
2000018e:	f3bf 8f5f 	dmb	sy
20000192:	601e      	str	r6, [r3, #0]
20000194:	f381 8810 	msr	PRIMASK, r1
20000198:	0020      	movs	r0, r4
2000019a:	0029      	movs	r1, r5
2000019c:	f000 f8e4 	bl	20000368 <__best_effort_wfe_or_timeout_veneer>
200001a0:	2800      	cmp	r0, #0
200001a2:	d120      	bne.n	200001e6 <mutex_enter_timeout_ms+0x9a>
200001a4:	683a      	ldr	r2, [r7, #0]
200001a6:	f3ef 8110 	mrs	r1, PRIMASK
200001aa:	b672      	cpsid	i
200001ac:	6813      	ldr	r3, [r2, #0]
200001ae:	2b00      	cmp	r3, #0
200001b0:	d0fc      	beq.n	200001ac <mutex_enter_timeout_ms+0x60>
200001b2:	f3bf 8f5f 	dmb	sy
200001b6:	793b      	ldrb	r3, [r7, #4]
200001b8:	2b7f      	cmp	r3, #127	; 0x7f
200001ba:	d9e7      	bls.n	2000018c <mutex_enter_timeout_ms+0x40>
200001bc:	4643      	mov	r3, r8
200001be:	713b      	strb	r3, [r7, #4]
200001c0:	683b      	ldr	r3, [r7, #0]
200001c2:	f3bf 8f5f 	dmb	sy
200001c6:	2200      	movs	r2, #0
200001c8:	601a      	str	r2, [r3, #0]
200001ca:	f381 8810 	msr	PRIMASK, r1
200001ce:	2001      	movs	r0, #1
200001d0:	b002      	add	sp, #8
200001d2:	bc80      	pop	{r7}
200001d4:	46b8      	mov	r8, r7
200001d6:	bdf0      	pop	{r4, r5, r6, r7, pc}
200001d8:	9b00      	ldr	r3, [sp, #0]
200001da:	42a3      	cmp	r3, r4
200001dc:	d9d0      	bls.n	20000180 <mutex_enter_timeout_ms+0x34>
200001de:	2401      	movs	r4, #1
200001e0:	4264      	negs	r4, r4
200001e2:	17e5      	asrs	r5, r4, #31
200001e4:	e7cc      	b.n	20000180 <mutex_enter_timeout_ms+0x34>
200001e6:	2000      	movs	r0, #0
200001e8:	e7f2      	b.n	200001d0 <mutex_enter_timeout_ms+0x84>
200001ea:	46c0      	nop			; (mov r8, r8)

200001ec <mutex_exit>:
200001ec:	6802      	ldr	r2, [r0, #0]
200001ee:	f3ef 8110 	mrs	r1, PRIMASK
200001f2:	b672      	cpsid	i
200001f4:	6813      	ldr	r3, [r2, #0]
200001f6:	2b00      	cmp	r3, #0
200001f8:	d0fc      	beq.n	200001f4 <mutex_exit+0x8>
200001fa:	f3bf 8f5f 	dmb	sy
200001fe:	23ff      	movs	r3, #255	; 0xff
20000200:	7103      	strb	r3, [r0, #4]
20000202:	6803      	ldr	r3, [r0, #0]
20000204:	f3bf 8f5f 	dmb	sy
20000208:	2200      	movs	r2, #0
2000020a:	601a      	str	r2, [r3, #0]
2000020c:	f381 8810 	msr	PRIMASK, r1
20000210:	bf40      	sev
20000212:	4770      	bx	lr

20000214 <flash_init_boot2_copyout>:
20000214:	4808      	ldr	r0, [pc, #32]	; (20000238 <flash_init_boot2_copyout+0x24>)
20000216:	b510      	push	{r4, lr}
20000218:	7803      	ldrb	r3, [r0, #0]
2000021a:	2b00      	cmp	r3, #0
2000021c:	d10a      	bne.n	20000234 <flash_init_boot2_copyout+0x20>
2000021e:	2380      	movs	r3, #128	; 0x80
20000220:	4906      	ldr	r1, [pc, #24]	; (2000023c <flash_init_boot2_copyout+0x28>)
20000222:	4a07      	ldr	r2, [pc, #28]	; (20000240 <flash_init_boot2_copyout+0x2c>)
20000224:	055b      	lsls	r3, r3, #21
20000226:	681c      	ldr	r4, [r3, #0]
20000228:	50cc      	str	r4, [r1, r3]
2000022a:	3304      	adds	r3, #4
2000022c:	4293      	cmp	r3, r2
2000022e:	d1fa      	bne.n	20000226 <flash_init_boot2_copyout+0x12>
20000230:	2301      	movs	r3, #1
20000232:	7003      	strb	r3, [r0, #0]
20000234:	bd10      	pop	{r4, pc}
20000236:	46c0      	nop			; (mov r8, r8)
20000238:	20001c48 	.word	0x20001c48
2000023c:	10001630 	.word	0x10001630
20000240:	10000100 	.word	0x10000100

20000244 <flash_enable_xip_via_boot2>:
20000244:	b510      	push	{r4, lr}
20000246:	4b02      	ldr	r3, [pc, #8]	; (20000250 <flash_enable_xip_via_boot2+0xc>)
20000248:	3301      	adds	r3, #1
2000024a:	4798      	blx	r3
2000024c:	bd10      	pop	{r4, pc}
2000024e:	46c0      	nop			; (mov r8, r8)
20000250:	20001630 	.word	0x20001630

20000254 <flash_cs_force.constprop.0>:
20000254:	4b03      	ldr	r3, [pc, #12]	; (20000264 <flash_cs_force.constprop.0+0x10>)
20000256:	681a      	ldr	r2, [r3, #0]
20000258:	23c0      	movs	r3, #192	; 0xc0
2000025a:	009b      	lsls	r3, r3, #2
2000025c:	4393      	bics	r3, r2
2000025e:	4a02      	ldr	r2, [pc, #8]	; (20000268 <flash_cs_force.constprop.0+0x14>)
20000260:	6013      	str	r3, [r2, #0]
20000262:	4770      	bx	lr
20000264:	4001800c 	.word	0x4001800c
20000268:	4001900c 	.word	0x4001900c

2000026c <flash_cs_force.constprop.1>:
2000026c:	4b05      	ldr	r3, [pc, #20]	; (20000284 <flash_cs_force.constprop.1+0x18>)
2000026e:	681a      	ldr	r2, [r3, #0]
20000270:	2380      	movs	r3, #128	; 0x80
20000272:	009b      	lsls	r3, r3, #2
20000274:	4053      	eors	r3, r2
20000276:	22c0      	movs	r2, #192	; 0xc0
20000278:	0092      	lsls	r2, r2, #2
2000027a:	4013      	ands	r3, r2
2000027c:	4a02      	ldr	r2, [pc, #8]	; (20000288 <flash_cs_force.constprop.1+0x1c>)
2000027e:	6013      	str	r3, [r2, #0]
20000280:	4770      	bx	lr
20000282:	46c0      	nop			; (mov r8, r8)
20000284:	4001800c 	.word	0x4001800c
20000288:	4001900c 	.word	0x4001900c

2000028c <flash_do_cmd>:
2000028c:	2314      	movs	r3, #20
2000028e:	b5f0      	push	{r4, r5, r6, r7, lr}
20000290:	46d6      	mov	lr, sl
20000292:	464f      	mov	r7, r9
20000294:	4646      	mov	r6, r8
20000296:	469a      	mov	sl, r3
20000298:	4681      	mov	r9, r0
2000029a:	8818      	ldrh	r0, [r3, #0]
2000029c:	3304      	adds	r3, #4
2000029e:	b5c0      	push	{r6, r7, lr}
200002a0:	4698      	mov	r8, r3
200002a2:	000e      	movs	r6, r1
200002a4:	881b      	ldrh	r3, [r3, #0]
200002a6:	4927      	ldr	r1, [pc, #156]	; (20000344 <flash_do_cmd+0xb8>)
200002a8:	0014      	movs	r4, r2
200002aa:	4798      	blx	r3
200002ac:	4653      	mov	r3, sl
200002ae:	0007      	movs	r7, r0
200002b0:	8818      	ldrh	r0, [r3, #0]
200002b2:	4643      	mov	r3, r8
200002b4:	4924      	ldr	r1, [pc, #144]	; (20000348 <flash_do_cmd+0xbc>)
200002b6:	881b      	ldrh	r3, [r3, #0]
200002b8:	4798      	blx	r3
200002ba:	4653      	mov	r3, sl
200002bc:	0005      	movs	r5, r0
200002be:	8818      	ldrh	r0, [r3, #0]
200002c0:	4643      	mov	r3, r8
200002c2:	4922      	ldr	r1, [pc, #136]	; (2000034c <flash_do_cmd+0xc0>)
200002c4:	881b      	ldrh	r3, [r3, #0]
200002c6:	4798      	blx	r3
200002c8:	4680      	mov	r8, r0
200002ca:	f7ff ffa3 	bl	20000214 <flash_init_boot2_copyout>
200002ce:	47b8      	blx	r7
200002d0:	47a8      	blx	r5
200002d2:	f7ff ffcb 	bl	2000026c <flash_cs_force.constprop.1>
200002d6:	2c00      	cmp	r4, #0
200002d8:	d01b      	beq.n	20000312 <flash_do_cmd+0x86>
200002da:	21c0      	movs	r1, #192	; 0xc0
200002dc:	0022      	movs	r2, r4
200002de:	2708      	movs	r7, #8
200002e0:	2002      	movs	r0, #2
200002e2:	0549      	lsls	r1, r1, #21
200002e4:	003d      	movs	r5, r7
200002e6:	6a8b      	ldr	r3, [r1, #40]	; 0x28
200002e8:	401d      	ands	r5, r3
200002ea:	4218      	tst	r0, r3
200002ec:	d00b      	beq.n	20000306 <flash_do_cmd+0x7a>
200002ee:	2c00      	cmp	r4, #0
200002f0:	d009      	beq.n	20000306 <flash_do_cmd+0x7a>
200002f2:	1b13      	subs	r3, r2, r4
200002f4:	2b0d      	cmp	r3, #13
200002f6:	d81f      	bhi.n	20000338 <flash_do_cmd+0xac>
200002f8:	464b      	mov	r3, r9
200002fa:	781b      	ldrb	r3, [r3, #0]
200002fc:	3c01      	subs	r4, #1
200002fe:	660b      	str	r3, [r1, #96]	; 0x60
20000300:	2301      	movs	r3, #1
20000302:	469c      	mov	ip, r3
20000304:	44e1      	add	r9, ip
20000306:	0023      	movs	r3, r4
20000308:	2d00      	cmp	r5, #0
2000030a:	d10c      	bne.n	20000326 <flash_do_cmd+0x9a>
2000030c:	4313      	orrs	r3, r2
2000030e:	2b00      	cmp	r3, #0
20000310:	d1e8      	bne.n	200002e4 <flash_do_cmd+0x58>
20000312:	f7ff ff9f 	bl	20000254 <flash_cs_force.constprop.0>
20000316:	47c0      	blx	r8
20000318:	f7ff ff94 	bl	20000244 <flash_enable_xip_via_boot2>
2000031c:	bce0      	pop	{r5, r6, r7}
2000031e:	46ba      	mov	sl, r7
20000320:	46b1      	mov	r9, r6
20000322:	46a8      	mov	r8, r5
20000324:	bdf0      	pop	{r4, r5, r6, r7, pc}
20000326:	2a00      	cmp	r2, #0
20000328:	d0f1      	beq.n	2000030e <flash_do_cmd+0x82>
2000032a:	6e0b      	ldr	r3, [r1, #96]	; 0x60
2000032c:	3a01      	subs	r2, #1
2000032e:	7033      	strb	r3, [r6, #0]
20000330:	0013      	movs	r3, r2
20000332:	3601      	adds	r6, #1
20000334:	4323      	orrs	r3, r4
20000336:	e7ea      	b.n	2000030e <flash_do_cmd+0x82>
20000338:	2d00      	cmp	r5, #0
2000033a:	d0d3      	beq.n	200002e4 <flash_do_cmd+0x58>
2000033c:	2a00      	cmp	r2, #0
2000033e:	d0d1      	beq.n	200002e4 <flash_do_cmd+0x58>
20000340:	e7f3      	b.n	2000032a <flash_do_cmd+0x9e>
20000342:	46c0      	nop			; (mov r8, r8)
20000344:	00004649 	.word	0x00004649
20000348:	00005845 	.word	0x00005845
2000034c:	00004346 	.word	0x00004346

20000350 <__aeabi_idiv0>:
20000350:	4770      	bx	lr
20000352:	46c0      	nop			; (mov r8, r8)
20000354:	0000      	movs	r0, r0
	...

20000358 <__time_us_64_veneer>:
20000358:	b401      	push	{r0}
2000035a:	4802      	ldr	r0, [pc, #8]	; (20000364 <__time_us_64_veneer+0xc>)
2000035c:	4684      	mov	ip, r0
2000035e:	bc01      	pop	{r0}
20000360:	4760      	bx	ip
20000362:	bf00      	nop
20000364:	10001a95 	.word	0x10001a95

20000368 <__best_effort_wfe_or_timeout_veneer>:
20000368:	b401      	push	{r0}
2000036a:	4802      	ldr	r0, [pc, #8]	; (20000374 <__best_effort_wfe_or_timeout_veneer+0xc>)
2000036c:	4684      	mov	ip, r0
2000036e:	bc01      	pop	{r0}
20000370:	4760      	bx	ip
20000372:	bf00      	nop
20000374:	100018f1 	.word	0x100018f1

20000378 <____wrap___aeabi_lmul_veneer>:
20000378:	b401      	push	{r0}
2000037a:	4802      	ldr	r0, [pc, #8]	; (20000384 <____wrap___aeabi_lmul_veneer+0xc>)
2000037c:	4684      	mov	ip, r0
2000037e:	bc01      	pop	{r0}
20000380:	4760      	bx	ip
20000382:	bf00      	nop
20000384:	10004941 	.word	0x10004941

20000388 <current_humi>:
20000388:	00000063                                c...

2000038c <current_temp>:
2000038c:	000003e7                                ....

20000390 <cycle_btn_state.0>:
20000390:	                                         .

20000391 <down_btn_state.1>:
20000391:	                                         .

20000392 <up_btn_state.2>:
20000392:	                                         .

20000393 <striped_spin_lock_num>:
20000393:	                                         .

20000394 <irq_handler_chain_slots>:
20000394:	00000000 	.word	0x00000000
20000398:	00010000 	.word	0x00010000
	...
200003a4:	00020000 	.word	0x00020000
	...
200003b0:	00030000 	.word	0x00030000
	...
200003bc:	00ff0000 	.word	0x00ff0000
200003c0:	00000000 	.word	0x00000000

200003c4 <irq_handler_chain_first_slot>:
200003c4:	b500      	push	{lr}
200003c6:	6848      	ldr	r0, [r1, #4]
200003c8:	3101      	adds	r1, #1
200003ca:	468e      	mov	lr, r1
200003cc:	4700      	bx	r0

200003ce <irq_handler_chain_remove_tail>:
200003ce:	4670      	mov	r0, lr
200003d0:	3809      	subs	r0, #9
200003d2:	4901      	ldr	r1, [pc, #4]	; (200003d8 <irq_handler_chain_remove_tail+0xa>)
200003d4:	4788      	blx	r1
200003d6:	bd00      	pop	{pc}
200003d8:	10001191 	.word	0x10001191

200003dc <default_alarm_pool>:
200003dc:	200003f4 00000000 20000d30 2000175c     ... ....0.. \.. 
	...

200003f4 <default_alarm_pool_heap>:
200003f4:	2000176c 00000000 00000000 00000010     l.. ............
	...

20000410 <aeabi_bits_funcs>:
20000410:	00003350 	.word	0x00003350
20000414:	0000334c 	.word	0x0000334c
20000418:	00003354 	.word	0x00003354
2000041c:	00003352 	.word	0x00003352

20000420 <aeabi_bits_funcs_end>:
20000420:	0000534d 	.word	0x0000534d
20000424:	0000434d 	.word	0x0000434d
20000428:	00003453 	.word	0x00003453
2000042c:	00003443 	.word	0x00003443

20000430 <stdio_usb>:
20000430:	1000512d 00000000 100050c5 00000000     -Q.......P......
20000440:	00000100                                ....

20000444 <ep_dir_string>:
20000444:	1000b934 1000b938                       4...8...

2000044c <_usbd_qdef>:
2000044c:	20001560 000c0010 ffe00000 0000001f     `.. ............
	...

20000470 <i2c0_inst>:
20000470:	40044000 00000000                       .@.@....

20000478 <uxTopUsedPriority>:
20000478:	00000004                                ....

2000047c <uxCriticalNesting>:
2000047c:	aaaaaaaa                                ....

20000480 <_impure_ptr>:
20000480:	20000488 00000000                       ... ....

20000488 <impure_data>:
20000488:	00000000 20000774 200007dc 20000844     ....t.. ... D.. 
	...
20000530:	00000001 00000000 abcd330e e66d1234     .........3..4.m.
20000540:	0005deec 0000000b 00000000 00000000     ................
	...

200008b0 <__malloc_sbrk_base>:
200008b0:	ffffffff                                ....

200008b4 <__malloc_trim_threshold>:
200008b4:	00020000                                ....

200008b8 <__malloc_av_>:
	...
200008c0:	200008b8 200008b8 200008c0 200008c0     ... ... ... ... 
200008d0:	200008c8 200008c8 200008d0 200008d0     ... ... ... ... 
200008e0:	200008d8 200008d8 200008e0 200008e0     ... ... ... ... 
200008f0:	200008e8 200008e8 200008f0 200008f0     ... ... ... ... 
20000900:	200008f8 200008f8 20000900 20000900     ... ... ... ... 
20000910:	20000908 20000908 20000910 20000910     ... ... ... ... 
20000920:	20000918 20000918 20000920 20000920     ... ...  ..  .. 
20000930:	20000928 20000928 20000930 20000930     (.. (.. 0.. 0.. 
20000940:	20000938 20000938 20000940 20000940     8.. 8.. @.. @.. 
20000950:	20000948 20000948 20000950 20000950     H.. H.. P.. P.. 
20000960:	20000958 20000958 20000960 20000960     X.. X.. `.. `.. 
20000970:	20000968 20000968 20000970 20000970     h.. h.. p.. p.. 
20000980:	20000978 20000978 20000980 20000980     x.. x.. ... ... 
20000990:	20000988 20000988 20000990 20000990     ... ... ... ... 
200009a0:	20000998 20000998 200009a0 200009a0     ... ... ... ... 
200009b0:	200009a8 200009a8 200009b0 200009b0     ... ... ... ... 
200009c0:	200009b8 200009b8 200009c0 200009c0     ... ... ... ... 
200009d0:	200009c8 200009c8 200009d0 200009d0     ... ... ... ... 
200009e0:	200009d8 200009d8 200009e0 200009e0     ... ... ... ... 
200009f0:	200009e8 200009e8 200009f0 200009f0     ... ... ... ... 
20000a00:	200009f8 200009f8 20000a00 20000a00     ... ... ... ... 
20000a10:	20000a08 20000a08 20000a10 20000a10     ... ... ... ... 
20000a20:	20000a18 20000a18 20000a20 20000a20     ... ...  ..  .. 
20000a30:	20000a28 20000a28 20000a30 20000a30     (.. (.. 0.. 0.. 
20000a40:	20000a38 20000a38 20000a40 20000a40     8.. 8.. @.. @.. 
20000a50:	20000a48 20000a48 20000a50 20000a50     H.. H.. P.. P.. 
20000a60:	20000a58 20000a58 20000a60 20000a60     X.. X.. `.. `.. 
20000a70:	20000a68 20000a68 20000a70 20000a70     h.. h.. p.. p.. 
20000a80:	20000a78 20000a78 20000a80 20000a80     x.. x.. ... ... 
20000a90:	20000a88 20000a88 20000a90 20000a90     ... ... ... ... 
20000aa0:	20000a98 20000a98 20000aa0 20000aa0     ... ... ... ... 
20000ab0:	20000aa8 20000aa8 20000ab0 20000ab0     ... ... ... ... 
20000ac0:	20000ab8 20000ab8 20000ac0 20000ac0     ... ... ... ... 
20000ad0:	20000ac8 20000ac8 20000ad0 20000ad0     ... ... ... ... 
20000ae0:	20000ad8 20000ad8 20000ae0 20000ae0     ... ... ... ... 
20000af0:	20000ae8 20000ae8 20000af0 20000af0     ... ... ... ... 
20000b00:	20000af8 20000af8 20000b00 20000b00     ... ... ... ... 
20000b10:	20000b08 20000b08 20000b10 20000b10     ... ... ... ... 
20000b20:	20000b18 20000b18 20000b20 20000b20     ... ...  ..  .. 
20000b30:	20000b28 20000b28 20000b30 20000b30     (.. (.. 0.. 0.. 
20000b40:	20000b38 20000b38 20000b40 20000b40     8.. 8.. @.. @.. 
20000b50:	20000b48 20000b48 20000b50 20000b50     H.. H.. P.. P.. 
20000b60:	20000b58 20000b58 20000b60 20000b60     X.. X.. `.. `.. 
20000b70:	20000b68 20000b68 20000b70 20000b70     h.. h.. p.. p.. 
20000b80:	20000b78 20000b78 20000b80 20000b80     x.. x.. ... ... 
20000b90:	20000b88 20000b88 20000b90 20000b90     ... ... ... ... 
20000ba0:	20000b98 20000b98 20000ba0 20000ba0     ... ... ... ... 
20000bb0:	20000ba8 20000ba8 20000bb0 20000bb0     ... ... ... ... 
20000bc0:	20000bb8 20000bb8 20000bc0 20000bc0     ... ... ... ... 
20000bd0:	20000bc8 20000bc8 20000bd0 20000bd0     ... ... ... ... 
20000be0:	20000bd8 20000bd8 20000be0 20000be0     ... ... ... ... 
20000bf0:	20000be8 20000be8 20000bf0 20000bf0     ... ... ... ... 
20000c00:	20000bf8 20000bf8 20000c00 20000c00     ... ... ... ... 
20000c10:	20000c08 20000c08 20000c10 20000c10     ... ... ... ... 
20000c20:	20000c18 20000c18 20000c20 20000c20     ... ...  ..  .. 
20000c30:	20000c28 20000c28 20000c30 20000c30     (.. (.. 0.. 0.. 
20000c40:	20000c38 20000c38 20000c40 20000c40     8.. 8.. @.. @.. 
20000c50:	20000c48 20000c48 20000c50 20000c50     H.. H.. P.. P.. 
20000c60:	20000c58 20000c58 20000c60 20000c60     X.. X.. `.. `.. 
20000c70:	20000c68 20000c68 20000c70 20000c70     h.. h.. p.. p.. 
20000c80:	20000c78 20000c78 20000c80 20000c80     x.. x.. ... ... 
20000c90:	20000c88 20000c88 20000c90 20000c90     ... ... ... ... 
20000ca0:	20000c98 20000c98 20000ca0 20000ca0     ... ... ... ... 
20000cb0:	20000ca8 20000ca8 20000cb0 20000cb0     ... ... ... ... 

20000cc0 <print_mutex>:
	...

20000cc8 <__mutex_array_end>:
20000cc8:	10004b95 	.word	0x10004b95
20000ccc:	10003bbd 	.word	0x10003bbd
20000cd0:	100042f1 	.word	0x100042f1
20000cd4:	10004a91 	.word	0x10004a91

20000cd8 <__frame_dummy_init_array_entry>:
20000cd8:	10000339 10007781                       9....w..
